
gprof.elf:     file format elf32-littlearm


Disassembly of section .text:

00008000 <__code_start__>:
    8000:	e3a0d302 	mov	sp, #134217728	; 0x8000000
    8004:	e3a0b000 	mov	fp, #0, 0
    8008:	eb000418 	bl	9070 <_cstart>
    800c:	eb000433 	bl	90e0 <rpi_reboot>

00008010 <PUT32>:
    8010:	e5801000 	str	r1, [r0]
    8014:	e12fff1e 	bx	lr

00008018 <GET32>:
    8018:	e5900000 	ldr	r0, [r0]
    801c:	e12fff1e 	bx	lr

00008020 <interrupt_vector>:
    8020:	e92d4070 	push	{r4, r5, r6, lr}
    8024:	e1a04000 	mov	r4, r0
    8028:	eb00041b 	bl	909c <dev_barrier>
    802c:	e59f006c 	ldr	r0, [pc, #108]	; 80a0 <interrupt_vector+0x80>
    8030:	ebfffff8 	bl	8018 <GET32>
    8034:	e3100001 	tst	r0, #1, 0
    8038:	08bd8070 	popeq	{r4, r5, r6, pc}
    803c:	e59f5060 	ldr	r5, [pc, #96]	; 80a4 <interrupt_vector+0x84>
    8040:	e3a01001 	mov	r1, #1, 0
    8044:	e59f005c 	ldr	r0, [pc, #92]	; 80a8 <interrupt_vector+0x88>
    8048:	ebfffff0 	bl	8010 <PUT32>
    804c:	e5953000 	ldr	r3, [r5]
    8050:	e5952004 	ldr	r2, [r5, #4]
    8054:	e2833001 	add	r3, r3, #1, 0
    8058:	e3520000 	cmp	r2, #0, 0
    805c:	e5853000 	str	r3, [r5]
    8060:	1a000007 	bne	8084 <interrupt_vector+0x64>
    8064:	e59f3040 	ldr	r3, [pc, #64]	; 80ac <interrupt_vector+0x8c>
    8068:	e59f0040 	ldr	r0, [pc, #64]	; 80b0 <interrupt_vector+0x90>
    806c:	e5932000 	ldr	r2, [r3]
    8070:	e0440000 	sub	r0, r4, r0
    8074:	e3c00003 	bic	r0, r0, #3, 0
    8078:	e7923000 	ldr	r3, [r2, r0]
    807c:	e2833001 	add	r3, r3, #1, 0
    8080:	e7823000 	str	r3, [r2, r0]
    8084:	eb00042e 	bl	9144 <timer_get_usec>
    8088:	e5953008 	ldr	r3, [r5, #8]
    808c:	e5850008 	str	r0, [r5, #8]
    8090:	e3530000 	cmp	r3, #0, 0
    8094:	10403003 	subne	r3, r0, r3
    8098:	e585300c 	str	r3, [r5, #12]
    809c:	e8bd8070 	pop	{r4, r5, r6, pc}
    80a0:	2000b200 	andcs	fp, r0, r0, lsl #4
    80a4:	00009bdc 	ldrdeq	r9, [r0], -ip
    80a8:	2000b40c 	andcs	fp, r0, ip, lsl #8
    80ac:	00009ff4 	strdeq	r9, [r0], -r4
    80b0:	00008000 	andeq	r8, r0, r0

000080b4 <notmain>:
    80b4:	e92d4ff0 	push	{r4, r5, r6, r7, r8, r9, sl, fp, lr}
    80b8:	e24dd014 	sub	sp, sp, #20, 0
    80bc:	eb000444 	bl	91d4 <uart_init>
    80c0:	e59f0180 	ldr	r0, [pc, #384]	; 8248 <notmain+0x194>
    80c4:	eb0001e4 	bl	885c <printk>
    80c8:	e59f717c 	ldr	r7, [pc, #380]	; 824c <notmain+0x198>
    80cc:	eb00009d 	bl	8348 <int_init>
    80d0:	e59f5178 	ldr	r5, [pc, #376]	; 8250 <notmain+0x19c>
    80d4:	e59f0178 	ldr	r0, [pc, #376]	; 8254 <notmain+0x1a0>
    80d8:	eb0001df 	bl	885c <printk>
    80dc:	e3a00010 	mov	r0, #16, 0
    80e0:	eb00010a 	bl	8510 <timer_interrupt_init>
    80e4:	e0455007 	sub	r5, r5, r7
    80e8:	e59f0168 	ldr	r0, [pc, #360]	; 8258 <notmain+0x1a4>
    80ec:	eb0001da 	bl	885c <printk>
    80f0:	eb000191 	bl	873c <kmalloc_init>
    80f4:	e1a00005 	mov	r0, r5
    80f8:	eb000118 	bl	8560 <kmalloc>
    80fc:	e1a03000 	mov	r3, r0
    8100:	e59f4154 	ldr	r4, [pc, #340]	; 825c <notmain+0x1a8>
    8104:	e59f6154 	ldr	r6, [pc, #340]	; 8260 <notmain+0x1ac>
    8108:	e59f0148 	ldr	r0, [pc, #328]	; 8258 <notmain+0x1a4>
    810c:	e5863000 	str	r3, [r6]
    8110:	e5845010 	str	r5, [r4, #16]
    8114:	eb0001d0 	bl	885c <printk>
    8118:	eb000056 	bl	8278 <system_enable_interrupts>
    811c:	e59f0140 	ldr	r0, [pc, #320]	; 8264 <notmain+0x1b0>
    8120:	eb0001cd 	bl	885c <printk>
    8124:	e5943000 	ldr	r3, [r4]
    8128:	e58d700c 	str	r7, [sp, #12]
    812c:	e35300c7 	cmp	r3, #199, 0	; 0xc7
    8130:	8a000035 	bhi	820c <notmain+0x158>
    8134:	e5942000 	ldr	r2, [r4]
    8138:	e594300c 	ldr	r3, [r4, #12]
    813c:	e594100c 	ldr	r1, [r4, #12]
    8140:	e59f0120 	ldr	r0, [pc, #288]	; 8268 <notmain+0x1b4>
    8144:	e58d1000 	str	r1, [sp]
    8148:	e3a01000 	mov	r1, #0, 0
    814c:	eb0001c2 	bl	885c <printk>
    8150:	e5943000 	ldr	r3, [r4]
    8154:	e35300c7 	cmp	r3, #199, 0	; 0xc7
    8158:	8a00002b 	bhi	820c <notmain+0x158>
    815c:	e3a05001 	mov	r5, #1, 0
    8160:	e59f8100 	ldr	r8, [pc, #256]	; 8268 <notmain+0x1b4>
    8164:	e59fa100 	ldr	sl, [pc, #256]	; 826c <notmain+0x1b8>
    8168:	e59f9100 	ldr	r9, [pc, #256]	; 8270 <notmain+0x1bc>
    816c:	ea000002 	b	817c <notmain+0xc8>
    8170:	e5943000 	ldr	r3, [r4]
    8174:	e35300c7 	cmp	r3, #199, 0	; 0xc7
    8178:	8a000023 	bhi	820c <notmain+0x158>
    817c:	e5942000 	ldr	r2, [r4]
    8180:	e594300c 	ldr	r3, [r4, #12]
    8184:	e594100c 	ldr	r1, [r4, #12]
    8188:	e1a00008 	mov	r0, r8
    818c:	e58d1000 	str	r1, [sp]
    8190:	e1a01005 	mov	r1, r5
    8194:	e2855001 	add	r5, r5, #1, 0
    8198:	eb0001af 	bl	885c <printk>
    819c:	e0853085 	add	r3, r5, r5, lsl #1
    81a0:	e0833203 	add	r3, r3, r3, lsl #4
    81a4:	e0833403 	add	r3, r3, r3, lsl #8
    81a8:	e59f20c4 	ldr	r2, [pc, #196]	; 8274 <notmain+0x1c0>
    81ac:	e0833803 	add	r3, r3, r3, lsl #16
    81b0:	e0853103 	add	r3, r5, r3, lsl #2
    81b4:	e15200e3 	cmp	r2, r3, ror #1
    81b8:	3affffec 	bcc	8170 <notmain+0xbc>
    81bc:	e3a02001 	mov	r2, #1, 0
    81c0:	e5943010 	ldr	r3, [r4, #16]
    81c4:	e5842004 	str	r2, [r4, #4]
    81c8:	e1b03123 	lsrs	r3, r3, #2
    81cc:	13a07000 	movne	r7, #0, 0
    81d0:	159db00c 	ldrne	fp, [sp, #12]
    81d4:	0a000007 	beq	81f8 <notmain+0x144>
    81d8:	e5962000 	ldr	r2, [r6]
    81dc:	e7921107 	ldr	r1, [r2, r7, lsl #2]
    81e0:	e3510001 	cmp	r1, #1, 0
    81e4:	8a000009 	bhi	8210 <notmain+0x15c>
    81e8:	e2877001 	add	r7, r7, #1, 0
    81ec:	e1530007 	cmp	r3, r7
    81f0:	e28bb004 	add	fp, fp, #4, 0
    81f4:	8afffff7 	bhi	81d8 <notmain+0x124>
    81f8:	e3a03000 	mov	r3, #0, 0
    81fc:	e5843004 	str	r3, [r4, #4]
    8200:	e5943000 	ldr	r3, [r4]
    8204:	e35300c7 	cmp	r3, #199, 0	; 0xc7
    8208:	9affffdb 	bls	817c <notmain+0xc8>
    820c:	eb00038c 	bl	9044 <clean_reboot>
    8210:	e1a0000a 	mov	r0, sl
    8214:	eb000190 	bl	885c <printk>
    8218:	e1a0100b 	mov	r1, fp
    821c:	e1a00009 	mov	r0, r9
    8220:	eb00018d 	bl	885c <printk>
    8224:	e5943010 	ldr	r3, [r4, #16]
    8228:	e2877001 	add	r7, r7, #1, 0
    822c:	e1570123 	cmp	r7, r3, lsr #2
    8230:	e28bb004 	add	fp, fp, #4, 0
    8234:	e1a03123 	lsr	r3, r3, #2
    8238:	3affffe6 	bcc	81d8 <notmain+0x124>
    823c:	e3a03000 	mov	r3, #0, 0
    8240:	e5843004 	str	r3, [r4, #4]
    8244:	eaffffed 	b	8200 <notmain+0x14c>
    8248:	000095b8 			; <UNDEFINED> instruction: 0x000095b8
    824c:	00008000 	andeq	r8, r0, r0
    8250:	000095b8 			; <UNDEFINED> instruction: 0x000095b8
    8254:	000095d4 	ldrdeq	r9, [r0], -r4
    8258:	000095f4 	strdeq	r9, [r0], -r4
    825c:	00009bdc 	ldrdeq	r9, [r0], -ip
    8260:	00009ff4 	strdeq	r9, [r0], -r4
    8264:	00009614 	andeq	r9, r0, r4, lsl r6
    8268:	00009620 	andeq	r9, r0, r0, lsr #12
    826c:	00009648 	andeq	r9, r0, r8, asr #12
    8270:	00009654 	andeq	r9, r0, r4, asr r6
    8274:	19999999 	ldmibne	r9, {r0, r3, r4, r7, r8, fp, ip, pc}

00008278 <system_enable_interrupts>:
    8278:	e10f0000 	mrs	r0, CPSR
    827c:	e3c00080 	bic	r0, r0, #128, 0	; 0x80
    8280:	e121f000 	msr	CPSR_c, r0
    8284:	e12fff1e 	bx	lr

00008288 <system_disable_interrupts>:
    8288:	e10f0000 	mrs	r0, CPSR
    828c:	e3800080 	orr	r0, r0, #128, 0	; 0x80
    8290:	e121f000 	msr	CPSR_c, r0
    8294:	e12fff1e 	bx	lr

00008298 <_interrupt_table>:
    8298:	e59ff030 	ldr	pc, [pc, #48]	; 82d0 <_reset_asm>
    829c:	e59ff030 	ldr	pc, [pc, #48]	; 82d4 <_undefined_instruction_asm>
    82a0:	e59ff030 	ldr	pc, [pc, #48]	; 82d8 <_software_interrupt_asm>
    82a4:	e59ff030 	ldr	pc, [pc, #48]	; 82dc <_prefetch_abort_asm>
    82a8:	e59ff030 	ldr	pc, [pc, #48]	; 82e0 <_data_abort_asm>
    82ac:	e59ff01c 	ldr	pc, [pc, #28]	; 82d0 <_reset_asm>
    82b0:	e59ff02c 	ldr	pc, [pc, #44]	; 82e4 <_interrupt_asm>

000082b4 <fast_interrupt_asm>:
    82b4:	e24ee004 	sub	lr, lr, #4, 0
    82b8:	e52de004 	push	{lr}		; (str lr, [sp, #-4]!)
    82bc:	e92d1fff 	push	{r0, r1, r2, r3, r4, r5, r6, r7, r8, r9, sl, fp, ip}
    82c0:	e1a0000e 	mov	r0, lr
    82c4:	eb000037 	bl	83a8 <fast_interrupt_vector>
    82c8:	e8bd1fff 	pop	{r0, r1, r2, r3, r4, r5, r6, r7, r8, r9, sl, fp, ip}
    82cc:	e8fd8000 	ldm	sp!, {pc}^

000082d0 <_reset_asm>:
    82d0:	00008304 	andeq	r8, r0, r4, lsl #6

000082d4 <_undefined_instruction_asm>:
    82d4:	0000830c 	andeq	r8, r0, ip, lsl #6

000082d8 <_software_interrupt_asm>:
    82d8:	00008314 	andeq	r8, r0, r4, lsl r3

000082dc <_prefetch_abort_asm>:
    82dc:	0000831c 	andeq	r8, r0, ip, lsl r3

000082e0 <_data_abort_asm>:
    82e0:	00008324 	andeq	r8, r0, r4, lsr #6

000082e4 <_interrupt_asm>:
    82e4:	000082e8 	andeq	r8, r0, r8, ror #5

000082e8 <_interrupt_table_end>:
    82e8:	e3a0d409 	mov	sp, #150994944	; 0x9000000
    82ec:	e24ee004 	sub	lr, lr, #4, 0
    82f0:	e92d5fff 	push	{r0, r1, r2, r3, r4, r5, r6, r7, r8, r9, sl, fp, ip, lr}
    82f4:	e1a0000e 	mov	r0, lr
    82f8:	ebffff48 	bl	8020 <interrupt_vector>
    82fc:	e8bd5fff 	pop	{r0, r1, r2, r3, r4, r5, r6, r7, r8, r9, sl, fp, ip, lr}
    8300:	e1b0f00e 	movs	pc, lr

00008304 <reset_asm>:
    8304:	e24ee004 	sub	lr, lr, #4, 0
    8308:	eb000044 	bl	8420 <reset_vector>

0000830c <undefined_instruction_asm>:
    830c:	e24ee004 	sub	lr, lr, #4, 0
    8310:	eb000051 	bl	845c <undefined_instruction_vector>

00008314 <software_interrupt_asm>:
    8314:	e24ee004 	sub	lr, lr, #4, 0
    8318:	eb000031 	bl	83e4 <software_interrupt_vector>

0000831c <prefetch_abort_asm>:
    831c:	e24ee004 	sub	lr, lr, #4, 0
    8320:	eb00005c 	bl	8498 <prefetch_abort_vector>

00008324 <data_abort_asm>:
    8324:	e24ee004 	sub	lr, lr, #4, 0
    8328:	eb000069 	bl	84d4 <data_abort_vector>

0000832c <store_shadow_lr>:
    832c:	e8c04000 	stmia	r0, {lr}^
    8330:	e12fff1e 	bx	lr

00008334 <get_shadow_lr>:
    8334:	e10f1000 	mrs	r1, CPSR
    8338:	e321f013 	msr	CPSR_c, #19, 0
    833c:	e1a0000e 	mov	r0, lr
    8340:	e121f001 	msr	CPSR_c, r1
    8344:	e12fff1e 	bx	lr

00008348 <int_init>:
    8348:	e92d4010 	push	{r4, lr}
    834c:	e3e01000 	mvn	r1, #0, 0
    8350:	e59f0040 	ldr	r0, [pc, #64]	; 8398 <int_init+0x50>
    8354:	ebffff2d 	bl	8010 <PUT32>
    8358:	e59f003c 	ldr	r0, [pc, #60]	; 839c <int_init+0x54>
    835c:	e3e01000 	mvn	r1, #0, 0
    8360:	ebffff2a 	bl	8010 <PUT32>
    8364:	eb00034c 	bl	909c <dev_barrier>
    8368:	e59f0030 	ldr	r0, [pc, #48]	; 83a0 <int_init+0x58>
    836c:	e59f2030 	ldr	r2, [pc, #48]	; 83a4 <int_init+0x5c>
    8370:	e0400002 	sub	r0, r0, r2
    8374:	e1b03120 	lsrs	r3, r0, #2
    8378:	08bd8010 	popeq	{r4, pc}
    837c:	e3a03000 	mov	r3, #0, 0
    8380:	e2422004 	sub	r2, r2, #4, 0
    8384:	e5b21004 	ldr	r1, [r2, #4]!
    8388:	e4831004 	str	r1, [r3], #4
    838c:	e1530000 	cmp	r3, r0
    8390:	1afffffb 	bne	8384 <int_init+0x3c>
    8394:	e8bd8010 	pop	{r4, pc}
    8398:	2000b21c 	andcs	fp, r0, ip, lsl r2
    839c:	2000b220 	andcs	fp, r0, r0, lsr #4
    83a0:	000082e8 	andeq	r8, r0, r8, ror #5
    83a4:	00008298 	muleq	r0, r8, r2

000083a8 <fast_interrupt_vector>:
    83a8:	e52de004 	push	{lr}		; (str lr, [sp, #-4]!)
    83ac:	e59f3020 	ldr	r3, [pc, #32]	; 83d4 <fast_interrupt_vector+0x2c>
    83b0:	e24dd00c 	sub	sp, sp, #12, 0
    83b4:	e59f201c 	ldr	r2, [pc, #28]	; 83d8 <fast_interrupt_vector+0x30>
    83b8:	e59f101c 	ldr	r1, [pc, #28]	; 83dc <fast_interrupt_vector+0x34>
    83bc:	e58d0004 	str	r0, [sp, #4]
    83c0:	e58d3000 	str	r3, [sp]
    83c4:	e59f0014 	ldr	r0, [pc, #20]	; 83e0 <fast_interrupt_vector+0x38>
    83c8:	e3a03020 	mov	r3, #32, 0
    83cc:	eb000122 	bl	885c <printk>
    83d0:	eb00031b 	bl	9044 <clean_reboot>
    83d4:	000096b0 			; <UNDEFINED> instruction: 0x000096b0
    83d8:	0000970c 	andeq	r9, r0, ip, lsl #14
    83dc:	00009664 	andeq	r9, r0, r4, ror #12
    83e0:	00009674 	andeq	r9, r0, r4, ror r6

000083e4 <software_interrupt_vector>:
    83e4:	e52de004 	push	{lr}		; (str lr, [sp, #-4]!)
    83e8:	e59f3020 	ldr	r3, [pc, #32]	; 8410 <software_interrupt_vector+0x2c>
    83ec:	e24dd00c 	sub	sp, sp, #12, 0
    83f0:	e59f201c 	ldr	r2, [pc, #28]	; 8414 <software_interrupt_vector+0x30>
    83f4:	e59f101c 	ldr	r1, [pc, #28]	; 8418 <software_interrupt_vector+0x34>
    83f8:	e58d0004 	str	r0, [sp, #4]
    83fc:	e58d3000 	str	r3, [sp]
    8400:	e59f0014 	ldr	r0, [pc, #20]	; 841c <software_interrupt_vector+0x38>
    8404:	e3a03025 	mov	r3, #37, 0	; 0x25
    8408:	eb000113 	bl	885c <printk>
    840c:	eb00030c 	bl	9044 <clean_reboot>
    8410:	000096b8 			; <UNDEFINED> instruction: 0x000096b8
    8414:	00009724 	andeq	r9, r0, r4, lsr #14
    8418:	00009664 	andeq	r9, r0, r4, ror #12
    841c:	00009674 	andeq	r9, r0, r4, ror r6

00008420 <reset_vector>:
    8420:	e52de004 	push	{lr}		; (str lr, [sp, #-4]!)
    8424:	e59f3020 	ldr	r3, [pc, #32]	; 844c <reset_vector+0x2c>
    8428:	e24dd00c 	sub	sp, sp, #12, 0
    842c:	e59f201c 	ldr	r2, [pc, #28]	; 8450 <reset_vector+0x30>
    8430:	e59f101c 	ldr	r1, [pc, #28]	; 8454 <reset_vector+0x34>
    8434:	e58d0004 	str	r0, [sp, #4]
    8438:	e58d3000 	str	r3, [sp]
    843c:	e59f0014 	ldr	r0, [pc, #20]	; 8458 <reset_vector+0x38>
    8440:	e3a03028 	mov	r3, #40, 0	; 0x28
    8444:	eb000104 	bl	885c <printk>
    8448:	eb0002fd 	bl	9044 <clean_reboot>
    844c:	000096c8 	andeq	r9, r0, r8, asr #13
    8450:	00009740 	andeq	r9, r0, r0, asr #14
    8454:	00009664 	andeq	r9, r0, r4, ror #12
    8458:	00009674 	andeq	r9, r0, r4, ror r6

0000845c <undefined_instruction_vector>:
    845c:	e52de004 	push	{lr}		; (str lr, [sp, #-4]!)
    8460:	e59f3020 	ldr	r3, [pc, #32]	; 8488 <undefined_instruction_vector+0x2c>
    8464:	e24dd00c 	sub	sp, sp, #12, 0
    8468:	e59f201c 	ldr	r2, [pc, #28]	; 848c <undefined_instruction_vector+0x30>
    846c:	e59f101c 	ldr	r1, [pc, #28]	; 8490 <undefined_instruction_vector+0x34>
    8470:	e58d0004 	str	r0, [sp, #4]
    8474:	e58d3000 	str	r3, [sp]
    8478:	e59f0014 	ldr	r0, [pc, #20]	; 8494 <undefined_instruction_vector+0x38>
    847c:	e3a0302b 	mov	r3, #43, 0	; 0x2b
    8480:	eb0000f5 	bl	885c <printk>
    8484:	eb0002ee 	bl	9044 <clean_reboot>
    8488:	000096d8 	ldrdeq	r9, [r0], -r8
    848c:	00009750 	andeq	r9, r0, r0, asr r7
    8490:	00009664 	andeq	r9, r0, r4, ror #12
    8494:	00009674 	andeq	r9, r0, r4, ror r6

00008498 <prefetch_abort_vector>:
    8498:	e52de004 	push	{lr}		; (str lr, [sp, #-4]!)
    849c:	e59f3020 	ldr	r3, [pc, #32]	; 84c4 <prefetch_abort_vector+0x2c>
    84a0:	e24dd00c 	sub	sp, sp, #12, 0
    84a4:	e59f201c 	ldr	r2, [pc, #28]	; 84c8 <prefetch_abort_vector+0x30>
    84a8:	e59f101c 	ldr	r1, [pc, #28]	; 84cc <prefetch_abort_vector+0x34>
    84ac:	e58d0004 	str	r0, [sp, #4]
    84b0:	e58d3000 	str	r3, [sp]
    84b4:	e59f0014 	ldr	r0, [pc, #20]	; 84d0 <prefetch_abort_vector+0x38>
    84b8:	e3a0302e 	mov	r3, #46, 0	; 0x2e
    84bc:	eb0000e6 	bl	885c <printk>
    84c0:	eb0002df 	bl	9044 <clean_reboot>
    84c4:	000096f0 	strdeq	r9, [r0], -r0
    84c8:	00009770 	andeq	r9, r0, r0, ror r7
    84cc:	00009664 	andeq	r9, r0, r4, ror #12
    84d0:	00009674 	andeq	r9, r0, r4, ror r6

000084d4 <data_abort_vector>:
    84d4:	e52de004 	push	{lr}		; (str lr, [sp, #-4]!)
    84d8:	e59f3020 	ldr	r3, [pc, #32]	; 8500 <data_abort_vector+0x2c>
    84dc:	e24dd00c 	sub	sp, sp, #12, 0
    84e0:	e59f201c 	ldr	r2, [pc, #28]	; 8504 <data_abort_vector+0x30>
    84e4:	e59f101c 	ldr	r1, [pc, #28]	; 8508 <data_abort_vector+0x34>
    84e8:	e58d0004 	str	r0, [sp, #4]
    84ec:	e58d3000 	str	r3, [sp]
    84f0:	e59f0014 	ldr	r0, [pc, #20]	; 850c <data_abort_vector+0x38>
    84f4:	e3a03031 	mov	r3, #49, 0	; 0x31
    84f8:	eb0000d7 	bl	885c <printk>
    84fc:	eb0002d0 	bl	9044 <clean_reboot>
    8500:	00009700 	andeq	r9, r0, r0, lsl #14
    8504:	00009788 	andeq	r9, r0, r8, lsl #15
    8508:	00009664 	andeq	r9, r0, r4, ror #12
    850c:	00009674 	andeq	r9, r0, r4, ror r6

00008510 <timer_interrupt_init>:
    8510:	e92d4010 	push	{r4, lr}
    8514:	e1a04000 	mov	r4, r0
    8518:	e24dd018 	sub	sp, sp, #24, 0
    851c:	e59f002c 	ldr	r0, [pc, #44]	; 8550 <timer_interrupt_init+0x40>
    8520:	eb0000cd 	bl	885c <printk>
    8524:	e3a01001 	mov	r1, #1, 0
    8528:	e59f0024 	ldr	r0, [pc, #36]	; 8554 <timer_interrupt_init+0x44>
    852c:	ebfffeb7 	bl	8010 <PUT32>
    8530:	e1a01004 	mov	r1, r4
    8534:	e59f001c 	ldr	r0, [pc, #28]	; 8558 <timer_interrupt_init+0x48>
    8538:	ebfffeb4 	bl	8010 <PUT32>
    853c:	e3a010aa 	mov	r1, #170, 0	; 0xaa
    8540:	e59f0014 	ldr	r0, [pc, #20]	; 855c <timer_interrupt_init+0x4c>
    8544:	e28dd018 	add	sp, sp, #24, 0
    8548:	e8bd4010 	pop	{r4, lr}
    854c:	eafffeaf 	b	8010 <PUT32>
    8550:	00009890 	muleq	r0, r0, r8
    8554:	2000b218 	andcs	fp, r0, r8, lsl r2
    8558:	2000b400 	andcs	fp, r0, r0, lsl #8
    855c:	2000b408 	andcs	fp, r0, r8, lsl #8

00008560 <kmalloc>:
    8560:	e52de004 	push	{lr}		; (str lr, [sp, #-4]!)
    8564:	e24dd00c 	sub	sp, sp, #12, 0
    8568:	e3500000 	cmp	r0, #0, 0
    856c:	0a00000d 	beq	85a8 <kmalloc+0x48>
    8570:	e59f3094 	ldr	r3, [pc, #148]	; 860c <kmalloc+0xac>
    8574:	e5933000 	ldr	r3, [r3]
    8578:	e3530000 	cmp	r3, #0, 0
    857c:	0a000011 	beq	85c8 <kmalloc+0x68>
    8580:	e2800003 	add	r0, r0, #3, 0
    8584:	e3c03003 	bic	r3, r0, #3, 0
    8588:	e59f2080 	ldr	r2, [pc, #128]	; 8610 <kmalloc+0xb0>
    858c:	e5920000 	ldr	r0, [r2]
    8590:	e0803003 	add	r3, r0, r3
    8594:	e5823000 	str	r3, [r2]
    8598:	e3130003 	tst	r3, #3, 0
    859c:	1a000012 	bne	85ec <kmalloc+0x8c>
    85a0:	e28dd00c 	add	sp, sp, #12, 0
    85a4:	e49df004 	pop	{pc}		; (ldr pc, [sp], #4)
    85a8:	e59f3064 	ldr	r3, [pc, #100]	; 8614 <kmalloc+0xb4>
    85ac:	e58d3000 	str	r3, [sp]
    85b0:	e3a03035 	mov	r3, #53, 0	; 0x35
    85b4:	e59f205c 	ldr	r2, [pc, #92]	; 8618 <kmalloc+0xb8>
    85b8:	e59f105c 	ldr	r1, [pc, #92]	; 861c <kmalloc+0xbc>
    85bc:	e59f005c 	ldr	r0, [pc, #92]	; 8620 <kmalloc+0xc0>
    85c0:	eb0000a5 	bl	885c <printk>
    85c4:	eb00029e 	bl	9044 <clean_reboot>
    85c8:	eb0000be 	bl	88c8 <rpi_reset_putc>
    85cc:	e59f3050 	ldr	r3, [pc, #80]	; 8624 <kmalloc+0xc4>
    85d0:	e58d3000 	str	r3, [sp]
    85d4:	e3a03036 	mov	r3, #54, 0	; 0x36
    85d8:	e59f2038 	ldr	r2, [pc, #56]	; 8618 <kmalloc+0xb8>
    85dc:	e59f1038 	ldr	r1, [pc, #56]	; 861c <kmalloc+0xbc>
    85e0:	e59f0040 	ldr	r0, [pc, #64]	; 8628 <kmalloc+0xc8>
    85e4:	eb00009c 	bl	885c <printk>
    85e8:	eb000295 	bl	9044 <clean_reboot>
    85ec:	e59f3038 	ldr	r3, [pc, #56]	; 862c <kmalloc+0xcc>
    85f0:	e58d3000 	str	r3, [sp]
    85f4:	e3a0303a 	mov	r3, #58, 0	; 0x3a
    85f8:	e59f2018 	ldr	r2, [pc, #24]	; 8618 <kmalloc+0xb8>
    85fc:	e59f1018 	ldr	r1, [pc, #24]	; 861c <kmalloc+0xbc>
    8600:	e59f0018 	ldr	r0, [pc, #24]	; 8620 <kmalloc+0xc0>
    8604:	eb000094 	bl	885c <printk>
    8608:	eb00028d 	bl	9044 <clean_reboot>
    860c:	00009bf0 	strdeq	r9, [r0], -r0
    8610:	00009ff8 	strdeq	r9, [r0], -r8
    8614:	00009948 	andeq	r9, r0, r8, asr #18
    8618:	00009a20 	andeq	r9, r0, r0, lsr #20
    861c:	000098bc 			; <UNDEFINED> instruction: 0x000098bc
    8620:	000098cc 	andeq	r9, r0, ip, asr #17
    8624:	0000991c 	andeq	r9, r0, ip, lsl r9
    8628:	000098e0 	andeq	r9, r0, r0, ror #17
    862c:	00009924 	andeq	r9, r0, r4, lsr #18

00008630 <kmalloc_aligned>:
    8630:	e52de004 	push	{lr}		; (str lr, [sp, #-4]!)
    8634:	e24dd00c 	sub	sp, sp, #12, 0
    8638:	e3500004 	cmp	r0, #4, 0
    863c:	1a00000f 	bne	8680 <kmalloc_aligned+0x50>
    8640:	e59f30c8 	ldr	r3, [pc, #200]	; 8710 <kmalloc_aligned+0xe0>
    8644:	e5933000 	ldr	r3, [r3]
    8648:	e3530000 	cmp	r3, #0, 0
    864c:	0a000013 	beq	86a0 <kmalloc_aligned+0x70>
    8650:	e2613000 	rsb	r3, r1, #0, 0
    8654:	e1d13003 	bics	r3, r1, r3
    8658:	1a000019 	bne	86c4 <kmalloc_aligned+0x94>
    865c:	e3510004 	cmp	r1, #4, 0
    8660:	9a000020 	bls	86e8 <kmalloc_aligned+0xb8>
    8664:	e59f30a8 	ldr	r3, [pc, #168]	; 8714 <kmalloc_aligned+0xe4>
    8668:	e5930000 	ldr	r0, [r3]
    866c:	e2411001 	sub	r1, r1, #1, 0
    8670:	e1100001 	tst	r0, r1
    8674:	1a00001d 	bne	86f0 <kmalloc_aligned+0xc0>
    8678:	e28dd00c 	add	sp, sp, #12, 0
    867c:	e49df004 	pop	{pc}		; (ldr pc, [sp], #4)
    8680:	e59f3090 	ldr	r3, [pc, #144]	; 8718 <kmalloc_aligned+0xe8>
    8684:	e58d3000 	str	r3, [sp]
    8688:	e3a03043 	mov	r3, #67, 0	; 0x43
    868c:	e59f2088 	ldr	r2, [pc, #136]	; 871c <kmalloc_aligned+0xec>
    8690:	e59f1088 	ldr	r1, [pc, #136]	; 8720 <kmalloc_aligned+0xf0>
    8694:	e59f0088 	ldr	r0, [pc, #136]	; 8724 <kmalloc_aligned+0xf4>
    8698:	eb00006f 	bl	885c <printk>
    869c:	eb000268 	bl	9044 <clean_reboot>
    86a0:	eb000088 	bl	88c8 <rpi_reset_putc>
    86a4:	e59f307c 	ldr	r3, [pc, #124]	; 8728 <kmalloc_aligned+0xf8>
    86a8:	e58d3000 	str	r3, [sp]
    86ac:	e3a03044 	mov	r3, #68, 0	; 0x44
    86b0:	e59f2064 	ldr	r2, [pc, #100]	; 871c <kmalloc_aligned+0xec>
    86b4:	e59f1064 	ldr	r1, [pc, #100]	; 8720 <kmalloc_aligned+0xf0>
    86b8:	e59f006c 	ldr	r0, [pc, #108]	; 872c <kmalloc_aligned+0xfc>
    86bc:	eb000066 	bl	885c <printk>
    86c0:	eb00025f 	bl	9044 <clean_reboot>
    86c4:	eb00007f 	bl	88c8 <rpi_reset_putc>
    86c8:	e59f3060 	ldr	r3, [pc, #96]	; 8730 <kmalloc_aligned+0x100>
    86cc:	e58d3000 	str	r3, [sp]
    86d0:	e3a03045 	mov	r3, #69, 0	; 0x45
    86d4:	e59f2040 	ldr	r2, [pc, #64]	; 871c <kmalloc_aligned+0xec>
    86d8:	e59f1040 	ldr	r1, [pc, #64]	; 8720 <kmalloc_aligned+0xf0>
    86dc:	e59f0050 	ldr	r0, [pc, #80]	; 8734 <kmalloc_aligned+0x104>
    86e0:	eb00005d 	bl	885c <printk>
    86e4:	eb000256 	bl	9044 <clean_reboot>
    86e8:	ebffff9c 	bl	8560 <kmalloc>
    86ec:	eaffffe1 	b	8678 <kmalloc_aligned+0x48>
    86f0:	e59f3040 	ldr	r3, [pc, #64]	; 8738 <kmalloc_aligned+0x108>
    86f4:	e58d3000 	str	r3, [sp]
    86f8:	e3a0304a 	mov	r3, #74, 0	; 0x4a
    86fc:	e59f2018 	ldr	r2, [pc, #24]	; 871c <kmalloc_aligned+0xec>
    8700:	e59f1018 	ldr	r1, [pc, #24]	; 8720 <kmalloc_aligned+0xf0>
    8704:	e59f0018 	ldr	r0, [pc, #24]	; 8724 <kmalloc_aligned+0xf4>
    8708:	eb000053 	bl	885c <printk>
    870c:	eb00024c 	bl	9044 <clean_reboot>
    8710:	00009bf0 	strdeq	r9, [r0], -r0
    8714:	00009ff8 	strdeq	r9, [r0], -r8
    8718:	00009938 	andeq	r9, r0, r8, lsr r9
    871c:	00009a28 	andeq	r9, r0, r8, lsr #20
    8720:	000098bc 			; <UNDEFINED> instruction: 0x000098bc
    8724:	000098cc 	andeq	r9, r0, ip, asr #17
    8728:	0000991c 	andeq	r9, r0, ip, lsl r9
    872c:	000098e0 	andeq	r9, r0, r0, ror #17
    8730:	00009984 	andeq	r9, r0, r4, lsl #19
    8734:	00009950 	andeq	r9, r0, r0, asr r9
    8738:	00009998 	muleq	r0, r8, r9

0000873c <kmalloc_init>:
    873c:	e59f3034 	ldr	r3, [pc, #52]	; 8778 <kmalloc_init+0x3c>
    8740:	e5933000 	ldr	r3, [r3]
    8744:	e3530000 	cmp	r3, #0, 0
    8748:	112fff1e 	bxne	lr
    874c:	e92d4010 	push	{r4, lr}
    8750:	e59f3020 	ldr	r3, [pc, #32]	; 8778 <kmalloc_init+0x3c>
    8754:	e3a02001 	mov	r2, #1, 0
    8758:	e5832000 	str	r2, [r3]
    875c:	e59f1018 	ldr	r1, [pc, #24]	; 877c <kmalloc_init+0x40>
    8760:	e3c11003 	bic	r1, r1, #3, 0
    8764:	e59f3014 	ldr	r3, [pc, #20]	; 8780 <kmalloc_init+0x44>
    8768:	e5831000 	str	r1, [r3]
    876c:	e59f0010 	ldr	r0, [pc, #16]	; 8784 <kmalloc_init+0x48>
    8770:	eb000039 	bl	885c <printk>
    8774:	e8bd8010 	pop	{r4, pc}
    8778:	00009bf0 	strdeq	r9, [r0], -r0
    877c:	0000a003 	andeq	sl, r0, r3
    8780:	00009ff8 	strdeq	r9, [r0], -r8
    8784:	000099b4 			; <UNDEFINED> instruction: 0x000099b4

00008788 <kmalloc_init_set_start>:
    8788:	e52de004 	push	{lr}		; (str lr, [sp, #-4]!)
    878c:	e24dd00c 	sub	sp, sp, #12, 0
    8790:	e59f3058 	ldr	r3, [pc, #88]	; 87f0 <kmalloc_init_set_start+0x68>
    8794:	e5933000 	ldr	r3, [r3]
    8798:	e3530000 	cmp	r3, #0, 0
    879c:	1a00000a 	bne	87cc <kmalloc_init_set_start+0x44>
    87a0:	e59f3048 	ldr	r3, [pc, #72]	; 87f0 <kmalloc_init_set_start+0x68>
    87a4:	e3a02001 	mov	r2, #1, 0
    87a8:	e5832000 	str	r2, [r3]
    87ac:	e2800003 	add	r0, r0, #3, 0
    87b0:	e3c01003 	bic	r1, r0, #3, 0
    87b4:	e59f3038 	ldr	r3, [pc, #56]	; 87f4 <kmalloc_init_set_start+0x6c>
    87b8:	e5831000 	str	r1, [r3]
    87bc:	e59f0034 	ldr	r0, [pc, #52]	; 87f8 <kmalloc_init_set_start+0x70>
    87c0:	eb000025 	bl	885c <printk>
    87c4:	e28dd00c 	add	sp, sp, #12, 0
    87c8:	e49df004 	pop	{pc}		; (ldr pc, [sp], #4)
    87cc:	eb00003d 	bl	88c8 <rpi_reset_putc>
    87d0:	e59f3024 	ldr	r3, [pc, #36]	; 87fc <kmalloc_init_set_start+0x74>
    87d4:	e58d3000 	str	r3, [sp]
    87d8:	e3a03063 	mov	r3, #99, 0	; 0x63
    87dc:	e59f201c 	ldr	r2, [pc, #28]	; 8800 <kmalloc_init_set_start+0x78>
    87e0:	e59f101c 	ldr	r1, [pc, #28]	; 8804 <kmalloc_init_set_start+0x7c>
    87e4:	e59f001c 	ldr	r0, [pc, #28]	; 8808 <kmalloc_init_set_start+0x80>
    87e8:	eb00001b 	bl	885c <printk>
    87ec:	eb000214 	bl	9044 <clean_reboot>
    87f0:	00009bf0 	strdeq	r9, [r0], -r0
    87f4:	00009ff8 	strdeq	r9, [r0], -r8
    87f8:	000099b4 			; <UNDEFINED> instruction: 0x000099b4
    87fc:	000099ec 	andeq	r9, r0, ip, ror #19
    8800:	00009a38 	andeq	r9, r0, r8, lsr sl
    8804:	000098bc 			; <UNDEFINED> instruction: 0x000098bc
    8808:	000099b8 			; <UNDEFINED> instruction: 0x000099b8

0000880c <kfree_all>:
    880c:	e92d4010 	push	{r4, lr}
    8810:	e3a0306f 	mov	r3, #111, 0	; 0x6f
    8814:	e59f200c 	ldr	r2, [pc, #12]	; 8828 <kfree_all+0x1c>
    8818:	e59f100c 	ldr	r1, [pc, #12]	; 882c <kfree_all+0x20>
    881c:	e59f000c 	ldr	r0, [pc, #12]	; 8830 <kfree_all+0x24>
    8820:	eb00000d 	bl	885c <printk>
    8824:	eb000206 	bl	9044 <clean_reboot>
    8828:	00009a50 	andeq	r9, r0, r0, asr sl
    882c:	000098bc 			; <UNDEFINED> instruction: 0x000098bc
    8830:	000099f4 	strdeq	r9, [r0], -r4

00008834 <kmalloc_heap_ptr>:
    8834:	e92d4010 	push	{r4, lr}
    8838:	e3a03078 	mov	r3, #120, 0	; 0x78
    883c:	e59f200c 	ldr	r2, [pc, #12]	; 8850 <kmalloc_heap_ptr+0x1c>
    8840:	e59f100c 	ldr	r1, [pc, #12]	; 8854 <kmalloc_heap_ptr+0x20>
    8844:	e59f000c 	ldr	r0, [pc, #12]	; 8858 <kmalloc_heap_ptr+0x24>
    8848:	eb000003 	bl	885c <printk>
    884c:	eb0001fc 	bl	9044 <clean_reboot>
    8850:	00009a5c 	andeq	r9, r0, ip, asr sl
    8854:	000098bc 			; <UNDEFINED> instruction: 0x000098bc
    8858:	000099f4 	strdeq	r9, [r0], -r4

0000885c <printk>:
    885c:	e92d000f 	push	{r0, r1, r2, r3}
    8860:	e92d4030 	push	{r4, r5, lr}
    8864:	e24dd00c 	sub	sp, sp, #12, 0
    8868:	e28d301c 	add	r3, sp, #28, 0
    886c:	e58d3004 	str	r3, [sp, #4]
    8870:	e59f5034 	ldr	r5, [pc, #52]	; 88ac <printk+0x50>
    8874:	e59d2018 	ldr	r2, [sp, #24]
    8878:	e3a01b01 	mov	r1, #1024	; 0x400
    887c:	e1a00005 	mov	r0, r5
    8880:	eb0000c9 	bl	8bac <va_printk>
    8884:	e1a04000 	mov	r4, r0
    8888:	e59f3020 	ldr	r3, [pc, #32]	; 88b0 <printk+0x54>
    888c:	e5933000 	ldr	r3, [r3]
    8890:	e1a00005 	mov	r0, r5
    8894:	e12fff33 	blx	r3
    8898:	e1a00004 	mov	r0, r4
    889c:	e28dd00c 	add	sp, sp, #12, 0
    88a0:	e8bd4030 	pop	{r4, r5, lr}
    88a4:	e28dd010 	add	sp, sp, #16, 0
    88a8:	e12fff1e 	bx	lr
    88ac:	00009bf4 	strdeq	r9, [r0], -r4
    88b0:	00009bd8 	ldrdeq	r9, [r0], -r8

000088b4 <internal_putchar>:
    88b4:	e92d4010 	push	{r4, lr}
    88b8:	e1a04000 	mov	r4, r0
    88bc:	eb00028a 	bl	92ec <uart_putc>
    88c0:	e1a00004 	mov	r0, r4
    88c4:	e8bd8010 	pop	{r4, pc}

000088c8 <rpi_reset_putc>:
    88c8:	e59f3008 	ldr	r3, [pc, #8]	; 88d8 <rpi_reset_putc+0x10>
    88cc:	e59f2008 	ldr	r2, [pc, #8]	; 88dc <rpi_reset_putc+0x14>
    88d0:	e5832000 	str	r2, [r3]
    88d4:	e12fff1e 	bx	lr
    88d8:	00009bd4 	ldrdeq	r9, [r0], -r4
    88dc:	000088b4 			; <UNDEFINED> instruction: 0x000088b4

000088e0 <rpi_set_putc>:
    88e0:	e59f3004 	ldr	r3, [pc, #4]	; 88ec <rpi_set_putc+0xc>
    88e4:	e5830000 	str	r0, [r3]
    88e8:	e12fff1e 	bx	lr
    88ec:	00009bd4 	ldrdeq	r9, [r0], -r4

000088f0 <internal_putk>:
    88f0:	e92d4010 	push	{r4, lr}
    88f4:	e1a04000 	mov	r4, r0
    88f8:	e5d40000 	ldrb	r0, [r4]
    88fc:	e3500000 	cmp	r0, #0, 0
    8900:	0a000004 	beq	8918 <internal_putk+0x28>
    8904:	e59f3014 	ldr	r3, [pc, #20]	; 8920 <internal_putk+0x30>
    8908:	e5933000 	ldr	r3, [r3]
    890c:	e12fff33 	blx	r3
    8910:	e2844001 	add	r4, r4, #1, 0
    8914:	eafffff7 	b	88f8 <internal_putk+0x8>
    8918:	e3a00001 	mov	r0, #1, 0
    891c:	e8bd8010 	pop	{r4, pc}
    8920:	00009bd4 	ldrdeq	r9, [r0], -r4

00008924 <isdigit>:
    8924:	e2400030 	sub	r0, r0, #48, 0	; 0x30
    8928:	e3500009 	cmp	r0, #9, 0
    892c:	83a00000 	movhi	r0, #0, 0
    8930:	93a00001 	movls	r0, #1, 0
    8934:	e12fff1e 	bx	lr

00008938 <pad>:
    8938:	e0401001 	sub	r1, r0, r1
    893c:	e1510002 	cmp	r1, r2
    8940:	b3a03020 	movlt	r3, #32, 0
    8944:	b4c03001 	strblt	r3, [r0], #1
    8948:	b2811001 	addlt	r1, r1, #1, 0
    894c:	bafffffa 	blt	893c <pad+0x4>
    8950:	e3a03000 	mov	r3, #0, 0
    8954:	e5c03000 	strb	r3, [r0]
    8958:	e12fff1e 	bx	lr

0000895c <reverse>:
    895c:	e042c003 	sub	ip, r2, r3
    8960:	e28cc001 	add	ip, ip, #1, 0
    8964:	e15c0001 	cmp	ip, r1
    8968:	c04cc001 	subgt	ip, ip, r1
    896c:	c083300c 	addgt	r3, r3, ip
    8970:	e2421001 	sub	r1, r2, #1, 0
    8974:	e1a02000 	mov	r2, r0
    8978:	e1510003 	cmp	r1, r3
    897c:	2451c001 	ldrbcs	ip, [r1], #-1
    8980:	24c2c001 	strbcs	ip, [r2], #1
    8984:	2afffffb 	bcs	8978 <reverse+0x1c>
    8988:	e3a03000 	mov	r3, #0, 0
    898c:	e5c23000 	strb	r3, [r2]
    8990:	e12fff1e 	bx	lr

00008994 <emit>:
    8994:	e92d40f0 	push	{r4, r5, r6, r7, lr}
    8998:	e24dd04c 	sub	sp, sp, #76, 0	; 0x4c
    899c:	e1a05001 	mov	r5, r1
    89a0:	e1a04002 	mov	r4, r2
    89a4:	e59d2060 	ldr	r2, [sp, #96]	; 0x60
    89a8:	e1520004 	cmp	r2, r4
    89ac:	c2442001 	subgt	r2, r4, #1, 0
    89b0:	e1a0c003 	mov	ip, r3
    89b4:	e2400002 	sub	r0, r0, #2, 0
    89b8:	e350000e 	cmp	r0, #14, 0
    89bc:	979ff100 	ldrls	pc, [pc, r0, lsl #2]
    89c0:	ea000050 	b	8b08 <emit+0x174>
    89c4:	00008ae0 	andeq	r8, r0, r0, ror #21
    89c8:	00008b08 	andeq	r8, r0, r8, lsl #22
    89cc:	00008b08 	andeq	r8, r0, r8, lsl #22
    89d0:	00008b08 	andeq	r8, r0, r8, lsl #22
    89d4:	00008b08 	andeq	r8, r0, r8, lsl #22
    89d8:	00008b08 	andeq	r8, r0, r8, lsl #22
    89dc:	00008ad4 	ldrdeq	r8, [r0], -r4
    89e0:	00008b08 	andeq	r8, r0, r8, lsl #22
    89e4:	00008a00 	andeq	r8, r0, r0, lsl #20
    89e8:	00008b08 	andeq	r8, r0, r8, lsl #22
    89ec:	00008b08 	andeq	r8, r0, r8, lsl #22
    89f0:	00008b08 	andeq	r8, r0, r8, lsl #22
    89f4:	00008b08 	andeq	r8, r0, r8, lsl #22
    89f8:	00008b08 	andeq	r8, r0, r8, lsl #22
    89fc:	00008a78 	andeq	r8, r0, r8, ror sl
    8a00:	e59d1064 	ldr	r1, [sp, #100]	; 0x64
    8a04:	e2511000 	subs	r1, r1, #0, 0
    8a08:	13a01001 	movne	r1, #1, 0
    8a0c:	e0111fa3 	ands	r1, r1, r3, lsr #31
    8a10:	0a000016 	beq	8a70 <emit+0xdc>
    8a14:	e263c000 	rsb	ip, r3, #0, 0
    8a18:	e3a06001 	mov	r6, #1, 0
    8a1c:	e28d0008 	add	r0, sp, #8, 0
    8a20:	e59f3100 	ldr	r3, [pc, #256]	; 8b28 <emit+0x194>
    8a24:	e0831c93 	umull	r1, r3, r3, ip
    8a28:	e1a031a3 	lsr	r3, r3, #3
    8a2c:	e1a0e003 	mov	lr, r3
    8a30:	e0833103 	add	r3, r3, r3, lsl #2
    8a34:	e04c3083 	sub	r3, ip, r3, lsl #1
    8a38:	e1a01000 	mov	r1, r0
    8a3c:	e2800001 	add	r0, r0, #1, 0
    8a40:	e59f70e4 	ldr	r7, [pc, #228]	; 8b2c <emit+0x198>
    8a44:	e7d73003 	ldrb	r3, [r7, r3]
    8a48:	e5c13000 	strb	r3, [r1]
    8a4c:	e1a0300c 	mov	r3, ip
    8a50:	e1a0c00e 	mov	ip, lr
    8a54:	e3530009 	cmp	r3, #9, 0
    8a58:	8afffff0 	bhi	8a20 <emit+0x8c>
    8a5c:	e3560000 	cmp	r6, #0, 0
    8a60:	13a0302d 	movne	r3, #45, 0	; 0x2d
    8a64:	15c03000 	strbne	r3, [r0]
    8a68:	12810002 	addne	r0, r1, #2, 0
    8a6c:	ea00000f 	b	8ab0 <emit+0x11c>
    8a70:	e3a06000 	mov	r6, #0, 0
    8a74:	eaffffe8 	b	8a1c <emit+0x88>
    8a78:	e28d1008 	add	r1, sp, #8, 0
    8a7c:	e20c000f 	and	r0, ip, #15, 0
    8a80:	e59fe0a8 	ldr	lr, [pc, #168]	; 8b30 <emit+0x19c>
    8a84:	e7de0000 	ldrb	r0, [lr, r0]
    8a88:	e5c10000 	strb	r0, [r1]
    8a8c:	e2811001 	add	r1, r1, #1, 0
    8a90:	e35c000f 	cmp	ip, #15, 0
    8a94:	e1a0c22c 	lsr	ip, ip, #4
    8a98:	8afffff7 	bhi	8a7c <emit+0xe8>
    8a9c:	e1a00001 	mov	r0, r1
    8aa0:	e3a03078 	mov	r3, #120, 0	; 0x78
    8aa4:	e4c03002 	strb	r3, [r0], #2
    8aa8:	e3a03030 	mov	r3, #48, 0	; 0x30
    8aac:	e5c13001 	strb	r3, [r1, #1]
    8ab0:	e28d1008 	add	r1, sp, #8, 0
    8ab4:	ebffff9f 	bl	8938 <pad>
    8ab8:	e1a02000 	mov	r2, r0
    8abc:	e28d3008 	add	r3, sp, #8, 0
    8ac0:	e1a01004 	mov	r1, r4
    8ac4:	e1a00005 	mov	r0, r5
    8ac8:	ebffffa3 	bl	895c <reverse>
    8acc:	e28dd04c 	add	sp, sp, #76, 0	; 0x4c
    8ad0:	e8bd80f0 	pop	{r4, r5, r6, r7, pc}
    8ad4:	e5cd3008 	strb	r3, [sp, #8]
    8ad8:	e28d0009 	add	r0, sp, #9, 0
    8adc:	eafffff3 	b	8ab0 <emit+0x11c>
    8ae0:	e28d0008 	add	r0, sp, #8, 0
    8ae4:	e20c1001 	and	r1, ip, #1, 0
    8ae8:	e59fe044 	ldr	lr, [pc, #68]	; 8b34 <emit+0x1a0>
    8aec:	e7de1001 	ldrb	r1, [lr, r1]
    8af0:	e5c01000 	strb	r1, [r0]
    8af4:	e2800001 	add	r0, r0, #1, 0
    8af8:	e35c0001 	cmp	ip, #1, 0
    8afc:	e1a0c0ac 	lsr	ip, ip, #1
    8b00:	8afffff7 	bhi	8ae4 <emit+0x150>
    8b04:	eaffffe9 	b	8ab0 <emit+0x11c>
    8b08:	e59f3028 	ldr	r3, [pc, #40]	; 8b38 <emit+0x1a4>
    8b0c:	e58d3000 	str	r3, [sp]
    8b10:	e3a03079 	mov	r3, #121, 0	; 0x79
    8b14:	e59f2020 	ldr	r2, [pc, #32]	; 8b3c <emit+0x1a8>
    8b18:	e59f1020 	ldr	r1, [pc, #32]	; 8b40 <emit+0x1ac>
    8b1c:	e59f0020 	ldr	r0, [pc, #32]	; 8b44 <emit+0x1b0>
    8b20:	ebffff4d 	bl	885c <printk>
    8b24:	eb000146 	bl	9044 <clean_reboot>
    8b28:	cccccccd 	stclgt	12, cr12, [ip], {205}	; 0xcd
    8b2c:	00009a88 	andeq	r9, r0, r8, lsl #21
    8b30:	00009a94 	muleq	r0, r4, sl
    8b34:	00009aa8 	andeq	r9, r0, r8, lsr #21
    8b38:	00009a84 	andeq	r9, r0, r4, lsl #21
    8b3c:	00009ba4 	andeq	r9, r0, r4, lsr #23
    8b40:	00009a70 	andeq	r9, r0, r0, ror sl
    8b44:	000098cc 	andeq	r9, r0, ip, asr #17

00008b48 <rpi_set_output>:
    8b48:	e3500000 	cmp	r0, #0, 0
    8b4c:	0a000006 	beq	8b6c <rpi_set_output+0x24>
    8b50:	e59f303c 	ldr	r3, [pc, #60]	; 8b94 <rpi_set_output+0x4c>
    8b54:	e5830000 	str	r0, [r3]
    8b58:	e3510000 	cmp	r1, #0, 0
    8b5c:	012fff1e 	bxeq	lr
    8b60:	e59f3030 	ldr	r3, [pc, #48]	; 8b98 <rpi_set_output+0x50>
    8b64:	e5831000 	str	r1, [r3]
    8b68:	e12fff1e 	bx	lr
    8b6c:	e52de004 	push	{lr}		; (str lr, [sp, #-4]!)
    8b70:	e24dd00c 	sub	sp, sp, #12, 0
    8b74:	e59f3020 	ldr	r3, [pc, #32]	; 8b9c <rpi_set_output+0x54>
    8b78:	e58d3000 	str	r3, [sp]
    8b7c:	e3a03020 	mov	r3, #32, 0
    8b80:	e59f2018 	ldr	r2, [pc, #24]	; 8ba0 <rpi_set_output+0x58>
    8b84:	e59f1018 	ldr	r1, [pc, #24]	; 8ba4 <rpi_set_output+0x5c>
    8b88:	e59f0018 	ldr	r0, [pc, #24]	; 8ba8 <rpi_set_output+0x60>
    8b8c:	ebffff32 	bl	885c <printk>
    8b90:	eb00012b 	bl	9044 <clean_reboot>
    8b94:	00009bd4 	ldrdeq	r9, [r0], -r4
    8b98:	00009bd8 	ldrdeq	r9, [r0], -r8
    8b9c:	00009aac 	andeq	r9, r0, ip, lsr #21
    8ba0:	00009bac 	andeq	r9, r0, ip, lsr #23
    8ba4:	00009a70 	andeq	r9, r0, r0, ror sl
    8ba8:	000098cc 	andeq	r9, r0, ip, asr #17

00008bac <va_printk>:
    8bac:	e92d4ff0 	push	{r4, r5, r6, r7, r8, r9, sl, fp, lr}
    8bb0:	e24ddf45 	sub	sp, sp, #276	; 0x114
    8bb4:	e1a09000 	mov	r9, r0
    8bb8:	e58d2008 	str	r2, [sp, #8]
    8bbc:	e58d300c 	str	r3, [sp, #12]
    8bc0:	e2411001 	sub	r1, r1, #1, 0
    8bc4:	e0808001 	add	r8, r0, r1
    8bc8:	e3a03000 	mov	r3, #0, 0
    8bcc:	e5c03000 	strb	r3, [r0]
    8bd0:	e1a04000 	mov	r4, r0
    8bd4:	e1a06002 	mov	r6, r2
    8bd8:	ea000001 	b	8be4 <va_printk+0x38>
    8bdc:	e2866001 	add	r6, r6, #1, 0
    8be0:	e4c43001 	strb	r3, [r4], #1
    8be4:	e5d63000 	ldrb	r3, [r6]
    8be8:	e3530000 	cmp	r3, #0, 0
    8bec:	0a000102 	beq	8ffc <va_printk+0x450>
    8bf0:	e1540008 	cmp	r4, r8
    8bf4:	2a000100 	bcs	8ffc <va_printk+0x450>
    8bf8:	e3530025 	cmp	r3, #37, 0	; 0x25
    8bfc:	1afffff6 	bne	8bdc <va_printk+0x30>
    8c00:	e5d62001 	ldrb	r2, [r6, #1]
    8c04:	e3520025 	cmp	r2, #37, 0	; 0x25
    8c08:	04c43001 	strbeq	r3, [r4], #1
    8c0c:	02866002 	addeq	r6, r6, #2, 0
    8c10:	0afffff3 	beq	8be4 <va_printk+0x38>
    8c14:	e2866001 	add	r6, r6, #1, 0
    8c18:	e3a05000 	mov	r5, #0, 0
    8c1c:	e5d67000 	ldrb	r7, [r6]
    8c20:	e1a0a007 	mov	sl, r7
    8c24:	e1a00007 	mov	r0, r7
    8c28:	ebffff3d 	bl	8924 <isdigit>
    8c2c:	e3500000 	cmp	r0, #0, 0
    8c30:	0a000004 	beq	8c48 <va_printk+0x9c>
    8c34:	e0855105 	add	r5, r5, r5, lsl #2
    8c38:	e0875085 	add	r5, r7, r5, lsl #1
    8c3c:	e2455030 	sub	r5, r5, #48, 0	; 0x30
    8c40:	e2866001 	add	r6, r6, #1, 0
    8c44:	eafffff4 	b	8c1c <va_printk+0x70>
    8c48:	e355001f 	cmp	r5, #31, 0
    8c4c:	8a00001a 	bhi	8cbc <va_printk+0x110>
    8c50:	e2477062 	sub	r7, r7, #98, 0	; 0x62
    8c54:	e3570016 	cmp	r7, #22, 0
    8c58:	979ff107 	ldrls	pc, [pc, r7, lsl #2]
    8c5c:	ea0000ce 	b	8f9c <va_printk+0x3f0>
    8c60:	00008f20 	andeq	r8, r0, r0, lsr #30
    8c64:	00008f68 	andeq	r8, r0, r8, ror #30
    8c68:	00008e80 	andeq	r8, r0, r0, lsl #29
    8c6c:	00008f9c 	muleq	r0, ip, pc	; <UNPREDICTABLE>
    8c70:	00008e68 	andeq	r8, r0, r8, ror #28
    8c74:	00008f9c 	muleq	r0, ip, pc	; <UNPREDICTABLE>
    8c78:	00008f9c 	muleq	r0, ip, pc	; <UNPREDICTABLE>
    8c7c:	00008f9c 	muleq	r0, ip, pc	; <UNPREDICTABLE>
    8c80:	00008f9c 	muleq	r0, ip, pc	; <UNPREDICTABLE>
    8c84:	00008f9c 	muleq	r0, ip, pc	; <UNPREDICTABLE>
    8c88:	00008cdc 	ldrdeq	r8, [r0], -ip
    8c8c:	00008f9c 	muleq	r0, ip, pc	; <UNPREDICTABLE>
    8c90:	00008f9c 	muleq	r0, ip, pc	; <UNPREDICTABLE>
    8c94:	00008f9c 	muleq	r0, ip, pc	; <UNPREDICTABLE>
    8c98:	00008eec 	andeq	r8, r0, ip, ror #29
    8c9c:	00008f9c 	muleq	r0, ip, pc	; <UNPREDICTABLE>
    8ca0:	00008f9c 	muleq	r0, ip, pc	; <UNPREDICTABLE>
    8ca4:	00008f54 	andeq	r8, r0, r4, asr pc
    8ca8:	00008f9c 	muleq	r0, ip, pc	; <UNPREDICTABLE>
    8cac:	00008eb8 			; <UNDEFINED> instruction: 0x00008eb8
    8cb0:	00008f9c 	muleq	r0, ip, pc	; <UNPREDICTABLE>
    8cb4:	00008f9c 	muleq	r0, ip, pc	; <UNPREDICTABLE>
    8cb8:	00008eec 	andeq	r8, r0, ip, ror #29
    8cbc:	e59f334c 	ldr	r3, [pc, #844]	; 9010 <va_printk+0x464>
    8cc0:	e58d3000 	str	r3, [sp]
    8cc4:	e3a03098 	mov	r3, #152, 0	; 0x98
    8cc8:	e59f2344 	ldr	r2, [pc, #836]	; 9014 <va_printk+0x468>
    8ccc:	e59f1344 	ldr	r1, [pc, #836]	; 9018 <va_printk+0x46c>
    8cd0:	e59f0344 	ldr	r0, [pc, #836]	; 901c <va_printk+0x470>
    8cd4:	ebfffee0 	bl	885c <printk>
    8cd8:	eb0000d9 	bl	9044 <clean_reboot>
    8cdc:	e3a02003 	mov	r2, #3, 0
    8ce0:	e59f1338 	ldr	r1, [pc, #824]	; 9020 <va_printk+0x474>
    8ce4:	e1a00006 	mov	r0, r6
    8ce8:	eb000227 	bl	958c <strncmp>
    8cec:	e3500000 	cmp	r0, #0, 0
    8cf0:	0a000005 	beq	8d0c <va_printk+0x160>
    8cf4:	e3a02003 	mov	r2, #3, 0
    8cf8:	e59f1324 	ldr	r1, [pc, #804]	; 9024 <va_printk+0x478>
    8cfc:	e1a00006 	mov	r0, r6
    8d00:	eb000221 	bl	958c <strncmp>
    8d04:	e3500000 	cmp	r0, #0, 0
    8d08:	1a00002d 	bne	8dc4 <va_printk+0x218>
    8d0c:	e286b002 	add	fp, r6, #2, 0
    8d10:	e59d300c 	ldr	r3, [sp, #12]
    8d14:	e2833007 	add	r3, r3, #7, 0
    8d18:	e3c33007 	bic	r3, r3, #7, 0
    8d1c:	e2832008 	add	r2, r3, #8, 0
    8d20:	e58d200c 	str	r2, [sp, #12]
    8d24:	e593a000 	ldr	sl, [r3]
    8d28:	e5937004 	ldr	r7, [r3, #4]
    8d2c:	e3a02003 	mov	r2, #3, 0
    8d30:	e59f12e8 	ldr	r1, [pc, #744]	; 9020 <va_printk+0x474>
    8d34:	e1a00006 	mov	r0, r6
    8d38:	eb000213 	bl	958c <strncmp>
    8d3c:	e3500000 	cmp	r0, #0, 0
    8d40:	0a000027 	beq	8de4 <va_printk+0x238>
    8d44:	e3a02003 	mov	r2, #3, 0
    8d48:	e59f12d4 	ldr	r1, [pc, #724]	; 9024 <va_printk+0x478>
    8d4c:	e1a00006 	mov	r0, r6
    8d50:	eb00020d 	bl	958c <strncmp>
    8d54:	e3500000 	cmp	r0, #0, 0
    8d58:	1a00003b 	bne	8e4c <va_printk+0x2a0>
    8d5c:	e3a06000 	mov	r6, #0, 0
    8d60:	e58d6004 	str	r6, [sp, #4]
    8d64:	e58d5000 	str	r5, [sp]
    8d68:	e1a03007 	mov	r3, r7
    8d6c:	e3a02080 	mov	r2, #128, 0	; 0x80
    8d70:	e28d1010 	add	r1, sp, #16, 0
    8d74:	e3a0000a 	mov	r0, #10, 0
    8d78:	ebffff05 	bl	8994 <emit>
    8d7c:	e1a07000 	mov	r7, r0
    8d80:	e58d6004 	str	r6, [sp, #4]
    8d84:	e58d5000 	str	r5, [sp]
    8d88:	e1a0300a 	mov	r3, sl
    8d8c:	e3a02080 	mov	r2, #128, 0	; 0x80
    8d90:	e28d1090 	add	r1, sp, #144, 0	; 0x90
    8d94:	e3a0000a 	mov	r0, #10, 0
    8d98:	ebfffefd 	bl	8994 <emit>
    8d9c:	e59f1284 	ldr	r1, [pc, #644]	; 9028 <va_printk+0x47c>
    8da0:	e28d0010 	add	r0, sp, #16, 0
    8da4:	eb0001e5 	bl	9540 <strcmp>
    8da8:	e1500006 	cmp	r0, r6
    8dac:	1a000021 	bne	8e38 <va_printk+0x28c>
    8db0:	e28d1090 	add	r1, sp, #144, 0	; 0x90
    8db4:	e28d0010 	add	r0, sp, #16, 0
    8db8:	eb0001eb 	bl	956c <strcpy>
    8dbc:	e1a0600b 	mov	r6, fp
    8dc0:	ea00003a 	b	8eb0 <va_printk+0x304>
    8dc4:	e59f3260 	ldr	r3, [pc, #608]	; 902c <va_printk+0x480>
    8dc8:	e58d3000 	str	r3, [sp]
    8dcc:	e3a0309f 	mov	r3, #159, 0	; 0x9f
    8dd0:	e59f223c 	ldr	r2, [pc, #572]	; 9014 <va_printk+0x468>
    8dd4:	e59f123c 	ldr	r1, [pc, #572]	; 9018 <va_printk+0x46c>
    8dd8:	e59f023c 	ldr	r0, [pc, #572]	; 901c <va_printk+0x470>
    8ddc:	ebfffe9e 	bl	885c <printk>
    8de0:	eb000097 	bl	9044 <clean_reboot>
    8de4:	e3a06000 	mov	r6, #0, 0
    8de8:	e58d6004 	str	r6, [sp, #4]
    8dec:	e58d5000 	str	r5, [sp]
    8df0:	e1a03007 	mov	r3, r7
    8df4:	e3a02080 	mov	r2, #128, 0	; 0x80
    8df8:	e28d1010 	add	r1, sp, #16, 0
    8dfc:	e3a00010 	mov	r0, #16, 0
    8e00:	ebfffee3 	bl	8994 <emit>
    8e04:	e1a07000 	mov	r7, r0
    8e08:	e58d6004 	str	r6, [sp, #4]
    8e0c:	e58d5000 	str	r5, [sp]
    8e10:	e1a0300a 	mov	r3, sl
    8e14:	e3a02080 	mov	r2, #128, 0	; 0x80
    8e18:	e28d1090 	add	r1, sp, #144, 0	; 0x90
    8e1c:	e3a00010 	mov	r0, #16, 0
    8e20:	ebfffedb 	bl	8994 <emit>
    8e24:	e28d1092 	add	r1, sp, #146, 0	; 0x92
    8e28:	e28d0010 	add	r0, sp, #16, 0
    8e2c:	eb0001b6 	bl	950c <strcat>
    8e30:	e1a0600b 	mov	r6, fp
    8e34:	ea00001d 	b	8eb0 <va_printk+0x304>
    8e38:	e28d1090 	add	r1, sp, #144, 0	; 0x90
    8e3c:	e28d0010 	add	r0, sp, #16, 0
    8e40:	eb0001b1 	bl	950c <strcat>
    8e44:	e1a0600b 	mov	r6, fp
    8e48:	ea000018 	b	8eb0 <va_printk+0x304>
    8e4c:	e58d6000 	str	r6, [sp]
    8e50:	e3a030b6 	mov	r3, #182, 0	; 0xb6
    8e54:	e59f21b8 	ldr	r2, [pc, #440]	; 9014 <va_printk+0x468>
    8e58:	e59f11b8 	ldr	r1, [pc, #440]	; 9018 <va_printk+0x46c>
    8e5c:	e59f01cc 	ldr	r0, [pc, #460]	; 9030 <va_printk+0x484>
    8e60:	ebfffe7d 	bl	885c <printk>
    8e64:	eb000076 	bl	9044 <clean_reboot>
    8e68:	e3a030be 	mov	r3, #190, 0	; 0xbe
    8e6c:	e59f21a0 	ldr	r2, [pc, #416]	; 9014 <va_printk+0x468>
    8e70:	e59f11a0 	ldr	r1, [pc, #416]	; 9018 <va_printk+0x46c>
    8e74:	e59f01b8 	ldr	r0, [pc, #440]	; 9034 <va_printk+0x488>
    8e78:	ebfffe77 	bl	885c <printk>
    8e7c:	eb000070 	bl	9044 <clean_reboot>
    8e80:	e59d300c 	ldr	r3, [sp, #12]
    8e84:	e2832004 	add	r2, r3, #4, 0
    8e88:	e58d200c 	str	r2, [sp, #12]
    8e8c:	e5933000 	ldr	r3, [r3]
    8e90:	e3a02001 	mov	r2, #1, 0
    8e94:	e58d2004 	str	r2, [sp, #4]
    8e98:	e58d5000 	str	r5, [sp]
    8e9c:	e3a02080 	mov	r2, #128, 0	; 0x80
    8ea0:	e28d1010 	add	r1, sp, #16, 0
    8ea4:	e3a0000a 	mov	r0, #10, 0
    8ea8:	ebfffeb9 	bl	8994 <emit>
    8eac:	e1a07000 	mov	r7, r0
    8eb0:	e2866001 	add	r6, r6, #1, 0
    8eb4:	ea00004a 	b	8fe4 <va_printk+0x438>
    8eb8:	e59d300c 	ldr	r3, [sp, #12]
    8ebc:	e2832004 	add	r2, r3, #4, 0
    8ec0:	e58d200c 	str	r2, [sp, #12]
    8ec4:	e5933000 	ldr	r3, [r3]
    8ec8:	e3a02000 	mov	r2, #0, 0
    8ecc:	e58d2004 	str	r2, [sp, #4]
    8ed0:	e58d5000 	str	r5, [sp]
    8ed4:	e3a02080 	mov	r2, #128, 0	; 0x80
    8ed8:	e28d1010 	add	r1, sp, #16, 0
    8edc:	e3a0000a 	mov	r0, #10, 0
    8ee0:	ebfffeab 	bl	8994 <emit>
    8ee4:	e1a07000 	mov	r7, r0
    8ee8:	eafffff0 	b	8eb0 <va_printk+0x304>
    8eec:	e59d300c 	ldr	r3, [sp, #12]
    8ef0:	e2832004 	add	r2, r3, #4, 0
    8ef4:	e58d200c 	str	r2, [sp, #12]
    8ef8:	e5933000 	ldr	r3, [r3]
    8efc:	e3a02000 	mov	r2, #0, 0
    8f00:	e58d2004 	str	r2, [sp, #4]
    8f04:	e58d5000 	str	r5, [sp]
    8f08:	e3a02080 	mov	r2, #128, 0	; 0x80
    8f0c:	e28d1010 	add	r1, sp, #16, 0
    8f10:	e3a00010 	mov	r0, #16, 0
    8f14:	ebfffe9e 	bl	8994 <emit>
    8f18:	e1a07000 	mov	r7, r0
    8f1c:	eaffffe3 	b	8eb0 <va_printk+0x304>
    8f20:	e59d300c 	ldr	r3, [sp, #12]
    8f24:	e2832004 	add	r2, r3, #4, 0
    8f28:	e58d200c 	str	r2, [sp, #12]
    8f2c:	e5933000 	ldr	r3, [r3]
    8f30:	e3a02000 	mov	r2, #0, 0
    8f34:	e58d2004 	str	r2, [sp, #4]
    8f38:	e58d5000 	str	r5, [sp]
    8f3c:	e3a02080 	mov	r2, #128, 0	; 0x80
    8f40:	e28d1010 	add	r1, sp, #16, 0
    8f44:	e3a00002 	mov	r0, #2, 0
    8f48:	ebfffe91 	bl	8994 <emit>
    8f4c:	e1a07000 	mov	r7, r0
    8f50:	eaffffd6 	b	8eb0 <va_printk+0x304>
    8f54:	e59d300c 	ldr	r3, [sp, #12]
    8f58:	e2832004 	add	r2, r3, #4, 0
    8f5c:	e58d200c 	str	r2, [sp, #12]
    8f60:	e5937000 	ldr	r7, [r3]
    8f64:	eaffffd1 	b	8eb0 <va_printk+0x304>
    8f68:	e59d300c 	ldr	r3, [sp, #12]
    8f6c:	e2832004 	add	r2, r3, #4, 0
    8f70:	e58d200c 	str	r2, [sp, #12]
    8f74:	e5933000 	ldr	r3, [r3]
    8f78:	e3a02000 	mov	r2, #0, 0
    8f7c:	e58d2004 	str	r2, [sp, #4]
    8f80:	e58d5000 	str	r5, [sp]
    8f84:	e3a02080 	mov	r2, #128, 0	; 0x80
    8f88:	e28d1010 	add	r1, sp, #16, 0
    8f8c:	e3a00008 	mov	r0, #8, 0
    8f90:	ebfffe7f 	bl	8994 <emit>
    8f94:	e1a07000 	mov	r7, r0
    8f98:	eaffffc4 	b	8eb0 <va_printk+0x304>
    8f9c:	e3a03000 	mov	r3, #0, 0
    8fa0:	e5c63001 	strb	r3, [r6, #1]
    8fa4:	e1a0200a 	mov	r2, sl
    8fa8:	e1a0100a 	mov	r1, sl
    8fac:	e59f0084 	ldr	r0, [pc, #132]	; 9038 <va_printk+0x48c>
    8fb0:	ebfffe29 	bl	885c <printk>
    8fb4:	e59f3080 	ldr	r3, [pc, #128]	; 903c <va_printk+0x490>
    8fb8:	e5933000 	ldr	r3, [r3]
    8fbc:	e59d0008 	ldr	r0, [sp, #8]
    8fc0:	e12fff33 	blx	r3
    8fc4:	e3a030e2 	mov	r3, #226, 0	; 0xe2
    8fc8:	e59f2044 	ldr	r2, [pc, #68]	; 9014 <va_printk+0x468>
    8fcc:	e59f1044 	ldr	r1, [pc, #68]	; 9018 <va_printk+0x46c>
    8fd0:	e59f0068 	ldr	r0, [pc, #104]	; 9040 <va_printk+0x494>
    8fd4:	ebfffe20 	bl	885c <printk>
    8fd8:	eb000019 	bl	9044 <clean_reboot>
    8fdc:	e2877001 	add	r7, r7, #1, 0
    8fe0:	e4c43001 	strb	r3, [r4], #1
    8fe4:	e1540008 	cmp	r4, r8
    8fe8:	2afffefd 	bcs	8be4 <va_printk+0x38>
    8fec:	e5d73000 	ldrb	r3, [r7]
    8ff0:	e3530000 	cmp	r3, #0, 0
    8ff4:	1afffff8 	bne	8fdc <va_printk+0x430>
    8ff8:	eafffef9 	b	8be4 <va_printk+0x38>
    8ffc:	e3a03000 	mov	r3, #0, 0
    9000:	e4c43001 	strb	r3, [r4], #1
    9004:	e0440009 	sub	r0, r4, r9
    9008:	e28ddf45 	add	sp, sp, #276	; 0x114
    900c:	e8bd8ff0 	pop	{r4, r5, r6, r7, r8, r9, sl, fp, pc}
    9010:	00009ab4 			; <UNDEFINED> instruction: 0x00009ab4
    9014:	00009bbc 			; <UNDEFINED> instruction: 0x00009bbc
    9018:	00009a70 	andeq	r9, r0, r0, ror sl
    901c:	000098cc 	andeq	r9, r0, ip, asr #17
    9020:	00009ac0 	andeq	r9, r0, r0, asr #21
    9024:	00009ac4 	andeq	r9, r0, r4, asr #21
    9028:	00009a84 	andeq	r9, r0, r4, lsl #21
    902c:	00009ac8 	andeq	r9, r0, r8, asr #21
    9030:	00009b04 	andeq	r9, r0, r4, lsl #22
    9034:	00009b2c 	andeq	r9, r0, ip, lsr #22
    9038:	00009b54 	andeq	r9, r0, r4, asr fp
    903c:	00009bd8 	ldrdeq	r9, [r0], -r8
    9040:	00009b84 	andeq	r9, r0, r4, lsl #23

00009044 <clean_reboot>:
    9044:	e92d4010 	push	{r4, lr}
    9048:	e59f3018 	ldr	r3, [pc, #24]	; 9068 <clean_reboot+0x24>
    904c:	e5933000 	ldr	r3, [r3]
    9050:	e59f0014 	ldr	r0, [pc, #20]	; 906c <clean_reboot+0x28>
    9054:	e12fff33 	blx	r3
    9058:	eb0000bb 	bl	934c <uart_flush_tx>
    905c:	e3a0000a 	mov	r0, #10, 0
    9060:	eb000047 	bl	9184 <delay_ms>
    9064:	eb00001d 	bl	90e0 <rpi_reboot>
    9068:	00009bd8 	ldrdeq	r9, [r0], -r8
    906c:	00009bc8 	andeq	r9, r0, r8, asr #23

00009070 <_cstart>:
    9070:	e92d4010 	push	{r4, lr}
    9074:	e59f3018 	ldr	r3, [pc, #24]	; 9094 <_cstart+0x24>
    9078:	e59f2018 	ldr	r2, [pc, #24]	; 9098 <_cstart+0x28>
    907c:	e1530002 	cmp	r3, r2
    9080:	33a02000 	movcc	r2, #0, 0
    9084:	34832004 	strcc	r2, [r3], #4
    9088:	3afffffa 	bcc	9078 <_cstart+0x8>
    908c:	ebfffc08 	bl	80b4 <notmain>
    9090:	ebffffeb 	bl	9044 <clean_reboot>
    9094:	00009bdc 	ldrdeq	r9, [r0], -ip
    9098:	0000a000 	andeq	sl, r0, r0

0000909c <dev_barrier>:
    909c:	ea000002 	b	90ac <dsb>

000090a0 <dmb>:
    90a0:	e3a00000 	mov	r0, #0, 0
    90a4:	ee070fba 	mcr	15, 0, r0, cr7, cr10, {5}
    90a8:	e12fff1e 	bx	lr

000090ac <dsb>:
    90ac:	ee070f9a 	mcr	15, 0, r0, cr7, cr10, {4}
    90b0:	e12fff1e 	bx	lr

000090b4 <at_user_level>:
    90b4:	e10f0000 	mrs	r0, CPSR
    90b8:	e200001f 	and	r0, r0, #31, 0
    90bc:	e3500010 	cmp	r0, #16, 0
    90c0:	13a00000 	movne	r0, #0, 0
    90c4:	03a00001 	moveq	r0, #1, 0
    90c8:	e12fff1e 	bx	lr

000090cc <set_user_level>:
    90cc:	e10f3000 	mrs	r3, CPSR
    90d0:	e3c3301f 	bic	r3, r3, #31, 0
    90d4:	e3833010 	orr	r3, r3, #16, 0
    90d8:	e129f003 	msr	CPSR_fc, r3
    90dc:	e12fff1e 	bx	lr

000090e0 <rpi_reboot>:
    90e0:	e92d4010 	push	{r4, lr}
    90e4:	ebfffff2 	bl	90b4 <at_user_level>
    90e8:	e3500000 	cmp	r0, #0, 0
    90ec:	1a000009 	bne	9118 <rpi_reboot+0x38>
    90f0:	eb000095 	bl	934c <uart_flush_tx>
    90f4:	e3a0000a 	mov	r0, #10, 0
    90f8:	eb000021 	bl	9184 <delay_ms>
    90fc:	e59f101c 	ldr	r1, [pc, #28]	; 9120 <rpi_reboot+0x40>
    9100:	e59f001c 	ldr	r0, [pc, #28]	; 9124 <rpi_reboot+0x44>
    9104:	ebfffbc1 	bl	8010 <PUT32>
    9108:	e59f1018 	ldr	r1, [pc, #24]	; 9128 <rpi_reboot+0x48>
    910c:	e59f0018 	ldr	r0, [pc, #24]	; 912c <rpi_reboot+0x4c>
    9110:	ebfffbbe 	bl	8010 <PUT32>
    9114:	eafffffe 	b	9114 <rpi_reboot+0x34>
    9118:	ebffffeb 	bl	90cc <set_user_level>
    911c:	eafffff3 	b	90f0 <rpi_reboot+0x10>
    9120:	5a000001 	bpl	912c <rpi_reboot+0x4c>
    9124:	20100024 	andscs	r0, r0, r4, lsr #32
    9128:	5a000020 	bpl	91b0 <delay_sec+0x14>
    912c:	2010001c 	andscs	r0, r0, ip, lsl r0

00009130 <timer_get_usec_raw>:
    9130:	e92d4010 	push	{r4, lr}
    9134:	e59f0004 	ldr	r0, [pc, #4]	; 9140 <timer_get_usec_raw+0x10>
    9138:	ebfffbb6 	bl	8018 <GET32>
    913c:	e8bd8010 	pop	{r4, pc}
    9140:	20003004 	andcs	r3, r0, r4

00009144 <timer_get_usec>:
    9144:	e92d4010 	push	{r4, lr}
    9148:	ebffffd3 	bl	909c <dev_barrier>
    914c:	ebfffff7 	bl	9130 <timer_get_usec_raw>
    9150:	e1a04000 	mov	r4, r0
    9154:	ebffffd0 	bl	909c <dev_barrier>
    9158:	e1a00004 	mov	r0, r4
    915c:	e8bd8010 	pop	{r4, pc}

00009160 <delay_us>:
    9160:	e92d4070 	push	{r4, r5, r6, lr}
    9164:	e1a05000 	mov	r5, r0
    9168:	ebfffff5 	bl	9144 <timer_get_usec>
    916c:	e1a04000 	mov	r4, r0
    9170:	ebfffff3 	bl	9144 <timer_get_usec>
    9174:	e0400004 	sub	r0, r0, r4
    9178:	e1500005 	cmp	r0, r5
    917c:	3afffffb 	bcc	9170 <delay_us+0x10>
    9180:	e8bd8070 	pop	{r4, r5, r6, pc}

00009184 <delay_ms>:
    9184:	e92d4010 	push	{r4, lr}
    9188:	e0603280 	rsb	r3, r0, r0, lsl #5
    918c:	e0800103 	add	r0, r0, r3, lsl #2
    9190:	e1a00180 	lsl	r0, r0, #3
    9194:	ebfffff1 	bl	9160 <delay_us>
    9198:	e8bd8010 	pop	{r4, pc}

0000919c <delay_sec>:
    919c:	e92d4010 	push	{r4, lr}
    91a0:	e0603280 	rsb	r3, r0, r0, lsl #5
    91a4:	e0800103 	add	r0, r0, r3, lsl #2
    91a8:	e1a00180 	lsl	r0, r0, #3
    91ac:	ebfffff4 	bl	9184 <delay_ms>
    91b0:	e8bd8010 	pop	{r4, pc}

000091b4 <or_in32>:
    91b4:	e92d4070 	push	{r4, r5, r6, lr}
    91b8:	e1a04000 	mov	r4, r0
    91bc:	e1a05001 	mov	r5, r1
    91c0:	ebfffb94 	bl	8018 <GET32>
    91c4:	e1801005 	orr	r1, r0, r5
    91c8:	e1a00004 	mov	r0, r4
    91cc:	ebfffb8f 	bl	8010 <PUT32>
    91d0:	e8bd8070 	pop	{r4, r5, r6, pc}

000091d4 <uart_init>:
    91d4:	e92d4010 	push	{r4, lr}
    91d8:	e3a01002 	mov	r1, #2, 0
    91dc:	e3a0000e 	mov	r0, #14, 0
    91e0:	eb0000b1 	bl	94ac <gpio_set_function>
    91e4:	e3a01002 	mov	r1, #2, 0
    91e8:	e3a0000f 	mov	r0, #15, 0
    91ec:	eb0000ae 	bl	94ac <gpio_set_function>
    91f0:	ebffffa9 	bl	909c <dev_barrier>
    91f4:	e3a01001 	mov	r1, #1, 0
    91f8:	e59f0064 	ldr	r0, [pc, #100]	; 9264 <uart_init+0x90>
    91fc:	ebffffec 	bl	91b4 <or_in32>
    9200:	ebffffa5 	bl	909c <dev_barrier>
    9204:	e59f405c 	ldr	r4, [pc, #92]	; 9268 <uart_init+0x94>
    9208:	e3a01000 	mov	r1, #0, 0
    920c:	e1a00004 	mov	r0, r4
    9210:	ebfffb7e 	bl	8010 <PUT32>
    9214:	e3a01000 	mov	r1, #0, 0
    9218:	e59f004c 	ldr	r0, [pc, #76]	; 926c <uart_init+0x98>
    921c:	ebfffb7b 	bl	8010 <PUT32>
    9220:	e3a01003 	mov	r1, #3, 0
    9224:	e59f0044 	ldr	r0, [pc, #68]	; 9270 <uart_init+0x9c>
    9228:	ebfffb78 	bl	8010 <PUT32>
    922c:	e3a01000 	mov	r1, #0, 0
    9230:	e59f003c 	ldr	r0, [pc, #60]	; 9274 <uart_init+0xa0>
    9234:	ebfffb75 	bl	8010 <PUT32>
    9238:	e3a010c7 	mov	r1, #199, 0	; 0xc7
    923c:	e59f0034 	ldr	r0, [pc, #52]	; 9278 <uart_init+0xa4>
    9240:	ebfffb72 	bl	8010 <PUT32>
    9244:	e59f1030 	ldr	r1, [pc, #48]	; 927c <uart_init+0xa8>
    9248:	e59f0030 	ldr	r0, [pc, #48]	; 9280 <uart_init+0xac>
    924c:	ebfffb6f 	bl	8010 <PUT32>
    9250:	e3a01003 	mov	r1, #3, 0
    9254:	e1a00004 	mov	r0, r4
    9258:	ebfffb6c 	bl	8010 <PUT32>
    925c:	ebffff8e 	bl	909c <dev_barrier>
    9260:	e8bd8010 	pop	{r4, pc}
    9264:	20215004 	eorcs	r5, r1, r4
    9268:	20215060 	eorcs	r5, r1, r0, rrx
    926c:	20215044 	eorcs	r5, r1, r4, asr #32
    9270:	2021504c 	eorcs	r5, r1, ip, asr #32
    9274:	20215050 	eorcs	r5, r1, r0, asr r0
    9278:	20215048 	eorcs	r5, r1, r8, asr #32
    927c:	0000010e 	andeq	r0, r0, lr, lsl #2
    9280:	20215068 	eorcs	r5, r1, r8, rrx

00009284 <uart_can_getc>:
    9284:	e92d4010 	push	{r4, lr}
    9288:	e59f0008 	ldr	r0, [pc, #8]	; 9298 <uart_can_getc+0x14>
    928c:	ebfffb61 	bl	8018 <GET32>
    9290:	e2000001 	and	r0, r0, #1, 0
    9294:	e8bd8010 	pop	{r4, pc}
    9298:	20215064 	eorcs	r5, r1, r4, rrx

0000929c <uart_can_putc>:
    929c:	e92d4010 	push	{r4, lr}
    92a0:	e59f0010 	ldr	r0, [pc, #16]	; 92b8 <uart_can_putc+0x1c>
    92a4:	ebfffb5b 	bl	8018 <GET32>
    92a8:	e3100002 	tst	r0, #2, 0
    92ac:	13a00001 	movne	r0, #1, 0
    92b0:	03a00000 	moveq	r0, #0, 0
    92b4:	e8bd8010 	pop	{r4, pc}
    92b8:	20215064 	eorcs	r5, r1, r4, rrx

000092bc <uart_getc>:
    92bc:	e92d4010 	push	{r4, lr}
    92c0:	ebffff75 	bl	909c <dev_barrier>
    92c4:	ebffffee 	bl	9284 <uart_can_getc>
    92c8:	e3500000 	cmp	r0, #0, 0
    92cc:	0afffffc 	beq	92c4 <uart_getc+0x8>
    92d0:	e59f0010 	ldr	r0, [pc, #16]	; 92e8 <uart_getc+0x2c>
    92d4:	ebfffb4f 	bl	8018 <GET32>
    92d8:	e6ef4070 	uxtb	r4, r0
    92dc:	ebffff6e 	bl	909c <dev_barrier>
    92e0:	e1a00004 	mov	r0, r4
    92e4:	e8bd8010 	pop	{r4, pc}
    92e8:	20215040 	eorcs	r5, r1, r0, asr #32

000092ec <uart_putc>:
    92ec:	e92d4010 	push	{r4, lr}
    92f0:	e1a04000 	mov	r4, r0
    92f4:	ebffff68 	bl	909c <dev_barrier>
    92f8:	ebffffe7 	bl	929c <uart_can_putc>
    92fc:	e3500000 	cmp	r0, #0, 0
    9300:	0afffffc 	beq	92f8 <uart_putc+0xc>
    9304:	e6ef1074 	uxtb	r1, r4
    9308:	e59f0008 	ldr	r0, [pc, #8]	; 9318 <uart_putc+0x2c>
    930c:	ebfffb3f 	bl	8010 <PUT32>
    9310:	ebffff61 	bl	909c <dev_barrier>
    9314:	e8bd8010 	pop	{r4, pc}
    9318:	20215040 	eorcs	r5, r1, r0, asr #32

0000931c <uart_has_data>:
    931c:	e92d4010 	push	{r4, lr}
    9320:	ebffff5d 	bl	909c <dev_barrier>
    9324:	ebffffd6 	bl	9284 <uart_can_getc>
    9328:	e8bd8010 	pop	{r4, pc}

0000932c <uart_tx_is_empty>:
    932c:	e92d4010 	push	{r4, lr}
    9330:	ebffff59 	bl	909c <dev_barrier>
    9334:	e59f000c 	ldr	r0, [pc, #12]	; 9348 <uart_tx_is_empty+0x1c>
    9338:	ebfffb36 	bl	8018 <GET32>
    933c:	e1a004a0 	lsr	r0, r0, #9
    9340:	e2000001 	and	r0, r0, #1, 0
    9344:	e8bd8010 	pop	{r4, pc}
    9348:	20215064 	eorcs	r5, r1, r4, rrx

0000934c <uart_flush_tx>:
    934c:	e92d4010 	push	{r4, lr}
    9350:	ebfffff5 	bl	932c <uart_tx_is_empty>
    9354:	e3500000 	cmp	r0, #0, 0
    9358:	0afffffc 	beq	9350 <uart_flush_tx+0x4>
    935c:	e8bd8010 	pop	{r4, pc}

00009360 <gpio_set_output>:
    9360:	e350001f 	cmp	r0, #31, 0
    9364:	812fff1e 	bxhi	lr
    9368:	e92d41f0 	push	{r4, r5, r6, r7, r8, lr}
    936c:	e1a04000 	mov	r4, r0
    9370:	e59f5040 	ldr	r5, [pc, #64]	; 93b8 <gpio_set_output+0x58>
    9374:	e0853095 	umull	r3, r5, r5, r0
    9378:	e1a051a5 	lsr	r5, r5, #3
    937c:	e1a07105 	lsl	r7, r5, #2
    9380:	e2876202 	add	r6, r7, #536870912	; 0x20000000
    9384:	e2866602 	add	r6, r6, #2097152	; 0x200000
    9388:	e1a00006 	mov	r0, r6
    938c:	ebfffb21 	bl	8018 <GET32>
    9390:	e0875005 	add	r5, r7, r5
    9394:	e0444085 	sub	r4, r4, r5, lsl #1
    9398:	e0844084 	add	r4, r4, r4, lsl #1
    939c:	e3a01007 	mov	r1, #7, 0
    93a0:	e1c00411 	bic	r0, r0, r1, lsl r4
    93a4:	e3a01001 	mov	r1, #1, 0
    93a8:	e1801411 	orr	r1, r0, r1, lsl r4
    93ac:	e1a00006 	mov	r0, r6
    93b0:	ebfffb16 	bl	8010 <PUT32>
    93b4:	e8bd81f0 	pop	{r4, r5, r6, r7, r8, pc}
    93b8:	cccccccd 	stclgt	12, cr12, [ip], {205}	; 0xcd

000093bc <gpio_set_on>:
    93bc:	e350001f 	cmp	r0, #31, 0
    93c0:	812fff1e 	bxhi	lr
    93c4:	e92d4010 	push	{r4, lr}
    93c8:	e3a01001 	mov	r1, #1, 0
    93cc:	e1a01011 	lsl	r1, r1, r0
    93d0:	e59f0004 	ldr	r0, [pc, #4]	; 93dc <gpio_set_on+0x20>
    93d4:	ebfffb0d 	bl	8010 <PUT32>
    93d8:	e8bd8010 	pop	{r4, pc}
    93dc:	2020001c 	eorcs	r0, r0, ip, lsl r0

000093e0 <gpio_set_off>:
    93e0:	e350001f 	cmp	r0, #31, 0
    93e4:	812fff1e 	bxhi	lr
    93e8:	e92d4010 	push	{r4, lr}
    93ec:	e3a01001 	mov	r1, #1, 0
    93f0:	e1a01011 	lsl	r1, r1, r0
    93f4:	e59f0004 	ldr	r0, [pc, #4]	; 9400 <gpio_set_off+0x20>
    93f8:	ebfffb04 	bl	8010 <PUT32>
    93fc:	e8bd8010 	pop	{r4, pc}
    9400:	20200028 	eorcs	r0, r0, r8, lsr #32

00009404 <gpio_write>:
    9404:	e92d4010 	push	{r4, lr}
    9408:	e3510000 	cmp	r1, #0, 0
    940c:	0a000001 	beq	9418 <gpio_write+0x14>
    9410:	ebffffe9 	bl	93bc <gpio_set_on>
    9414:	e8bd8010 	pop	{r4, pc}
    9418:	ebfffff0 	bl	93e0 <gpio_set_off>
    941c:	e8bd8010 	pop	{r4, pc}

00009420 <gpio_set_input>:
    9420:	e350001f 	cmp	r0, #31, 0
    9424:	812fff1e 	bxhi	lr
    9428:	e92d41f0 	push	{r4, r5, r6, r7, r8, lr}
    942c:	e1a04000 	mov	r4, r0
    9430:	e59f5038 	ldr	r5, [pc, #56]	; 9470 <gpio_set_input+0x50>
    9434:	e0853095 	umull	r3, r5, r5, r0
    9438:	e1a051a5 	lsr	r5, r5, #3
    943c:	e1a07105 	lsl	r7, r5, #2
    9440:	e2876202 	add	r6, r7, #536870912	; 0x20000000
    9444:	e2866602 	add	r6, r6, #2097152	; 0x200000
    9448:	e1a00006 	mov	r0, r6
    944c:	ebfffaf1 	bl	8018 <GET32>
    9450:	e0875005 	add	r5, r7, r5
    9454:	e0444085 	sub	r4, r4, r5, lsl #1
    9458:	e0844084 	add	r4, r4, r4, lsl #1
    945c:	e3a01007 	mov	r1, #7, 0
    9460:	e1c01411 	bic	r1, r0, r1, lsl r4
    9464:	e1a00006 	mov	r0, r6
    9468:	ebfffae8 	bl	8010 <PUT32>
    946c:	e8bd81f0 	pop	{r4, r5, r6, r7, r8, pc}
    9470:	cccccccd 	stclgt	12, cr12, [ip], {205}	; 0xcd

00009474 <gpio_read>:
    9474:	e350001f 	cmp	r0, #31, 0
    9478:	9a000001 	bls	9484 <gpio_read+0x10>
    947c:	e3e00000 	mvn	r0, #0, 0
    9480:	e12fff1e 	bx	lr
    9484:	e92d4010 	push	{r4, lr}
    9488:	e1a04000 	mov	r4, r0
    948c:	e59f0014 	ldr	r0, [pc, #20]	; 94a8 <gpio_read+0x34>
    9490:	ebfffae0 	bl	8018 <GET32>
    9494:	e3a03001 	mov	r3, #1, 0
    9498:	e0103413 	ands	r3, r0, r3, lsl r4
    949c:	13a00001 	movne	r0, #1, 0
    94a0:	03a00000 	moveq	r0, #0, 0
    94a4:	e8bd8010 	pop	{r4, pc}
    94a8:	20200034 	eorcs	r0, r0, r4, lsr r0

000094ac <gpio_set_function>:
    94ac:	e3510007 	cmp	r1, #7, 0
    94b0:	9350001f 	cmpls	r0, #31, 0
    94b4:	812fff1e 	bxhi	lr
    94b8:	e92d41f0 	push	{r4, r5, r6, r7, r8, lr}
    94bc:	e1a04000 	mov	r4, r0
    94c0:	e1a05001 	mov	r5, r1
    94c4:	e59f603c 	ldr	r6, [pc, #60]	; 9508 <gpio_set_function+0x5c>
    94c8:	e0863096 	umull	r3, r6, r6, r0
    94cc:	e1a061a6 	lsr	r6, r6, #3
    94d0:	e1a08106 	lsl	r8, r6, #2
    94d4:	e2887202 	add	r7, r8, #536870912	; 0x20000000
    94d8:	e2877602 	add	r7, r7, #2097152	; 0x200000
    94dc:	e1a00007 	mov	r0, r7
    94e0:	ebfffacc 	bl	8018 <GET32>
    94e4:	e0886006 	add	r6, r8, r6
    94e8:	e0444086 	sub	r4, r4, r6, lsl #1
    94ec:	e0844084 	add	r4, r4, r4, lsl #1
    94f0:	e3a01007 	mov	r1, #7, 0
    94f4:	e1c01411 	bic	r1, r0, r1, lsl r4
    94f8:	e1811415 	orr	r1, r1, r5, lsl r4
    94fc:	e1a00007 	mov	r0, r7
    9500:	ebfffac2 	bl	8010 <PUT32>
    9504:	e8bd81f0 	pop	{r4, r5, r6, r7, r8, pc}
    9508:	cccccccd 	stclgt	12, cr12, [ip], {205}	; 0xcd

0000950c <strcat>:
    950c:	e1a02000 	mov	r2, r0
    9510:	e1a03002 	mov	r3, r2
    9514:	e2822001 	add	r2, r2, #1, 0
    9518:	e5d3c000 	ldrb	ip, [r3]
    951c:	e35c0000 	cmp	ip, #0, 0
    9520:	1afffffa 	bne	9510 <strcat+0x4>
    9524:	e2433001 	sub	r3, r3, #1, 0
    9528:	e5d12000 	ldrb	r2, [r1]
    952c:	e2811001 	add	r1, r1, #1, 0
    9530:	e5e32001 	strb	r2, [r3, #1]!
    9534:	e3520000 	cmp	r2, #0, 0
    9538:	1afffffa 	bne	9528 <strcat+0x1c>
    953c:	e12fff1e 	bx	lr

00009540 <strcmp>:
    9540:	e5d03000 	ldrb	r3, [r0]
    9544:	e3530000 	cmp	r3, #0, 0
    9548:	0a000004 	beq	9560 <strcmp+0x20>
    954c:	e5d12000 	ldrb	r2, [r1]
    9550:	e1530002 	cmp	r3, r2
    9554:	02800001 	addeq	r0, r0, #1, 0
    9558:	02811001 	addeq	r1, r1, #1, 0
    955c:	0afffff7 	beq	9540 <strcmp>
    9560:	e5d10000 	ldrb	r0, [r1]
    9564:	e0430000 	sub	r0, r3, r0
    9568:	e12fff1e 	bx	lr

0000956c <strcpy>:
    956c:	e1a0c000 	mov	ip, r0
    9570:	e5d12000 	ldrb	r2, [r1]
    9574:	e2811001 	add	r1, r1, #1, 0
    9578:	e5cc2000 	strb	r2, [ip]
    957c:	e28cc001 	add	ip, ip, #1, 0
    9580:	e3520000 	cmp	r2, #0, 0
    9584:	1afffff9 	bne	9570 <strcpy+0x4>
    9588:	e12fff1e 	bx	lr

0000958c <strncmp>:
    958c:	e3520000 	cmp	r2, #0, 0
    9590:	e2422001 	sub	r2, r2, #1, 0
    9594:	0a000005 	beq	95b0 <strncmp+0x24>
    9598:	e4d03001 	ldrb	r3, [r0], #1
    959c:	e4d1c001 	ldrb	ip, [r1], #1
    95a0:	e153000c 	cmp	r3, ip
    95a4:	0afffff8 	beq	958c <strncmp>
    95a8:	e043000c 	sub	r0, r3, ip
    95ac:	e12fff1e 	bx	lr
    95b0:	e3a00000 	mov	r0, #0, 0
    95b4:	e12fff1e 	bx	lr

Disassembly of section .rodata:

000095b8 <__FUNCTION__.3981-0x154>:
    95b8:	756f6261 	strbvc	r6, [pc, #-609]!	; 935f <uart_flush_tx+0x13>
    95bc:	6f742074 	svcvs	0x00742074
    95c0:	736e6920 	cmnvc	lr, #32, 18	; 0x80000
    95c4:	6c6c6174 	stfvse	f6, [ip], #-464	; 0xfffffe30
    95c8:	6e616820 	cdpvs	8, 6, cr6, cr1, cr0, {1}
    95cc:	72656c64 	rsbvc	r6, r5, #100, 24	; 0x6400
    95d0:	00000a73 	andeq	r0, r0, r3, ror sl
    95d4:	74746573 	ldrbtvc	r6, [r4], #-1395	; 0xfffffa8d
    95d8:	20676e69 	rsbcs	r6, r7, r9, ror #28
    95dc:	74207075 	strtvc	r7, [r0], #-117	; 0xffffff8b
    95e0:	72656d69 	rsbvc	r6, r5, #6720	; 0x1a40
    95e4:	746e6920 	strbtvc	r6, [lr], #-2336	; 0xfffff6e0
    95e8:	75727265 	ldrbvc	r7, [r2, #-613]!	; 0xfffffd9b
    95ec:	0a737470 	beq	1ce67b4 <__bss_end__+0x1cdc7b4>
    95f0:	00000000 	andeq	r0, r0, r0
    95f4:	6e6e6f67 	cdpvs	15, 6, cr6, cr14, cr7, {3}
    95f8:	6e652061 	cdpvs	0, 6, cr2, cr5, cr1, {3}
    95fc:	656c6261 	strbvs	r6, [ip, #-609]!	; 0xfffffd9f
    9600:	746e6920 	strbtvc	r6, [lr], #-2336	; 0xfffff6e0
    9604:	6c672073 	stclvs	0, cr2, [r7], #-460	; 0xfffffe34
    9608:	6c61626f 	sfmvs	f6, 2, [r1], #-444	; 0xfffffe44
    960c:	0a21796c 	beq	867bc4 <__bss_end__+0x85dbc4>
    9610:	00000000 	andeq	r0, r0, r0
    9614:	62616e65 	rsbvs	r6, r1, #1616	; 0x650
    9618:	2164656c 	cmncs	r4, ip, ror #10
    961c:	0000000a 	andeq	r0, r0, sl
    9620:	72657469 	rsbvc	r7, r5, #1761607680	; 0x69000000
    9624:	3a64253d 	bcc	1912b20 <__bss_end__+0x1908b20>
    9628:	746e6320 	strbtvc	r6, [lr], #-800	; 0xfffffce0
    962c:	25203d20 	strcs	r3, [r0, #-3360]!	; 0xfffff2e0
    9630:	70202c64 	eorvc	r2, r0, r4, ror #24
    9634:	6f697265 	svcvs	0x00697265
    9638:	203d2064 	eorscs	r2, sp, r4, rrx
    963c:	73756425 	cmnvc	r5, #620756992	; 0x25000000
    9640:	202c6365 	eorcs	r6, ip, r5, ror #6
    9644:	000a7825 	andeq	r7, sl, r5, lsr #16
    9648:	6c626174 	stfvse	f6, [r2], #-464	; 0xfffffe30
    964c:	25203a65 	strcs	r3, [r0, #-2661]!	; 0xfffff59b
    9650:	00000a64 	andeq	r0, r0, r4, ror #20
    9654:	72646461 	rsbvc	r6, r4, #1627389952	; 0x61000000
    9658:	3a737365 	bcc	1ce63f4 <__bss_end__+0x1cdc3f4>
    965c:	0a702520 	beq	1c12ae4 <__bss_end__+0x1c08ae4>
    9660:	00000000 	andeq	r0, r0, r0
    9664:	65746e69 	ldrbvs	r6, [r4, #-3689]!	; 0xfffff197
    9668:	70757272 	rsbsvc	r7, r5, r2, ror r2
    966c:	632d7374 			; <UNDEFINED> instruction: 0x632d7374
    9670:	0000632e 	andeq	r6, r0, lr, lsr #6
    9674:	494e4150 	stmdbmi	lr, {r4, r6, r8, lr}^
    9678:	73253a43 			; <UNDEFINED> instruction: 0x73253a43
    967c:	3a73253a 	bcc	1cd2b6c <__bss_end__+0x1cc8b6c>
    9680:	453a6425 	ldrmi	r6, [sl, #-1061]!	; 0xfffffbdb
    9684:	524f5252 	subpl	r5, pc, #536870917	; 0x20000005
    9688:	6e75203a 	mrcvs	0, 3, r2, cr5, cr10, {1}
    968c:	646e6168 	strbtvs	r6, [lr], #-360	; 0xfffffe98
    9690:	2064656c 	rsbcs	r6, r4, ip, ror #10
    9694:	65637865 	strbvs	r7, [r3, #-2149]!	; 0xfffff79b
    9698:	6f697470 	svcvs	0x00697470
    969c:	253c206e 	ldrcs	r2, [ip, #-110]!	; 0xffffff92
    96a0:	61203e73 			; <UNDEFINED> instruction: 0x61203e73
    96a4:	43502074 	cmpmi	r0, #116, 0	; 0x74
    96a8:	0a78253d 	beq	1e12ba4 <__bss_end__+0x1e08ba4>
    96ac:	0000000a 	andeq	r0, r0, sl
    96b0:	74736166 	ldrbtvc	r6, [r3], #-358	; 0xfffffe9a
    96b4:	00000000 	andeq	r0, r0, r0
    96b8:	74666f73 	strbtvc	r6, [r6], #-3955	; 0xfffff08d
    96bc:	746e6920 	strbtvc	r6, [lr], #-2336	; 0xfffff6e0
    96c0:	75727265 	ldrbvc	r7, [r2, #-613]!	; 0xfffffd9b
    96c4:	00007470 	andeq	r7, r0, r0, ror r4
    96c8:	65736572 	ldrbvs	r6, [r3, #-1394]!	; 0xfffffa8e
    96cc:	65762074 	ldrbvs	r2, [r6, #-116]!	; 0xffffff8c
    96d0:	726f7463 	rsbvc	r7, pc, #1660944384	; 0x63000000
    96d4:	00000000 	andeq	r0, r0, r0
    96d8:	65646e75 	strbvs	r6, [r4, #-3701]!	; 0xfffff18b
    96dc:	656e6966 	strbvs	r6, [lr, #-2406]!	; 0xfffff69a
    96e0:	6e692064 	cdpvs	0, 6, cr2, cr9, cr4, {3}
    96e4:	75727473 	ldrbvc	r7, [r2, #-1139]!	; 0xfffffb8d
    96e8:	6f697463 	svcvs	0x00697463
    96ec:	0000006e 	andeq	r0, r0, lr, rrx
    96f0:	66657270 			; <UNDEFINED> instruction: 0x66657270
    96f4:	68637465 	stmdavs	r3!, {r0, r2, r5, r6, sl, ip, sp, lr}^
    96f8:	6f626120 	svcvs	0x00626120
    96fc:	00007472 	andeq	r7, r0, r2, ror r4
    9700:	61746164 	cmnvs	r4, r4, ror #2
    9704:	6f626120 	svcvs	0x00626120
    9708:	00007472 	andeq	r7, r0, r2, ror r4

0000970c <__FUNCTION__.3981>:
    970c:	74736166 	ldrbtvc	r6, [r3], #-358	; 0xfffffe9a
    9710:	746e695f 	strbtvc	r6, [lr], #-2399	; 0xfffff6a1
    9714:	75727265 	ldrbvc	r7, [r2, #-613]!	; 0xfffffd9b
    9718:	765f7470 			; <UNDEFINED> instruction: 0x765f7470
    971c:	6f746365 	svcvs	0x00746365
    9720:	00000072 	andeq	r0, r0, r2, ror r0

00009724 <__FUNCTION__.3985>:
    9724:	74666f73 	strbtvc	r6, [r6], #-3955	; 0xfffff08d
    9728:	65726177 	ldrbvs	r6, [r2, #-375]!	; 0xfffffe89
    972c:	746e695f 	strbtvc	r6, [lr], #-2399	; 0xfffff6a1
    9730:	75727265 	ldrbvc	r7, [r2, #-613]!	; 0xfffffd9b
    9734:	765f7470 			; <UNDEFINED> instruction: 0x765f7470
    9738:	6f746365 	svcvs	0x00746365
    973c:	00000072 	andeq	r0, r0, r2, ror r0

00009740 <__FUNCTION__.3989>:
    9740:	65736572 	ldrbvs	r6, [r3, #-1394]!	; 0xfffffa8e
    9744:	65765f74 	ldrbvs	r5, [r6, #-3956]!	; 0xfffff08c
    9748:	726f7463 	rsbvc	r7, pc, #1660944384	; 0x63000000
    974c:	00000000 	andeq	r0, r0, r0

00009750 <__FUNCTION__.3993>:
    9750:	65646e75 	strbvs	r6, [r4, #-3701]!	; 0xfffff18b
    9754:	656e6966 	strbvs	r6, [lr, #-2406]!	; 0xfffff69a
    9758:	6e695f64 	cdpvs	15, 6, cr5, cr9, cr4, {3}
    975c:	75727473 	ldrbvc	r7, [r2, #-1139]!	; 0xfffffb8d
    9760:	6f697463 	svcvs	0x00697463
    9764:	65765f6e 	ldrbvs	r5, [r6, #-3950]!	; 0xfffff092
    9768:	726f7463 	rsbvc	r7, pc, #1660944384	; 0x63000000
    976c:	00000000 	andeq	r0, r0, r0

00009770 <__FUNCTION__.3997>:
    9770:	66657270 			; <UNDEFINED> instruction: 0x66657270
    9774:	68637465 	stmdavs	r3!, {r0, r2, r5, r6, sl, ip, sp, lr}^
    9778:	6f62615f 	svcvs	0x0062615f
    977c:	765f7472 			; <UNDEFINED> instruction: 0x765f7472
    9780:	6f746365 	svcvs	0x00746365
    9784:	00000072 	andeq	r0, r0, r2, ror r0

00009788 <__FUNCTION__.4001>:
    9788:	61746164 	cmnvs	r4, r4, ror #2
    978c:	6f62615f 	svcvs	0x0062615f
    9790:	765f7472 			; <UNDEFINED> instruction: 0x765f7472
    9794:	6f746365 	svcvs	0x00746365
    9798:	00000072 	andeq	r0, r0, r2, ror r0
    979c:	656d6974 	strbvs	r6, [sp, #-2420]!	; 0xfffff68c
    97a0:	6e692d72 	mcrvs	13, 3, r2, cr9, cr2, {3}
    97a4:	72726574 	rsbsvc	r6, r2, #116, 10	; 0x1d000000
    97a8:	2e747075 	mrccs	0, 3, r7, cr4, cr5, {3}
    97ac:	00000063 	andeq	r0, r0, r3, rrx
    97b0:	494e4150 	stmdbmi	lr, {r4, r6, r8, lr}^
    97b4:	73253a43 			; <UNDEFINED> instruction: 0x73253a43
    97b8:	3a73253a 	bcc	1cd2ca8 <__bss_end__+0x1cc8ca8>
    97bc:	6f3a6425 	svcvs	0x003a6425
    97c0:	65736666 	ldrbvs	r6, [r3, #-1638]!	; 0xfffff99a
    97c4:	72772074 	rsbsvc	r2, r7, #116, 0	; 0x74
    97c8:	3a676e6f 	bcc	19e518c <__bss_end__+0x19db18c>
    97cc:	70786520 	rsbsvc	r6, r8, r0, lsr #10
    97d0:	20746365 	rsbscs	r6, r4, r5, ror #6
    97d4:	67207825 	strvs	r7, [r0, -r5, lsr #16]!
    97d8:	2520746f 	strcs	r7, [r0, #-1135]!	; 0xfffffb91
    97dc:	73252078 			; <UNDEFINED> instruction: 0x73252078
    97e0:	666f5b20 	strbtvs	r5, [pc], -r0, lsr #22
    97e4:	64253d66 	strtvs	r3, [r5], #-3430	; 0xfffff29a
    97e8:	69626e2c 	stmdbvs	r2!, {r2, r3, r5, r9, sl, fp, sp, lr}^
    97ec:	253d7374 	ldrcs	r7, [sp, #-884]!	; 0xfffffc8c
    97f0:	0a0a5d64 	beq	2a0d88 <__bss_end__+0x296d88>
    97f4:	00000000 	andeq	r0, r0, r0
    97f8:	5f657375 	svcpl	0x00657375
    97fc:	69623233 	stmdbvs	r2!, {r0, r1, r4, r5, r9, ip, sp}^
    9800:	6f635f74 	svcvs	0x00635f74
    9804:	65746e75 	ldrbvs	r6, [r4, #-3701]!	; 0xfffff18b
    9808:	00000072 	andeq	r0, r0, r2, ror r0
    980c:	494e4150 	stmdbmi	lr, {r4, r6, r8, lr}^
    9810:	73253a43 			; <UNDEFINED> instruction: 0x73253a43
    9814:	3a73253a 	bcc	1cd2d04 <__bss_end__+0x1cc8d04>
    9818:	773a6425 	ldrvc	r6, [sl, -r5, lsr #8]!
    981c:	68746469 	ldmdavs	r4!, {r0, r3, r5, r6, sl, sp, lr}^
    9820:	6f727720 	svcvs	0x00727720
    9824:	203a676e 	eorscs	r6, sl, lr, ror #14
    9828:	65707865 	ldrbvs	r7, [r0, #-2149]!	; 0xfffff79b
    982c:	25207463 	strcs	r7, [r0, #-1123]!	; 0xfffffb9d
    9830:	6f672078 	svcvs	0x00672078
    9834:	78252074 	stmdavc	r5!, {r2, r4, r5, r6, sp}
    9838:	20732520 	rsbscs	r2, r3, r0, lsr #10
    983c:	66666f5b 	uqsaxvs	r6, r6, fp
    9840:	2c64253d 	cfstr64cs	mvdx2, [r4], #-244	; 0xffffff0c
    9844:	7469626e 	strbtvc	r6, [r9], #-622	; 0xfffffd92
    9848:	64253d73 	strtvs	r3, [r5], #-3443	; 0xfffff28d
    984c:	000a0a5d 	andeq	r0, sl, sp, asr sl
    9850:	5f746e69 	svcpl	0x00746e69
    9854:	62616e65 	rsbvs	r6, r1, #1616	; 0x650
    9858:	0064656c 	rsbeq	r6, r4, ip, ror #10
    985c:	656d6974 	strbvs	r6, [sp, #-2420]!	; 0xfffff68c
    9860:	6e655f72 	mcrvs	15, 3, r5, cr5, cr2, {3}
    9864:	656c6261 	strbvs	r6, [ip, #-609]!	; 0xfffffd9f
    9868:	00000064 	andeq	r0, r0, r4, rrx
    986c:	6e756f63 	cdpvs	15, 7, cr6, cr5, cr3, {3}
    9870:	5f726574 	svcpl	0x00726574
    9874:	62616e65 	rsbvs	r6, r1, #1616	; 0x650
    9878:	0064656c 	rsbeq	r6, r4, ip, ror #10
    987c:	6e756f63 	cdpvs	15, 7, cr6, cr5, cr3, {3}
    9880:	5f726574 	svcpl	0x00726574
    9884:	73657270 	cmnvc	r5, #112, 4
    9888:	656c6163 	strbvs	r6, [ip, #-355]!	; 0xfffffe9d
    988c:	00000072 	andeq	r0, r0, r2, ror r0
    9890:	7366666f 	cmnvc	r6, #116391936	; 0x6f00000
    9894:	20737465 	rsbscs	r7, r3, r5, ror #8
    9898:	63656863 	cmnvs	r5, #6488064	; 0x630000
    989c:	2064656b 	rsbcs	r6, r4, fp, ror #10
    98a0:	2174756f 	cmncs	r4, pc, ror #10
    98a4:	0000000a 	andeq	r0, r0, sl

000098a8 <__FUNCTION__.4009>:
    98a8:	656d6974 	strbvs	r6, [sp, #-2420]!	; 0xfffff68c
    98ac:	68635f72 	stmdavs	r3!, {r1, r4, r5, r6, r8, r9, sl, fp, ip, lr}^
    98b0:	5f6b6365 	svcpl	0x006b6365
    98b4:	7366666f 	cmnvc	r6, #116391936	; 0x6f00000
    98b8:	00737465 	rsbseq	r7, r3, r5, ror #8
    98bc:	72732f2e 	rsbsvc	r2, r3, #184	; 0xb8
    98c0:	6d6b2f63 	stclvs	15, cr2, [fp, #-396]!	; 0xfffffe74
    98c4:	6f6c6c61 	svcvs	0x006c6c61
    98c8:	00632e63 	rsbeq	r2, r3, r3, ror #28
    98cc:	494e4150 	stmdbmi	lr, {r4, r6, r8, lr}^
    98d0:	73253a43 			; <UNDEFINED> instruction: 0x73253a43
    98d4:	3a73253a 	bcc	1cd2dc4 <__bss_end__+0x1cc8dc4>
    98d8:	253a6425 	ldrcs	r6, [sl, #-1061]!	; 0xfffffbdb
    98dc:	00000a73 	andeq	r0, r0, r3, ror sl
    98e0:	4f525245 	svcmi	0x00525245
    98e4:	73253a52 			; <UNDEFINED> instruction: 0x73253a52
    98e8:	3a73253a 	bcc	1cd2dd8 <__bss_end__+0x1cc8dd8>
    98ec:	203a6425 	eorscs	r6, sl, r5, lsr #8
    98f0:	534c4146 	movtpl	r4, #49478	; 0xc146
    98f4:	253c2845 	ldrcs	r2, [ip, #-2117]!	; 0xfffff7bb
    98f8:	3a293e73 	bcc	a592cc <__bss_end__+0xa4f2cc>
    98fc:	6c616320 	stclvs	3, cr6, [r1], #-128	; 0xffffff80
    9900:	676e696c 	strbvs	r6, [lr, -ip, ror #18]!
    9904:	66656220 	strbtvs	r6, [r5], -r0, lsr #4
    9908:	2065726f 	rsbcs	r7, r5, pc, ror #4
    990c:	74696e69 	strbtvc	r6, [r9], #-3689	; 0xfffff197
    9910:	696c6169 	stmdbvs	ip!, {r0, r3, r5, r6, r8, sp, lr}^
    9914:	0a64657a 	beq	1922f04 <__bss_end__+0x1918f04>
    9918:	00000000 	andeq	r0, r0, r0
    991c:	74696e69 	strbtvc	r6, [r9], #-3689	; 0xfffff197
    9920:	0000705f 	andeq	r7, r0, pc, asr r0
    9924:	615f7369 	cmpvs	pc, r9, ror #6
    9928:	6e67696c 	vnmulvs.f16	s13, s14, s25	; <UNPREDICTABLE>
    992c:	68286465 	stmdavs	r8!, {r0, r2, r5, r6, sl, sp, lr}
    9930:	2c706165 	ldfcse	f6, [r0], #-404	; 0xfffffe6c
    9934:	00293420 	eoreq	r3, r9, r0, lsr #8
    9938:	657a6973 	ldrbvs	r6, [sl, #-2419]!	; 0xfffff68d
    993c:	6828666f 	stmdavs	r8!, {r0, r1, r2, r3, r5, r6, r9, sl, sp, lr}
    9940:	29706165 	ldmdbcs	r0!, {r0, r2, r5, r6, r8, sp, lr}^
    9944:	203d3d20 	eorscs	r3, sp, r0, lsr #26
    9948:	7479626e 	ldrbtvc	r6, [r9], #-622	; 0xfffffd92
    994c:	00007365 	andeq	r7, r0, r5, ror #6
    9950:	4f525245 	svcmi	0x00525245
    9954:	73253a52 			; <UNDEFINED> instruction: 0x73253a52
    9958:	3a73253a 	bcc	1cd2e48 <__bss_end__+0x1cc8e48>
    995c:	203a6425 	eorscs	r6, sl, r5, lsr #8
    9960:	534c4146 	movtpl	r4, #49478	; 0xc146
    9964:	253c2845 	ldrcs	r2, [ip, #-2117]!	; 0xfffff7bb
    9968:	3a293e73 	bcc	a5933c <__bss_end__+0xa4f33c>
    996c:	73736120 	cmnvc	r3, #8
    9970:	6e696d75 	mcrvs	13, 3, r6, cr9, cr5, {3}
    9974:	6f702067 	svcvs	0x00702067
    9978:	20726577 	rsbscs	r6, r2, r7, ror r5
    997c:	7420666f 	strtvc	r6, [r0], #-1647	; 0xfffff991
    9980:	000a6f77 	andeq	r6, sl, r7, ror pc
    9984:	705f7369 	subsvc	r7, pc, r9, ror #6
    9988:	2832776f 	ldmdacs	r2!, {r0, r1, r2, r3, r5, r6, r8, r9, sl, ip, sp, lr}
    998c:	67696c61 	strbvs	r6, [r9, -r1, ror #24]!
    9990:	6e656d6e 	cdpvs	13, 6, cr6, cr5, cr14, {3}
    9994:	00002974 	andeq	r2, r0, r4, ror r9
    9998:	615f7369 	cmpvs	pc, r9, ror #6
    999c:	6e67696c 	vnmulvs.f16	s13, s14, s25	; <UNPREDICTABLE>
    99a0:	68286465 	stmdavs	r8!, {r0, r2, r5, r6, sl, sp, lr}
    99a4:	2c706165 	ldfcse	f6, [r0], #-404	; 0xfffffe6c
    99a8:	696c6120 	stmdbvs	ip!, {r5, r8, sp, lr}^
    99ac:	656d6e67 	strbvs	r6, [sp, #-3687]!	; 0xfffff199
    99b0:	0029746e 	eoreq	r7, r9, lr, ror #8
    99b4:	000a6425 	andeq	r6, sl, r5, lsr #8
    99b8:	4f525245 	svcmi	0x00525245
    99bc:	73253a52 			; <UNDEFINED> instruction: 0x73253a52
    99c0:	3a73253a 	bcc	1cd2eb0 <__bss_end__+0x1cc8eb0>
    99c4:	203a6425 	eorscs	r6, sl, r5, lsr #8
    99c8:	534c4146 	movtpl	r4, #49478	; 0xc146
    99cc:	253c2845 	ldrcs	r2, [ip, #-2117]!	; 0xfffff7bb
    99d0:	3a293e73 	bcc	a593a4 <__bss_end__+0xa4f3a4>
    99d4:	726c6120 	rsbvc	r6, ip, #8
    99d8:	79646165 	stmdbvc	r4!, {r0, r2, r5, r6, r8, sp, lr}^
    99dc:	696e6920 	stmdbvs	lr!, {r5, r8, fp, sp, lr}^
    99e0:	6c616974 			; <UNDEFINED> instruction: 0x6c616974
    99e4:	64657a69 	strbtvs	r7, [r5], #-2665	; 0xfffff597
    99e8:	0000000a 	andeq	r0, r0, sl
    99ec:	696e6921 	stmdbvs	lr!, {r0, r5, r8, fp, sp, lr}^
    99f0:	00705f74 	rsbseq	r5, r0, r4, ror pc
    99f4:	494e4150 	stmdbmi	lr, {r4, r6, r8, lr}^
    99f8:	73253a43 			; <UNDEFINED> instruction: 0x73253a43
    99fc:	3a73253a 	bcc	1cd2eec <__bss_end__+0x1cc8eec>
    9a00:	693a6425 	ldmdbvs	sl!, {r0, r2, r5, sl, sp, lr}
    9a04:	656c706d 	strbvs	r7, [ip, #-109]!	; 0xffffff93
    9a08:	746e656d 	strbtvc	r6, [lr], #-1389	; 0xfffffa93
    9a0c:	69687420 	stmdbvs	r8!, {r5, sl, ip, sp, lr}^
    9a10:	75662073 	strbvc	r2, [r6, #-115]!	; 0xffffff8d
    9a14:	6974636e 	ldmdbvs	r4!, {r1, r2, r3, r5, r6, r8, r9, sp, lr}^
    9a18:	0a216e6f 	beq	8653dc <__bss_end__+0x85b3dc>
    9a1c:	0000000a 	andeq	r0, r0, sl

00009a20 <__FUNCTION__.3949>:
    9a20:	6c616d6b 	stclvs	13, cr6, [r1], #-428	; 0xfffffe54
    9a24:	00636f6c 	rsbeq	r6, r3, ip, ror #30

00009a28 <__FUNCTION__.3955>:
    9a28:	6c616d6b 	stclvs	13, cr6, [r1], #-428	; 0xfffffe54
    9a2c:	5f636f6c 	svcpl	0x00636f6c
    9a30:	67696c61 	strbvs	r6, [r9, -r1, ror #24]!
    9a34:	0064656e 	rsbeq	r6, r4, lr, ror #10

00009a38 <__FUNCTION__.3962>:
    9a38:	6c616d6b 	stclvs	13, cr6, [r1], #-428	; 0xfffffe54
    9a3c:	5f636f6c 	svcpl	0x00636f6c
    9a40:	74696e69 	strbtvc	r6, [r9], #-3689	; 0xfffff197
    9a44:	7465735f 	strbtvc	r7, [r5], #-863	; 0xfffffca1
    9a48:	6174735f 	cmnvs	r4, pc, asr r3
    9a4c:	00007472 	andeq	r7, r0, r2, ror r4

00009a50 <__FUNCTION__.3966>:
    9a50:	6572666b 	ldrbvs	r6, [r2, #-1643]!	; 0xfffff995
    9a54:	6c615f65 	stclvs	15, cr5, [r1], #-404	; 0xfffffe6c
    9a58:	0000006c 	andeq	r0, r0, ip, rrx

00009a5c <__FUNCTION__.3970>:
    9a5c:	6c616d6b 	stclvs	13, cr6, [r1], #-428	; 0xfffffe54
    9a60:	5f636f6c 	svcpl	0x00636f6c
    9a64:	70616568 	rsbvc	r6, r1, r8, ror #10
    9a68:	7274705f 	rsbsvc	r7, r4, #95, 0	; 0x5f
    9a6c:	00000000 	andeq	r0, r0, r0
    9a70:	696c2f2e 	stmdbvs	ip!, {r1, r2, r3, r5, r8, r9, sl, fp, sp}^
    9a74:	762f6362 	strtvc	r6, [pc], -r2, ror #6
    9a78:	72702d61 	rsbsvc	r2, r0, #6208	; 0x1840
    9a7c:	6b746e69 	blvs	1d25428 <__bss_end__+0x1d1b428>
    9a80:	0000632e 	andeq	r6, r0, lr, lsr #6
    9a84:	00000030 	andeq	r0, r0, r0, lsr r0
    9a88:	33323130 	teqcc	r2, #12
    9a8c:	37363534 			; <UNDEFINED> instruction: 0x37363534
    9a90:	00003938 	andeq	r3, r0, r8, lsr r9
    9a94:	33323130 	teqcc	r2, #12
    9a98:	37363534 			; <UNDEFINED> instruction: 0x37363534
    9a9c:	62613938 	rsbvs	r3, r1, #56, 18	; 0xe0000
    9aa0:	66656463 	strbtvs	r6, [r5], -r3, ror #8
    9aa4:	00000000 	andeq	r0, r0, r0
    9aa8:	00003130 	andeq	r3, r0, r0, lsr r1
    9aac:	63747570 	cmnvs	r4, #112, 10	; 0x1c000000
    9ab0:	0070665f 	rsbseq	r6, r0, pc, asr r6
    9ab4:	74646977 	strbtvc	r6, [r4], #-2423	; 0xfffff689
    9ab8:	203c2068 	eorscs	r2, ip, r8, rrx
    9abc:	00003233 	andeq	r3, r0, r3, lsr r2
    9ac0:	00786c6c 	rsbseq	r6, r8, ip, ror #24
    9ac4:	00646c6c 	rsbeq	r6, r4, ip, ror #24
    9ac8:	6e727473 	mrcvs	4, 3, r7, cr2, cr3, {3}
    9acc:	28706d63 	ldmdacs	r0!, {r0, r1, r5, r6, r8, sl, fp, sp, lr}^
    9ad0:	202c7974 	eorcs	r7, ip, r4, ror r9
    9ad4:	786c6c22 	stmdavc	ip!, {r1, r5, sl, fp, sp, lr}^
    9ad8:	33202c22 			; <UNDEFINED> instruction: 0x33202c22
    9adc:	3d3d2029 	ldccc	0, cr2, [sp, #-164]!	; 0xffffff5c
    9ae0:	7c203020 	stcvc	0, cr3, [r0], #-128	; 0xffffff80
    9ae4:	7473207c 	ldrbtvc	r2, [r3], #-124	; 0xffffff84
    9ae8:	6d636e72 	stclvs	14, cr6, [r3, #-456]!	; 0xfffffe38
    9aec:	79742870 	ldmdbvc	r4!, {r4, r5, r6, fp, sp}^
    9af0:	6c22202c 	stcvs	0, cr2, [r2], #-176	; 0xffffff50
    9af4:	2c22646c 	cfstrscs	mvf6, [r2], #-432	; 0xfffffe50
    9af8:	20293320 	eorcs	r3, r9, r0, lsr #6
    9afc:	30203d3d 	eorcc	r3, r0, sp, lsr sp
    9b00:	00000000 	andeq	r0, r0, r0
    9b04:	494e4150 	stmdbmi	lr, {r4, r6, r8, lr}^
    9b08:	73253a43 			; <UNDEFINED> instruction: 0x73253a43
    9b0c:	3a73253a 	bcc	1cd2ffc <__bss_end__+0x1cc8ffc>
    9b10:	693a6425 	ldmdbvs	sl!, {r0, r2, r5, sl, sp, lr}
    9b14:	736f706d 	cmnvc	pc, #109, 0	; 0x6d
    9b18:	6c626973 			; <UNDEFINED> instruction: 0x6c626973
    9b1c:	66203a65 	strtvs	r3, [r0], -r5, ror #20
    9b20:	3c3d746d 	cfldrscc	mvf7, [sp], #-436	; 0xfffffe4c
    9b24:	0a3e7325 	beq	fa67c0 <__bss_end__+0xf9c7c0>
    9b28:	0000000a 	andeq	r0, r0, sl
    9b2c:	494e4150 	stmdbmi	lr, {r4, r6, r8, lr}^
    9b30:	73253a43 			; <UNDEFINED> instruction: 0x73253a43
    9b34:	3a73253a 	bcc	1cd3024 <__bss_end__+0x1cc9024>
    9b38:	663a6425 	ldrtvs	r6, [sl], -r5, lsr #8
    9b3c:	74616f6c 	strbtvc	r6, [r1], #-3948	; 0xfffff094
    9b40:	746f6e20 	strbtvc	r6, [pc], #-3616	; 9b48 <__FUNCTION__.3970+0xec>
    9b44:	616e6520 	cmnvs	lr, r0, lsr #10
    9b48:	64656c62 	strbtvs	r6, [r5], #-3170	; 0xfffff39e
    9b4c:	0a212121 	beq	851fd8 <__bss_end__+0x847fd8>
    9b50:	00000000 	andeq	r0, r0, r0
    9b54:	6e697270 	mcrvs	2, 3, r7, cr9, cr0, {3}
    9b58:	203a6b74 	eorscs	r6, sl, r4, ror fp
    9b5c:	20746f6e 	rsbscs	r6, r4, lr, ror #30
    9b60:	646e6168 	strbtvs	r6, [lr], #-360	; 0xfffffe98
    9b64:	676e696c 	strbvs	r6, [lr, -ip, ror #18]!
    9b68:	65707320 	ldrbvs	r7, [r0, #-800]!	; 0xfffffce0
    9b6c:	69666963 	stmdbvs	r6!, {r0, r1, r5, r6, r8, fp, sp, lr}^
    9b70:	27207265 	strcs	r7, [r0, -r5, ror #4]!
    9b74:	20276325 	eorcs	r6, r7, r5, lsr #6
    9b78:	63736128 	cmnvs	r3, #10
    9b7c:	253d6969 	ldrcs	r6, [sp, #-2409]!	; 0xfffff697
    9b80:	000a2964 	andeq	r2, sl, r4, ror #18
    9b84:	494e4150 	stmdbmi	lr, {r4, r6, r8, lr}^
    9b88:	73253a43 			; <UNDEFINED> instruction: 0x73253a43
    9b8c:	3a73253a 	bcc	1cd307c <__bss_end__+0x1cc907c>
    9b90:	703a6425 	eorsvc	r6, sl, r5, lsr #8
    9b94:	746e6972 	strbtvc	r6, [lr], #-2418	; 0xfffff68e
    9b98:	7265206b 	rsbvc	r2, r5, #107, 0	; 0x6b
    9b9c:	0a726f72 	beq	1ca596c <__bss_end__+0x1c9b96c>
    9ba0:	0000000a 	andeq	r0, r0, sl

00009ba4 <__FUNCTION__.3988>:
    9ba4:	74696d65 	strbtvc	r6, [r9], #-3429	; 0xfffff29b
    9ba8:	00000000 	andeq	r0, r0, r0

00009bac <__FUNCTION__.3936>:
    9bac:	5f697072 	svcpl	0x00697072
    9bb0:	5f746573 	svcpl	0x00746573
    9bb4:	7074756f 	rsbsvc	r7, r4, pc, ror #10
    9bb8:	00007475 	andeq	r7, r0, r5, ror r4

00009bbc <__FUNCTION__.4014>:
    9bbc:	705f6176 	subsvc	r6, pc, r6, ror r1	; <UNPREDICTABLE>
    9bc0:	746e6972 	strbtvc	r6, [lr], #-2418	; 0xfffff68e
    9bc4:	0000006b 	andeq	r0, r0, fp, rrx
    9bc8:	454e4f44 	strbmi	r4, [lr, #-3908]	; 0xfffff0bc
    9bcc:	0a212121 	beq	852058 <__bss_end__+0x848058>
	...

Disassembly of section .data:

00009bd4 <rpi_putchar>:
    9bd4:	000088b4 			; <UNDEFINED> instruction: 0x000088b4

00009bd8 <putk>:
    9bd8:	000088f0 	strdeq	r8, [r0], -r0

Disassembly of section .bss:

00009bdc <__bss_start__>:
    9bdc:	00000000 	andeq	r0, r0, r0

00009be0 <dumpRunning>:
    9be0:	00000000 	andeq	r0, r0, r0

00009be4 <last_clk.4018>:
    9be4:	00000000 	andeq	r0, r0, r0

00009be8 <period>:
    9be8:	00000000 	andeq	r0, r0, r0

00009bec <count>:
    9bec:	00000000 	andeq	r0, r0, r0

00009bf0 <init_p>:
    9bf0:	00000000 	andeq	r0, r0, r0

00009bf4 <buf.3928>:
	...

00009ff4 <table>:
    9ff4:	00000000 	andeq	r0, r0, r0

00009ff8 <heap>:
	...

Disassembly of section .ARM.attributes:

00000000 <.ARM.attributes>:
   0:	00002a41 	andeq	r2, r0, r1, asr #20
   4:	61656100 	cmnvs	r5, r0, lsl #2
   8:	01006962 	tsteq	r0, r2, ror #18
   c:	00000020 	andeq	r0, r0, r0, lsr #32
  10:	4b5a3605 	blmi	168d82c <__bss_end__+0x168382c>
  14:	08070600 	stmdaeq	r7, {r9, sl}
  18:	12010901 	andne	r0, r1, #16384	; 0x4000
  1c:	15011404 	strne	r1, [r1, #-1028]	; 0xfffffbfc
  20:	18031701 	stmdane	r3, {r0, r8, r9, sl, ip}
  24:	22011a01 	andcs	r1, r1, #4096	; 0x1000
  28:	Address 0x0000000000000028 is out of bounds.


Disassembly of section .comment:

00000000 <.comment>:
   0:	3a434347 	bcc	10d0d24 <__bss_end__+0x10c6d24>
   4:	4e472820 	cdpmi	8, 4, cr2, cr7, cr0, {1}
   8:	6f542055 	svcvs	0x00542055
   c:	20736c6f 	rsbscs	r6, r3, pc, ror #24
  10:	20726f66 	rsbscs	r6, r2, r6, ror #30
  14:	206d7241 	rsbcs	r7, sp, r1, asr #4
  18:	65626d45 	strbvs	r6, [r2, #-3397]!	; 0xfffff2bb
  1c:	64656464 	strbtvs	r6, [r5], #-1124	; 0xfffffb9c
  20:	6f725020 	svcvs	0x00725020
  24:	73736563 	cmnvc	r3, #415236096	; 0x18c00000
  28:	2073726f 	rsbscs	r7, r3, pc, ror #4
  2c:	30322d39 	eorscc	r2, r2, r9, lsr sp
  30:	712d3931 			; <UNDEFINED> instruction: 0x712d3931
  34:	616d2d34 	cmnvs	sp, r4, lsr sp
  38:	29726f6a 	ldmdbcs	r2!, {r1, r3, r5, r6, r8, r9, sl, fp, sp, lr}^
  3c:	322e3920 	eorcc	r3, lr, #32, 18	; 0x80000
  40:	3220312e 	eorcc	r3, r0, #-2147483637	; 0x8000000b
  44:	31393130 	teqcc	r9, r0, lsr r1
  48:	20353230 	eorscs	r3, r5, r0, lsr r2
  4c:	6c657228 	sfmvs	f7, 2, [r5], #-160	; 0xffffff60
  50:	65736165 	ldrbvs	r6, [r3, #-357]!	; 0xfffffe9b
  54:	415b2029 	cmpmi	fp, r9, lsr #32
  58:	612f4d52 			; <UNDEFINED> instruction: 0x612f4d52
  5c:	392d6d72 	pushcc	{r1, r4, r5, r6, r8, sl, fp, sp, lr}
  60:	6172622d 	cmnvs	r2, sp, lsr #4
  64:	2068636e 	rsbcs	r6, r8, lr, ror #6
  68:	69766572 	ldmdbvs	r6!, {r1, r4, r5, r6, r8, sl, sp, lr}^
  6c:	6e6f6973 			; <UNDEFINED> instruction: 0x6e6f6973
  70:	37373220 	ldrcc	r3, [r7, -r0, lsr #4]!
  74:	5d393935 			; <UNDEFINED> instruction: 0x5d393935
  78:	43434700 	movtmi	r4, #14080	; 0x3700
  7c:	3128203a 			; <UNDEFINED> instruction: 0x3128203a
  80:	2d393a35 	vldmdbcs	r9!, {s6-s58}
  84:	39313032 	ldmdbcc	r1!, {r1, r4, r5, ip, sp}
  88:	2d34712d 	ldfcss	f7, [r4, #-180]!	; 0xffffff4c
  8c:	75627530 	strbvc	r7, [r2, #-1328]!	; 0xfffffad0
  90:	3175746e 	cmncc	r5, lr, ror #8
  94:	2e392029 	cdpcs	0, 3, cr2, cr9, cr9, {1}
  98:	20312e32 	eorscs	r2, r1, r2, lsr lr
  9c:	39313032 	ldmdbcc	r1!, {r1, r4, r5, ip, sp}
  a0:	35323031 	ldrcc	r3, [r2, #-49]!	; 0xffffffcf
  a4:	65722820 	ldrbvs	r2, [r2, #-2080]!	; 0xfffff7e0
  a8:	7361656c 	cmnvc	r1, #108, 10	; 0x1b000000
  ac:	5b202965 	blpl	80a648 <__bss_end__+0x800648>
  b0:	2f4d5241 	svccs	0x004d5241
  b4:	2d6d7261 	sfmcs	f7, 2, [sp, #-388]!	; 0xfffffe7c
  b8:	72622d39 	rsbvc	r2, r2, #3648	; 0xe40
  bc:	68636e61 	stmdavs	r3!, {r0, r5, r6, r9, sl, fp, sp, lr}^
  c0:	76657220 	strbtvc	r7, [r5], -r0, lsr #4
  c4:	6f697369 	svcvs	0x00697369
  c8:	3732206e 	ldrcc	r2, [r2, -lr, rrx]!
  cc:	39393537 	ldmdbcc	r9!, {r0, r1, r2, r4, r5, r8, sl, ip, sp}
  d0:	Address 0x00000000000000d0 is out of bounds.


Disassembly of section .debug_info:

00000000 <.debug_info>:
       0:	0000055a 	andeq	r0, r0, sl, asr r5
       4:	00000004 	andeq	r0, r0, r4
       8:	01040000 	mrseq	r0, (UNDEF: 4)
       c:	00000257 	andeq	r0, r0, r7, asr r2
      10:	0002140c 	andeq	r1, r2, ip, lsl #8
      14:	00005800 	andeq	r5, r0, r0, lsl #16
      18:	00802000 	addeq	r2, r0, r0
      1c:	00025800 	andeq	r5, r2, r0, lsl #16
      20:	00000000 	andeq	r0, r0, r0
      24:	05040200 	streq	r0, [r4, #-512]	; 0xfffffe00
      28:	00746e69 	rsbseq	r6, r4, r9, ror #28
      2c:	96070403 	strls	r0, [r7], -r3, lsl #8
      30:	04000001 	streq	r0, [r0], #-1
      34:	0000002c 	andeq	r0, r0, ip, lsr #32
      38:	6d060103 	stfvss	f0, [r6, #-12]
      3c:	03000001 	movweq	r0, #1
      40:	00430502 	subeq	r0, r3, r2, lsl #10
      44:	04030000 	streq	r0, [r3], #-0
      48:	00011405 	andeq	r1, r1, r5, lsl #8
      4c:	05080300 	streq	r0, [r8, #-768]	; 0xfffffd00
      50:	0000010f 	andeq	r0, r0, pc, lsl #2
      54:	6b080103 	blvs	200468 <__bss_end__+0x1f6468>
      58:	03000001 	movweq	r0, #1
      5c:	01ab0702 			; <UNDEFINED> instruction: 0x01ab0702
      60:	04030000 	streq	r0, [r3], #-0
      64:	00019107 	andeq	r9, r1, r7, lsl #2
      68:	07080300 	streq	r0, [r8, -r0, lsl #6]
      6c:	0000018c 	andeq	r0, r0, ip, lsl #3
      70:	00002505 	andeq	r2, r0, r5, lsl #10
      74:	00007f00 	andeq	r7, r0, r0, lsl #30
      78:	00250600 	eoreq	r0, r5, r0, lsl #12
      7c:	07000000 	streq	r0, [r0, -r0]
      80:	00000092 	muleq	r0, r2, r0
      84:	8b0e1c02 	blhi	387094 <__bss_end__+0x37d094>
      88:	08000000 	stmdaeq	r0, {}	; <UNPREDICTABLE>
      8c:	00007004 	andeq	r7, r0, r4
      90:	00250500 	eoreq	r0, r5, r0, lsl #10
      94:	00a00000 	adceq	r0, r0, r0
      98:	a0060000 	andge	r0, r6, r0
      9c:	00000000 	andeq	r0, r0, r0
      a0:	00ad0408 	adceq	r0, sp, r8, lsl #8
      a4:	01030000 	mrseq	r0, (UNDEF: 3)
      a8:	00017408 	andeq	r7, r1, r8, lsl #8
      ac:	00a60900 	adceq	r0, r6, r0, lsl #18
      b0:	28070000 	stmdacs	r7, {}	; <UNPREDICTABLE>
      b4:	02000007 	andeq	r0, r0, #7, 0
      b8:	00be0e21 	adcseq	r0, lr, r1, lsr #28
      bc:	04080000 	streq	r0, [r8], #-0
      c0:	00000091 	muleq	r0, r1, r0
      c4:	2c04070a 	stccs	7, cr0, [r4], {10}
      c8:	03000000 	movweq	r0, #0
      cc:	012d0e33 			; <UNDEFINED> instruction: 0x012d0e33
      d0:	250b0000 	strcs	r0, [fp, #-0]
      d4:	00000000 	andeq	r0, r0, r0
      d8:	0b2000b4 	bleq	8003b0 <__bss_end__+0x7f63b0>
      dc:	000000bf 	strheq	r0, [r0], -pc	; <UNPREDICTABLE>
      e0:	2000b400 	andcs	fp, r0, r0, lsl #8
      e4:	00015b0b 	andeq	r5, r1, fp, lsl #22
      e8:	00b40400 	adcseq	r0, r4, r0, lsl #8
      ec:	00130b20 	andseq	r0, r3, r0, lsr #22
      f0:	b4080000 	strlt	r0, [r8], #-0
      f4:	3a0b2000 	bcc	2c80fc <__bss_end__+0x2be0fc>
      f8:	0c000001 	stceq	0, cr0, [r0], {1}
      fc:	0b2000b4 	bleq	8003d4 <__bss_end__+0x7f63d4>
     100:	00000314 	andeq	r0, r0, r4, lsl r3
     104:	2000b410 	andcs	fp, r0, r0, lsl r4
     108:	0003800b 	andeq	r8, r3, fp
     10c:	00b41400 	adcseq	r1, r4, r0, lsl #8
     110:	01be0b20 			; <UNDEFINED> instruction: 0x01be0b20
     114:	b4180000 	ldrlt	r0, [r8], #-0
     118:	250b2000 	strcs	r2, [fp, #-0]
     11c:	1c000003 	stcne	0, cr0, [r0], {3}
     120:	0b2000b4 	bleq	8003f8 <__bss_end__+0x7f63f8>
     124:	000001d5 	ldrdeq	r0, [r0], -r5
     128:	2000b420 	andcs	fp, r0, r0, lsr #8
     12c:	04070a00 	streq	r0, [r7], #-2560	; 0xfffff600
     130:	0000002c 	andeq	r0, r0, ip, lsr #32
     134:	9f061404 	svcls	0x00061404
     138:	0b000001 	bleq	144 <__code_start__-0x7ebc>
     13c:	00000000 	andeq	r0, r0, r0
     140:	2000b200 	andcs	fp, r0, r0, lsl #4
     144:	00035f0b 	andeq	r5, r3, fp, lsl #30
     148:	00b20000 	adcseq	r0, r2, r0
     14c:	03510b20 	cmpeq	r1, #32, 22	; 0x8000
     150:	b2040000 	andlt	r0, r4, #0, 0
     154:	e30b2000 	movw	r2, #45056	; 0xb000
     158:	08000000 	stmdaeq	r0, {}	; <UNPREDICTABLE>
     15c:	0b2000b2 	bleq	80042c <__bss_end__+0x7f642c>
     160:	000000b3 	strheq	r0, [r0], -r3
     164:	2000b20c 	andcs	fp, r0, ip, lsl #4
     168:	0000f10b 	andeq	pc, r0, fp, lsl #2
     16c:	00b21000 	adcseq	r1, r2, r0
     170:	014d0b20 	cmpeq	sp, r0, lsr #22
     174:	b2140000 	andslt	r0, r4, #0, 0
     178:	2b0b2000 	blcs	2c8180 <__bss_end__+0x2be180>
     17c:	18000002 	stmdane	r0, {r1}
     180:	0b2000b2 	bleq	800450 <__bss_end__+0x7f6450>
     184:	0000021c 	andeq	r0, r0, ip, lsl r2
     188:	2000b21c 	andcs	fp, r0, ip, lsl r2
     18c:	0000340b 	andeq	r3, r0, fp, lsl #8
     190:	00b22000 	adcseq	r2, r2, r0
     194:	01790b20 	cmneq	r9, r0, lsr #22
     198:	b2240000 	eorlt	r0, r4, #0, 0
     19c:	07002000 	streq	r2, [r0, -r0]
     1a0:	0000009e 	muleq	r0, lr, r0
     1a4:	a60d0c01 	strge	r0, [sp], -r1, lsl #24
     1a8:	07000000 	streq	r0, [r0, -r0]
     1ac:	000001f2 	strdeq	r0, [r0], -r2
     1b0:	a60d0d01 	strge	r0, [sp], -r1, lsl #26
     1b4:	0c000000 	stceq	0, cr0, [r0], {-0}
     1b8:	000003d5 	ldrdeq	r0, [r0], -r5
     1bc:	c90b0f01 	stmdbgt	fp, {r0, r8, r9, sl, fp}
     1c0:	05000001 	streq	r0, [r0, #-1]
     1c4:	009ff403 	addseq	pc, pc, r3, lsl #8
     1c8:	2c040800 	stccs	8, cr0, [r4], {-0}
     1cc:	0c000000 	stceq	0, cr0, [r0], {-0}
     1d0:	0000023d 	andeq	r0, r0, sp, lsr r2
     1d4:	25051001 	strcs	r1, [r5, #-1]
     1d8:	05000000 	streq	r0, [r0, #-0]
     1dc:	009be003 	addseq	lr, fp, r3
     1e0:	02510c00 	subseq	r0, r1, #0, 24
     1e4:	11010000 	mrsne	r0, (UNDEF: 1)
     1e8:	00002c0a 	andeq	r2, r0, sl, lsl #24
     1ec:	ec030500 	cfstr32	mvfx0, [r3], {-0}
     1f0:	0d00009b 	stceq	0, cr0, [r0, #-620]	; 0xfffffd94
     1f4:	00746e63 	rsbseq	r6, r4, r3, ror #28
     1f8:	331a3f01 	tstcc	sl, #1, 30
     1fc:	05000000 	streq	r0, [r0, #-0]
     200:	009bdc03 	addseq	sp, fp, r3, lsl #24
     204:	011d0e00 	tsteq	sp, r0, lsl #28
     208:	40010000 	andmi	r0, r1, r0
     20c:	0000331a 	andeq	r3, r0, sl, lsl r3
     210:	e8030500 	stmda	r3, {r8, sl}
     214:	0f00009b 	svceq	0x0000009b
     218:	000001a3 	andeq	r0, r0, r3, lsr #3
     21c:	b4066101 	strlt	r6, [r6], #-257	; 0xfffffeff
     220:	c4000080 	strgt	r0, [r0], #-128	; 0xffffff80
     224:	01000001 	tsteq	r0, r1
     228:	0003b59c 	muleq	r3, ip, r5
     22c:	00ff1000 	rscseq	r1, pc, r0
     230:	77010000 	strvc	r0, [r1, -r0]
     234:	00002c0e 	andeq	r2, r0, lr, lsl #24
     238:	00000e00 	andeq	r0, r0, r0, lsl #28
     23c:	00000000 	andeq	r0, r0, r0
     240:	04c01100 	strbeq	r1, [r0], #256	; 0x100
     244:	80f40000 	rscshi	r0, r4, r0
     248:	20010000 	andcs	r0, r1, r0
     24c:	01000000 	mrseq	r0, (UNDEF: 0)
     250:	0267056f 	rsbeq	r0, r7, #465567744	; 0x1bc00000
     254:	fc120000 	ldc2	0, cr0, [r2], {-0}
     258:	cd000080 	stcgt	0, cr0, [r0, #-512]	; 0xfffffe00
     25c:	13000004 	movwne	r0, #4
     260:	75025001 	strvc	r5, [r2, #-1]
     264:	11000000 	mrsne	r0, (UNDEF: 0)
     268:	00000481 	andeq	r0, r0, r1, lsl #9
     26c:	000081bc 			; <UNDEFINED> instruction: 0x000081bc
     270:	00006001 	andeq	r6, r0, r1
     274:	0d7d0100 	ldfeqe	f0, [sp, #-0]
     278:	000002cb 	andeq	r0, r0, fp, asr #5
     27c:	00048e14 	andeq	r8, r4, r4, lsl lr
     280:	00006b00 	andeq	r6, r0, r0, lsl #22
     284:	00006700 	andeq	r6, r0, r0, lsl #14
     288:	049a1500 	ldreq	r1, [sl], #1280	; 0x500
     28c:	00800000 	addeq	r0, r0, r0
     290:	9b160000 	blls	580298 <__bss_end__+0x576298>
     294:	91000004 	tstls	r0, r4
     298:	8b000000 	blhi	2a0 <__code_start__-0x7d60>
     29c:	17000000 	strne	r0, [r0, -r0]
     2a0:	00008218 	andeq	r8, r0, r8, lsl r2
     2a4:	000004d9 	ldrdeq	r0, [r0], -r9
     2a8:	000002b3 			; <UNDEFINED> instruction: 0x000002b3
     2ac:	02500113 	subseq	r0, r0, #-1073741820	; 0xc0000004
     2b0:	1200007a 	andne	r0, r0, #122, 0	; 0x7a
     2b4:	00008224 	andeq	r8, r0, r4, lsr #4
     2b8:	000004d9 	ldrdeq	r0, [r0], -r9
     2bc:	02500113 	subseq	r0, r0, #-1073741820	; 0xc0000004
     2c0:	01130079 	tsteq	r3, r9, ror r0
     2c4:	007b0251 	rsbseq	r0, fp, r1, asr r2
     2c8:	18000000 	stmdane	r0, {}	; <UNPREDICTABLE>
     2cc:	000080c0 	andeq	r8, r0, r0, asr #1
     2d0:	000004e5 	andeq	r0, r0, r5, ror #9
     2d4:	0080c817 	addeq	ip, r0, r7, lsl r8
     2d8:	0004d900 	andeq	sp, r4, r0, lsl #18
     2dc:	0002eb00 	andeq	lr, r2, r0, lsl #22
     2e0:	50011300 	andpl	r1, r1, r0, lsl #6
     2e4:	95b80305 	ldrls	r0, [r8, #773]!	; 0x305
     2e8:	18000000 	stmdane	r0, {}	; <UNPREDICTABLE>
     2ec:	000080d0 	ldrdeq	r8, [r0], -r0
     2f0:	000004f1 	strdeq	r0, [r0], -r1
     2f4:	0080dc17 	addeq	sp, r0, r7, lsl ip
     2f8:	0004d900 	andeq	sp, r4, r0, lsl #18
     2fc:	00030b00 	andeq	r0, r3, r0, lsl #22
     300:	50011300 	andpl	r1, r1, r0, lsl #6
     304:	95d40305 	ldrbls	r0, [r4, #773]	; 0x305
     308:	17000000 	strne	r0, [r0, -r0]
     30c:	000080e4 	andeq	r8, r0, r4, ror #1
     310:	000004fd 	strdeq	r0, [r0], -sp
     314:	0000031e 	andeq	r0, r0, lr, lsl r3
     318:	01500113 	cmpeq	r0, r3, lsl r1
     31c:	f0170040 			; <UNDEFINED> instruction: 0xf0170040
     320:	d9000080 	stmdble	r0, {r7}
     324:	35000004 	strcc	r0, [r0, #-4]
     328:	13000003 	movwne	r0, #3
     32c:	03055001 	movweq	r5, #20481	; 0x5001
     330:	000095f4 	strdeq	r9, [r0], -r4
     334:	80f41800 	rscshi	r1, r4, r0, lsl #16
     338:	05090000 	streq	r0, [r9, #-0]
     33c:	18170000 	ldmdane	r7, {}	; <UNPREDICTABLE>
     340:	d9000081 	stmdble	r0, {r0, r7}
     344:	55000004 	strpl	r0, [r0, #-4]
     348:	13000003 	movwne	r0, #3
     34c:	03055001 	movweq	r5, #20481	; 0x5001
     350:	000095f4 	strdeq	r9, [r0], -r4
     354:	811c1800 	tsthi	ip, r0, lsl #16
     358:	05150000 	ldreq	r0, [r5, #-0]
     35c:	24170000 	ldrcs	r0, [r7], #-0
     360:	d9000081 	stmdble	r0, {r0, r7}
     364:	75000004 	strvc	r0, [r0, #-4]
     368:	13000003 	movwne	r0, #3
     36c:	03055001 	movweq	r5, #20481	; 0x5001
     370:	00009614 	andeq	r9, r0, r4, lsl r6
     374:	81501700 	cmphi	r0, r0, lsl #14
     378:	04d90000 	ldrbeq	r0, [r9], #0
     37c:	03910000 	orrseq	r0, r1, #0, 0
     380:	01130000 	tsteq	r3, r0
     384:	20030550 	andcs	r0, r3, r0, asr r5
     388:	13000096 	movwne	r0, #150	; 0x96
     38c:	30015101 	andcc	r5, r1, r1, lsl #2
     390:	819c1700 	orrshi	r1, ip, r0, lsl #14
     394:	04d90000 	ldrbeq	r0, [r9], #0
     398:	03ab0000 			; <UNDEFINED> instruction: 0x03ab0000
     39c:	01130000 	tsteq	r3, r0
     3a0:	00780250 	rsbseq	r0, r8, r0, asr r2
     3a4:	02510113 	subseq	r0, r1, #-1073741820	; 0xc0000004
     3a8:	18007f75 	stmdane	r0, {r0, r2, r4, r5, r6, r8, r9, sl, fp, ip, sp, lr}
     3ac:	00008210 	andeq	r8, r0, r0, lsl r2
     3b0:	00000521 	andeq	r0, r0, r1, lsr #10
     3b4:	044a0f00 	strbeq	r0, [sl], #-3840	; 0xfffff100
     3b8:	43010000 	movwmi	r0, #4096	; 0x1000
     3bc:	00802006 	addeq	r2, r0, r6
     3c0:	00009400 	andeq	r9, r0, r0, lsl #8
     3c4:	819c0100 	orrshi	r0, ip, r0, lsl #2
     3c8:	19000004 	stmdbne	r0, {r2}
     3cc:	01006370 	tsteq	r0, r0, ror r3
     3d0:	002c2043 	eoreq	r2, ip, r3, asr #32
     3d4:	00bf0000 	adcseq	r0, pc, r0
     3d8:	00bb0000 	adcseq	r0, fp, r0
     3dc:	69100000 	ldmdbvs	r0, {}	; <UNPREDICTABLE>
     3e0:	01000003 	tsteq	r0, r3
     3e4:	002c0e45 	eoreq	r0, ip, r5, asr #28
     3e8:	00df0000 	sbcseq	r0, pc, r0
     3ec:	00dd0000 	sbcseq	r0, sp, r0
     3f0:	0b0e0000 	bleq	3803f8 <__bss_end__+0x3763f8>
     3f4:	01000002 	tsteq	r0, r2
     3f8:	002c1557 	eoreq	r1, ip, r7, asr r5
     3fc:	03050000 	movweq	r0, #20480	; 0x5000
     400:	00009be4 	andeq	r9, r0, r4, ror #23
     404:	6b6c631a 	blvs	1b19074 <__bss_end__+0x1b0f074>
     408:	0e580100 	rdfeqe	f0, f0, f0
     40c:	0000002c 	andeq	r0, r0, ip, lsr #32
     410:	000000f4 	strdeq	r0, [r0], -r4
     414:	000000f2 	strdeq	r0, [r0], -r2
     418:	0004a711 	andeq	sl, r4, r1, lsl r7
     41c:	00806000 	addeq	r6, r0, r0
     420:	00000100 	andeq	r0, r0, r0, lsl #2
     424:	55010000 	strpl	r0, [r1, #-0]
     428:	00043b05 	andeq	r3, r4, r5, lsl #22
     42c:	04b41400 	ldrteq	r1, [r4], #1024	; 0x400
     430:	01090000 	mrseq	r0, (UNDEF: 9)
     434:	01070000 	mrseq	r0, (UNDEF: 7)
     438:	18000000 	stmdane	r0, {}	; <UNPREDICTABLE>
     43c:	0000802c 	andeq	r8, r0, ip, lsr #32
     440:	0000052d 	andeq	r0, r0, sp, lsr #10
     444:	00803417 	addeq	r3, r0, r7, lsl r4
     448:	00053900 	andeq	r3, r5, r0, lsl #18
     44c:	00045b00 	andeq	r5, r4, r0, lsl #22
     450:	50011300 	andpl	r1, r1, r0, lsl #6
     454:	b2000c05 	andlt	r0, r0, #1280	; 0x500
     458:	17002000 	strne	r2, [r0, -r0]
     45c:	0000804c 	andeq	r8, r0, ip, asr #32
     460:	00000545 	andeq	r0, r0, r5, asr #10
     464:	00000477 	andeq	r0, r0, r7, ror r4
     468:	05500113 	ldrbeq	r0, [r0, #-275]	; 0xfffffeed
     46c:	00b40c0c 	adcseq	r0, r4, ip, lsl #24
     470:	51011320 	tstpl	r1, r0, lsr #6
     474:	18003101 	stmdane	r0, {r0, r8, ip, sp}
     478:	00008088 	andeq	r8, r0, r8, lsl #1
     47c:	00000551 	andeq	r0, r0, r1, asr r5
     480:	01041b00 	tsteq	r4, r0, lsl #22
     484:	2e010000 	cdpcs	0, 0, cr0, cr1, cr0, {0}
     488:	04a7010d 	strteq	r0, [r7], #269	; 0x10d
     48c:	491c0000 	ldmdbmi	ip, {}	; <UNPREDICTABLE>
     490:	01000002 	tsteq	r0, r2
     494:	002c212e 	eoreq	r2, ip, lr, lsr #2
     498:	1e1d0000 	cdpne	0, 1, cr0, cr13, cr0, {0}
     49c:	31010069 	tstcc	r1, r9, rrx
     4a0:	0000250e 	andeq	r2, r0, lr, lsl #10
     4a4:	1b000000 	blne	4ac <__code_start__-0x7b54>
     4a8:	0000033a 	andeq	r0, r0, sl, lsr r3
     4ac:	010d2501 	tsteq	sp, r1, lsl #10
     4b0:	000004c0 	andeq	r0, r0, r0, asr #9
     4b4:	0063701f 	rsbeq	r7, r3, pc, lsl r0
     4b8:	2c202501 	cfstr32cs	mvfx2, [r0], #-4
     4bc:	00000000 	andeq	r0, r0, r0
     4c0:	00004d20 	andeq	r4, r0, r0, lsr #26
     4c4:	111d0100 	tstne	sp, r0, lsl #2
     4c8:	0000002c 	andeq	r0, r0, ip, lsr #32
     4cc:	030c2101 	movweq	r2, #49409	; 0xc101
     4d0:	030c0000 	movweq	r0, #49152	; 0xc000
     4d4:	74020000 	strvc	r0, [r2], #-0
     4d8:	06b12107 	ldrteq	r2, [r1], r7, lsl #2
     4dc:	06b10000 	ldrteq	r0, [r1], r0
     4e0:	28020000 	stmdacs	r2, {}	; <UNPREDICTABLE>
     4e4:	00092106 	andeq	r2, r9, r6, lsl #2
     4e8:	00090000 	andeq	r0, r9, r0
     4ec:	39020000 	stmdbcc	r2, {}	; <UNPREDICTABLE>
     4f0:	01312106 	teqeq	r1, r6, lsl #2
     4f4:	01310000 	teqeq	r1, r0
     4f8:	3b040000 	blcc	100500 <__bss_end__+0xf6500>
     4fc:	00ce2106 	sbceq	r2, lr, r6, lsl #2
     500:	00ce0000 	sbceq	r0, lr, r0
     504:	08050000 	stmdaeq	r5, {}	; <UNPREDICTABLE>
     508:	03442106 	movteq	r2, #16646	; 0x4106
     50c:	03440000 	movteq	r0, #16384	; 0x4000
     510:	7a020000 	bvc	80518 <__bss_end__+0x76518>
     514:	03942106 	orrseq	r2, r4, #-2147483647	; 0x80000001
     518:	03940000 	orrseq	r0, r4, #0, 0
     51c:	39040000 	stmdbcc	r4, {}	; <UNPREDICTABLE>
     520:	01242106 			; <UNDEFINED> instruction: 0x01242106
     524:	01240000 			; <UNDEFINED> instruction: 0x01240000
     528:	67020000 	strvs	r0, [r2, -r0]
     52c:	01ff2106 	mvnseq	r2, r6, lsl #2
     530:	01ff0000 	mvnseq	r0, r0
     534:	93020000 	movwls	r0, #8192	; 0x2000
     538:	01cf2106 	biceq	r2, pc, r6, lsl #2
     53c:	01cf0000 	biceq	r0, pc, r0
     540:	b0020000 	andlt	r0, r2, r0
     544:	00ad210a 	adceq	r2, sp, sl, lsl #2
     548:	00ad0000 	adceq	r0, sp, r0
     54c:	a4020000 	strge	r0, [r2], #-0
     550:	03712106 	cmneq	r1, #-2147483647	; 0x80000001
     554:	03710000 	cmneq	r1, #0, 0
     558:	56020000 	strpl	r0, [r2], -r0
     55c:	059c000a 	ldreq	r0, [ip, #10]
     560:	00040000 	andeq	r0, r4, r0
     564:	000001e0 	andeq	r0, r0, r0, ror #3
     568:	02570104 	subseq	r0, r7, #1
     56c:	250c0000 	strcs	r0, [ip, #-0]
     570:	58000004 	stmdapl	r0, {r2}
     574:	48000000 	stmdami	r0, {}	; <UNPREDICTABLE>
     578:	c8000083 	stmdagt	r0, {r0, r1, r7}
     57c:	84000001 	strhi	r0, [r0], #-1
     580:	02000002 	andeq	r0, r0, #2, 0
     584:	6e690504 	cdpvs	5, 6, cr0, cr9, cr4, {0}
     588:	04030074 	streq	r0, [r3], #-116	; 0xffffff8c
     58c:	00019607 	andeq	r9, r1, r7, lsl #12
     590:	06010300 	streq	r0, [r1], -r0, lsl #6
     594:	0000016d 	andeq	r0, r0, sp, ror #2
     598:	43050203 	movwmi	r0, #20995	; 0x5203
     59c:	03000000 	movweq	r0, #0
     5a0:	01140504 	tsteq	r4, r4, lsl #10
     5a4:	08030000 	stmdaeq	r3, {}	; <UNPREDICTABLE>
     5a8:	00010f05 	andeq	r0, r1, r5, lsl #30
     5ac:	08010300 	stmdaeq	r1, {r8, r9}
     5b0:	0000016b 	andeq	r0, r0, fp, ror #2
     5b4:	ab070203 	blge	1c0dc8 <__bss_end__+0x1b6dc8>
     5b8:	03000001 	movweq	r0, #1
     5bc:	01910704 	orrseq	r0, r1, r4, lsl #14
     5c0:	08030000 	stmdaeq	r3, {}	; <UNPREDICTABLE>
     5c4:	00018c07 	andeq	r8, r1, r7, lsl #24
     5c8:	00250400 	eoreq	r0, r5, r0, lsl #8
     5cc:	007a0000 	rsbseq	r0, sl, r0
     5d0:	25050000 	strcs	r0, [r5, #-0]
     5d4:	00000000 	andeq	r0, r0, r0
     5d8:	00009206 	andeq	r9, r0, r6, lsl #4
     5dc:	0e1c0200 	cdpeq	2, 1, cr0, cr12, cr0, {0}
     5e0:	00000086 	andeq	r0, r0, r6, lsl #1
     5e4:	006b0407 	rsbeq	r0, fp, r7, lsl #8
     5e8:	25040000 	strcs	r0, [r4, #-0]
     5ec:	9b000000 	blls	5f4 <__code_start__-0x7a0c>
     5f0:	05000000 	streq	r0, [r0, #-0]
     5f4:	0000009b 	muleq	r0, fp, r0
     5f8:	a8040700 	stmdage	r4, {r8, r9, sl}
     5fc:	03000000 	movweq	r0, #0
     600:	01740801 	cmneq	r4, r1, lsl #16
     604:	a1080000 	mrsge	r0, (UNDEF: 8)
     608:	06000000 	streq	r0, [r0], -r0
     60c:	00000728 	andeq	r0, r0, r8, lsr #14
     610:	b90e2102 	stmdblt	lr, {r1, r8, sp}
     614:	07000000 	streq	r0, [r0, -r0]
     618:	00008c04 	andeq	r8, r0, r4, lsl #24
     61c:	04070900 	streq	r0, [r7], #-2304	; 0xfffff700
     620:	0000002c 	andeq	r0, r0, ip, lsr #32
     624:	31061403 	tstcc	r6, r3, lsl #8
     628:	0a000001 	beq	634 <__code_start__-0x79cc>
     62c:	00000000 	andeq	r0, r0, r0
     630:	2000b200 	andcs	fp, r0, r0, lsl #4
     634:	00035f0a 	andeq	r5, r3, sl, lsl #30
     638:	00b20000 	adcseq	r0, r2, r0
     63c:	03510a20 	cmpeq	r1, #32, 20	; 0x20000
     640:	b2040000 	andlt	r0, r4, #0, 0
     644:	e30a2000 	movw	r2, #40960	; 0xa000
     648:	08000000 	stmdaeq	r0, {}	; <UNPREDICTABLE>
     64c:	0a2000b2 	beq	80091c <__bss_end__+0x7f691c>
     650:	000000b3 	strheq	r0, [r0], -r3
     654:	2000b20c 	andcs	fp, r0, ip, lsl #4
     658:	0000f10a 	andeq	pc, r0, sl, lsl #2
     65c:	00b21000 	adcseq	r1, r2, r0
     660:	014d0a20 	cmpeq	sp, r0, lsr #20
     664:	b2140000 	andslt	r0, r4, #0, 0
     668:	2b0a2000 	blcs	288670 <__bss_end__+0x27e670>
     66c:	18000002 	stmdane	r0, {r1}
     670:	0a2000b2 	beq	800940 <__bss_end__+0x7f6940>
     674:	0000021c 	andeq	r0, r0, ip, lsl r2
     678:	2000b21c 	andcs	fp, r0, ip, lsl r2
     67c:	0000340a 	andeq	r3, r0, sl, lsl #8
     680:	00b22000 	adcseq	r2, r2, r0
     684:	01790a20 	cmneq	r9, r0, lsr #20
     688:	b2240000 	eorlt	r0, r4, #0, 0
     68c:	0b002000 	bleq	8694 <kmalloc_aligned+0x64>
     690:	000003fd 	strdeq	r0, [r0], -sp
     694:	d4063001 	strle	r3, [r6], #-1
     698:	3c000084 	stccc	0, cr0, [r0], {132}	; 0x84
     69c:	01000000 	mrseq	r0, (UNDEF: 0)
     6a0:	0001b49c 	muleq	r1, ip, r4
     6a4:	63700c00 	cmnvs	r0, #0, 24
     6a8:	21300100 	teqcs	r0, r0, lsl #2
     6ac:	0000002c 	andeq	r0, r0, ip, lsr #32
     6b0:	00000122 	andeq	r0, r0, r2, lsr #2
     6b4:	0000011c 	andeq	r0, r0, ip, lsl r1
     6b8:	0003f00d 	andeq	pc, r3, sp
     6bc:	0001c400 	andeq	ip, r1, r0, lsl #8
     6c0:	88030500 	stmdahi	r3, {r8, sl}
     6c4:	0e000097 	mcreq	0, 0, r0, cr0, cr7, {4}
     6c8:	000084fc 	strdeq	r8, [r0], -ip
     6cc:	0000056f 	andeq	r0, r0, pc, ror #10
     6d0:	000001aa 	andeq	r0, r0, sl, lsr #3
     6d4:	0550010f 	ldrbeq	r0, [r0, #-271]	; 0xfffffef1
     6d8:	00967403 	addseq	r7, r6, r3, lsl #8
     6dc:	51010f00 	tstpl	r1, r0, lsl #30
     6e0:	96640305 	strbtls	r0, [r4], -r5, lsl #6
     6e4:	010f0000 	mrseq	r0, CPSR
     6e8:	88030552 	stmdahi	r3, {r1, r4, r6, r8, sl}
     6ec:	0f000097 	svceq	0x00000097
     6f0:	08025301 	stmdaeq	r2, {r0, r8, r9, ip, lr}
     6f4:	7d020f31 	stcvc	15, cr0, [r2, #-196]	; 0xffffff3c
     6f8:	00030500 	andeq	r0, r3, r0, lsl #10
     6fc:	0f000097 	svceq	0x00000097
     700:	03047d02 	movweq	r7, #19714	; 0x4d02
     704:	005001f3 	ldrsheq	r0, [r0], #-19	; 0xffffffed
     708:	00850010 	addeq	r0, r5, r0, lsl r0
     70c:	00057b00 	andeq	r7, r5, r0, lsl #22
     710:	a8110000 	ldmdage	r1, {}	; <UNPREDICTABLE>
     714:	c4000000 	strgt	r0, [r0], #-0
     718:	12000001 	andne	r0, r0, #1, 0
     71c:	0000002c 	andeq	r0, r0, ip, lsr #32
     720:	b4080011 	strlt	r0, [r8], #-17	; 0xffffffef
     724:	0b000001 	bleq	730 <__code_start__-0x78d0>
     728:	0000040f 	andeq	r0, r0, pc, lsl #8
     72c:	98062d01 	stmdals	r6, {r0, r8, sl, fp, sp}
     730:	3c000084 	stccc	0, cr0, [r0], {132}	; 0x84
     734:	01000000 	mrseq	r0, (UNDEF: 0)
     738:	00024c9c 	muleq	r2, ip, ip
     73c:	63700c00 	cmnvs	r0, #0, 24
     740:	252d0100 	strcs	r0, [sp, #-256]!	; 0xffffff00
     744:	0000002c 	andeq	r0, r0, ip, lsr #32
     748:	00000155 	andeq	r0, r0, r5, asr r1
     74c:	0000014f 	andeq	r0, r0, pc, asr #2
     750:	0003f00d 	andeq	pc, r3, sp
     754:	00025c00 	andeq	r5, r2, r0, lsl #24
     758:	70030500 	andvc	r0, r3, r0, lsl #10
     75c:	0e000097 	mcreq	0, 0, r0, cr0, cr7, {4}
     760:	000084c0 	andeq	r8, r0, r0, asr #9
     764:	0000056f 	andeq	r0, r0, pc, ror #10
     768:	00000242 	andeq	r0, r0, r2, asr #4
     76c:	0550010f 	ldrbeq	r0, [r0, #-271]	; 0xfffffef1
     770:	00967403 	addseq	r7, r6, r3, lsl #8
     774:	51010f00 	tstpl	r1, r0, lsl #30
     778:	96640305 	strbtls	r0, [r4], -r5, lsl #6
     77c:	010f0000 	mrseq	r0, CPSR
     780:	70030552 	andvc	r0, r3, r2, asr r5
     784:	0f000097 	svceq	0x00000097
     788:	08025301 	stmdaeq	r2, {r0, r8, r9, ip, lr}
     78c:	7d020f2e 	stcvc	15, cr0, [r2, #-184]	; 0xffffff48
     790:	f0030500 			; <UNDEFINED> instruction: 0xf0030500
     794:	0f000096 	svceq	0x00000096
     798:	03047d02 	movweq	r7, #19714	; 0x4d02
     79c:	005001f3 	ldrsheq	r0, [r0], #-19	; 0xffffffed
     7a0:	0084c410 	addeq	ip, r4, r0, lsl r4
     7a4:	00057b00 	andeq	r7, r5, r0, lsl #22
     7a8:	a8110000 	ldmdage	r1, {}	; <UNPREDICTABLE>
     7ac:	5c000000 	stcpl	0, cr0, [r0], {-0}
     7b0:	12000002 	andne	r0, r0, #2, 0
     7b4:	0000002c 	andeq	r0, r0, ip, lsr #32
     7b8:	4c080015 	stcmi	0, cr0, [r8], {21}
     7bc:	0b000002 	bleq	7cc <__code_start__-0x7834>
     7c0:	000003ad 	andeq	r0, r0, sp, lsr #7
     7c4:	5c062a01 			; <UNDEFINED> instruction: 0x5c062a01
     7c8:	3c000084 	stccc	0, cr0, [r0], {132}	; 0x84
     7cc:	01000000 	mrseq	r0, (UNDEF: 0)
     7d0:	0002e49c 	muleq	r2, ip, r4
     7d4:	63700c00 	cmnvs	r0, #0, 24
     7d8:	2c2a0100 	stfcss	f0, [sl], #-0
     7dc:	0000002c 	andeq	r0, r0, ip, lsr #32
     7e0:	00000188 	andeq	r0, r0, r8, lsl #3
     7e4:	00000182 	andeq	r0, r0, r2, lsl #3
     7e8:	0003f00d 	andeq	pc, r3, sp
     7ec:	0002f400 	andeq	pc, r2, r0, lsl #8
     7f0:	50030500 	andpl	r0, r3, r0, lsl #10
     7f4:	0e000097 	mcreq	0, 0, r0, cr0, cr7, {4}
     7f8:	00008484 	andeq	r8, r0, r4, lsl #9
     7fc:	0000056f 	andeq	r0, r0, pc, ror #10
     800:	000002da 	ldrdeq	r0, [r0], -sl
     804:	0550010f 	ldrbeq	r0, [r0, #-271]	; 0xfffffef1
     808:	00967403 	addseq	r7, r6, r3, lsl #8
     80c:	51010f00 	tstpl	r1, r0, lsl #30
     810:	96640305 	strbtls	r0, [r4], -r5, lsl #6
     814:	010f0000 	mrseq	r0, CPSR
     818:	50030552 	andpl	r0, r3, r2, asr r5
     81c:	0f000097 	svceq	0x00000097
     820:	08025301 	stmdaeq	r2, {r0, r8, r9, ip, lr}
     824:	7d020f2b 	stcvc	15, cr0, [r2, #-172]	; 0xffffff54
     828:	d8030500 	stmdale	r3, {r8, sl}
     82c:	0f000096 	svceq	0x00000096
     830:	03047d02 	movweq	r7, #19714	; 0x4d02
     834:	005001f3 	ldrsheq	r0, [r0], #-19	; 0xffffffed
     838:	00848810 	addeq	r8, r4, r0, lsl r8
     83c:	00057b00 	andeq	r7, r5, r0, lsl #22
     840:	a8110000 	ldmdage	r1, {}	; <UNPREDICTABLE>
     844:	f4000000 	vst4.8	{d0-d3}, [r0], r0
     848:	12000002 	andne	r0, r0, #2, 0
     84c:	0000002c 	andeq	r0, r0, ip, lsr #32
     850:	e408001c 	str	r0, [r8], #-28	; 0xffffffe4
     854:	0b000002 	bleq	864 <__code_start__-0x779c>
     858:	00000434 	andeq	r0, r0, r4, lsr r4
     85c:	20062701 	andcs	r2, r6, r1, lsl #14
     860:	3c000084 	stccc	0, cr0, [r0], {132}	; 0x84
     864:	01000000 	mrseq	r0, (UNDEF: 0)
     868:	00037c9c 	muleq	r3, ip, ip
     86c:	63700c00 	cmnvs	r0, #0, 24
     870:	1c270100 	stfnes	f0, [r7], #-0
     874:	0000002c 	andeq	r0, r0, ip, lsr #32
     878:	000001bb 			; <UNDEFINED> instruction: 0x000001bb
     87c:	000001b5 			; <UNDEFINED> instruction: 0x000001b5
     880:	0003f00d 	andeq	pc, r3, sp
     884:	00038c00 	andeq	r8, r3, r0, lsl #24
     888:	40030500 	andmi	r0, r3, r0, lsl #10
     88c:	0e000097 	mcreq	0, 0, r0, cr0, cr7, {4}
     890:	00008448 	andeq	r8, r0, r8, asr #8
     894:	0000056f 	andeq	r0, r0, pc, ror #10
     898:	00000372 	andeq	r0, r0, r2, ror r3
     89c:	0550010f 	ldrbeq	r0, [r0, #-271]	; 0xfffffef1
     8a0:	00967403 	addseq	r7, r6, r3, lsl #8
     8a4:	51010f00 	tstpl	r1, r0, lsl #30
     8a8:	96640305 	strbtls	r0, [r4], -r5, lsl #6
     8ac:	010f0000 	mrseq	r0, CPSR
     8b0:	40030552 	andmi	r0, r3, r2, asr r5
     8b4:	0f000097 	svceq	0x00000097
     8b8:	08025301 	stmdaeq	r2, {r0, r8, r9, ip, lr}
     8bc:	7d020f28 	stcvc	15, cr0, [r2, #-160]	; 0xffffff60
     8c0:	c8030500 	stmdagt	r3, {r8, sl}
     8c4:	0f000096 	svceq	0x00000096
     8c8:	03047d02 	movweq	r7, #19714	; 0x4d02
     8cc:	005001f3 	ldrsheq	r0, [r0], #-19	; 0xffffffed
     8d0:	00844c10 	addeq	r4, r4, r0, lsl ip
     8d4:	00057b00 	andeq	r7, r5, r0, lsl #22
     8d8:	a8110000 	ldmdage	r1, {}	; <UNPREDICTABLE>
     8dc:	8c000000 	stchi	0, cr0, [r0], {-0}
     8e0:	12000003 	andne	r0, r0, #3, 0
     8e4:	0000002c 	andeq	r0, r0, ip, lsr #32
     8e8:	7c08000c 	stcvc	0, cr0, [r8], {12}
     8ec:	0b000003 	bleq	900 <__code_start__-0x7700>
     8f0:	00000441 	andeq	r0, r0, r1, asr #8
     8f4:	e4062401 	str	r2, [r6], #-1025	; 0xfffffbff
     8f8:	3c000083 	stccc	0, cr0, [r0], {131}	; 0x83
     8fc:	01000000 	mrseq	r0, (UNDEF: 0)
     900:	0004149c 	muleq	r4, ip, r4
     904:	63700c00 	cmnvs	r0, #0, 24
     908:	29240100 	stmdbcs	r4!, {r8}
     90c:	0000002c 	andeq	r0, r0, ip, lsr #32
     910:	000001ee 	andeq	r0, r0, lr, ror #3
     914:	000001e8 	andeq	r0, r0, r8, ror #3
     918:	0003f00d 	andeq	pc, r3, sp
     91c:	00042400 	andeq	r2, r4, r0, lsl #8
     920:	24030500 	strcs	r0, [r3], #-1280	; 0xfffffb00
     924:	0e000097 	mcreq	0, 0, r0, cr0, cr7, {4}
     928:	0000840c 	andeq	r8, r0, ip, lsl #8
     92c:	0000056f 	andeq	r0, r0, pc, ror #10
     930:	0000040a 	andeq	r0, r0, sl, lsl #8
     934:	0550010f 	ldrbeq	r0, [r0, #-271]	; 0xfffffef1
     938:	00967403 	addseq	r7, r6, r3, lsl #8
     93c:	51010f00 	tstpl	r1, r0, lsl #30
     940:	96640305 	strbtls	r0, [r4], -r5, lsl #6
     944:	010f0000 	mrseq	r0, CPSR
     948:	24030552 	strcs	r0, [r3], #-1362	; 0xfffffaae
     94c:	0f000097 	svceq	0x00000097
     950:	08025301 	stmdaeq	r2, {r0, r8, r9, ip, lr}
     954:	7d020f25 	stcvc	15, cr0, [r2, #-148]	; 0xffffff6c
     958:	b8030500 	stmdalt	r3, {r8, sl}
     95c:	0f000096 	svceq	0x00000096
     960:	03047d02 	movweq	r7, #19714	; 0x4d02
     964:	005001f3 	ldrsheq	r0, [r0], #-19	; 0xffffffed
     968:	00841010 	addeq	r1, r4, r0, lsl r0
     96c:	00057b00 	andeq	r7, r5, r0, lsl #22
     970:	a8110000 	ldmdage	r1, {}	; <UNPREDICTABLE>
     974:	24000000 	strcs	r0, [r0], #-0
     978:	12000004 	andne	r0, r0, #4, 0
     97c:	0000002c 	andeq	r0, r0, ip, lsr #32
     980:	14080019 	strne	r0, [r8], #-25	; 0xffffffe7
     984:	0b000004 	bleq	99c <__code_start__-0x7664>
     988:	0000045b 	andeq	r0, r0, fp, asr r4
     98c:	a8061f01 	stmdage	r6, {r0, r8, r9, sl, fp, ip}
     990:	3c000083 	stccc	0, cr0, [r0], {131}	; 0x83
     994:	01000000 	mrseq	r0, (UNDEF: 0)
     998:	0004ac9c 	muleq	r4, ip, ip
     99c:	63700c00 	cmnvs	r0, #0, 24
     9a0:	251f0100 	ldrcs	r0, [pc, #-256]	; 8a8 <__code_start__-0x7758>
     9a4:	0000002c 	andeq	r0, r0, ip, lsr #32
     9a8:	00000221 	andeq	r0, r0, r1, lsr #4
     9ac:	0000021b 	andeq	r0, r0, fp, lsl r2
     9b0:	0003f00d 	andeq	pc, r3, sp
     9b4:	00025c00 	andeq	r5, r2, r0, lsl #24
     9b8:	0c030500 	cfstr32eq	mvfx0, [r3], {-0}
     9bc:	0e000097 	mcreq	0, 0, r0, cr0, cr7, {4}
     9c0:	000083d0 	ldrdeq	r8, [r0], -r0
     9c4:	0000056f 	andeq	r0, r0, pc, ror #10
     9c8:	000004a2 	andeq	r0, r0, r2, lsr #9
     9cc:	0550010f 	ldrbeq	r0, [r0, #-271]	; 0xfffffef1
     9d0:	00967403 	addseq	r7, r6, r3, lsl #8
     9d4:	51010f00 	tstpl	r1, r0, lsl #30
     9d8:	96640305 	strbtls	r0, [r4], -r5, lsl #6
     9dc:	010f0000 	mrseq	r0, CPSR
     9e0:	0c030552 	cfstr32eq	mvfx0, [r3], {82}	; 0x52
     9e4:	0f000097 	svceq	0x00000097
     9e8:	08025301 	stmdaeq	r2, {r0, r8, r9, ip, lr}
     9ec:	7d020f20 	stcvc	15, cr0, [r2, #-128]	; 0xffffff80
     9f0:	b0030500 	andlt	r0, r3, r0, lsl #10
     9f4:	0f000096 	svceq	0x00000096
     9f8:	03047d02 	movweq	r7, #19714	; 0x4d02
     9fc:	005001f3 	ldrsheq	r0, [r0], #-19	; 0xffffffed
     a00:	0083d410 	addeq	sp, r3, r0, lsl r4
     a04:	00057b00 	andeq	r7, r5, r0, lsl #22
     a08:	310b0000 	mrscc	r0, (UNDEF: 11)
     a0c:	01000001 	tsteq	r0, r1
     a10:	83480605 	movthi	r0, #34309	; 0x8605
     a14:	00600000 	rsbeq	r0, r0, r0
     a18:	9c010000 	stcls	0, cr0, [r1], {-0}
     a1c:	00000569 	andeq	r0, r0, r9, ror #10
     a20:	0003ca06 	andeq	ip, r3, r6, lsl #20
     a24:	15110100 	ldrne	r0, [r1, #-256]	; 0xffffff00
     a28:	0000002c 	andeq	r0, r0, ip, lsr #32
     a2c:	0003db06 	andeq	sp, r3, r6, lsl #22
     a30:	15120100 	ldrne	r0, [r2, #-256]	; 0xffffff00
     a34:	0000002c 	andeq	r0, r0, ip, lsr #32
     a38:	74736413 	ldrbtvc	r6, [r3], #-1043	; 0xfffffbed
     a3c:	0f160100 	svceq	0x00160100
     a40:	00000569 	andeq	r0, r0, r9, ror #10
     a44:	72731400 	rsbsvc	r1, r3, #0, 8
     a48:	17010063 	strne	r0, [r1, -r3, rrx]
     a4c:	00056913 	andeq	r6, r5, r3, lsl r9
     a50:	006e1500 	rsbeq	r1, lr, r0, lsl #10
     a54:	2c121801 	ldccs	8, cr1, [r2], {1}
     a58:	50000000 	andpl	r0, r0, r0
     a5c:	4e000002 	cdpmi	0, 0, cr0, cr0, cr2, {0}
     a60:	16000002 	strne	r0, [r0], -r2
     a64:	00008374 	andeq	r8, r0, r4, ror r3
     a68:	00000034 	andeq	r0, r0, r4, lsr r0
     a6c:	00000525 	andeq	r0, r0, r5, lsr #10
     a70:	01006915 	tsteq	r0, r5, lsl r9
     a74:	00250d19 	eoreq	r0, r5, r9, lsl sp
     a78:	02690000 	rsbeq	r0, r9, #0, 0
     a7c:	02670000 	rsbeq	r0, r7, #0, 0
     a80:	0e000000 	cdpeq	0, 0, cr0, cr0, cr0, {0}
     a84:	00008358 	andeq	r8, r0, r8, asr r3
     a88:	00000587 	andeq	r0, r0, r7, lsl #11
     a8c:	00000542 	andeq	r0, r0, r2, asr #10
     a90:	0550010f 	ldrbeq	r0, [r0, #-271]	; 0xfffffef1
     a94:	00b21c0c 	adcseq	r1, r2, ip, lsl #24
     a98:	51010f20 	tstpl	r1, r0, lsr #30
     a9c:	00ff0902 	rscseq	r0, pc, r2, lsl #18
     aa0:	0083640e 	addeq	r6, r3, lr, lsl #8
     aa4:	00058700 	andeq	r8, r5, r0, lsl #14
     aa8:	00055f00 	andeq	r5, r5, r0, lsl #30
     aac:	50010f00 	andpl	r0, r1, r0, lsl #30
     ab0:	b2200c05 	eorlt	r0, r0, #1280	; 0x500
     ab4:	010f2000 	mrseq	r2, CPSR
     ab8:	ff090251 			; <UNDEFINED> instruction: 0xff090251
     abc:	83681000 	cmnhi	r8, #0, 0
     ac0:	05930000 	ldreq	r0, [r3]
     ac4:	07000000 	streq	r0, [r0, -r0]
     ac8:	00002c04 	andeq	r2, r0, r4, lsl #24
     acc:	06b11700 	ldrteq	r1, [r1], r0, lsl #14
     ad0:	06b10000 	ldrteq	r0, [r1], r0
     ad4:	28020000 	stmdacs	r2, {}	; <UNPREDICTABLE>
     ad8:	01241706 			; <UNDEFINED> instruction: 0x01241706
     adc:	01240000 			; <UNDEFINED> instruction: 0x01240000
     ae0:	67020000 	strvs	r0, [r2, -r0]
     ae4:	00ad1706 	adceq	r1, sp, r6, lsl #14
     ae8:	00ad0000 	adceq	r0, sp, r0
     aec:	a4020000 	strge	r0, [r2], #-0
     af0:	01ff1706 	mvnseq	r1, r6, lsl #14
     af4:	01ff0000 	mvnseq	r0, r0
     af8:	93020000 	movwls	r0, #8192	; 0x2000
     afc:	060e0006 	streq	r0, [lr], -r6
     b00:	00040000 	andeq	r0, r4, r0
     b04:	00000320 	andeq	r0, r0, r0, lsr #6
     b08:	02570104 	subseq	r0, r7, #1
     b0c:	bb0c0000 	bllt	300b14 <__bss_end__+0x2f6b14>
     b10:	58000004 	stmdapl	r0, {r2}
     b14:	c0000000 	andgt	r0, r0, r0
     b18:	00000000 	andeq	r0, r0, r0
     b1c:	e9000000 	stmdb	r0, {}	; <UNPREDICTABLE>
     b20:	02000003 	andeq	r0, r0, #3, 0
     b24:	6e690504 	cdpvs	5, 6, cr0, cr9, cr4, {0}
     b28:	04030074 	streq	r0, [r3], #-116	; 0xffffff8c
     b2c:	00019607 	andeq	r9, r1, r7, lsl #12
     b30:	06010300 	streq	r0, [r1], -r0, lsl #6
     b34:	0000016d 	andeq	r0, r0, sp, ror #2
     b38:	43050203 	movwmi	r0, #20995	; 0x5203
     b3c:	03000000 	movweq	r0, #0
     b40:	01140504 	tsteq	r4, r4, lsl #10
     b44:	08030000 	stmdaeq	r3, {}	; <UNPREDICTABLE>
     b48:	00010f05 	andeq	r0, r1, r5, lsl #30
     b4c:	08010300 	stmdaeq	r1, {r8, r9}
     b50:	0000016b 	andeq	r0, r0, fp, ror #2
     b54:	ab070203 	blge	1c1368 <__bss_end__+0x1b7368>
     b58:	04000001 	streq	r0, [r0], #-1
     b5c:	000004cd 	andeq	r0, r0, sp, asr #9
     b60:	69193404 	ldmdbvs	r9, {r2, sl, ip, sp}
     b64:	03000000 	movweq	r0, #0
     b68:	01910704 	orrseq	r0, r1, r4, lsl #14
     b6c:	08030000 	stmdaeq	r3, {}	; <UNPREDICTABLE>
     b70:	00018c07 	andeq	r8, r1, r7, lsl #24
     b74:	00250500 	eoreq	r0, r5, r0, lsl #10
     b78:	00860000 	addeq	r0, r6, r0
     b7c:	25060000 	strcs	r0, [r6, #-0]
     b80:	00000000 	andeq	r0, r0, r0
     b84:	00009207 	andeq	r9, r0, r7, lsl #4
     b88:	0e1c0200 	cdpeq	2, 1, cr0, cr12, cr0, {0}
     b8c:	00000092 	muleq	r0, r2, r0
     b90:	00770408 	rsbseq	r0, r7, r8, lsl #8
     b94:	25050000 	strcs	r0, [r5, #-0]
     b98:	a7000000 	strge	r0, [r0, -r0]
     b9c:	06000000 	streq	r0, [r0], -r0
     ba0:	000000a7 	andeq	r0, r0, r7, lsr #1
     ba4:	b4040800 	strlt	r0, [r4], #-2048	; 0xfffff800
     ba8:	03000000 	movweq	r0, #0
     bac:	01740801 	cmneq	r4, r1, lsl #16
     bb0:	ad090000 	stcge	0, cr0, [r9, #-0]
     bb4:	07000000 	streq	r0, [r0, -r0]
     bb8:	00000728 	andeq	r0, r0, r8, lsr #14
     bbc:	c50e2102 	strgt	r2, [lr, #-258]	; 0xfffffefe
     bc0:	08000000 	stmdaeq	r0, {}	; <UNPREDICTABLE>
     bc4:	00009804 	andeq	r9, r0, r4, lsl #16
     bc8:	03040a00 	movweq	r0, #18944	; 0x4a00
     bcc:	0135091e 	teqeq	r5, lr, lsl r9
     bd0:	a10b0000 	mrsge	r0, (UNDEF: 11)
     bd4:	03000004 	movweq	r0, #4
     bd8:	005d0f21 	subseq	r0, sp, r1, lsr #30
     bdc:	01040000 	mrseq	r0, (UNDEF: 4)
     be0:	810b001e 	tsthi	fp, lr, lsl r0
     be4:	03000004 	movweq	r0, #4
     be8:	005d0f22 	subseq	r0, sp, r2, lsr #30
     bec:	02040000 	andeq	r0, r4, #0, 0
     bf0:	0d0b001c 	stceq	0, cr0, [fp, #-112]	; 0xffffff90
     bf4:	03000005 	movweq	r0, #5
     bf8:	005d0f27 	subseq	r0, sp, r7, lsr #30
     bfc:	01040000 	mrseq	r0, (UNDEF: 4)
     c00:	eb0b001a 	bl	2c0c70 <__bss_end__+0x2b6c70>
     c04:	03000004 	movweq	r0, #4
     c08:	005d0f29 	subseq	r0, sp, r9, lsr #30
     c0c:	01040000 	mrseq	r0, (UNDEF: 4)
     c10:	8b0b0018 	blhi	2c0c78 <__bss_end__+0x2b6c78>
     c14:	03000004 	movweq	r0, #4
     c18:	005d0f2b 	subseq	r0, sp, fp, lsr #30
     c1c:	01040000 	mrseq	r0, (UNDEF: 4)
     c20:	790b0016 	stmdbvc	fp, {r1, r2, r4}
     c24:	03000004 	movweq	r0, #4
     c28:	005d0f2d 	subseq	r0, sp, sp, lsr #30
     c2c:	07040000 	streq	r0, [r4, -r0]
     c30:	04000009 	streq	r0, [r0], #-9
     c34:	000004d6 	ldrdeq	r0, [r0], -r6
     c38:	cb032f03 	blgt	cc84c <__bss_end__+0xc284c>
     c3c:	0c000000 	stceq	0, cr0, [r0], {-0}
     c40:	002c0407 	eoreq	r0, ip, r7, lsl #8
     c44:	33030000 	movwcc	r0, #12288	; 0x3000
     c48:	0001aa0e 	andeq	sl, r1, lr, lsl #20
     c4c:	00250d00 	eoreq	r0, r5, r0, lsl #26
     c50:	b4000000 	strlt	r0, [r0], #-0
     c54:	bf0d2000 	svclt	0x000d2000
     c58:	00000000 	andeq	r0, r0, r0
     c5c:	0d2000b4 	stceq	0, cr0, [r0, #-720]!	; 0xfffffd30
     c60:	0000015b 	andeq	r0, r0, fp, asr r1
     c64:	2000b404 	andcs	fp, r0, r4, lsl #8
     c68:	0000130d 	andeq	r1, r0, sp, lsl #6
     c6c:	00b40800 	adcseq	r0, r4, r0, lsl #16
     c70:	013a0d20 	teqeq	sl, r0, lsr #26
     c74:	b40c0000 	strlt	r0, [ip], #-0
     c78:	140d2000 	strne	r2, [sp], #-0
     c7c:	10000003 	andne	r0, r0, r3
     c80:	0d2000b4 	stceq	0, cr0, [r0, #-720]!	; 0xfffffd30
     c84:	00000380 	andeq	r0, r0, r0, lsl #7
     c88:	2000b414 	andcs	fp, r0, r4, lsl r4
     c8c:	0001be0d 	andeq	fp, r1, sp, lsl #28
     c90:	00b41800 	adcseq	r1, r4, r0, lsl #16
     c94:	03250d20 			; <UNDEFINED> instruction: 0x03250d20
     c98:	b41c0000 	ldrlt	r0, [ip], #-0
     c9c:	d50d2000 	strle	r2, [sp, #-0]
     ca0:	20000001 	andcs	r0, r0, r1
     ca4:	002000b4 	strhteq	r0, [r0], -r4
     ca8:	2c04070c 	stccs	7, cr0, [r4], {12}
     cac:	05000000 	streq	r0, [r0, #-0]
     cb0:	021c0614 	andseq	r0, ip, #20, 12	; 0x1400000
     cb4:	000d0000 	andeq	r0, sp, r0
     cb8:	00000000 	andeq	r0, r0, r0
     cbc:	0d2000b2 	stceq	0, cr0, [r0, #-712]!	; 0xfffffd38
     cc0:	0000035f 	andeq	r0, r0, pc, asr r3
     cc4:	2000b200 	andcs	fp, r0, r0, lsl #4
     cc8:	0003510d 	andeq	r5, r3, sp, lsl #2
     ccc:	00b20400 	adcseq	r0, r2, r0, lsl #8
     cd0:	00e30d20 	rsceq	r0, r3, r0, lsr #26
     cd4:	b2080000 	andlt	r0, r8, #0, 0
     cd8:	b30d2000 	movwlt	r2, #53248	; 0xd000
     cdc:	0c000000 	stceq	0, cr0, [r0], {-0}
     ce0:	0d2000b2 	stceq	0, cr0, [r0, #-712]!	; 0xfffffd38
     ce4:	000000f1 	strdeq	r0, [r0], -r1
     ce8:	2000b210 	andcs	fp, r0, r0, lsl r2
     cec:	00014d0d 	andeq	r4, r1, sp, lsl #26
     cf0:	00b21400 	adcseq	r1, r2, r0, lsl #8
     cf4:	022b0d20 	eoreq	r0, fp, #32, 26	; 0x800
     cf8:	b2180000 	andslt	r0, r8, #0, 0
     cfc:	1c0d2000 	stcne	0, cr2, [sp], {-0}
     d00:	1c000002 	stcne	0, cr0, [r0], {2}
     d04:	0d2000b2 	stceq	0, cr0, [r0, #-712]!	; 0xfffffd38
     d08:	00000034 	andeq	r0, r0, r4, lsr r0
     d0c:	2000b220 	andcs	fp, r0, r0, lsr #4
     d10:	0001790d 	andeq	r7, r1, sp, lsl #18
     d14:	00b22400 	adcseq	r2, r2, r0, lsl #8
     d18:	f90e0020 			; <UNDEFINED> instruction: 0xf90e0020
     d1c:	01000004 	tsteq	r0, r4
     d20:	33010d3f 	movwcc	r0, #7487	; 0x1d3f
     d24:	0f000004 	svceq	0x00000004
     d28:	000003f0 	strdeq	r0, [r0], -r0	; <UNPREDICTABLE>
     d2c:	00000443 	andeq	r0, r0, r3, asr #8
     d30:	98a80305 	stmials	r8!, {r0, r2, r8, r9}
     d34:	8d100000 	ldchi	0, cr0, [r0, #-0]
     d38:	11000002 	tstne	r0, r2
     d3c:	0400755f 	streq	r7, [r0], #-1375	; 0xfffffaa1
     d40:	5e054301 	cdppl	3, 0, cr4, cr5, cr1, {0}
     d44:	12000002 	andne	r0, r0, #2, 0
     d48:	43010073 	movwmi	r0, #4211	; 0x1073
     d4c:	00013505 	andeq	r3, r1, r5, lsl #10
     d50:	00751200 	rsbseq	r1, r5, r0, lsl #4
     d54:	2c054301 	stccs	3, cr4, [r5], {1}
     d58:	00000000 	andeq	r0, r0, r0
     d5c:	01007813 	tsteq	r0, r3, lsl r8
     d60:	023d0543 	eorseq	r0, sp, #281018368	; 0x10c00000
     d64:	65130000 	ldrvs	r0, [r3, #-0]
     d68:	01007078 	tsteq	r0, r8, ror r0
     d6c:	002c0543 	eoreq	r0, ip, r3, asr #10
     d70:	9b140000 	blls	500d78 <__bss_end__+0x4f6d78>
     d74:	01000004 	tsteq	r0, r4
     d78:	002c0543 	eoreq	r0, ip, r3, asr #10
     d7c:	71140000 	tstvc	r4, r0
     d80:	01000004 	tsteq	r0, r4
     d84:	002c0543 	eoreq	r0, ip, r3, asr #10
     d88:	10000000 	andne	r0, r0, r0
     d8c:	000002e2 	andeq	r0, r0, r2, ror #5
     d90:	00755f11 	rsbseq	r5, r5, r1, lsl pc
     d94:	05440104 	strbeq	r0, [r4, #-260]	; 0xfffffefc
     d98:	000002b3 			; <UNDEFINED> instruction: 0x000002b3
     d9c:	01007312 	tsteq	r0, r2, lsl r3
     da0:	01350544 	teqeq	r5, r4, asr #10
     da4:	75120000 	ldrvc	r0, [r2, #-0]
     da8:	05440100 	strbeq	r0, [r4, #-256]	; 0xffffff00
     dac:	0000002c 	andeq	r0, r0, ip, lsr #32
     db0:	00781300 	rsbseq	r1, r8, r0, lsl #6
     db4:	92054401 	andls	r4, r5, #16777216	; 0x1000000
     db8:	13000002 	movwne	r0, #2
     dbc:	00707865 	rsbseq	r7, r0, r5, ror #16
     dc0:	2c054401 	cfstrscs	mvf4, [r5], {1}
     dc4:	14000000 	strne	r0, [r0], #-0
     dc8:	0000049b 	muleq	r0, fp, r4
     dcc:	2c054401 	cfstrscs	mvf4, [r5], {1}
     dd0:	14000000 	strne	r0, [r0], #-0
     dd4:	00000471 	andeq	r0, r0, r1, ror r4
     dd8:	2c054401 	cfstrscs	mvf4, [r5], {1}
     ddc:	00000000 	andeq	r0, r0, r0
     de0:	00033710 	andeq	r3, r3, r0, lsl r7
     de4:	755f1100 	ldrbvc	r1, [pc, #-256]	; cec <__code_start__-0x7314>
     de8:	45010400 	strmi	r0, [r1, #-1024]	; 0xfffffc00
     dec:	00030805 	andeq	r0, r3, r5, lsl #16
     df0:	00731200 	rsbseq	r1, r3, r0, lsl #4
     df4:	35054501 	strcc	r4, [r5, #-1281]	; 0xfffffaff
     df8:	12000001 	andne	r0, r0, #1, 0
     dfc:	45010075 	strmi	r0, [r1, #-117]	; 0xffffff8b
     e00:	00002c05 	andeq	r2, r0, r5, lsl #24
     e04:	78130000 	ldmdavc	r3, {}	; <UNPREDICTABLE>
     e08:	05450100 	strbeq	r0, [r5, #-256]	; 0xffffff00
     e0c:	000002e7 	andeq	r0, r0, r7, ror #5
     e10:	70786513 	rsbsvc	r6, r8, r3, lsl r5
     e14:	05450100 	strbeq	r0, [r5, #-256]	; 0xffffff00
     e18:	0000002c 	andeq	r0, r0, ip, lsr #32
     e1c:	00049b14 	andeq	r9, r4, r4, lsl fp
     e20:	05450100 	strbeq	r0, [r5, #-256]	; 0xffffff00
     e24:	0000002c 	andeq	r0, r0, ip, lsr #32
     e28:	00047114 	andeq	r7, r4, r4, lsl r1
     e2c:	05450100 	strbeq	r0, [r5, #-256]	; 0xffffff00
     e30:	0000002c 	andeq	r0, r0, ip, lsr #32
     e34:	038c1000 	orreq	r1, ip, #0, 0
     e38:	5f110000 	svcpl	0x00110000
     e3c:	01040075 	tsteq	r4, r5, ror r0
     e40:	035d0546 	cmpeq	sp, #293601280	; 0x11800000
     e44:	73120000 	tstvc	r2, #0, 0
     e48:	05460100 	strbeq	r0, [r6, #-256]	; 0xffffff00
     e4c:	00000135 	andeq	r0, r0, r5, lsr r1
     e50:	01007512 	tsteq	r0, r2, lsl r5
     e54:	002c0546 	eoreq	r0, ip, r6, asr #10
     e58:	13000000 	movwne	r0, #0
     e5c:	46010078 			; <UNDEFINED> instruction: 0x46010078
     e60:	00033c05 	andeq	r3, r3, r5, lsl #24
     e64:	78651300 	stmdavc	r5!, {r8, r9, ip}^
     e68:	46010070 			; <UNDEFINED> instruction: 0x46010070
     e6c:	00002c05 	andeq	r2, r0, r5, lsl #24
     e70:	049b1400 	ldreq	r1, [fp], #1024	; 0x400
     e74:	46010000 	strmi	r0, [r1], -r0
     e78:	00002c05 	andeq	r2, r0, r5, lsl #24
     e7c:	04711400 	ldrbteq	r1, [r1], #-1024	; 0xfffffc00
     e80:	46010000 	strmi	r0, [r1], -r0
     e84:	00002c05 	andeq	r2, r0, r5, lsl #24
     e88:	e1100000 	tst	r0, r0
     e8c:	11000003 	tstne	r0, r3
     e90:	0400755f 	streq	r7, [r0], #-1375	; 0xfffffaa1
     e94:	b2054701 	andlt	r4, r5, #262144	; 0x40000
     e98:	12000003 	andne	r0, r0, #3, 0
     e9c:	47010073 	smlsdxmi	r1, r3, r0, r0
     ea0:	00013505 	andeq	r3, r1, r5, lsl #10
     ea4:	00751200 	rsbseq	r1, r5, r0, lsl #4
     ea8:	2c054701 	stccs	7, cr4, [r5], {1}
     eac:	00000000 	andeq	r0, r0, r0
     eb0:	01007813 	tsteq	r0, r3, lsl r8
     eb4:	03910547 	orrseq	r0, r1, #297795584	; 0x11c00000
     eb8:	65130000 	ldrvs	r0, [r3, #-0]
     ebc:	01007078 	tsteq	r0, r8, ror r0
     ec0:	002c0547 	eoreq	r0, ip, r7, asr #10
     ec4:	9b140000 	blls	500ecc <__bss_end__+0x4f6ecc>
     ec8:	01000004 	tsteq	r0, r4
     ecc:	002c0547 	eoreq	r0, ip, r7, asr #10
     ed0:	71140000 	tstvc	r4, r0
     ed4:	01000004 	tsteq	r0, r4
     ed8:	002c0547 	eoreq	r0, ip, r7, asr #10
     edc:	15000000 	strne	r0, [r0, #-0]
     ee0:	00755f11 	rsbseq	r5, r5, r1, lsl pc
     ee4:	05480104 	strbeq	r0, [r8, #-260]	; 0xfffffefc
     ee8:	00000403 	andeq	r0, r0, r3, lsl #8
     eec:	01007312 	tsteq	r0, r2, lsl r3
     ef0:	01350548 	teqeq	r5, r8, asr #10
     ef4:	75120000 	ldrvc	r0, [r2, #-0]
     ef8:	05480100 	strbeq	r0, [r8, #-256]	; 0xffffff00
     efc:	0000002c 	andeq	r0, r0, ip, lsr #32
     f00:	00781300 	rsbseq	r1, r8, r0, lsl #6
     f04:	e2054801 	and	r4, r5, #65536	; 0x10000
     f08:	13000003 	movwne	r0, #3
     f0c:	00707865 	rsbseq	r7, r0, r5, ror #16
     f10:	2c054801 	stccs	8, cr4, [r5], {1}
     f14:	14000000 	strne	r0, [r0], #-0
     f18:	0000049b 	muleq	r0, fp, r4
     f1c:	2c054801 	stccs	8, cr4, [r5], {1}
     f20:	14000000 	strne	r0, [r0], #-0
     f24:	00000471 	andeq	r0, r0, r1, ror r4
     f28:	2c054801 	stccs	8, cr4, [r5], {1}
     f2c:	00000000 	andeq	r0, r0, r0
     f30:	00b41600 	adcseq	r1, r4, r0, lsl #12
     f34:	04430000 	strbeq	r0, [r3], #-0
     f38:	2c170000 	ldccs	0, cr0, [r7], {-0}
     f3c:	13000000 	movwne	r0, #0
     f40:	04330900 	ldrteq	r0, [r3], #-2304	; 0xfffff700
     f44:	ce180000 	cdpgt	0, 1, cr0, cr8, cr0, {0}
     f48:	01000000 	mrseq	r0, (UNDEF: 0)
     f4c:	85100611 	ldrhi	r0, [r0, #-1553]	; 0xfffff9ef
     f50:	00500000 	subseq	r0, r0, r0
     f54:	9c010000 	stcls	0, cr0, [r1], {-0}
     f58:	000005f9 	strdeq	r0, [r0], -r9
     f5c:	0004b319 	andeq	fp, r4, r9, lsl r3
     f60:	24110100 	ldrcs	r0, [r1], #-256	; 0xffffff00
     f64:	0000002c 	andeq	r0, r0, ip, lsr #32
     f68:	00000283 	andeq	r0, r0, r3, lsl #5
     f6c:	0000027d 	andeq	r0, r0, sp, ror r2
     f70:	00021c1a 	andeq	r1, r2, sl, lsl ip
     f74:	00851000 	addeq	r1, r5, r0
     f78:	00a80200 	adceq	r0, r8, r0, lsl #4
     f7c:	12010000 	andne	r0, r1, #0, 0
     f80:	0005a605 	andeq	sl, r5, r5, lsl #12
     f84:	00a81b00 	adceq	r1, r8, r0, lsl #22
     f88:	381c0000 	ldmdacc	ip, {}	; <UNPREDICTABLE>
     f8c:	10000002 	andne	r0, r0, r2
     f90:	00000085 	andeq	r0, r0, r5, lsl #1
     f94:	b5000000 	strlt	r0, [r0, #-0]
     f98:	1d000004 	stcne	0, cr0, [r0, #-16]
     f9c:	0000025e 	andeq	r0, r0, lr, asr r2
     fa0:	0002681e 	andeq	r6, r2, lr, lsl r8
     fa4:	741e0200 	ldrvc	r0, [lr], #-512	; 0xfffffe00
     fa8:	1f000002 	svcne	0x00000002
     fac:	0002801e 	andeq	r8, r2, lr, lsl r0
     fb0:	1c000100 	stfnes	f0, [r0], {-0}
     fb4:	0000028d 	andeq	r0, r0, sp, lsl #5
     fb8:	00008510 	andeq	r8, r0, r0, lsl r5
     fbc:	00000000 	andeq	r0, r0, r0
     fc0:	000004e5 	andeq	r0, r0, r5, ror #9
     fc4:	0002b31d 	andeq	fp, r2, sp, lsl r3
     fc8:	02bd1f00 	adcseq	r1, sp, #0, 30
     fcc:	02b30000 	adcseq	r0, r3, #0, 0
     fd0:	02af0000 	adceq	r0, pc, #0, 0
     fd4:	c91e0000 	ldmdbgt	lr, {}	; <UNPREDICTABLE>
     fd8:	1e000002 	cdpne	0, 0, cr0, cr0, cr2, {0}
     fdc:	0002d51e 	andeq	sp, r2, lr, lsl r5
     fe0:	1c000300 	stcne	3, cr0, [r0], {-0}
     fe4:	000002e2 	andeq	r0, r0, r2, ror #5
     fe8:	00008510 	andeq	r8, r0, r0, lsl r5
     fec:	00000000 	andeq	r0, r0, r0
     ff0:	0000050e 	andeq	r0, r0, lr, lsl #10
     ff4:	0003081d 	andeq	r0, r3, sp, lsl r8
     ff8:	03121e00 	tsteq	r2, #0, 28
     ffc:	1e200000 	cdpne	0, 2, cr0, cr0, cr0, {0}
    1000:	0000031e 	andeq	r0, r0, lr, lsl r3
    1004:	032a1e1f 			; <UNDEFINED> instruction: 0x032a1e1f
    1008:	00010000 	andeq	r0, r1, r0
    100c:	0003371c 	andeq	r3, r3, ip, lsl r7
    1010:	00851000 	addeq	r1, r5, r0
    1014:	00000000 	andeq	r0, r0, r0
    1018:	00053700 	andeq	r3, r5, r0, lsl #14
    101c:	035d1d00 	cmpeq	sp, #0, 26
    1020:	671e0000 	ldrvs	r0, [lr, -r0]
    1024:	80000003 	andhi	r0, r0, r3
    1028:	0003731e 	andeq	r7, r3, lr, lsl r3
    102c:	7f1e1f00 	svcvc	0x001e1f00
    1030:	01000003 	tsteq	r0, r3
    1034:	038c1c00 	orreq	r1, ip, #0, 24
    1038:	85100000 	ldrhi	r0, [r0, #-0]
    103c:	00000000 	andeq	r0, r0, r0
    1040:	05610000 	strbeq	r0, [r1, #-0]!
    1044:	b21d0000 	andslt	r0, sp, #0, 0
    1048:	20000003 	andcs	r0, r0, r3
    104c:	000003bc 			; <UNDEFINED> instruction: 0x000003bc
    1050:	c81e0200 	ldmdagt	lr, {r9}
    1054:	1f000003 	svcne	0x00000003
    1058:	0003d41e 	andeq	sp, r3, lr, lsl r4
    105c:	1c000100 	stfnes	f0, [r0], {-0}
    1060:	000003e1 	andeq	r0, r0, r1, ror #7
    1064:	00008510 	andeq	r8, r0, r0, lsl r5
    1068:	00000000 	andeq	r0, r0, r0
    106c:	00000591 	muleq	r0, r1, r5
    1070:	0004031d 	andeq	r0, r4, sp, lsl r3
    1074:	040d1f00 	streq	r1, [sp], #-3840	; 0xfffff100
    1078:	02d70000 	sbcseq	r0, r7, #0, 0
    107c:	02d30000 	sbcseq	r0, r3, #0, 0
    1080:	191e0000 	ldmdbne	lr, {}	; <UNPREDICTABLE>
    1084:	19000004 	stmdbne	r0, {r2}
    1088:	0004251e 	andeq	r2, r4, lr, lsl r5
    108c:	21007f00 	tstcs	r0, r0, lsl #30
    1090:	00008524 	andeq	r8, r0, r4, lsr #10
    1094:	000005f9 	strdeq	r0, [r0], -r9
    1098:	05500122 	ldrbeq	r0, [r0, #-290]	; 0xfffffede
    109c:	00989003 	addseq	r9, r8, r3
    10a0:	00000000 	andeq	r0, r0, r0
    10a4:	00853023 	addeq	r3, r5, r3, lsr #32
    10a8:	00060500 	andeq	r0, r6, r0, lsl #10
    10ac:	0005c200 	andeq	ip, r5, r0, lsl #4
    10b0:	50012200 	andpl	r2, r1, r0, lsl #4
    10b4:	b2180c05 	andslt	r0, r8, #1280	; 0x500
    10b8:	01222000 			; <UNDEFINED> instruction: 0x01222000
    10bc:	00310151 	eorseq	r0, r1, r1, asr r1
    10c0:	00853c23 	addeq	r3, r5, r3, lsr #24
    10c4:	00060500 	andeq	r0, r6, r0, lsl #10
    10c8:	0005df00 	andeq	sp, r5, r0, lsl #30
    10cc:	50012200 	andpl	r2, r1, r0, lsl #4
    10d0:	b4000c05 	strlt	r0, [r0], #-3077	; 0xfffff3fb
    10d4:	01222000 			; <UNDEFINED> instruction: 0x01222000
    10d8:	00740251 	rsbseq	r0, r4, r1, asr r2
    10dc:	85502400 	ldrbhi	r2, [r0, #-1024]	; 0xfffffc00
    10e0:	06050000 	streq	r0, [r5], -r0
    10e4:	01220000 			; <UNDEFINED> instruction: 0x01220000
    10e8:	080c0550 	stmdaeq	ip, {r4, r6, r8, sl}
    10ec:	222000b4 	eorcs	r0, r0, #180, 0	; 0xb4
    10f0:	08025101 	stmdaeq	r2, {r0, r8, ip, lr}
    10f4:	250000aa 	strcs	r0, [r0, #-170]	; 0xffffff56
    10f8:	000006b1 			; <UNDEFINED> instruction: 0x000006b1
    10fc:	000006b1 			; <UNDEFINED> instruction: 0x000006b1
    1100:	25062802 	strcs	r2, [r6, #-2050]	; 0xfffff7fe
    1104:	000000ad 	andeq	r0, r0, sp, lsr #1
    1108:	000000ad 	andeq	r0, r0, sp, lsr #1
    110c:	0006a402 	andeq	sl, r6, r2, lsl #8
    1110:	00000741 	andeq	r0, r0, r1, asr #14
    1114:	05100004 	ldreq	r0, [r0, #-4]
    1118:	01040000 	mrseq	r0, (UNDEF: 4)
    111c:	000005e7 	andeq	r0, r0, r7, ror #11
    1120:	00053b0c 	andeq	r3, r5, ip, lsl #22
    1124:	0005a100 	andeq	sl, r5, r0, lsl #2
    1128:	00856000 	addeq	r6, r5, r0
    112c:	0002fc00 	andeq	pc, r2, r0, lsl #24
    1130:	00059d00 	andeq	r9, r5, r0, lsl #26
    1134:	05040200 	streq	r0, [r4, #-512]	; 0xfffffe00
    1138:	00746e69 	rsbseq	r6, r4, r9, ror #28
    113c:	96070403 	strls	r0, [r7], -r3, lsl #8
    1140:	03000001 	movweq	r0, #1
    1144:	016d0601 	cmneq	sp, r1, lsl #12
    1148:	02030000 	andeq	r0, r3, #0, 0
    114c:	00004305 	andeq	r4, r0, r5, lsl #6
    1150:	05040300 	streq	r0, [r4, #-768]	; 0xfffffd00
    1154:	00000114 	andeq	r0, r0, r4, lsl r1
    1158:	0f050803 	svceq	0x00050803
    115c:	03000001 	movweq	r0, #1
    1160:	016b0801 	cmneq	fp, r1, lsl #16
    1164:	02030000 	andeq	r0, r3, #0, 0
    1168:	0001ab07 	andeq	sl, r1, r7, lsl #22
    116c:	07040300 	streq	r0, [r4, -r0, lsl #6]
    1170:	00000191 	muleq	r0, r1, r1
    1174:	8c070803 	stchi	8, cr0, [r7], {3}
    1178:	04000001 	streq	r0, [r0], #-1
    117c:	00000025 	andeq	r0, r0, r5, lsr #32
    1180:	0000007a 	andeq	r0, r0, sl, ror r0
    1184:	00002505 	andeq	r2, r0, r5, lsl #10
    1188:	92060000 	andls	r0, r6, #0, 0
    118c:	02000000 	andeq	r0, r0, #0, 0
    1190:	00860e1c 	addeq	r0, r6, ip, lsl lr
    1194:	04070000 	streq	r0, [r7], #-0
    1198:	0000006b 	andeq	r0, r0, fp, rrx
    119c:	00002504 	andeq	r2, r0, r4, lsl #10
    11a0:	00009b00 	andeq	r9, r0, r0, lsl #22
    11a4:	009b0500 	addseq	r0, fp, r0, lsl #10
    11a8:	07000000 	streq	r0, [r0, -r0]
    11ac:	0000a804 	andeq	sl, r0, r4, lsl #16
    11b0:	08010300 	stmdaeq	r1, {r8, r9}
    11b4:	00000174 	andeq	r0, r0, r4, ror r1
    11b8:	0000a108 	andeq	sl, r0, r8, lsl #2
    11bc:	07280600 	streq	r0, [r8, -r0, lsl #12]!
    11c0:	21020000 	mrscs	r0, (UNDEF: 2)
    11c4:	0000b90e 	andeq	fp, r0, lr, lsl #18
    11c8:	8c040700 	stchi	7, cr0, [r4], {-0}
    11cc:	06000000 	streq	r0, [r0], -r0
    11d0:	000005d8 	ldrdeq	r0, [r0], -r8
    11d4:	a10d0401 	tstge	sp, r1, lsl #8
    11d8:	09000000 	stmdbeq	r0, {}	; <UNPREDICTABLE>
    11dc:	0000058a 	andeq	r0, r0, sl, lsl #11
    11e0:	250c0701 	strcs	r0, [ip, #-1793]	; 0xfffff8ff
    11e4:	05000000 	streq	r0, [r0, #-0]
    11e8:	009bf003 	addseq	pc, fp, r3
    11ec:	05850a00 	streq	r0, [r5, #2560]	; 0xa00
    11f0:	0a010000 	beq	411f8 <__bss_end__+0x371f8>
    11f4:	00002c0a 	andeq	r2, r0, sl, lsl #24
    11f8:	f8030500 			; <UNDEFINED> instruction: 0xf8030500
    11fc:	0300009f 	movweq	r0, #159	; 0x9f
    1200:	057e0408 	ldrbeq	r0, [lr, #-1032]!	; 0xfffffbf8
    1204:	040b0000 	streq	r0, [fp], #-0
    1208:	0005c70c 	andeq	ip, r5, ip, lsl #14
    120c:	07770100 	ldrbeq	r0, [r7, -r0, lsl #2]!
    1210:	000000f6 	strdeq	r0, [r0], -r6
    1214:	00008834 	andeq	r8, r0, r4, lsr r8
    1218:	00000028 	andeq	r0, r0, r8, lsr #32
    121c:	015a9c01 	cmpeq	sl, r1, lsl #24
    1220:	f00d0000 			; <UNDEFINED> instruction: 0xf00d0000
    1224:	6a000003 	bvs	1238 <__code_start__-0x6dc8>
    1228:	05000001 	streq	r0, [r0, #-1]
    122c:	009a5c03 	addseq	r5, sl, r3, lsl #24
    1230:	884c0e00 	stmdahi	ip, {r9, sl, fp}^
    1234:	07200000 	streq	r0, [r0, -r0]!
    1238:	01500000 	cmpeq	r0, r0
    123c:	010f0000 	mrseq	r0, CPSR
    1240:	f4030550 	vst3.16	{d0,d2,d4}, [r3 :64], r0
    1244:	0f000099 	svceq	0x00000099
    1248:	03055101 	movweq	r5, #20737	; 0x5101
    124c:	000098bc 			; <UNDEFINED> instruction: 0x000098bc
    1250:	0552010f 	ldrbeq	r0, [r2, #-271]	; 0xfffffef1
    1254:	009a5c03 	addseq	r5, sl, r3, lsl #24
    1258:	53010f00 	movwpl	r0, #7936	; 0x1f00
    125c:	00780802 	rsbseq	r0, r8, r2, lsl #16
    1260:	00885010 	addeq	r5, r8, r0, lsl r0
    1264:	00072c00 	andeq	r2, r7, r0, lsl #24
    1268:	a8110000 	ldmdage	r1, {}	; <UNPREDICTABLE>
    126c:	6a000000 	bvs	1274 <__code_start__-0x6d8c>
    1270:	12000001 	andne	r0, r0, #1, 0
    1274:	0000002c 	andeq	r0, r0, ip, lsr #32
    1278:	5a080010 	bpl	2012c0 <__bss_end__+0x1f72c0>
    127c:	13000001 	movwne	r0, #1
    1280:	0000054b 	andeq	r0, r0, fp, asr #10
    1284:	0c066e01 	stceq	14, cr6, [r6], {1}
    1288:	28000088 	stmdacs	r0, {r3, r7}
    128c:	01000000 	mrseq	r0, (UNDEF: 0)
    1290:	0001cd9c 	muleq	r1, ip, sp
    1294:	03f00d00 	mvnseq	r0, #0, 26
    1298:	01dd0000 	bicseq	r0, sp, r0
    129c:	03050000 	movweq	r0, #20480	; 0x5000
    12a0:	00009a50 	andeq	r9, r0, r0, asr sl
    12a4:	0088240e 	addeq	r2, r8, lr, lsl #8
    12a8:	00072000 	andeq	r2, r7, r0
    12ac:	0001c300 	andeq	ip, r1, r0, lsl #6
    12b0:	50010f00 	andpl	r0, r1, r0, lsl #30
    12b4:	99f40305 	ldmibls	r4!, {r0, r2, r8, r9}^
    12b8:	010f0000 	mrseq	r0, CPSR
    12bc:	bc030551 	cfstr32lt	mvfx0, [r3], {81}	; 0x51
    12c0:	0f000098 	svceq	0x00000098
    12c4:	03055201 	movweq	r5, #20993	; 0x5201
    12c8:	00009a50 	andeq	r9, r0, r0, asr sl
    12cc:	0253010f 	subseq	r0, r3, #-1073741821	; 0xc0000003
    12d0:	10006f08 	andne	r6, r0, r8, lsl #30
    12d4:	00008828 	andeq	r8, r0, r8, lsr #16
    12d8:	0000072c 	andeq	r0, r0, ip, lsr #14
    12dc:	00a81100 	adceq	r1, r8, r0, lsl #2
    12e0:	01dd0000 	bicseq	r0, sp, r0
    12e4:	2c120000 	ldccs	0, cr0, [r2], {-0}
    12e8:	09000000 	stmdbeq	r0, {}	; <UNPREDICTABLE>
    12ec:	01cd0800 	biceq	r0, sp, r0, lsl #16
    12f0:	24130000 	ldrcs	r0, [r3], #-0
    12f4:	01000005 	tsteq	r0, r5
    12f8:	87880662 	strhi	r0, [r8, r2, ror #12]
    12fc:	00840000 	addeq	r0, r4, r0
    1300:	9c010000 	stcls	0, cr0, [r1], {-0}
    1304:	000002bf 			; <UNDEFINED> instruction: 0x000002bf
    1308:	0006a314 	andeq	sl, r6, r4, lsl r3
    130c:	26620100 	strbtcs	r0, [r2], -r0, lsl #2
    1310:	0000002c 	andeq	r0, r0, ip, lsr #32
    1314:	00000306 	andeq	r0, r0, r6, lsl #6
    1318:	000002fc 	strdeq	r0, [r0], -ip
    131c:	0003f00d 	andeq	pc, r3, sp
    1320:	0002cf00 	andeq	ip, r2, r0, lsl #30
    1324:	38030500 	stmdacc	r3, {r8, sl}
    1328:	1500009a 	strne	r0, [r0, #-154]	; 0xffffff66
    132c:	000006af 	andeq	r0, r0, pc, lsr #13
    1330:	000087ac 	andeq	r8, r0, ip, lsr #15
    1334:	00010001 	andeq	r0, r1, r1
    1338:	0c650100 	stfeqe	f0, [r5], #-0
    133c:	00000250 	andeq	r0, r0, r0, asr r2
    1340:	0006ca16 	andeq	ip, r6, r6, lsl sl
    1344:	00034f00 	andeq	r4, r3, r0, lsl #30
    1348:	00034d00 	andeq	r4, r3, r0, lsl #26
    134c:	06c01600 	strbeq	r1, [r0], r0, lsl #12
    1350:	03670000 	cmneq	r7, #0, 0
    1354:	03630000 	cmneq	r3, #0, 0
    1358:	00170000 	andseq	r0, r7, r0
    135c:	00000001 	andeq	r0, r0, r1
    1360:	0087c40e 	addeq	ip, r7, lr, lsl #8
    1364:	00072000 	andeq	r2, r7, r0
    1368:	00027300 	andeq	r7, r2, r0, lsl #6
    136c:	50010f00 	andpl	r0, r1, r0, lsl #30
    1370:	99b40305 	ldmibls	r4!, {r0, r2, r8, r9}
    1374:	010f0000 	mrseq	r0, CPSR
    1378:	01f30851 	mvnseq	r0, r1, asr r8
    137c:	09032350 	stmdbeq	r3, {r4, r6, r8, r9, sp}
    1380:	10001afc 	strdne	r1, [r0], -ip
    1384:	000087d0 	ldrdeq	r8, [r0], -r0
    1388:	00000738 	andeq	r0, r0, r8, lsr r7
    138c:	0087ec0e 	addeq	lr, r7, lr, lsl #24
    1390:	00072000 	andeq	r2, r7, r0
    1394:	0002b500 	andeq	fp, r2, r0, lsl #10
    1398:	50010f00 	andpl	r0, r1, r0, lsl #30
    139c:	99b80305 	ldmibls	r8!, {r0, r2, r8, r9}
    13a0:	010f0000 	mrseq	r0, CPSR
    13a4:	bc030551 	cfstr32lt	mvfx0, [r3], {81}	; 0x51
    13a8:	0f000098 	svceq	0x00000098
    13ac:	03055201 	movweq	r5, #20993	; 0x5201
    13b0:	00009a38 	andeq	r9, r0, r8, lsr sl
    13b4:	0253010f 	subseq	r0, r3, #-1073741821	; 0xc0000003
    13b8:	020f6308 	andeq	r6, pc, #8, 6	; 0x20000000
    13bc:	0305007d 	movweq	r0, #20605	; 0x507d
    13c0:	000099ec 	andeq	r9, r0, ip, ror #19
    13c4:	87f01000 	ldrbhi	r1, [r0, r0]!
    13c8:	072c0000 	streq	r0, [ip, -r0]!
    13cc:	11000000 	mrsne	r0, (UNDEF: 0)
    13d0:	000000a8 	andeq	r0, r0, r8, lsr #1
    13d4:	000002cf 	andeq	r0, r0, pc, asr #5
    13d8:	00002c12 	andeq	r2, r0, r2, lsl ip
    13dc:	08001600 	stmdaeq	r0, {r9, sl, ip}
    13e0:	000002bf 			; <UNDEFINED> instruction: 0x000002bf
    13e4:	00034413 	andeq	r4, r3, r3, lsl r4
    13e8:	06560100 	ldrbeq	r0, [r6], -r0, lsl #2
    13ec:	0000873c 	andeq	r8, r0, ip, lsr r7
    13f0:	0000004c 	andeq	r0, r0, ip, asr #32
    13f4:	032b9c01 			; <UNDEFINED> instruction: 0x032b9c01
    13f8:	af150000 	svcge	0x00150000
    13fc:	5c000006 	stcpl	0, cr0, [r0], {6}
    1400:	01000087 	smlabbeq	r0, r7, r0, r0
    1404:	000000e8 	andeq	r0, r0, r8, ror #1
    1408:	170c5a01 	strne	r5, [ip, -r1, lsl #20]
    140c:	16000003 	strne	r0, [r0], -r3
    1410:	000006ca 	andeq	r0, r0, sl, asr #13
    1414:	00000389 	andeq	r0, r0, r9, lsl #7
    1418:	00000387 	andeq	r0, r0, r7, lsl #7
    141c:	0006c018 	andeq	ip, r6, r8, lsl r0
    1420:	00e81700 	rsceq	r1, r8, r0, lsl #14
    1424:	19000000 	stmdbne	r0, {}	; <UNPREDICTABLE>
    1428:	00008774 	andeq	r8, r0, r4, ror r7
    142c:	00000720 	andeq	r0, r0, r0, lsr #14
    1430:	0550010f 	ldrbeq	r0, [r0, #-271]	; 0xfffffef1
    1434:	0099b403 	addseq	fp, r9, r3, lsl #8
    1438:	0c000000 	stceq	0, cr0, [r0], {-0}
    143c:	00000591 	muleq	r0, r1, r5
    1440:	f6074201 			; <UNDEFINED> instruction: 0xf6074201
    1444:	30000000 	andcc	r0, r0, r0
    1448:	0c000086 	stceq	0, cr0, [r0], {134}	; 0x86
    144c:	01000001 	tsteq	r0, r1
    1450:	0004fb9c 	muleq	r4, ip, fp
    1454:	069c1400 	ldreq	r1, [ip], r0, lsl #8
    1458:	42010000 	andmi	r0, r1, #0, 0
    145c:	00002c20 	andeq	r2, r0, r0, lsr #24
    1460:	0003b100 	andeq	fp, r3, r0, lsl #2
    1464:	00039d00 	andeq	r9, r3, r0, lsl #26
    1468:	055d1400 	ldrbeq	r1, [sp, #-1024]	; 0xfffffc00
    146c:	42010000 	andmi	r0, r1, #0, 0
    1470:	00002c31 	andeq	r2, r0, r1, lsr ip
    1474:	00044c00 	andeq	r4, r4, r0, lsl #24
    1478:	00043600 	andeq	r3, r4, r0, lsl #12
    147c:	03f00d00 	mvnseq	r0, #0, 26
    1480:	050b0000 	streq	r0, [fp, #-0]
    1484:	03050000 	movweq	r0, #20480	; 0x5000
    1488:	00009a28 	andeq	r9, r0, r8, lsr #20
    148c:	0006de1a 	andeq	sp, r6, sl, lsl lr
    1490:	00865000 	addeq	r5, r6, r0
    1494:	86500300 	ldrbhi	r0, [r0], -r0, lsl #6
    1498:	00040000 	andeq	r0, r4, r0
    149c:	45010000 	strmi	r0, [r1, #-0]
    14a0:	0003a305 	andeq	sl, r3, r5, lsl #6
    14a4:	06ef1600 	strbteq	r1, [pc], r0, lsl #12
    14a8:	04e00000 	strbteq	r0, [r0], #0
    14ac:	04de0000 	ldrbeq	r0, [lr], #0
    14b0:	1a000000 	bne	14b8 <__code_start__-0x6b48>
    14b4:	000006fa 	strdeq	r0, [r0], -sl
    14b8:	0000866c 	andeq	r8, r0, ip, ror #12
    14bc:	00866c00 	addeq	r6, r6, r0, lsl #24
    14c0:	00000400 	andeq	r0, r0, r0, lsl #8
    14c4:	054a0100 	strbeq	r0, [sl, #-256]	; 0xffffff00
    14c8:	000003d7 	ldrdeq	r0, [r0], -r7
    14cc:	00071516 	andeq	r1, r7, r6, lsl r5
    14d0:	0004f500 	andeq	pc, r4, r0, lsl #10
    14d4:	0004f300 	andeq	pc, r4, r0, lsl #6
    14d8:	070b1600 	streq	r1, [fp, -r0, lsl #12]
    14dc:	050a0000 	streq	r0, [sl, #-0]
    14e0:	05080000 	streq	r0, [r8, #-0]
    14e4:	0e000000 	cdpeq	0, 0, cr0, cr0, cr0, {0}
    14e8:	0000869c 	muleq	r0, ip, r6
    14ec:	00000720 	andeq	r0, r0, r0, lsr #14
    14f0:	00000410 	andeq	r0, r0, r0, lsl r4
    14f4:	0550010f 	ldrbeq	r0, [r0, #-271]	; 0xfffffef1
    14f8:	0098cc03 	addseq	ip, r8, r3, lsl #24
    14fc:	51010f00 	tstpl	r1, r0, lsl #30
    1500:	98bc0305 	ldmls	ip!, {r0, r2, r8, r9}
    1504:	010f0000 	mrseq	r0, CPSR
    1508:	28030552 	stmdacs	r3, {r1, r4, r6, r8, sl}
    150c:	0f00009a 	svceq	0x0000009a
    1510:	08025301 	stmdaeq	r2, {r0, r8, r9, ip, lr}
    1514:	7d020f43 	stcvc	15, cr0, [r2, #-268]	; 0xfffffef4
    1518:	38030500 	stmdacc	r3, {r8, sl}
    151c:	00000099 	muleq	r0, r9, r0
    1520:	0086a010 	addeq	sl, r6, r0, lsl r0
    1524:	00072c00 	andeq	r2, r7, r0, lsl #24
    1528:	86a41000 	strthi	r1, [r4], r0
    152c:	07380000 	ldreq	r0, [r8, -r0]!
    1530:	c00e0000 	andgt	r0, lr, r0
    1534:	20000086 	andcs	r0, r0, r6, lsl #1
    1538:	5b000007 	blpl	155c <__code_start__-0x6aa4>
    153c:	0f000004 	svceq	0x00000004
    1540:	03055001 	movweq	r5, #20481	; 0x5001
    1544:	000098e0 	andeq	r9, r0, r0, ror #17
    1548:	0551010f 	ldrbeq	r0, [r1, #-271]	; 0xfffffef1
    154c:	0098bc03 	addseq	fp, r8, r3, lsl #24
    1550:	52010f00 	andpl	r0, r1, #0, 30
    1554:	9a280305 	bls	a02170 <__bss_end__+0x9f8170>
    1558:	010f0000 	mrseq	r0, CPSR
    155c:	44080253 	strmi	r0, [r8], #-595	; 0xfffffdad
    1560:	007d020f 	rsbseq	r0, sp, pc, lsl #4
    1564:	991c0305 	ldmdbls	ip, {r0, r2, r8, r9}
    1568:	10000000 	andne	r0, r0, r0
    156c:	000086c4 	andeq	r8, r0, r4, asr #13
    1570:	0000072c 	andeq	r0, r0, ip, lsr #14
    1574:	0086c810 	addeq	ip, r6, r0, lsl r8
    1578:	00073800 	andeq	r3, r7, r0, lsl #16
    157c:	86e40e00 	strbthi	r0, [r4], r0, lsl #28
    1580:	07200000 	streq	r0, [r0, -r0]!
    1584:	04a60000 	strteq	r0, [r6], #0
    1588:	010f0000 	mrseq	r0, CPSR
    158c:	50030550 	andpl	r0, r3, r0, asr r5
    1590:	0f000099 	svceq	0x00000099
    1594:	03055101 	movweq	r5, #20737	; 0x5101
    1598:	000098bc 			; <UNDEFINED> instruction: 0x000098bc
    159c:	0552010f 	ldrbeq	r0, [r2, #-271]	; 0xfffffef1
    15a0:	009a2803 	addseq	r2, sl, r3, lsl #16
    15a4:	53010f00 	movwpl	r0, #7936	; 0x1f00
    15a8:	0f450802 	svceq	0x00450802
    15ac:	05007d02 	streq	r7, [r0, #-3330]	; 0xfffff2fe
    15b0:	00998403 	addseq	r8, r9, r3, lsl #8
    15b4:	e8100000 	ldmda	r0, {}	; <UNPREDICTABLE>
    15b8:	2c000086 	stccs	0, cr0, [r0], {134}	; 0x86
    15bc:	10000007 	andne	r0, r0, r7
    15c0:	000086ec 	andeq	r8, r0, ip, ror #13
    15c4:	00000510 	andeq	r0, r0, r0, lsl r5
    15c8:	00870c0e 	addeq	r0, r7, lr, lsl #24
    15cc:	00072000 	andeq	r2, r7, r0
    15d0:	0004f100 	andeq	pc, r4, r0, lsl #2
    15d4:	50010f00 	andpl	r0, r1, r0, lsl #30
    15d8:	98cc0305 	stmials	ip, {r0, r2, r8, r9}^
    15dc:	010f0000 	mrseq	r0, CPSR
    15e0:	bc030551 	cfstr32lt	mvfx0, [r3], {81}	; 0x51
    15e4:	0f000098 	svceq	0x00000098
    15e8:	03055201 	movweq	r5, #20993	; 0x5201
    15ec:	00009a28 	andeq	r9, r0, r8, lsr #20
    15f0:	0253010f 	subseq	r0, r3, #-1073741821	; 0xc0000003
    15f4:	020f4a08 	andeq	r4, pc, #8, 20	; 0x8000
    15f8:	0305007d 	movweq	r0, #20605	; 0x507d
    15fc:	00009998 	muleq	r0, r8, r9
    1600:	87101000 	ldrhi	r1, [r0, -r0]
    1604:	072c0000 	streq	r0, [ip, -r0]!
    1608:	11000000 	mrsne	r0, (UNDEF: 0)
    160c:	000000a8 	andeq	r0, r0, r8, lsr #1
    1610:	0000050b 	andeq	r0, r0, fp, lsl #10
    1614:	00002c12 	andeq	r2, r0, r2, lsl ip
    1618:	08000f00 	stmdaeq	r0, {r8, r9, sl, fp}
    161c:	000004fb 	strdeq	r0, [r0], -fp
    1620:	00030c0c 	andeq	r0, r3, ip, lsl #24
    1624:	07340100 	ldreq	r0, [r4, -r0, lsl #2]!
    1628:	000000f6 	strdeq	r0, [r0], -r6
    162c:	00008560 	andeq	r8, r0, r0, ror #10
    1630:	000000d0 	ldrdeq	r0, [r0], -r0	; <UNPREDICTABLE>
    1634:	069a9c01 	ldreq	r9, [sl], r1, lsl #24
    1638:	9c140000 	ldcls	0, cr0, [r4], {-0}
    163c:	01000006 	tsteq	r0, r6
    1640:	002c1834 	eoreq	r1, ip, r4, lsr r8
    1644:	052f0000 	streq	r0, [pc, #-0]!	; 164c <__code_start__-0x69b4>
    1648:	051d0000 	ldreq	r0, [sp, #-0]
    164c:	f00d0000 			; <UNDEFINED> instruction: 0xf00d0000
    1650:	aa000003 	bge	1664 <__code_start__-0x699c>
    1654:	05000006 	streq	r0, [r0, #-6]
    1658:	009a2003 	addseq	r2, sl, r3
    165c:	6d741b00 	vldmdbvs	r4!, {d17-d16}
    1660:	38010070 	stmdacc	r1, {r4, r5, r6}
    1664:	00002c0e 	andeq	r2, r0, lr, lsl #24
    1668:	0005b600 	andeq	fp, r5, r0, lsl #12
    166c:	0005b200 	andeq	fp, r5, r0, lsl #4
    1670:	06af1500 	strteq	r1, [pc], r0, lsl #10
    1674:	85800000 	strhi	r0, [r0]
    1678:	d0020000 	andle	r0, r2, r0
    167c:	01000000 	mrseq	r0, (UNDEF: 0)
    1680:	05960e37 	ldreq	r0, [r6, #3639]	; 0xe37
    1684:	ca160000 	bgt	58168c <__bss_end__+0x57768c>
    1688:	d6000006 	strle	r0, [r0], -r6
    168c:	d4000005 	strle	r0, [r0], #-5
    1690:	16000005 	strne	r0, [r0], -r5
    1694:	000006c0 	andeq	r0, r0, r0, asr #13
    1698:	000005ee 	andeq	r0, r0, lr, ror #11
    169c:	000005ea 	andeq	r0, r0, sl, ror #11
    16a0:	0000d017 	andeq	sp, r0, r7, lsl r0
    16a4:	fa1a0000 	blx	6816ac <__bss_end__+0x6776ac>
    16a8:	98000006 	stmdals	r0, {r1, r2}
    16ac:	02000085 	andeq	r0, r0, #133, 0	; 0x85
    16b0:	00008598 	muleq	r0, r8, r5
    16b4:	00000000 	andeq	r0, r0, r0
    16b8:	ca053a01 	bgt	14fec4 <__bss_end__+0x145ec4>
    16bc:	16000005 	strne	r0, [r0], -r5
    16c0:	00000715 	andeq	r0, r0, r5, lsl r7
    16c4:	00000610 	andeq	r0, r0, r0, lsl r6
    16c8:	0000060e 	andeq	r0, r0, lr, lsl #12
    16cc:	00070b16 	andeq	r0, r7, r6, lsl fp
    16d0:	00062600 	andeq	r2, r6, r0, lsl #12
    16d4:	00062400 	andeq	r2, r6, r0, lsl #8
    16d8:	c40e0000 	strgt	r0, [lr], #-0
    16dc:	20000085 	andcs	r0, r0, r5, lsl #1
    16e0:	03000007 	movweq	r0, #7
    16e4:	0f000006 	svceq	0x00000006
    16e8:	03055001 	movweq	r5, #20481	; 0x5001
    16ec:	000098cc 	andeq	r9, r0, ip, asr #17
    16f0:	0551010f 	ldrbeq	r0, [r1, #-271]	; 0xfffffef1
    16f4:	0098bc03 	addseq	fp, r8, r3, lsl #24
    16f8:	52010f00 	andpl	r0, r1, #0, 30
    16fc:	9a200305 	bls	802318 <__bss_end__+0x7f8318>
    1700:	010f0000 	mrseq	r0, CPSR
    1704:	35080253 	strcc	r0, [r8, #-595]	; 0xfffffdad
    1708:	007d020f 	rsbseq	r0, sp, pc, lsl #4
    170c:	99480305 	stmdbls	r8, {r0, r2, r8, r9}^
    1710:	10000000 	andne	r0, r0, r0
    1714:	000085c8 	andeq	r8, r0, r8, asr #11
    1718:	0000072c 	andeq	r0, r0, ip, lsr #14
    171c:	0085cc10 	addeq	ip, r5, r0, lsl ip
    1720:	00073800 	andeq	r3, r7, r0, lsl #16
    1724:	85e80e00 	strbhi	r0, [r8, #3584]!	; 0xe00
    1728:	07200000 	streq	r0, [r0, -r0]!
    172c:	064e0000 	strbeq	r0, [lr], -r0
    1730:	010f0000 	mrseq	r0, CPSR
    1734:	e0030550 	and	r0, r3, r0, asr r5
    1738:	0f000098 	svceq	0x00000098
    173c:	03055101 	movweq	r5, #20737	; 0x5101
    1740:	000098bc 			; <UNDEFINED> instruction: 0x000098bc
    1744:	0552010f 	ldrbeq	r0, [r2, #-271]	; 0xfffffef1
    1748:	009a2003 	addseq	r2, sl, r3
    174c:	53010f00 	movwpl	r0, #7936	; 0x1f00
    1750:	0f360802 	svceq	0x00360802
    1754:	05007d02 	streq	r7, [r0, #-3330]	; 0xfffff2fe
    1758:	00991c03 	addseq	r1, r9, r3, lsl #24
    175c:	ec100000 	ldc	0, cr0, [r0], {-0}
    1760:	2c000085 	stccs	0, cr0, [r0], {133}	; 0x85
    1764:	0e000007 	cdpeq	0, 0, cr0, cr0, cr7, {0}
    1768:	00008608 	andeq	r8, r0, r8, lsl #12
    176c:	00000720 	andeq	r0, r0, r0, lsr #14
    1770:	00000690 	muleq	r0, r0, r6
    1774:	0550010f 	ldrbeq	r0, [r0, #-271]	; 0xfffffef1
    1778:	0098cc03 	addseq	ip, r8, r3, lsl #24
    177c:	51010f00 	tstpl	r1, r0, lsl #30
    1780:	98bc0305 	ldmls	ip!, {r0, r2, r8, r9}
    1784:	010f0000 	mrseq	r0, CPSR
    1788:	20030552 	andcs	r0, r3, r2, asr r5
    178c:	0f00009a 	svceq	0x0000009a
    1790:	08025301 	stmdaeq	r2, {r0, r8, r9, ip, lr}
    1794:	7d020f3a 	stcvc	15, cr0, [r2, #-232]	; 0xffffff18
    1798:	24030500 	strcs	r0, [r3], #-1280	; 0xfffffb00
    179c:	00000099 	muleq	r0, r9, r0
    17a0:	00860c10 	addeq	r0, r6, r0, lsl ip
    17a4:	00072c00 	andeq	r2, r7, r0, lsl #24
    17a8:	a8110000 	ldmdage	r1, {}	; <UNPREDICTABLE>
    17ac:	aa000000 	bge	17b4 <__code_start__-0x684c>
    17b0:	12000006 	andne	r0, r0, #6, 0
    17b4:	0000002c 	andeq	r0, r0, ip, lsr #32
    17b8:	9a080007 	bls	2017dc <__bss_end__+0x1f77dc>
    17bc:	1c000006 	stcne	0, cr0, [r0], {6}
    17c0:	00000576 	andeq	r0, r0, r6, ror r5
    17c4:	2c182201 	lfmcs	f2, 4, [r8], {1}
    17c8:	03000000 	movweq	r0, #0
    17cc:	000006de 	ldrdeq	r0, [r0], -lr
    17d0:	0100781d 	tsteq	r0, sp, lsl r8
    17d4:	002c2922 	eoreq	r2, ip, r2, lsr #18
    17d8:	6e1d0000 	cdpvs	0, 1, cr0, cr13, cr0, {0}
    17dc:	35220100 	strcc	r0, [r2, #-256]!	; 0xffffff00
    17e0:	0000002c 	andeq	r0, r0, ip, lsr #32
    17e4:	0003f01e 	andeq	pc, r3, lr, lsl r0	; <UNPREDICTABLE>
    17e8:	0006aa00 	andeq	sl, r6, r0, lsl #20
    17ec:	551c0000 	ldrpl	r0, [ip, #-0]
    17f0:	01000005 	tsteq	r0, r5
    17f4:	002c181f 	eoreq	r1, ip, pc, lsl r8
    17f8:	fa030000 	blx	c1800 <__bss_end__+0xb7800>
    17fc:	1d000006 	stcne	0, cr0, [r0, #-24]	; 0xffffffe8
    1800:	1f010078 	svcne	0x00010078
    1804:	00002c29 	andeq	r2, r0, r9, lsr #24
    1808:	191c0000 	ldmdbne	ip, {}	; <UNPREDICTABLE>
    180c:	01000005 	tsteq	r0, r5
    1810:	002c1819 	eoreq	r1, ip, r9, lsl r8
    1814:	20030000 	andcs	r0, r3, r0
    1818:	1d000007 	stcne	0, cr0, [r0, #-28]	; 0xffffffe4
    181c:	19010078 	stmdbne	r1, {r3, r4, r5, r6}
    1820:	00002c2c 	andeq	r2, r0, ip, lsr #24
    1824:	006e1d00 	rsbeq	r1, lr, r0, lsl #26
    1828:	2c381901 			; <UNDEFINED> instruction: 0x2c381901
    182c:	00000000 	andeq	r0, r0, r0
    1830:	0006b11f 	andeq	fp, r6, pc, lsl r1
    1834:	0006b100 	andeq	fp, r6, r0, lsl #2
    1838:	06280200 	strteq	r0, [r8], -r0, lsl #4
    183c:	0001241f 	andeq	r2, r1, pc, lsl r4
    1840:	00012400 	andeq	r2, r1, r0, lsl #8
    1844:	06670200 	strbteq	r0, [r7], -r0, lsl #4
    1848:	0005671f 	andeq	r6, r5, pc, lsl r7
    184c:	00056700 	andeq	r6, r5, r0, lsl #14
    1850:	061d0200 	ldreq	r0, [sp], -r0, lsl #4
    1854:	00019d00 	andeq	r9, r1, r0, lsl #26
    1858:	d4000400 	strle	r0, [r0], #-1024	; 0xfffffc00
    185c:	04000006 	streq	r0, [r0], #-6
    1860:	0005e701 	andeq	lr, r5, r1, lsl #14
    1864:	06cc0c00 	strbeq	r0, [ip], r0, lsl #24
    1868:	05a10000 	streq	r0, [r1, #0]!
    186c:	885c0000 	ldmdahi	ip, {}^	; <UNPREDICTABLE>
    1870:	00580000 	subseq	r0, r8, r0
    1874:	08750000 	ldmdaeq	r5!, {}^	; <UNPREDICTABLE>
    1878:	b8020000 	stmdalt	r2, {}	; <UNPREDICTABLE>
    187c:	02000006 	andeq	r0, r0, #6, 0
    1880:	00311b28 	eorseq	r1, r1, r8, lsr #22
    1884:	dc030000 	stcle	0, cr0, [r3], {-0}
    1888:	04000006 	streq	r0, [r0], #-6
    188c:	00480004 	subeq	r0, r8, r4
    1890:	c7040000 	strgt	r0, [r4, -r0]
    1894:	48000006 	stmdami	r0, {r1, r2}
    1898:	00000000 	andeq	r0, r0, r0
    189c:	02040500 	andeq	r0, r4, #0, 10
    18a0:	000006de 	ldrdeq	r0, [r0], -lr
    18a4:	25186302 	ldrcs	r6, [r8, #-770]	; 0xfffffcfe
    18a8:	06000000 	streq	r0, [r0], -r0
    18ac:	6e690504 	cdpvs	5, 6, cr0, cr9, cr4, {0}
    18b0:	04070074 	streq	r0, [r7], #-116	; 0xffffff8c
    18b4:	00019607 	andeq	r9, r1, r7, lsl #12
    18b8:	06010700 	streq	r0, [r1], -r0, lsl #14
    18bc:	0000016d 	andeq	r0, r0, sp, ror #2
    18c0:	43050207 	movwmi	r0, #20999	; 0x5207
    18c4:	07000000 	streq	r0, [r0, -r0]
    18c8:	01140504 	tsteq	r4, r4, lsl #10
    18cc:	08070000 	stmdaeq	r7, {}	; <UNPREDICTABLE>
    18d0:	00010f05 	andeq	r0, r1, r5, lsl #30
    18d4:	08010700 	stmdaeq	r1, {r8, r9, sl}
    18d8:	0000016b 	andeq	r0, r0, fp, ror #2
    18dc:	ab070207 	blge	1c2100 <__bss_end__+0x1b8100>
    18e0:	07000001 	streq	r0, [r0, -r1]
    18e4:	01910704 	orrseq	r0, r1, r4, lsl #14
    18e8:	08070000 	stmdaeq	r7, {}	; <UNPREDICTABLE>
    18ec:	00018c07 	andeq	r8, r1, r7, lsl #24
    18f0:	00560800 	subseq	r0, r6, r0, lsl #16
    18f4:	00ab0000 	adceq	r0, fp, r0
    18f8:	56090000 	strpl	r0, [r9], -r0
    18fc:	00000000 	andeq	r0, r0, r0
    1900:	0000920a 	andeq	r9, r0, sl, lsl #4
    1904:	0e1c0300 	cdpeq	3, 1, cr0, cr12, cr0, {0}
    1908:	000000b7 	strheq	r0, [r0], -r7
    190c:	009c040b 	addseq	r0, ip, fp, lsl #8
    1910:	56080000 	strpl	r0, [r8], -r0
    1914:	cc000000 	stcgt	0, cr0, [r0], {-0}
    1918:	09000000 	stmdbeq	r0, {}	; <UNPREDICTABLE>
    191c:	000000cc 	andeq	r0, r0, ip, asr #1
    1920:	d9040b00 	stmdble	r4, {r8, r9, fp}
    1924:	07000000 	streq	r0, [r0, -r0]
    1928:	01740801 	cmneq	r4, r1, lsl #16
    192c:	d20c0000 	andle	r0, ip, #0, 0
    1930:	0a000000 	beq	1938 <__code_start__-0x66c8>
    1934:	00000728 	andeq	r0, r0, r8, lsr #14
    1938:	ea0e2103 	b	389d4c <__bss_end__+0x37fd4c>
    193c:	0b000000 	bleq	1944 <__code_start__-0x66bc>
    1940:	0000bd04 	andeq	fp, r0, r4, lsl #26
    1944:	06b10d00 	ldrteq	r0, [r1], r0, lsl #26
    1948:	06010000 	streq	r0, [r1], -r0
    194c:	00005605 	andeq	r5, r0, r5, lsl #12
    1950:	00885c00 	addeq	r5, r8, r0, lsl #24
    1954:	00005800 	andeq	r5, r0, r0, lsl #16
    1958:	839c0100 	orrshi	r0, ip, #0
    195c:	0e000001 	cdpeq	0, 0, cr0, cr0, cr1, {0}
    1960:	00746d66 	rsbseq	r6, r4, r6, ror #26
    1964:	cc180601 	ldcgt	6, cr0, [r8], {1}
    1968:	02000000 	andeq	r0, r0, #0, 0
    196c:	100f7091 	mulne	pc, r1, r0	; <UNPREDICTABLE>
    1970:	00667562 	rsbeq	r7, r6, r2, ror #10
    1974:	83110801 	tsthi	r1, #65536	; 0x10000
    1978:	05000001 	streq	r0, [r0, #-1]
    197c:	009bf403 	addseq	pc, fp, r3, lsl #8
    1980:	06a91100 	strteq	r1, [r9], r0, lsl #2
    1984:	09010000 	stmdbeq	r1, {}	; <UNPREDICTABLE>
    1988:	00004a0d 	andeq	r4, r0, sp, lsl #20
    198c:	5c910200 	lfmpl	f0, 4, [r1], {0}
    1990:	007a7312 	rsbseq	r7, sl, r2, lsl r3
    1994:	560d0c01 	strpl	r0, [sp], -r1, lsl #24
    1998:	3f000000 	svccc	0x00000000
    199c:	39000006 	stmdbcc	r0, {r1, r2}
    19a0:	13000006 	movwne	r0, #6
    19a4:	00008884 	andeq	r8, r0, r4, lsl #17
    19a8:	00000194 	muleq	r0, r4, r1
    19ac:	00000176 	andeq	r0, r0, r6, ror r1
    19b0:	02500114 	subseq	r0, r0, #5
    19b4:	01140075 	tsteq	r4, r5, ror r0
    19b8:	000a0351 	andeq	r0, sl, r1, asr r3
    19bc:	52011404 	andpl	r1, r1, #4, 8	; 0x4000000
    19c0:	06489103 	strbeq	r9, [r8], -r3, lsl #2
    19c4:	02530114 	subseq	r0, r3, #5
    19c8:	15004c91 	strne	r4, [r0, #-3217]	; 0xfffff36f
    19cc:	00008898 	muleq	r0, r8, r8
    19d0:	02500114 	subseq	r0, r0, #5
    19d4:	00000075 	andeq	r0, r0, r5, ror r0
    19d8:	0000d216 	andeq	sp, r0, r6, lsl r2
    19dc:	00019400 	andeq	r9, r1, r0, lsl #8
    19e0:	005d1700 	subseq	r1, sp, r0, lsl #14
    19e4:	03ff0000 	mvnseq	r0, #0, 0
    19e8:	06ae1800 	strteq	r1, [lr], r0, lsl #16
    19ec:	06ae0000 	strteq	r0, [lr], r0
    19f0:	02050000 	andeq	r0, r5, #0, 0
    19f4:	01490005 	cmpeq	r9, r5
    19f8:	00040000 	andeq	r0, r4, r0
    19fc:	00000816 	andeq	r0, r0, r6, lsl r8
    1a00:	05e70104 	strbeq	r0, [r7, #260]!	; 0x104
    1a04:	040c0000 	streq	r0, [ip], #-0
    1a08:	a1000007 	tstge	r0, r7
    1a0c:	b4000005 	strlt	r0, [r0], #-5
    1a10:	3c000088 	stccc	0, cr0, [r0], {136}	; 0x88
    1a14:	8e000000 	cdphi	0, 0, cr0, cr0, cr0, {0}
    1a18:	02000009 	andeq	r0, r0, #9, 0
    1a1c:	6e690504 	cdpvs	5, 6, cr0, cr9, cr4, {0}
    1a20:	04030074 	streq	r0, [r3], #-116	; 0xffffff8c
    1a24:	00019607 	andeq	r9, r1, r7, lsl #12
    1a28:	06010300 	streq	r0, [r1], -r0, lsl #6
    1a2c:	0000016d 	andeq	r0, r0, sp, ror #2
    1a30:	43050203 	movwmi	r0, #20995	; 0x5203
    1a34:	03000000 	movweq	r0, #0
    1a38:	01140504 	tsteq	r4, r4, lsl #10
    1a3c:	08030000 	stmdaeq	r3, {}	; <UNPREDICTABLE>
    1a40:	00010f05 	andeq	r0, r1, r5, lsl #30
    1a44:	08010300 	stmdaeq	r1, {r8, r9}
    1a48:	0000016b 	andeq	r0, r0, fp, ror #2
    1a4c:	ab070203 	blge	1c2260 <__bss_end__+0x1b8260>
    1a50:	03000001 	movweq	r0, #1
    1a54:	01910704 	orrseq	r0, r1, r4, lsl #14
    1a58:	08030000 	stmdaeq	r3, {}	; <UNPREDICTABLE>
    1a5c:	00018c07 	andeq	r8, r1, r7, lsl #24
    1a60:	00250400 	eoreq	r0, r5, r0, lsl #8
    1a64:	007a0000 	rsbseq	r0, sl, r0
    1a68:	25050000 	strcs	r0, [r5, #-0]
    1a6c:	00000000 	andeq	r0, r0, r0
    1a70:	00009206 	andeq	r9, r0, r6, lsl #4
    1a74:	0e1c0200 	cdpeq	2, 1, cr0, cr12, cr0, {0}
    1a78:	00000086 	andeq	r0, r0, r6, lsl #1
    1a7c:	006b0407 	rsbeq	r0, fp, r7, lsl #8
    1a80:	25040000 	strcs	r0, [r4, #-0]
    1a84:	9b000000 	blls	1a8c <__code_start__-0x6574>
    1a88:	05000000 	streq	r0, [r0, #-0]
    1a8c:	0000009b 	muleq	r0, fp, r0
    1a90:	a8040700 	stmdage	r4, {r8, r9, sl}
    1a94:	03000000 	movweq	r0, #0
    1a98:	01740801 	cmneq	r4, r1, lsl #16
    1a9c:	a1080000 	mrsge	r0, (UNDEF: 8)
    1aa0:	06000000 	streq	r0, [r0], -r0
    1aa4:	00000728 	andeq	r0, r0, r8, lsr #14
    1aa8:	b90e2102 	stmdblt	lr, {r1, r8, sp}
    1aac:	07000000 	streq	r0, [r0, -r0]
    1ab0:	00008c04 	andeq	r8, r0, r4, lsl #24
    1ab4:	007a0900 	rsbseq	r0, sl, r0, lsl #18
    1ab8:	06010000 	streq	r0, [r1], -r0
    1abc:	d4030507 	strle	r0, [r3], #-1287	; 0xfffffaf9
    1ac0:	0a00009b 	beq	1d34 <__code_start__-0x62cc>
    1ac4:	000006f7 	strdeq	r0, [r0], -r7
    1ac8:	e0060b01 	and	r0, r6, r1, lsl #22
    1acc:	10000088 	andne	r0, r0, r8, lsl #1
    1ad0:	01000000 	mrseq	r0, (UNDEF: 0)
    1ad4:	0000f19c 	muleq	r0, ip, r1
    1ad8:	70660b00 	rsbvc	r0, r6, r0, lsl #22
    1adc:	190b0100 	stmdbne	fp, {r8}
    1ae0:	00000086 	andeq	r0, r0, r6, lsl #1
    1ae4:	0c005001 	stceq	0, cr5, [r0], {1}
    1ae8:	00000567 	andeq	r0, r0, r7, ror #10
    1aec:	c8060801 	stmdagt	r6, {r0, fp}
    1af0:	18000088 	stmdane	r0, {r3, r7}
    1af4:	01000000 	mrseq	r0, (UNDEF: 0)
    1af8:	06e60d9c 	usateq	r0, #6, ip, lsl #27
    1afc:	03010000 	movweq	r0, #4096	; 0x1000
    1b00:	0000250c 	andeq	r2, r0, ip, lsl #10
    1b04:	0088b400 	addeq	fp, r8, r0, lsl #8
    1b08:	00001400 	andeq	r1, r0, r0, lsl #8
    1b0c:	409c0100 	addsmi	r0, ip, r0, lsl #2
    1b10:	0e000001 	cdpeq	0, 0, cr0, cr0, cr1, {0}
    1b14:	03010063 	movweq	r0, #4195	; 0x1063
    1b18:	00002521 	andeq	r2, r0, r1, lsr #10
    1b1c:	00066c00 	andeq	r6, r6, r0, lsl #24
    1b20:	00066800 	andeq	r6, r6, r0, lsl #16
    1b24:	88c00f00 	stmiahi	r0, {r8, r9, sl, fp}^
    1b28:	01400000 	mrseq	r0, (UNDEF: 64)
    1b2c:	01100000 	tsteq	r0, r0
    1b30:	00740250 	rsbseq	r0, r4, r0, asr r2
    1b34:	15110000 	ldrne	r0, [r1, #-0]
    1b38:	15000007 	strne	r0, [r0, #-7]
    1b3c:	02000007 	andeq	r0, r0, #7, 0
    1b40:	f300063b 	vmin.u8	d0, d0, d27
    1b44:	04000000 	streq	r0, [r0], #-0
    1b48:	00092500 	andeq	r2, r9, r0, lsl #10
    1b4c:	e7010400 	str	r0, [r1, -r0, lsl #8]
    1b50:	0c000005 	stceq	0, cr0, [r0], {5}
    1b54:	0000072d 	andeq	r0, r0, sp, lsr #14
    1b58:	000005a1 	andeq	r0, r0, r1, lsr #11
    1b5c:	000088f0 	strdeq	r8, [r0], -r0
    1b60:	00000034 	andeq	r0, r0, r4, lsr r0
    1b64:	00000a2f 	andeq	r0, r0, pc, lsr #20
    1b68:	69050402 	stmdbvs	r5, {r1, sl}
    1b6c:	0300746e 	movweq	r7, #1134	; 0x46e
    1b70:	01960704 	orrseq	r0, r6, r4, lsl #14
    1b74:	01030000 	mrseq	r0, (UNDEF: 3)
    1b78:	00016d06 	andeq	r6, r1, r6, lsl #26
    1b7c:	05020300 	streq	r0, [r2, #-768]	; 0xfffffd00
    1b80:	00000043 	andeq	r0, r0, r3, asr #32
    1b84:	14050403 	strne	r0, [r5], #-1027	; 0xfffffbfd
    1b88:	03000001 	movweq	r0, #1
    1b8c:	010f0508 	tsteq	pc, r8, lsl #10
    1b90:	01030000 	mrseq	r0, (UNDEF: 3)
    1b94:	00016b08 	andeq	r6, r1, r8, lsl #22
    1b98:	07020300 	streq	r0, [r2, -r0, lsl #6]
    1b9c:	000001ab 	andeq	r0, r0, fp, lsr #3
    1ba0:	91070403 	tstls	r7, r3, lsl #8
    1ba4:	03000001 	movweq	r0, #1
    1ba8:	018c0708 	orreq	r0, ip, r8, lsl #14
    1bac:	25040000 	strcs	r0, [r4, #-0]
    1bb0:	7a000000 	bvc	1bb8 <__code_start__-0x6448>
    1bb4:	05000000 	streq	r0, [r0, #-0]
    1bb8:	00000025 	andeq	r0, r0, r5, lsr #32
    1bbc:	00920600 	addseq	r0, r2, r0, lsl #12
    1bc0:	1c020000 	stcne	0, cr0, [r2], {-0}
    1bc4:	0000860e 	andeq	r8, r0, lr, lsl #12
    1bc8:	6b040700 	blvs	1037d0 <__bss_end__+0xf97d0>
    1bcc:	04000000 	streq	r0, [r0], #-0
    1bd0:	00000025 	andeq	r0, r0, r5, lsr #32
    1bd4:	0000009b 	muleq	r0, fp, r0
    1bd8:	00009b05 	andeq	r9, r0, r5, lsl #22
    1bdc:	04070000 	streq	r0, [r7], #-0
    1be0:	000000a8 	andeq	r0, r0, r8, lsr #1
    1be4:	74080103 	strvc	r0, [r8], #-259	; 0xfffffefd
    1be8:	08000001 	stmdaeq	r0, {r0}
    1bec:	000000a1 	andeq	r0, r0, r1, lsr #1
    1bf0:	00072806 	andeq	r2, r7, r6, lsl #16
    1bf4:	0e210200 	cdpeq	2, 2, cr0, cr1, cr0, {0}
    1bf8:	000000b9 	strheq	r0, [r0], -r9
    1bfc:	008c0407 	addeq	r0, ip, r7, lsl #8
    1c00:	ad090000 	stcge	0, cr0, [r9, #-0]
    1c04:	01000000 	mrseq	r0, (UNDEF: 0)
    1c08:	0305070c 	movweq	r0, #22284	; 0x570c
    1c0c:	00009bd8 	ldrdeq	r9, [r0], -r8
    1c10:	00071f0a 	andeq	r1, r7, sl, lsl #30
    1c14:	05040100 	streq	r0, [r4, #-256]	; 0xffffff00
    1c18:	00000025 	andeq	r0, r0, r5, lsr #32
    1c1c:	000088f0 	strdeq	r8, [r0], -r0
    1c20:	00000034 	andeq	r0, r0, r4, lsr r0
    1c24:	700b9c01 	andvc	r9, fp, r1, lsl #24
    1c28:	1f040100 	svcne	0x00040100
    1c2c:	0000009b 	muleq	r0, fp, r0
    1c30:	0000068e 	andeq	r0, r0, lr, lsl #13
    1c34:	0000068a 	andeq	r0, r0, sl, lsl #13
    1c38:	0a950000 	beq	fe541c40 <__bss_end__+0xfe537c40>
    1c3c:	00040000 	andeq	r0, r4, r0
    1c40:	000009c3 	andeq	r0, r0, r3, asr #19
    1c44:	05e70104 	strbeq	r0, [r7, #260]!	; 0x104
    1c48:	4c0c0000 	stcmi	0, cr0, [ip], {-0}
    1c4c:	a1000007 	tstge	r0, r7
    1c50:	24000005 	strcs	r0, [r0], #-5
    1c54:	20000089 	andcs	r0, r0, r9, lsl #1
    1c58:	dd000007 	stcle	0, cr0, [r0, #-28]	; 0xffffffe4
    1c5c:	0200000a 	andeq	r0, r0, #10, 0
    1c60:	6e690504 	cdpvs	5, 6, cr0, cr9, cr4, {0}
    1c64:	04030074 	streq	r0, [r3], #-116	; 0xffffff8c
    1c68:	00019607 	andeq	r9, r1, r7, lsl #12
    1c6c:	06010300 	streq	r0, [r1], -r0, lsl #6
    1c70:	0000016d 	andeq	r0, r0, sp, ror #2
    1c74:	43050203 	movwmi	r0, #20995	; 0x5203
    1c78:	03000000 	movweq	r0, #0
    1c7c:	01140504 	tsteq	r4, r4, lsl #10
    1c80:	08030000 	stmdaeq	r3, {}	; <UNPREDICTABLE>
    1c84:	00010f05 	andeq	r0, r1, r5, lsl #30
    1c88:	08010300 	stmdaeq	r1, {r8, r9}
    1c8c:	0000016b 	andeq	r0, r0, fp, ror #2
    1c90:	ab070203 	blge	1c24a4 <__bss_end__+0x1b84a4>
    1c94:	04000001 	streq	r0, [r0], #-1
    1c98:	000004cd 	andeq	r0, r0, sp, asr #9
    1c9c:	69193402 	ldmdbvs	r9, {r1, sl, ip, sp}
    1ca0:	03000000 	movweq	r0, #0
    1ca4:	01910704 	orrseq	r0, r1, r4, lsl #14
    1ca8:	43040000 	movwmi	r0, #16384	; 0x4000
    1cac:	02000007 	andeq	r0, r0, #7, 0
    1cb0:	007c1937 	rsbseq	r1, ip, r7, lsr r9
    1cb4:	08030000 	stmdaeq	r3, {}	; <UNPREDICTABLE>
    1cb8:	00018c07 	andeq	r8, r1, r7, lsl #24
    1cbc:	00250500 	eoreq	r0, r5, r0, lsl #10
    1cc0:	00920000 	addseq	r0, r2, r0
    1cc4:	25060000 	strcs	r0, [r6, #-0]
    1cc8:	00000000 	andeq	r0, r0, r0
    1ccc:	00009207 	andeq	r9, r0, r7, lsl #4
    1cd0:	0e1c0300 	cdpeq	3, 1, cr0, cr12, cr0, {0}
    1cd4:	0000009e 	muleq	r0, lr, r0
    1cd8:	00830408 	addeq	r0, r3, r8, lsl #8
    1cdc:	25050000 	strcs	r0, [r5, #-0]
    1ce0:	b3000000 	movwlt	r0, #0
    1ce4:	06000000 	streq	r0, [r0], -r0
    1ce8:	000000b3 	strheq	r0, [r0], -r3
    1cec:	c0040800 	andgt	r0, r4, r0, lsl #16
    1cf0:	03000000 	movweq	r0, #0
    1cf4:	01740801 	cmneq	r4, r1, lsl #16
    1cf8:	b9090000 	stmdblt	r9, {}	; <UNPREDICTABLE>
    1cfc:	07000000 	streq	r0, [r0, -r0]
    1d00:	00000728 	andeq	r0, r0, r8, lsr #14
    1d04:	d10e2103 	tstle	lr, r3, lsl #2
    1d08:	08000000 	stmdaeq	r0, {}	; <UNPREDICTABLE>
    1d0c:	0000a404 	andeq	sl, r0, r4, lsl #8
    1d10:	009e0700 	addseq	r0, lr, r0, lsl #14
    1d14:	0b040000 	bleq	101d1c <__bss_end__+0xf7d1c>
    1d18:	0000b90d 	andeq	fp, r0, sp, lsl #18
    1d1c:	01f20700 	mvnseq	r0, r0, lsl #14
    1d20:	0c040000 	stceq	0, cr0, [r4], {-0}
    1d24:	0000b90d 	andeq	fp, r0, sp, lsl #18
    1d28:	075f0700 	ldrbeq	r0, [pc, -r0, lsl #14]
    1d2c:	0d040000 	stceq	0, cr0, [r4, #-0]
    1d30:	0000b90d 	andeq	fp, r0, sp, lsl #18
    1d34:	07880700 	streq	r0, [r8, r0, lsl #14]
    1d38:	0e040000 	cdpeq	0, 0, cr0, cr4, cr0, {0}
    1d3c:	0000b90d 	andeq	fp, r0, sp, lsl #18
    1d40:	07dd0700 	ldrbeq	r0, [sp, r0, lsl #14]
    1d44:	0f040000 	svceq	0x00040000
    1d48:	0000b90d 	andeq	fp, r0, sp, lsl #18
    1d4c:	07730700 	ldrbeq	r0, [r3, -r0, lsl #14]!
    1d50:	10040000 	andne	r0, r4, r0
    1d54:	0000b90d 	andeq	fp, r0, sp, lsl #18
    1d58:	07ec0700 	strbeq	r0, [ip, r0, lsl #14]!
    1d5c:	11040000 	mrsne	r0, (UNDEF: 4)
    1d60:	0000b90d 	andeq	fp, r0, sp, lsl #18
    1d64:	05d80700 	ldrbeq	r0, [r8, #1792]	; 0x700
    1d68:	12040000 	andne	r0, r4, #0, 0
    1d6c:	0000b90d 	andeq	fp, r0, sp, lsl #18
    1d70:	06b80400 	ldrteq	r0, [r8], r0, lsl #8
    1d74:	28050000 	stmdacs	r5, {}	; <UNPREDICTABLE>
    1d78:	0001431b 	andeq	r4, r1, fp, lsl r3
    1d7c:	06dc0a00 	ldrbeq	r0, [ip], r0, lsl #20
    1d80:	06040000 	streq	r0, [r4], -r0
    1d84:	00015a00 	andeq	r5, r1, r0, lsl #20
    1d88:	06c70b00 	strbeq	r0, [r7], r0, lsl #22
    1d8c:	015a0000 	cmpeq	sl, r0
    1d90:	00000000 	andeq	r0, r0, r0
    1d94:	de04040c 	cdple	4, 0, cr0, cr4, cr12, {0}
    1d98:	05000006 	streq	r0, [r0, #-6]
    1d9c:	01371863 	teqeq	r7, r3, ror #16
    1da0:	ae0d0000 	cdpge	0, 0, cr0, cr13, cr0, {0}
    1da4:	01000006 	tsteq	r0, r6
    1da8:	00250581 	eoreq	r0, r5, r1, lsl #11
    1dac:	8bac0000 	blhi	feb01db4 <__bss_end__+0xfeaf7db4>
    1db0:	04980000 	ldreq	r0, [r8], #0
    1db4:	9c010000 	stcls	0, cr0, [r1], {-0}
    1db8:	000006d5 	ldrdeq	r0, [r0], -r5
    1dbc:	6675620e 	ldrbtvs	r6, [r5], -lr, lsl #4
    1dc0:	15810100 	strne	r0, [r1, #256]	; 0x100
    1dc4:	000006d5 	ldrdeq	r0, [r0], -r5
    1dc8:	000006b2 			; <UNDEFINED> instruction: 0x000006b2
    1dcc:	000006ac 	andeq	r0, r0, ip, lsr #13
    1dd0:	01006e0e 	tsteq	r0, lr, lsl #28
    1dd4:	00251e81 	eoreq	r1, r5, r1, lsl #29
    1dd8:	06e40000 	strbteq	r0, [r4], r0
    1ddc:	06de0000 	ldrbeq	r0, [lr], r0
    1de0:	660e0000 	strvs	r0, [lr], -r0
    1de4:	0100746d 	tsteq	r0, sp, ror #8
    1de8:	00b32d81 	adcseq	r2, r3, r1, lsl #27
    1dec:	071e0000 	ldreq	r0, [lr, -r0]
    1df0:	07120000 	ldreq	r0, [r2, -r0]
    1df4:	a90f0000 	stmdbge	pc, {}	; <UNPREDICTABLE>
    1df8:	01000006 	tsteq	r0, r6
    1dfc:	015c3a81 	cmpeq	ip, r1, lsl #21
    1e00:	91030000 	mrsls	r0, (UNDEF: 3)
    1e04:	70107dd4 			; <UNDEFINED> instruction: 0x70107dd4
    1e08:	08820100 	stmeq	r2, {r8}
    1e0c:	000006d5 	ldrdeq	r0, [r0], -r5
    1e10:	0000077c 	andeq	r0, r0, ip, ror r7
    1e14:	00000768 	andeq	r0, r0, r8, ror #14
    1e18:	01006510 	tsteq	r0, r0, lsl r5
    1e1c:	06d51282 	ldrbeq	r1, [r5], r2, lsl #5
    1e20:	07fe0000 	ldrbeq	r0, [lr, r0]!
    1e24:	07fa0000 	ldrbeq	r0, [sl, r0]!
    1e28:	78100000 	ldmdavc	r0, {}	; <UNPREDICTABLE>
    1e2c:	83010030 	movwhi	r0, #4144	; 0x1030
    1e30:	00005d0e 	andeq	r5, r0, lr, lsl #26
    1e34:	00082b00 	andeq	r2, r8, r0, lsl #22
    1e38:	00082500 	andeq	r2, r8, r0, lsl #10
    1e3c:	31781100 	cmncc	r8, r0, lsl #2
    1e40:	11830100 	orrne	r0, r3, r0, lsl #2
    1e44:	0000005d 	andeq	r0, r0, sp, asr r0
    1e48:	0007a312 	andeq	sl, r7, r2, lsl r3
    1e4c:	11860100 	orrne	r0, r6, r0, lsl #2
    1e50:	000000b3 	strheq	r0, [r0], -r3
    1e54:	00000858 	andeq	r0, r0, r8, asr r8
    1e58:	00000854 	andeq	r0, r0, r4, asr r8
    1e5c:	0003f013 	andeq	pc, r3, r3, lsl r0	; <UNPREDICTABLE>
    1e60:	0006eb00 	andeq	lr, r6, r0, lsl #22
    1e64:	bc030500 	cfstr32lt	mvfx0, [r3], {-0}
    1e68:	1400009b 	strne	r0, [r0], #-155	; 0xffffff65
    1e6c:	00008c14 	andeq	r8, r0, r4, lsl ip
    1e70:	000003e8 	andeq	r0, r0, r8, ror #7
    1e74:	01007310 	tsteq	r0, r0, lsl r3
    1e78:	06d50a91 			; <UNDEFINED> instruction: 0x06d50a91
    1e7c:	088e0000 	stmeq	lr, {}	; <UNPREDICTABLE>
    1e80:	08780000 	ldmdaeq	r8!, {}^	; <UNPREDICTABLE>
    1e84:	6e150000 	cdpvs	0, 1, cr0, cr5, cr0, {0}
    1e88:	01006d75 	tsteq	r0, r5, ror sp
    1e8c:	06f00d91 	usateq	r0, #16, r1, lsl #27
    1e90:	91030000 	mrsls	r0, (UNDEF: 3)
    1e94:	f9167dd8 			; <UNDEFINED> instruction: 0xf9167dd8
    1e98:	01000007 	tsteq	r0, r7
    1e9c:	06f01791 	usateq	r1, #16, r1, lsl #15
    1ea0:	91030000 	mrsls	r0, (UNDEF: 3)
    1ea4:	6d127ed8 	ldcvs	14, cr7, [r2, #-864]	; 0xfffffca0
    1ea8:	01000007 	tsteq	r0, r7
    1eac:	002c0d92 	mlaeq	ip, r2, sp, r0
    1eb0:	09150000 	ldmdbeq	r5, {}	; <UNPREDICTABLE>
    1eb4:	090f0000 	stmdbeq	pc, {}	; <UNPREDICTABLE>
    1eb8:	dc170000 	ldcle	0, cr0, [r7], {-0}
    1ebc:	8c00008c 	stchi	0, cr0, [r0], {140}	; 0x8c
    1ec0:	f7000001 			; <UNDEFINED> instruction: 0xf7000001
    1ec4:	10000004 	andne	r0, r0, r4
    1ec8:	01007974 	tsteq	r0, r4, ror r9
    1ecc:	00b31d9e 	umlalseq	r1, r3, lr, sp
    1ed0:	09490000 	stmdbeq	r9, {}^	; <UNPREDICTABLE>
    1ed4:	093f0000 	ldmdbeq	pc!, {}	; <UNPREDICTABLE>
    1ed8:	78110000 	ldmdavc	r1, {}	; <UNPREDICTABLE>
    1edc:	a2010078 	andge	r0, r1, #120, 0	; 0x78
    1ee0:	0000701a 	andeq	r7, r0, sl, lsl r0
    1ee4:	8cec1800 	stclhi	8, cr1, [ip]
    1ee8:	0a500000 	beq	1401ef0 <__bss_end__+0x13f7ef0>
    1eec:	02cd0000 	sbceq	r0, sp, #0, 0
    1ef0:	01190000 	tsteq	r9, r0
    1ef4:	00760250 	rsbseq	r0, r6, r0, asr r2
    1ef8:	05510119 	ldrbeq	r0, [r1, #-281]	; 0xfffffee7
    1efc:	009ac003 	addseq	ip, sl, r3
    1f00:	52011900 	andpl	r1, r1, #0, 18
    1f04:	18003301 	stmdane	r0, {r0, r8, r9, ip, sp}
    1f08:	00008d04 	andeq	r8, r0, r4, lsl #26
    1f0c:	00000a50 	andeq	r0, r0, r0, asr sl
    1f10:	000002ef 	andeq	r0, r0, pc, ror #5
    1f14:	02500119 	subseq	r0, r0, #1073741830	; 0x40000006
    1f18:	01190076 	tsteq	r9, r6, ror r0
    1f1c:	c4030551 	strgt	r0, [r3], #-1361	; 0xfffffaaf
    1f20:	1900009a 	stmdbne	r0, {r1, r3, r4, r7}
    1f24:	33015201 	movwcc	r5, #4609	; 0x1201
    1f28:	8d3c1800 	ldchi	8, cr1, [ip, #-0]
    1f2c:	0a500000 	beq	1401f34 <__bss_end__+0x13f7f34>
    1f30:	03110000 	tsteq	r1, #0, 0
    1f34:	01190000 	tsteq	r9, r0
    1f38:	00760250 	rsbseq	r0, r6, r0, asr r2
    1f3c:	05510119 	ldrbeq	r0, [r1, #-281]	; 0xfffffee7
    1f40:	009ac003 	addseq	ip, sl, r3
    1f44:	52011900 	andpl	r1, r1, #0, 18
    1f48:	18003301 	stmdane	r0, {r0, r8, r9, ip, sp}
    1f4c:	00008d54 	andeq	r8, r0, r4, asr sp
    1f50:	00000a50 	andeq	r0, r0, r0, asr sl
    1f54:	00000333 	andeq	r0, r0, r3, lsr r3
    1f58:	02500119 	subseq	r0, r0, #1073741830	; 0x40000006
    1f5c:	01190076 	tsteq	r9, r6, ror r0
    1f60:	c4030551 	strgt	r0, [r3], #-1361	; 0xfffffaaf
    1f64:	1900009a 	stmdbne	r0, {r1, r3, r4, r7}
    1f68:	33015201 	movwcc	r5, #4609	; 0x1201
    1f6c:	8d7c1800 	ldclhi	8, cr1, [ip, #-0]
    1f70:	07000000 	streq	r0, [r0, -r0]
    1f74:	03670000 	cmneq	r7, #0, 0
    1f78:	01190000 	tsteq	r9, r0
    1f7c:	193a0150 	ldmdbne	sl!, {r4, r6, r8}
    1f80:	91035101 	tstls	r3, r1, lsl #2
    1f84:	01197dd0 			; <UNDEFINED> instruction: 0x01197dd0
    1f88:	80080252 	andhi	r0, r8, r2, asr r2
    1f8c:	02530119 	subseq	r0, r3, #1073741830	; 0x40000006
    1f90:	02190077 	andseq	r0, r9, #119, 0	; 0x77
    1f94:	7502007d 	strvc	r0, [r2, #-125]	; 0xffffff83
    1f98:	7d021900 	vstrvc.16	s2, [r2, #-0]	; <UNPREDICTABLE>
    1f9c:	00760204 	rsbseq	r0, r6, r4, lsl #4
    1fa0:	8d9c1800 	ldchi	8, cr1, [ip]
    1fa4:	07000000 	streq	r0, [r0, -r0]
    1fa8:	039b0000 	orrseq	r0, fp, #0, 0
    1fac:	01190000 	tsteq	r9, r0
    1fb0:	193a0150 	ldmdbne	sl!, {r4, r6, r8}
    1fb4:	91035101 	tstls	r3, r1, lsl #2
    1fb8:	01197ed0 			; <UNDEFINED> instruction: 0x01197ed0
    1fbc:	80080252 	andhi	r0, r8, r2, asr r2
    1fc0:	02530119 	subseq	r0, r3, #1073741830	; 0x40000006
    1fc4:	0219007a 	andseq	r0, r9, #122, 0	; 0x7a
    1fc8:	7502007d 	strvc	r0, [r2, #-125]	; 0xffffff83
    1fcc:	7d021900 	vstrvc.16	s2, [r2, #-0]	; <UNPREDICTABLE>
    1fd0:	00760204 	rsbseq	r0, r6, r4, lsl #4
    1fd4:	8da81800 	stchi	8, cr1, [r8]
    1fd8:	0a5c0000 	beq	1701fe0 <__bss_end__+0x16f7fe0>
    1fdc:	03b90000 			; <UNDEFINED> instruction: 0x03b90000
    1fe0:	01190000 	tsteq	r9, r0
    1fe4:	d0910350 	addsle	r0, r1, r0, asr r3
    1fe8:	5101197d 	tstpl	r1, sp, ror r9
    1fec:	9a840305 	bls	fe102c08 <__bss_end__+0xfe0f8c08>
    1ff0:	18000000 	stmdane	r0, {}	; <UNPREDICTABLE>
    1ff4:	00008dbc 			; <UNDEFINED> instruction: 0x00008dbc
    1ff8:	00000a68 	andeq	r0, r0, r8, ror #20
    1ffc:	000003d5 	ldrdeq	r0, [r0], -r5
    2000:	03500119 	cmpeq	r0, #1073741830	; 0x40000006
    2004:	197dd091 	ldmdbne	sp!, {r0, r4, r7, ip, lr, pc}^
    2008:	91035101 	tstls	r3, r1, lsl #2
    200c:	18007ed0 	stmdane	r0, {r4, r6, r7, r9, sl, fp, ip, sp, lr}
    2010:	00008de0 	andeq	r8, r0, r0, ror #27
    2014:	00000a74 	andeq	r0, r0, r4, ror sl
    2018:	0000040e 	andeq	r0, r0, lr, lsl #8
    201c:	05500119 	ldrbeq	r0, [r0, #-281]	; 0xfffffee7
    2020:	0098cc03 	addseq	ip, r8, r3, lsl #24
    2024:	51011900 	tstpl	r1, r0, lsl #18
    2028:	9a700305 	bls	1c02c44 <__bss_end__+0x1bf8c44>
    202c:	01190000 	tsteq	r9, r0
    2030:	bc030552 	cfstr32lt	mvfx0, [r3], {82}	; 0x52
    2034:	1900009b 	stmdbne	r0, {r0, r1, r3, r4, r7}
    2038:	08025301 	stmdaeq	r2, {r0, r8, r9, ip, lr}
    203c:	7d02199f 	vstrvc.16	s2, [r2, #-318]	; 0xfffffec2	; <UNPREDICTABLE>
    2040:	c8030500 	stmdagt	r3, {r8, sl}
    2044:	0000009a 	muleq	r0, sl, r0
    2048:	008de41a 	addeq	lr, sp, sl, lsl r4
    204c:	000a8000 	andeq	r8, sl, r0
    2050:	8e041800 	cdphi	8, 0, cr1, cr4, cr0, {0}
    2054:	07000000 	streq	r0, [r0, -r0]
    2058:	044b0000 	strbeq	r0, [fp], #-0
    205c:	01190000 	tsteq	r9, r0
    2060:	19400150 	stmdbne	r0, {r4, r6, r8}^
    2064:	91035101 	tstls	r3, r1, lsl #2
    2068:	01197dd0 			; <UNDEFINED> instruction: 0x01197dd0
    206c:	80080252 	andhi	r0, r8, r2, asr r2
    2070:	02530119 	subseq	r0, r3, #1073741830	; 0x40000006
    2074:	02190077 	andseq	r0, r9, #119, 0	; 0x77
    2078:	7502007d 	strvc	r0, [r2, #-125]	; 0xffffff83
    207c:	7d021900 	vstrvc.16	s2, [r2, #-0]	; <UNPREDICTABLE>
    2080:	00760204 	rsbseq	r0, r6, r4, lsl #4
    2084:	8e241800 	cdphi	8, 2, cr1, cr4, cr0, {0}
    2088:	07000000 	streq	r0, [r0, -r0]
    208c:	047f0000 	ldrbteq	r0, [pc], #-0	; 2094 <__code_start__-0x5f6c>
    2090:	01190000 	tsteq	r9, r0
    2094:	19400150 	stmdbne	r0, {r4, r6, r8}^
    2098:	91035101 	tstls	r3, r1, lsl #2
    209c:	01197ed0 			; <UNDEFINED> instruction: 0x01197ed0
    20a0:	80080252 	andhi	r0, r8, r2, asr r2
    20a4:	02530119 	subseq	r0, r3, #1073741830	; 0x40000006
    20a8:	0219007a 	andseq	r0, r9, #122, 0	; 0x7a
    20ac:	7502007d 	strvc	r0, [r2, #-125]	; 0xffffff83
    20b0:	7d021900 	vstrvc.16	s2, [r2, #-0]	; <UNPREDICTABLE>
    20b4:	00760204 	rsbseq	r0, r6, r4, lsl #4
    20b8:	8e301800 	cdphi	8, 3, cr1, cr0, cr0, {0}
    20bc:	0a8c0000 	beq	fe3020c4 <__bss_end__+0xfe2f80c4>
    20c0:	049b0000 	ldreq	r0, [fp], #0
    20c4:	01190000 	tsteq	r9, r0
    20c8:	d0910350 	addsle	r0, r1, r0, asr r3
    20cc:	5101197d 	tstpl	r1, sp, ror r9
    20d0:	7ed29103 	atnvcs	f1, f3
    20d4:	8e441800 	cdphi	8, 4, cr1, cr4, cr0, {0}
    20d8:	0a8c0000 	beq	fe3020e0 <__bss_end__+0xfe2f80e0>
    20dc:	04b70000 	ldrteq	r0, [r7], #0
    20e0:	01190000 	tsteq	r9, r0
    20e4:	d0910350 	addsle	r0, r1, r0, asr r3
    20e8:	5101197d 	tstpl	r1, sp, ror r9
    20ec:	7ed09103 	atnvcs	f1, f3
    20f0:	8e641800 	cdphi	8, 6, cr1, cr4, cr0, {0}
    20f4:	0a740000 	beq	1d020fc <__bss_end__+0x1cf80fc>
    20f8:	04ed0000 	strbteq	r0, [sp], #0
    20fc:	01190000 	tsteq	r9, r0
    2100:	04030550 	streq	r0, [r3], #-1360	; 0xfffffab0
    2104:	1900009b 	stmdbne	r0, {r0, r1, r3, r4, r7}
    2108:	03055101 	movweq	r5, #20737	; 0x5101
    210c:	00009a70 	andeq	r9, r0, r0, ror sl
    2110:	05520119 	ldrbeq	r0, [r2, #-281]	; 0xfffffee7
    2114:	009bbc03 	addseq	fp, fp, r3, lsl #24
    2118:	53011900 	movwpl	r1, #6400	; 0x1900
    211c:	19b60802 	ldmibne	r6!, {r1, fp}
    2120:	02007d02 	andeq	r7, r0, #128	; 0x80
    2124:	1a000076 	bne	2304 <__code_start__-0x5cfc>
    2128:	00008e68 	andeq	r8, r0, r8, ror #28
    212c:	00000a80 	andeq	r0, r0, r0, lsl #21
    2130:	8c2c1800 	stchi	8, cr1, [ip], #-0
    2134:	097e0000 	ldmdbeq	lr!, {}^	; <UNPREDICTABLE>
    2138:	050b0000 	streq	r0, [fp, #-0]
    213c:	01190000 	tsteq	r9, r0
    2140:	00770250 	rsbseq	r0, r7, r0, asr r2
    2144:	8cd81800 	ldclhi	8, cr1, [r8], {0}
    2148:	0a740000 	beq	1d02150 <__bss_end__+0x1cf8150>
    214c:	05440000 	strbeq	r0, [r4, #-0]
    2150:	01190000 	tsteq	r9, r0
    2154:	cc030550 	cfstr32gt	mvfx0, [r3], {80}	; 0x50
    2158:	19000098 	stmdbne	r0, {r3, r4, r7}
    215c:	03055101 	movweq	r5, #20737	; 0x5101
    2160:	00009a70 	andeq	r9, r0, r0, ror sl
    2164:	05520119 	ldrbeq	r0, [r2, #-281]	; 0xfffffee7
    2168:	009bbc03 	addseq	fp, fp, r3, lsl #24
    216c:	53011900 	movwpl	r1, #6400	; 0x1900
    2170:	19980802 	ldmibne	r8, {r1, fp}
    2174:	05007d02 	streq	r7, [r0, #-3330]	; 0xfffff2fe
    2178:	009ab403 	addseq	fp, sl, r3, lsl #8
    217c:	dc1a0000 	ldcle	0, cr0, [sl], {-0}
    2180:	8000008c 	andhi	r0, r0, ip, lsl #1
    2184:	1800000a 	stmdane	r0, {r1, r3}
    2188:	00008e7c 	andeq	r8, r0, ip, ror lr
    218c:	00000a74 	andeq	r0, r0, r4, ror sl
    2190:	0000057c 	andeq	r0, r0, ip, ror r5
    2194:	05500119 	ldrbeq	r0, [r0, #-281]	; 0xfffffee7
    2198:	009b2c03 	addseq	r2, fp, r3, lsl #24
    219c:	51011900 	tstpl	r1, r0, lsl #18
    21a0:	9a700305 	bls	1c02dbc <__bss_end__+0x1bf8dbc>
    21a4:	01190000 	tsteq	r9, r0
    21a8:	bc030552 	cfstr32lt	mvfx0, [r3], {82}	; 0x52
    21ac:	1900009b 	stmdbne	r0, {r0, r1, r3, r4, r7}
    21b0:	08025301 	stmdaeq	r2, {r0, r8, r9, ip, lr}
    21b4:	801a00be 	ldrhhi	r0, [sl], -lr
    21b8:	8000008e 	andhi	r0, r0, lr, lsl #1
    21bc:	1800000a 	stmdane	r0, {r1, r3}
    21c0:	00008eac 	andeq	r8, r0, ip, lsr #29
    21c4:	00000700 	andeq	r0, r0, r0, lsl #14
    21c8:	000005b2 			; <UNDEFINED> instruction: 0x000005b2
    21cc:	01500119 	cmpeq	r0, r9, lsl r1
    21d0:	5101193a 	tstpl	r1, sl, lsr r9
    21d4:	7dd09103 	ldfvcp	f1, [r0, #12]
    21d8:	02520119 	subseq	r0, r2, #1073741830	; 0x40000006
    21dc:	02198008 	andseq	r8, r9, #8, 0
    21e0:	7502007d 	strvc	r0, [r2, #-125]	; 0xffffff83
    21e4:	7d021900 	vstrvc.16	s2, [r2, #-0]	; <UNPREDICTABLE>
    21e8:	00310104 	eorseq	r0, r1, r4, lsl #2
    21ec:	008ee418 	addeq	lr, lr, r8, lsl r4
    21f0:	00070000 	andeq	r0, r7, r0
    21f4:	0005df00 	andeq	sp, r5, r0, lsl #30
    21f8:	50011900 	andpl	r1, r1, r0, lsl #18
    21fc:	01193a01 	tsteq	r9, r1, lsl #20
    2200:	d0910351 	addsle	r0, r1, r1, asr r3
    2204:	5201197d 	andpl	r1, r1, #2048000	; 0x1f4000
    2208:	19800802 	stmibne	r0, {r1, fp}
    220c:	02007d02 	andeq	r7, r0, #128	; 0x80
    2210:	02190075 	andseq	r0, r9, #117, 0	; 0x75
    2214:	3001047d 	andcc	r0, r1, sp, ror r4
    2218:	8f181800 	svchi	0x00181800
    221c:	07000000 	streq	r0, [r0, -r0]
    2220:	060c0000 	streq	r0, [ip], -r0
    2224:	01190000 	tsteq	r9, r0
    2228:	19400150 	stmdbne	r0, {r4, r6, r8}^
    222c:	91035101 	tstls	r3, r1, lsl #2
    2230:	01197dd0 			; <UNDEFINED> instruction: 0x01197dd0
    2234:	80080252 	andhi	r0, r8, r2, asr r2
    2238:	007d0219 	rsbseq	r0, sp, r9, lsl r2
    223c:	19007502 	stmdbne	r0, {r1, r8, sl, ip, sp, lr}
    2240:	01047d02 	tsteq	r4, r2, lsl #26
    2244:	4c180030 	ldcmi	0, cr0, [r8], {48}	; 0x30
    2248:	0000008f 	andeq	r0, r0, pc, lsl #1
    224c:	39000007 	stmdbcc	r0, {r0, r1, r2}
    2250:	19000006 	stmdbne	r0, {r1, r2}
    2254:	32015001 	andcc	r5, r1, #1, 0
    2258:	03510119 	cmpeq	r1, #1073741830	; 0x40000006
    225c:	197dd091 	ldmdbne	sp!, {r0, r4, r7, ip, lr, pc}^
    2260:	08025201 	stmdaeq	r2, {r0, r9, ip, lr}
    2264:	7d021980 	vstrvc.16	s2, [r2, #-256]	; 0xffffff00	; <UNPREDICTABLE>
    2268:	00750200 	rsbseq	r0, r5, r0, lsl #4
    226c:	047d0219 	ldrbteq	r0, [sp], #-537	; 0xfffffde7
    2270:	18003001 	stmdane	r0, {r0, ip, sp}
    2274:	00008f94 	muleq	r0, r4, pc	; <UNPREDICTABLE>
    2278:	00000700 	andeq	r0, r0, r0, lsl #14
    227c:	00000666 	andeq	r0, r0, r6, ror #12
    2280:	01500119 	cmpeq	r0, r9, lsl r1
    2284:	51011938 	tstpl	r1, r8, lsr r9
    2288:	7dd09103 	ldfvcp	f1, [r0, #12]
    228c:	02520119 	subseq	r0, r2, #1073741830	; 0x40000006
    2290:	02198008 	andseq	r8, r9, #8, 0
    2294:	7502007d 	strvc	r0, [r2, #-125]	; 0xffffff83
    2298:	7d021900 	vstrvc.16	s2, [r2, #-0]	; <UNPREDICTABLE>
    229c:	00300104 	eorseq	r0, r0, r4, lsl #2
    22a0:	008fb418 	addeq	fp, pc, r8, lsl r4	; <UNPREDICTABLE>
    22a4:	000a7400 	andeq	r7, sl, r0, lsl #8
    22a8:	00068900 	andeq	r8, r6, r0, lsl #18
    22ac:	50011900 	andpl	r1, r1, r0, lsl #18
    22b0:	9b540305 	blls	1502ecc <__bss_end__+0x14f8ecc>
    22b4:	01190000 	tsteq	r9, r0
    22b8:	007a0251 	rsbseq	r0, sl, r1, asr r2
    22bc:	02520119 	subseq	r0, r2, #1073741830	; 0x40000006
    22c0:	1b00007a 	blne	24b0 <__code_start__-0x5b50>
    22c4:	00008fc4 	andeq	r8, r0, r4, asr #31
    22c8:	0000069b 	muleq	r0, fp, r6
    22cc:	04500119 	ldrbeq	r0, [r0], #-281	; 0xfffffee7
    22d0:	067dc891 			; <UNDEFINED> instruction: 0x067dc891
    22d4:	8fd81800 	svchi	0x00d81800
    22d8:	0a740000 	beq	1d022e0 <__bss_end__+0x1cf82e0>
    22dc:	06ca0000 	strbeq	r0, [sl], r0
    22e0:	01190000 	tsteq	r9, r0
    22e4:	84030550 	strhi	r0, [r3], #-1360	; 0xfffffab0
    22e8:	1900009b 	stmdbne	r0, {r0, r1, r3, r4, r7}
    22ec:	03055101 	movweq	r5, #20737	; 0x5101
    22f0:	00009a70 	andeq	r9, r0, r0, ror sl
    22f4:	05520119 	ldrbeq	r0, [r2, #-281]	; 0xfffffee7
    22f8:	009bbc03 	addseq	fp, fp, r3, lsl #24
    22fc:	53011900 	movwpl	r1, #6400	; 0x1900
    2300:	00e20802 	rsceq	r0, r2, r2, lsl #16
    2304:	008fdc1a 	addeq	sp, pc, sl, lsl ip	; <UNPREDICTABLE>
    2308:	000a8000 	andeq	r8, sl, r0
    230c:	08000000 	stmdaeq	r0, {}	; <UNPREDICTABLE>
    2310:	0000b904 	andeq	fp, r0, r4, lsl #18
    2314:	00c01c00 	sbceq	r1, r0, r0, lsl #24
    2318:	06eb0000 	strbteq	r0, [fp], r0
    231c:	2c1d0000 	ldccs	0, cr0, [sp], {-0}
    2320:	09000000 	stmdbeq	r0, {}	; <UNPREDICTABLE>
    2324:	06db0900 	ldrbeq	r0, [fp], r0, lsl #18
    2328:	b91c0000 	ldmdblt	ip, {}	; <UNPREDICTABLE>
    232c:	00000000 	andeq	r0, r0, r0
    2330:	1d000007 	stcne	0, cr0, [r0, #-28]	; 0xffffffe4
    2334:	0000002c 	andeq	r0, r0, ip, lsr #32
    2338:	c11e007f 	tstgt	lr, pc, ror r0
    233c:	01000007 	tsteq	r0, r7
    2340:	06d50149 	ldrbeq	r0, [r5], r9, asr #2
    2344:	89940000 	ldmibhi	r4, {}	; <UNPREDICTABLE>
    2348:	01b40000 			; <UNDEFINED> instruction: 0x01b40000
    234c:	9c010000 	stcls	0, cr0, [r1], {-0}
    2350:	00000869 	andeq	r0, r0, r9, ror #16
    2354:	0008061f 	andeq	r0, r8, pc, lsl r6
    2358:	0f490100 	svceq	0x00490100
    235c:	0000002c 	andeq	r0, r0, ip, lsr #32
    2360:	00000992 	muleq	r0, r2, r9
    2364:	0000098c 	andeq	r0, r0, ip, lsl #19
    2368:	7473640e 	ldrbtvc	r6, [r3], #-1038	; 0xfffffbf2
    236c:	1b490100 	blne	1242774 <__bss_end__+0x1238774>
    2370:	000006d5 	ldrdeq	r0, [r0], -r5
    2374:	000009d0 	ldrdeq	r0, [r0], -r0	; <UNPREDICTABLE>
    2378:	000009c0 	andeq	r0, r0, r0, asr #19
    237c:	01006e0e 	tsteq	r0, lr, lsl #28
    2380:	00252449 	eoreq	r2, r5, r9, asr #8
    2384:	0a340000 	beq	d0238c <__bss_end__+0xcf838c>
    2388:	0a300000 	beq	c02390 <__bss_end__+0xbf8390>
    238c:	760e0000 	strvc	r0, [lr], -r0
    2390:	01006c61 	tsteq	r0, r1, ror #24
    2394:	00252b49 	eoreq	r2, r5, r9, asr #22
    2398:	0a5e0000 	beq	17823a0 <__bss_end__+0x17783a0>
    239c:	0a520000 	beq	14823a4 <__bss_end__+0x14783a4>
    23a0:	6d1f0000 	ldcvs	0, cr0, [pc, #-0]	; 23a8 <__code_start__-0x5c58>
    23a4:	01000007 	tsteq	r0, r7
    23a8:	00253449 	eoreq	r3, r5, r9, asr #8
    23ac:	0ab40000 	beq	fed023b4 <__bss_end__+0xfecf83b4>
    23b0:	0aae0000 	beq	feb823b8 <__bss_end__+0xfeb783b8>
    23b4:	0b0f0000 	bleq	3c23bc <__bss_end__+0x3b83bc>
    23b8:	01000008 	tsteq	r0, r8
    23bc:	00253f49 	eoreq	r3, r5, r9, asr #30
    23c0:	91020000 	mrsls	r0, (UNDEF: 2)
    23c4:	75621504 	strbvc	r1, [r2, #-1284]!	; 0xfffffafc
    23c8:	4e010066 	cdpmi	0, 0, cr0, cr1, cr6, {3}
    23cc:	00086907 	andeq	r6, r8, r7, lsl #18
    23d0:	a8910300 	ldmge	r1, {r8, r9}
    23d4:	0070107f 	rsbseq	r1, r0, pc, ror r0
    23d8:	d5114e01 	ldrle	r4, [r1, #-3585]	; 0xfffff1ff
    23dc:	fe000006 	cdp2	0, 0, cr0, cr0, cr6, {0}
    23e0:	de00000a 	cdple	0, 0, cr0, cr0, cr10, {0}
    23e4:	1000000a 	andne	r0, r0, sl
    23e8:	4f010075 	svcmi	0x00010075
    23ec:	00002c0b 	andeq	r2, r0, fp, lsl #24
    23f0:	000be400 	andeq	lr, fp, r0, lsl #8
    23f4:	000bd000 	andeq	sp, fp, r0
    23f8:	03f01300 	mvnseq	r1, #0, 6
    23fc:	08890000 	stmeq	r9, {}	; <UNPREDICTABLE>
    2400:	03050000 	movweq	r0, #20480	; 0x5000
    2404:	00009ba4 	andeq	r9, r0, r4, lsr #23
    2408:	008a0017 	addeq	r0, sl, r7, lsl r0
    240c:	00007800 	andeq	r7, r0, r0, lsl #16
    2410:	0007f000 	andeq	pc, r7, r0
    2414:	07bb1200 	ldreq	r1, [fp, r0, lsl #4]!
    2418:	54010000 	strpl	r0, [r1], #-0
    241c:	00002c0d 	andeq	r2, r0, sp, lsl #24
    2420:	000c6500 	andeq	r6, ip, r0, lsl #10
    2424:	000c5d00 	andeq	r5, ip, r0, lsl #26
    2428:	b8180000 	ldmdalt	r8, {}	; <UNPREDICTABLE>
    242c:	1b00008a 	blne	265c <__code_start__-0x59a4>
    2430:	05000009 	streq	r0, [r0, #-9]
    2434:	19000008 	stmdbne	r0, {r3}
    2438:	91035101 	tstls	r3, r1, lsl #2
    243c:	18007fa0 	stmdane	r0, {r5, r7, r8, r9, sl, fp, ip, sp, lr}
    2440:	00008acc 	andeq	r8, r0, ip, asr #21
    2444:	0000088e 	andeq	r0, r0, lr, lsl #17
    2448:	00000826 	andeq	r0, r0, r6, lsr #16
    244c:	02500119 	subseq	r0, r0, #1073741830	; 0x40000006
    2450:	01190075 	tsteq	r9, r5, ror r0
    2454:	00740251 	rsbseq	r0, r4, r1, asr r2
    2458:	03530119 	cmpeq	r3, #1073741830	; 0x40000006
    245c:	007fa091 			; <UNDEFINED> instruction: 0x007fa091
    2460:	008b2418 	addeq	r2, fp, r8, lsl r4
    2464:	000a7400 	andeq	r7, sl, r0, lsl #8
    2468:	00085f00 	andeq	r5, r8, r0, lsl #30
    246c:	50011900 	andpl	r1, r1, r0, lsl #18
    2470:	98cc0305 	stmials	ip, {r0, r2, r8, r9}^
    2474:	01190000 	tsteq	r9, r0
    2478:	70030551 	andvc	r0, r3, r1, asr r5
    247c:	1900009a 	stmdbne	r0, {r1, r3, r4, r7}
    2480:	03055201 	movweq	r5, #20993	; 0x5201
    2484:	00009ba4 	andeq	r9, r0, r4, lsr #23
    2488:	02530119 	subseq	r0, r3, #1073741830	; 0x40000006
    248c:	02197908 	andseq	r7, r9, #8, 18	; 0x20000
    2490:	0305007d 	movweq	r0, #20605	; 0x507d
    2494:	00009a84 	andeq	r9, r0, r4, lsl #21
    2498:	8b281a00 	blhi	a08ca0 <__bss_end__+0x9feca0>
    249c:	0a800000 	beq	fe0024a4 <__bss_end__+0xfdff84a4>
    24a0:	1c000000 	stcne	0, cr0, [r0], {-0}
    24a4:	000000b9 	strheq	r0, [r0], -r9
    24a8:	00000879 	andeq	r0, r0, r9, ror r8
    24ac:	00002c1d 	andeq	r2, r0, sp, lsl ip
    24b0:	1c003f00 	stcne	15, cr3, [r0], {-0}
    24b4:	000000c0 	andeq	r0, r0, r0, asr #1
    24b8:	00000889 	andeq	r0, r0, r9, lsl #17
    24bc:	00002c1d 	andeq	r2, r0, sp, lsl ip
    24c0:	09000400 	stmdbeq	r0, {sl}
    24c4:	00000879 	andeq	r0, r0, r9, ror r8
    24c8:	0007ce1e 	andeq	ip, r7, lr, lsl lr
    24cc:	0e380100 	rsfeqe	f0, f0, f0
    24d0:	000006d5 	ldrdeq	r0, [r0], -r5
    24d4:	0000895c 	andeq	r8, r0, ip, asr r9
    24d8:	00000038 	andeq	r0, r0, r8, lsr r0
    24dc:	091b9c01 	ldmdbeq	fp, {r0, sl, fp, ip, pc}
    24e0:	640e0000 	strvs	r0, [lr], #-0
    24e4:	01007473 	tsteq	r0, r3, ror r4
    24e8:	06d51c38 			; <UNDEFINED> instruction: 0x06d51c38
    24ec:	0ca60000 	stceq	0, cr0, [r6]
    24f0:	0c9c0000 	ldceq	0, cr0, [ip], {0}
    24f4:	6e0e0000 	cdpvs	0, 0, cr0, cr14, cr0, {0}
    24f8:	25380100 	ldrcs	r0, [r8, #-256]!	; 0xffffff00
    24fc:	00000025 	andeq	r0, r0, r5, lsr #32
    2500:	00000ced 	andeq	r0, r0, sp, ror #25
    2504:	00000ce9 	andeq	r0, r0, r9, ror #25
    2508:	0100700e 	tsteq	r0, lr
    250c:	06d52e38 			; <UNDEFINED> instruction: 0x06d52e38
    2510:	0d160000 	ldceq	0, cr0, [r6, #-0]
    2514:	0d0e0000 	stceq	0, cr0, [lr, #-0]
    2518:	351f0000 	ldrcc	r0, [pc, #-0]	; 2520 <__code_start__-0x5ae0>
    251c:	01000005 	tsteq	r0, r5
    2520:	06d53738 			; <UNDEFINED> instruction: 0x06d53738
    2524:	0d500000 	ldcleq	0, cr0, [r0, #-0]
    2528:	0d4c0000 	stcleq	0, cr0, [ip, #-0]
    252c:	6c100000 	ldcvs	0, cr0, [r0], {-0}
    2530:	01006e65 	tsteq	r0, r5, ror #28
    2534:	0025063a 	eoreq	r0, r5, sl, lsr r6
    2538:	0d760000 	ldcleq	0, cr0, [r6, #-0]
    253c:	0d6e0000 	stcleq	0, cr0, [lr, #-0]
    2540:	73100000 	tstvc	r0, #0, 0
    2544:	083e0100 	ldmdaeq	lr!, {r8}
    2548:	000006d5 	ldrdeq	r0, [r0], -r5
    254c:	00000dc4 	andeq	r0, r0, r4, asr #27
    2550:	00000dc2 	andeq	r0, r0, r2, asr #27
    2554:	61702000 	cmnvs	r0, r0
    2558:	2e010064 	cdpcs	0, 0, cr0, cr1, cr4, {3}
    255c:	0006d50e 	andeq	sp, r6, lr, lsl #10
    2560:	00893800 	addeq	r3, r9, r0, lsl #16
    2564:	00002400 	andeq	r2, r0, r0, lsl #8
    2568:	7e9c0100 	fmlvce	f0, f4, f0
    256c:	0e000009 	cdpeq	0, 0, cr0, cr0, cr9, {0}
    2570:	2e010070 	mcrcs	0, 0, r0, cr1, cr0, {3}
    2574:	0006d518 	andeq	sp, r6, r8, lsl r5
    2578:	000ddd00 	andeq	sp, sp, r0, lsl #26
    257c:	000dd700 	andeq	sp, sp, r0, lsl #14
    2580:	08061f00 	stmdaeq	r6, {r8, r9, sl, fp, ip}
    2584:	2e010000 	cdpcs	0, 0, cr0, cr1, cr0, {0}
    2588:	0006d522 	andeq	sp, r6, r2, lsr #10
    258c:	000e0c00 	andeq	r0, lr, r0, lsl #24
    2590:	000e0800 	andeq	r0, lr, r0, lsl #16
    2594:	076d0f00 	strbeq	r0, [sp, -r0, lsl #30]!
    2598:	2e010000 	cdpcs	0, 0, cr0, cr1, cr0, {0}
    259c:	0000252c 	andeq	r2, r0, ip, lsr #10
    25a0:	10520100 	subsne	r0, r2, r0, lsl #2
    25a4:	006e656c 	rsbeq	r6, lr, ip, ror #10
    25a8:	25062f01 	strcs	r2, [r6, #-3841]	; 0xfffff0ff
    25ac:	2f000000 	svccs	0x00000000
    25b0:	2d00000e 	stccs	0, cr0, [r0, #-56]	; 0xffffffc8
    25b4:	0000000e 	andeq	r0, r0, lr
    25b8:	00073b1e 	andeq	r3, r7, lr, lsl fp
    25bc:	0c270100 	stfeqs	f0, [r7], #-0
    25c0:	00000025 	andeq	r0, r0, r5, lsr #32
    25c4:	00008924 	andeq	r8, r0, r4, lsr #18
    25c8:	00000014 	andeq	r0, r0, r4, lsl r0
    25cc:	09ab9c01 	stmibeq	fp!, {r0, sl, fp, ip, pc}
    25d0:	630e0000 	movwvs	r0, #57344	; 0xe000
    25d4:	18270100 	stmdane	r7!, {r8}
    25d8:	00000025 	andeq	r0, r0, r5, lsr #32
    25dc:	00000e48 	andeq	r0, r0, r8, asr #28
    25e0:	00000e42 	andeq	r0, r0, r2, asr #28
    25e4:	07942100 	ldreq	r2, [r4, r0, lsl #2]
    25e8:	1f010000 	svcne	0x00010000
    25ec:	008b4806 	addeq	r4, fp, r6, lsl #16
    25f0:	00006400 	andeq	r6, r0, r0, lsl #8
    25f4:	3b9c0100 	blcc	fe7029fc <__bss_end__+0xfe6f89fc>
    25f8:	1f00000a 	svcne	0x0000000a
    25fc:	00000780 	andeq	r0, r0, r0, lsl #15
    2600:	9e1b1f01 	cdpls	15, 1, cr1, cr11, cr1, {0}
    2604:	7a000000 	bvc	260c <__code_start__-0x59f4>
    2608:	7600000e 	strvc	r0, [r0], -lr
    260c:	1f00000e 	svcne	0x0000000e
    2610:	000007c6 	andeq	r0, r0, r6, asr #15
    2614:	d1301f01 	teqle	r0, r1, lsl #30
    2618:	9f000000 	svcls	0x00000000
    261c:	9b00000e 	blls	265c <__code_start__-0x59a4>
    2620:	1300000e 	movwne	r0, #14
    2624:	000003f0 	strdeq	r0, [r0], -r0	; <UNPREDICTABLE>
    2628:	00000a4b 	andeq	r0, r0, fp, asr #20
    262c:	9bac0305 	blls	feb03248 <__bss_end__+0xfeaf9248>
    2630:	90180000 	andsls	r0, r8, r0
    2634:	7400008b 	strvc	r0, [r0], #-139	; 0xffffff75
    2638:	3100000a 	tstcc	r0, sl
    263c:	1900000a 	stmdbne	r0, {r1, r3}
    2640:	03055001 	movweq	r5, #20481	; 0x5001
    2644:	000098cc 	andeq	r9, r0, ip, asr #17
    2648:	05510119 	ldrbeq	r0, [r1, #-281]	; 0xfffffee7
    264c:	009a7003 	addseq	r7, sl, r3
    2650:	52011900 	andpl	r1, r1, #0, 18
    2654:	9bac0305 	blls	feb03270 <__bss_end__+0xfeaf9270>
    2658:	01190000 	tsteq	r9, r0
    265c:	20080253 	andcs	r0, r8, r3, asr r2
    2660:	007d0219 	rsbseq	r0, sp, r9, lsl r2
    2664:	9aac0305 	bls	feb03280 <__bss_end__+0xfeaf9280>
    2668:	1a000000 	bne	2670 <__code_start__-0x5990>
    266c:	00008b94 	muleq	r0, r4, fp
    2670:	00000a80 	andeq	r0, r0, r0, lsl #21
    2674:	00c01c00 	sbceq	r1, r0, r0, lsl #24
    2678:	0a4b0000 	beq	12c2680 <__bss_end__+0x12b8680>
    267c:	2c1d0000 	ldccs	0, cr0, [sp], {-0}
    2680:	0e000000 	cdpeq	0, 0, cr0, cr0, cr0, {0}
    2684:	0a3b0900 	beq	ec4a8c <__bss_end__+0xebaa8c>
    2688:	fe220000 	cdp2	0, 2, cr0, cr2, cr0, {0}
    268c:	fe000007 	cdp2	0, 0, cr0, cr0, cr7, {0}
    2690:	03000007 	movweq	r0, #7
    2694:	d62205d9 			; <UNDEFINED> instruction: 0xd62205d9
    2698:	d6000007 	strle	r0, [r0], -r7
    269c:	03000007 	movweq	r0, #7
    26a0:	b42205d8 	strtlt	r0, [r2], #-1496	; 0xfffffa28
    26a4:	b4000007 	strlt	r0, [r0], #-7
    26a8:	03000007 	movweq	r0, #7
    26ac:	b12207db 	ldrdlt	r0, [r2, -fp]!
    26b0:	b1000006 	tstlt	r0, r6
    26b4:	03000006 	movweq	r0, #6
    26b8:	24220628 	strtcs	r0, [r2], #-1576	; 0xfffff9d8
    26bc:	24000001 	strcs	r0, [r0], #-1
    26c0:	03000001 	movweq	r0, #1
    26c4:	ad220667 	stcge	6, cr0, [r2, #-412]!	; 0xfffffe64
    26c8:	ad000007 	stcge	0, cr0, [r0, #-28]	; 0xffffffe4
    26cc:	03000007 	movweq	r0, #7
    26d0:	2f0007dc 	svccs	0x000007dc
    26d4:	04000001 	streq	r0, [r0], #-1
    26d8:	000bcd00 	andeq	ip, fp, r0, lsl #26
    26dc:	e7010400 	str	r0, [r1, -r0, lsl #8]
    26e0:	0c000005 	stceq	0, cr0, [r0], {5}
    26e4:	00000828 	andeq	r0, r0, r8, lsr #16
    26e8:	000005a1 	andeq	r0, r0, r1, lsr #11
    26ec:	00009044 	andeq	r9, r0, r4, asr #32
    26f0:	0000002c 	andeq	r0, r0, ip, lsr #32
    26f4:	000010d6 	ldrdeq	r1, [r0], -r6
    26f8:	69050402 	stmdbvs	r5, {r1, sl}
    26fc:	0300746e 	movweq	r7, #1134	; 0x46e
    2700:	01960704 	orrseq	r0, r6, r4, lsl #14
    2704:	01030000 	mrseq	r0, (UNDEF: 3)
    2708:	00016d06 	andeq	r6, r1, r6, lsl #26
    270c:	05020300 	streq	r0, [r2, #-768]	; 0xfffffd00
    2710:	00000043 	andeq	r0, r0, r3, asr #32
    2714:	14050403 	strne	r0, [r5], #-1027	; 0xfffffbfd
    2718:	03000001 	movweq	r0, #1
    271c:	010f0508 	tsteq	pc, r8, lsl #10
    2720:	01030000 	mrseq	r0, (UNDEF: 3)
    2724:	00016b08 	andeq	r6, r1, r8, lsl #22
    2728:	07020300 	streq	r0, [r2, -r0, lsl #6]
    272c:	000001ab 	andeq	r0, r0, fp, lsr #3
    2730:	91070403 	tstls	r7, r3, lsl #8
    2734:	03000001 	movweq	r0, #1
    2738:	018c0708 	orreq	r0, ip, r8, lsl #14
    273c:	25040000 	strcs	r0, [r4, #-0]
    2740:	7a000000 	bvc	2748 <__code_start__-0x58b8>
    2744:	05000000 	streq	r0, [r0, #-0]
    2748:	00000025 	andeq	r0, r0, r5, lsr #32
    274c:	00920600 	addseq	r0, r2, r0, lsl #12
    2750:	1c020000 	stcne	0, cr0, [r2], {-0}
    2754:	0000860e 	andeq	r8, r0, lr, lsl #12
    2758:	6b040700 	blvs	104360 <__bss_end__+0xfa360>
    275c:	04000000 	streq	r0, [r0], #-0
    2760:	00000025 	andeq	r0, r0, r5, lsr #32
    2764:	0000009b 	muleq	r0, fp, r0
    2768:	00009b05 	andeq	r9, r0, r5, lsl #22
    276c:	04070000 	streq	r0, [r7], #-0
    2770:	000000a8 	andeq	r0, r0, r8, lsr #1
    2774:	74080103 	strvc	r0, [r8], #-259	; 0xfffffefd
    2778:	08000001 	stmdaeq	r0, {r0}
    277c:	000000a1 	andeq	r0, r0, r1, lsr #1
    2780:	00072806 	andeq	r2, r7, r6, lsl #16
    2784:	0e210200 	cdpeq	2, 2, cr0, cr1, cr0, {0}
    2788:	000000b9 	strheq	r0, [r0], -r9
    278c:	008c0407 	addeq	r0, ip, r7, lsl #8
    2790:	24090000 	strcs	r0, [r9], #-0
    2794:	01000001 	tsteq	r0, r1
    2798:	90440604 	subls	r0, r4, r4, lsl #12
    279c:	002c0000 	eoreq	r0, ip, r0
    27a0:	9c010000 	stcls	0, cr0, [r1], {-0}
    27a4:	0000010e 	andeq	r0, r0, lr, lsl #2
    27a8:	0090580a 	addseq	r5, r0, sl, lsl #16
    27ac:	0000e800 	andeq	lr, r0, r0, lsl #16
    27b0:	50010b00 	andpl	r0, r1, r0, lsl #22
    27b4:	9bc80305 	blls	ff2033d0 <__bss_end__+0xff1f93d0>
    27b8:	0c000000 	stceq	0, cr0, [r0], {-0}
    27bc:	0000905c 	andeq	r9, r0, ip, asr r0
    27c0:	0000010e 	andeq	r0, r0, lr, lsl #2
    27c4:	0090640d 	addseq	r6, r0, sp, lsl #8
    27c8:	00011a00 	andeq	r1, r1, r0, lsl #20
    27cc:	00010400 	andeq	r0, r1, r0, lsl #8
    27d0:	50010b00 	andpl	r0, r1, r0, lsl #22
    27d4:	0c003a01 			; <UNDEFINED> instruction: 0x0c003a01
    27d8:	00009068 	andeq	r9, r0, r8, rrx
    27dc:	00000126 	andeq	r0, r0, r6, lsr #2
    27e0:	08430e00 	stmdaeq	r3, {r9, sl, fp}^
    27e4:	08430000 	stmdaeq	r3, {}^	; <UNPREDICTABLE>
    27e8:	46020000 	strmi	r0, [r2], -r0
    27ec:	081f0e06 	ldmdaeq	pc, {r1, r2, r9, sl, fp}	; <UNPREDICTABLE>
    27f0:	081f0000 	ldmdaeq	pc, {}	; <UNPREDICTABLE>
    27f4:	51020000 	mrspl	r0, (UNDEF: 2)
    27f8:	08140e06 	ldmdaeq	r4, {r1, r2, r9, sl, fp}
    27fc:	08140000 	ldmdaeq	r4, {}	; <UNPREDICTABLE>
    2800:	64020000 	strvs	r0, [r2], #-0
    2804:	01430006 	cmpeq	r3, r6
    2808:	00040000 	andeq	r0, r4, r0
    280c:	00000c8d 	andeq	r0, r0, sp, lsl #25
    2810:	05e70104 	strbeq	r0, [r7, #260]!	; 0x104
    2814:	610c0000 	mrsvs	r0, (UNDEF: 12)
    2818:	a1000008 	tstge	r0, r8
    281c:	70000005 	andvc	r0, r0, r5
    2820:	2c000090 	stccs	0, cr0, [r0], {144}	; 0x90
    2824:	5e000000 	cdppl	0, 0, cr0, cr0, cr0, {0}
    2828:	02000011 	andeq	r0, r0, #17, 0
    282c:	6e690504 	cdpvs	5, 6, cr0, cr9, cr4, {0}
    2830:	04030074 	streq	r0, [r3], #-116	; 0xffffff8c
    2834:	00019607 	andeq	r9, r1, r7, lsl #12
    2838:	06010300 	streq	r0, [r1], -r0, lsl #6
    283c:	0000016d 	andeq	r0, r0, sp, ror #2
    2840:	43050203 	movwmi	r0, #20995	; 0x5203
    2844:	03000000 	movweq	r0, #0
    2848:	01140504 	tsteq	r4, r4, lsl #10
    284c:	08030000 	stmdaeq	r3, {}	; <UNPREDICTABLE>
    2850:	00010f05 	andeq	r0, r1, r5, lsl #30
    2854:	08010300 	stmdaeq	r1, {r8, r9}
    2858:	0000016b 	andeq	r0, r0, fp, ror #2
    285c:	ab070203 	blge	1c3070 <__bss_end__+0x1b9070>
    2860:	03000001 	movweq	r0, #1
    2864:	01910704 	orrseq	r0, r1, r4, lsl #14
    2868:	08030000 	stmdaeq	r3, {}	; <UNPREDICTABLE>
    286c:	00018c07 	andeq	r8, r1, r7, lsl #24
    2870:	00250400 	eoreq	r0, r5, r0, lsl #8
    2874:	007a0000 	rsbseq	r0, sl, r0
    2878:	25050000 	strcs	r0, [r5, #-0]
    287c:	00000000 	andeq	r0, r0, r0
    2880:	00009206 	andeq	r9, r0, r6, lsl #4
    2884:	0e1c0200 	cdpeq	2, 1, cr0, cr12, cr0, {0}
    2888:	00000086 	andeq	r0, r0, r6, lsl #1
    288c:	006b0407 	rsbeq	r0, fp, r7, lsl #8
    2890:	25040000 	strcs	r0, [r4, #-0]
    2894:	9b000000 	blls	289c <__code_start__-0x5764>
    2898:	05000000 	streq	r0, [r0, #-0]
    289c:	0000009b 	muleq	r0, fp, r0
    28a0:	a8040700 	stmdage	r4, {r8, r9, sl}
    28a4:	03000000 	movweq	r0, #0
    28a8:	01740801 	cmneq	r4, r1, lsl #16
    28ac:	a1080000 	mrsge	r0, (UNDEF: 8)
    28b0:	06000000 	streq	r0, [r0], -r0
    28b4:	00000728 	andeq	r0, r0, r8, lsr #14
    28b8:	b90e2102 	stmdblt	lr, {r1, r8, sp}
    28bc:	07000000 	streq	r0, [r0, -r0]
    28c0:	00008c04 	andeq	r8, r0, r4, lsl #24
    28c4:	08510900 	ldmdaeq	r1, {r8, fp}^
    28c8:	03010000 	movweq	r0, #4096	; 0x1000
    28cc:	00907006 	addseq	r7, r0, r6
    28d0:	00002c00 	andeq	r2, r0, r0, lsl #24
    28d4:	289c0100 	ldmcs	ip, {r8}
    28d8:	06000001 	streq	r0, [r0], -r1
    28dc:	0000075f 	andeq	r0, r0, pc, asr r7
    28e0:	25100401 	ldrcs	r0, [r0, #-1025]	; 0xfffffbff
    28e4:	06000000 	streq	r0, [r0], -r0
    28e8:	00000788 	andeq	r0, r0, r8, lsl #15
    28ec:	251f0401 	ldrcs	r0, [pc, #-1025]	; 24f3 <__code_start__-0x5b0d>
    28f0:	0a000000 	beq	28f8 <__code_start__-0x5708>
    28f4:	000001a3 	andeq	r0, r0, r3, lsr #3
    28f8:	0b070501 	bleq	1c3d04 <__bss_end__+0x1b9d04>
    28fc:	00737362 	rsbseq	r7, r3, r2, ror #6
    2900:	280a0701 	stmdacs	sl, {r0, r8, r9, sl}
    2904:	c6000001 	strgt	r0, [r0], -r1
    2908:	c000000e 	andgt	r0, r0, lr
    290c:	0c00000e 	stceq	0, cr0, [r0], {14}
    2910:	00000859 	andeq	r0, r0, r9, asr r8
    2914:	280a0801 	stmdacs	sl, {r0, fp}
    2918:	0d000001 	stceq	0, cr0, [r0, #-4]
    291c:	00009090 	muleq	r0, r0, r0
    2920:	0000012e 	andeq	r0, r0, lr, lsr #2
    2924:	0090940d 	addseq	r9, r0, sp, lsl #8
    2928:	00013a00 	andeq	r3, r1, r0, lsl #20
    292c:	04070000 	streq	r0, [r7], #-0
    2930:	00000025 	andeq	r0, r0, r5, lsr #32
    2934:	0001a30e 	andeq	sl, r1, lr, lsl #6
    2938:	0001a300 	andeq	sl, r1, r0, lsl #6
    293c:	06f10200 	ldrbteq	r0, [r1], r0, lsl #4
    2940:	0001240e 	andeq	r2, r1, lr, lsl #8
    2944:	00012400 	andeq	r2, r1, r0, lsl #8
    2948:	06670200 	strbteq	r0, [r7], -r0, lsl #4
    294c:	00022000 	andeq	r2, r2, r0
    2950:	5a000400 	bpl	3958 <__code_start__-0x46a8>
    2954:	0400000d 	streq	r0, [r0], #-13
    2958:	0005e701 	andeq	lr, r5, r1, lsl #14
    295c:	088d0c00 	stmeq	sp, {sl, fp}
    2960:	05a10000 	streq	r0, [r1, #0]!
    2964:	01180000 	tsteq	r8, r0
    2968:	00000000 	andeq	r0, r0, r0
    296c:	11fa0000 	mvnsne	r0, r0
    2970:	04020000 	streq	r0, [r2], #-0
    2974:	746e6905 	strbtvc	r6, [lr], #-2309	; 0xfffff6fb
    2978:	00250300 	eoreq	r0, r5, r0, lsl #6
    297c:	04040000 	streq	r0, [r4], #-0
    2980:	00019607 	andeq	r9, r1, r7, lsl #12
    2984:	06010400 	streq	r0, [r1], -r0, lsl #8
    2988:	0000016d 	andeq	r0, r0, sp, ror #2
    298c:	43050204 	movwmi	r0, #20996	; 0x5204
    2990:	04000000 	streq	r0, [r0], #-0
    2994:	01140504 	tsteq	r4, r4, lsl #10
    2998:	08040000 	stmdaeq	r4, {}	; <UNPREDICTABLE>
    299c:	00010f05 	andeq	r0, r1, r5, lsl #30
    29a0:	08010400 	stmdaeq	r1, {sl}
    29a4:	0000016b 	andeq	r0, r0, fp, ror #2
    29a8:	ab070204 	blge	1c31c0 <__bss_end__+0x1b91c0>
    29ac:	04000001 	streq	r0, [r0], #-1
    29b0:	01910704 	orrseq	r0, r1, r4, lsl #14
    29b4:	08040000 	stmdaeq	r4, {}	; <UNPREDICTABLE>
    29b8:	00018c07 	andeq	r8, r1, r7, lsl #24
    29bc:	00250500 	eoreq	r0, r5, r0, lsl #10
    29c0:	007f0000 	rsbseq	r0, pc, r0
    29c4:	25060000 	strcs	r0, [r6, #-0]
    29c8:	00000000 	andeq	r0, r0, r0
    29cc:	00009207 	andeq	r9, r0, r7, lsl #4
    29d0:	0e1c0200 	cdpeq	2, 1, cr0, cr12, cr0, {0}
    29d4:	0000008b 	andeq	r0, r0, fp, lsl #1
    29d8:	00700408 	rsbseq	r0, r0, r8, lsl #8
    29dc:	25050000 	strcs	r0, [r5, #-0]
    29e0:	a0000000 	andge	r0, r0, r0
    29e4:	06000000 	streq	r0, [r0], -r0
    29e8:	000000a0 	andeq	r0, r0, r0, lsr #1
    29ec:	ad040800 	stcge	8, cr0, [r4, #-0]
    29f0:	04000000 	streq	r0, [r0], #-0
    29f4:	01740801 	cmneq	r4, r1, lsl #16
    29f8:	a6030000 	strge	r0, [r3], -r0
    29fc:	07000000 	streq	r0, [r0, -r0]
    2a00:	00000728 	andeq	r0, r0, r8, lsr #14
    2a04:	be0e2102 	adflte	f2, f6, f2
    2a08:	08000000 	stmdaeq	r0, {}	; <UNPREDICTABLE>
    2a0c:	00009104 	andeq	r9, r0, r4, lsl #2
    2a10:	08b10900 	ldmeq	r1!, {r8, fp}
    2a14:	0d010000 	stceq	0, cr0, [r1, #-0]
    2a18:	00003111 	andeq	r3, r0, r1, lsl r1
    2a1c:	08140a00 	ldmdaeq	r4, {r9, fp}
    2a20:	1f010000 	svcne	0x00010000
    2a24:	0090e006 	addseq	lr, r0, r6
    2a28:	00005000 	andeq	r5, r0, r0
    2a2c:	a59c0100 	ldrge	r0, [ip, #256]	; 0x100
    2a30:	0b000001 	bleq	2a3c <__code_start__-0x55c4>
    2a34:	000008d5 	ldrdeq	r0, [r0], -r5
    2a38:	2c0f2f01 	stccs	15, cr2, [pc], {1}
    2a3c:	f3000000 	vhadd.u8	d0, d0, d0
    2a40:	f100000e 	cps	#14
    2a44:	0b00000e 	bleq	2a84 <__code_start__-0x557c>
    2a48:	00000876 	andeq	r0, r0, r6, ror r8
    2a4c:	2c0f3001 	stccs	0, cr3, [pc], {1}
    2a50:	0d000000 	stceq	0, cr0, [r0, #-0]
    2a54:	0b00000f 	bleq	2a98 <__code_start__-0x5568>
    2a58:	0b00000f 	bleq	2a9c <__code_start__-0x5564>
    2a5c:	000008a2 	andeq	r0, r0, r2, lsr #17
    2a60:	2c0f3101 	stfcss	f3, [pc], {1}
    2a64:	27000000 	strcs	r0, [r0, -r0]
    2a68:	2500000f 	strcs	r0, [r0, #-15]
    2a6c:	0b00000f 	bleq	2ab0 <__code_start__-0x5550>
    2a70:	000008bc 			; <UNDEFINED> instruction: 0x000008bc
    2a74:	2c0f3201 	sfmcs	f3, 4, [pc], {1}
    2a78:	40000000 	andmi	r0, r0, r0
    2a7c:	3e00000f 	cdpcc	0, 0, cr0, cr0, cr15, {0}
    2a80:	0c00000f 	stceq	0, cr0, [r0], {15}
    2a84:	000090e8 	andeq	r9, r0, r8, ror #1
    2a88:	000001d0 	ldrdeq	r0, [r0], -r0	; <UNPREDICTABLE>
    2a8c:	0090f40c 	addseq	pc, r0, ip, lsl #8
    2a90:	0001ff00 	andeq	pc, r1, r0, lsl #30
    2a94:	90fc0d00 	rscsls	r0, ip, r0, lsl #26
    2a98:	020b0000 	andeq	r0, fp, #0, 0
    2a9c:	015b0000 	cmpeq	fp, r0
    2aa0:	010e0000 	mrseq	r0, (UNDEF: 14)
    2aa4:	003a0150 	eorseq	r0, sl, r0, asr r1
    2aa8:	0091080d 	addseq	r0, r1, sp, lsl #16
    2aac:	00021700 	andeq	r1, r2, r0, lsl #14
    2ab0:	00017b00 	andeq	r7, r1, r0, lsl #22
    2ab4:	50010e00 	andpl	r0, r1, r0, lsl #28
    2ab8:	00240c05 	eoreq	r0, r4, r5, lsl #24
    2abc:	010e2010 	tsteq	lr, r0, lsl r0
    2ac0:	010c0551 	tsteq	ip, r1, asr r5
    2ac4:	005a0000 	subseq	r0, sl, r0
    2ac8:	0091140d 	addseq	r1, r1, sp, lsl #8
    2acc:	00021700 	andeq	r1, r2, r0, lsl #14
    2ad0:	00019b00 	andeq	r9, r1, r0, lsl #22
    2ad4:	50010e00 	andpl	r0, r1, r0, lsl #28
    2ad8:	001c0c05 	andseq	r0, ip, r5, lsl #24
    2adc:	010e2010 	tsteq	lr, r0, lsl r0
    2ae0:	200c0551 	andcs	r0, ip, r1, asr r5
    2ae4:	005a0000 	subseq	r0, sl, r0
    2ae8:	00911c0c 	addseq	r1, r1, ip, lsl #24
    2aec:	0001a500 	andeq	sl, r1, r0, lsl #10
    2af0:	7e0f0000 	cdpvc	0, 0, cr0, cr15, cr0, {0}
    2af4:	01000008 	tsteq	r0, r8
    2af8:	90cc0617 	sbcls	r0, ip, r7, lsl r6
    2afc:	00140000 	andseq	r0, r4, r0
    2b00:	9c010000 	stcls	0, cr0, [r1], {-0}
    2b04:	000001d0 	ldrdeq	r0, [r0], -r0	; <UNPREDICTABLE>
    2b08:	0008dd0b 	andeq	sp, r8, fp, lsl #26
    2b0c:	0e180100 	mufeqe	f0, f0, f0
    2b10:	00000031 	andeq	r0, r0, r1, lsr r0
    2b14:	00000f5b 	andeq	r0, r0, fp, asr pc
    2b18:	00000f55 	andeq	r0, r0, r5, asr pc
    2b1c:	08ae1000 	stmiaeq	lr!, {ip}
    2b20:	0e010000 	cdpeq	0, 0, cr0, cr1, cr0, {0}
    2b24:	00002505 	andeq	r2, r0, r5, lsl #10
    2b28:	0090b400 	addseq	fp, r0, r0, lsl #8
    2b2c:	00001800 	andeq	r1, r0, r0, lsl #16
    2b30:	ff9c0100 			; <UNDEFINED> instruction: 0xff9c0100
    2b34:	0b000001 	bleq	2b40 <__code_start__-0x54c0>
    2b38:	000008dd 	ldrdeq	r0, [r0], -sp
    2b3c:	310e0f01 	tstcc	lr, r1, lsl #30
    2b40:	89000000 	stmdbhi	r0, {}	; <UNPREDICTABLE>
    2b44:	8500000f 	strhi	r0, [r0, #-15]
    2b48:	0000000f 	andeq	r0, r0, pc
    2b4c:	00084311 	andeq	r4, r8, r1, lsl r3
    2b50:	00084300 	andeq	r4, r8, r0, lsl #6
    2b54:	06460200 	strbeq	r0, [r6], -r0, lsl #4
    2b58:	00081f11 	andeq	r1, r8, r1, lsl pc
    2b5c:	00081f00 	andeq	r1, r8, r0, lsl #30
    2b60:	06510200 	ldrbeq	r0, [r1], -r0, lsl #4
    2b64:	0000ad11 	andeq	sl, r0, r1, lsl sp
    2b68:	0000ad00 	andeq	sl, r0, r0, lsl #26
    2b6c:	06a40200 	strteq	r0, [r4], r0, lsl #4
    2b70:	00024d00 	andeq	r4, r2, r0, lsl #26
    2b74:	6c000400 	cfstrsvs	mvf0, [r0], {-0}
    2b78:	0400000e 	streq	r0, [r0], #-14
    2b7c:	0005e701 	andeq	lr, r5, r1, lsl #14
    2b80:	08ec0c00 	stmiaeq	ip!, {sl, fp}^
    2b84:	05a10000 	streq	r0, [r1, #0]!
    2b88:	91300000 	teqls	r0, r0
    2b8c:	00840000 	addeq	r0, r4, r0
    2b90:	12d10000 	sbcsne	r0, r1, #0, 0
    2b94:	04020000 	streq	r0, [r2], #-0
    2b98:	746e6905 	strbtvc	r6, [lr], #-2309	; 0xfffff6fb
    2b9c:	07040300 	streq	r0, [r4, -r0, lsl #6]
    2ba0:	00000196 	muleq	r0, r6, r1
    2ba4:	6d060103 	stfvss	f0, [r6, #-12]
    2ba8:	03000001 	movweq	r0, #1
    2bac:	00430502 	subeq	r0, r3, r2, lsl #10
    2bb0:	04030000 	streq	r0, [r3], #-0
    2bb4:	00011405 	andeq	r1, r1, r5, lsl #8
    2bb8:	05080300 	streq	r0, [r8, #-768]	; 0xfffffd00
    2bbc:	0000010f 	andeq	r0, r0, pc, lsl #2
    2bc0:	6b080103 	blvs	202fd4 <__bss_end__+0x1f8fd4>
    2bc4:	03000001 	movweq	r0, #1
    2bc8:	01ab0702 			; <UNDEFINED> instruction: 0x01ab0702
    2bcc:	04030000 	streq	r0, [r3], #-0
    2bd0:	00019107 	andeq	r9, r1, r7, lsl #2
    2bd4:	07080300 	streq	r0, [r8, -r0, lsl #6]
    2bd8:	0000018c 	andeq	r0, r0, ip, lsl #3
    2bdc:	00002504 	andeq	r2, r0, r4, lsl #10
    2be0:	00007a00 	andeq	r7, r0, r0, lsl #20
    2be4:	00250500 	eoreq	r0, r5, r0, lsl #10
    2be8:	06000000 	streq	r0, [r0], -r0
    2bec:	00000092 	muleq	r0, r2, r0
    2bf0:	860e1c02 	strhi	r1, [lr], -r2, lsl #24
    2bf4:	07000000 	streq	r0, [r0, -r0]
    2bf8:	00006b04 	andeq	r6, r0, r4, lsl #22
    2bfc:	00250400 	eoreq	r0, r5, r0, lsl #8
    2c00:	009b0000 	addseq	r0, fp, r0
    2c04:	9b050000 	blls	142c0c <__bss_end__+0x138c0c>
    2c08:	00000000 	andeq	r0, r0, r0
    2c0c:	00a80407 	adceq	r0, r8, r7, lsl #8
    2c10:	01030000 	mrseq	r0, (UNDEF: 3)
    2c14:	00017408 	andeq	r7, r1, r8, lsl #8
    2c18:	00a10800 	adceq	r0, r1, r0, lsl #16
    2c1c:	28060000 	stmdacs	r6, {}	; <UNPREDICTABLE>
    2c20:	02000007 	andeq	r0, r0, #7, 0
    2c24:	00b90e21 	adcseq	r0, r9, r1, lsr #28
    2c28:	04070000 	streq	r0, [r7], #-0
    2c2c:	0000008c 	andeq	r0, r0, ip, lsl #1
    2c30:	0008e209 	andeq	lr, r8, r9, lsl #4
    2c34:	061e0100 	ldreq	r0, [lr], -r0, lsl #2
    2c38:	0000919c 	muleq	r0, ip, r1
    2c3c:	00000018 	andeq	r0, r0, r8, lsl r0
    2c40:	01099c01 	tsteq	r9, r1, lsl #24
    2c44:	730a0000 	movwvc	r0, #40960	; 0xa000
    2c48:	01006365 	tsteq	r0, r5, ror #6
    2c4c:	002c191e 	eoreq	r1, ip, lr, lsl r9
    2c50:	0fac0000 	svceq	0x00ac0000
    2c54:	0fa80000 	svceq	0x00a80000
    2c58:	b00b0000 	andlt	r0, fp, r0
    2c5c:	09000091 	stmdbeq	r0, {r0, r4, r7}
    2c60:	0c000001 	stceq	0, cr0, [r0], {1}
    2c64:	f3115001 	vhadd.u16	d5, d1, d1
    2c68:	24355001 	ldrtcs	r5, [r5], #-1
    2c6c:	1c5001f3 	ldfnee	f0, [r0], {243}	; 0xf3
    2c70:	01f32432 	mvnseq	r2, r2, lsr r4
    2c74:	24332250 	ldrtcs	r2, [r3], #-592	; 0xfffffdb0
    2c78:	1f090000 	svcne	0x00090000
    2c7c:	01000008 	tsteq	r0, r8
    2c80:	9184061b 	orrls	r0, r4, fp, lsl r6
    2c84:	00180000 	andseq	r0, r8, r0
    2c88:	9c010000 	stcls	0, cr0, [r1], {-0}
    2c8c:	00000152 	andeq	r0, r0, r2, asr r1
    2c90:	00736d0a 	rsbseq	r6, r3, sl, lsl #26
    2c94:	2c181b01 			; <UNDEFINED> instruction: 0x2c181b01
    2c98:	d1000000 	mrsle	r0, (UNDEF: 0)
    2c9c:	cd00000f 	stcgt	0, cr0, [r0, #-60]	; 0xffffffc4
    2ca0:	0b00000f 	bleq	2ce4 <__code_start__-0x531c>
    2ca4:	00009198 	muleq	r0, r8, r1
    2ca8:	00000152 	andeq	r0, r0, r2, asr r1
    2cac:	1150010c 	cmpne	r0, ip, lsl #2
    2cb0:	355001f3 	ldrbcc	r0, [r0, #-499]	; 0xfffffe0d
    2cb4:	5001f324 	andpl	pc, r1, r4, lsr #6
    2cb8:	f324321c 	vqsub.u32	d3, d4, d12
    2cbc:	33225001 			; <UNDEFINED> instruction: 0x33225001
    2cc0:	09000024 	stmdbeq	r0, {r2, r5}
    2cc4:	00000900 	andeq	r0, r0, r0, lsl #18
    2cc8:	60061201 	andvs	r1, r6, r1, lsl #4
    2ccc:	24000091 	strcs	r0, [r0], #-145	; 0xffffff6f
    2cd0:	01000000 	mrseq	r0, (UNDEF: 0)
    2cd4:	0001c29c 	muleq	r1, ip, r2
    2cd8:	73750a00 	cmnvc	r5, #0, 20
    2cdc:	18120100 	ldmdane	r2, {r8}
    2ce0:	0000002c 	andeq	r0, r0, ip, lsr #32
    2ce4:	00000ff6 	strdeq	r0, [r0], -r6
    2ce8:	00000ff2 	strdeq	r0, [r0], -r2
    2cec:	0062720d 	rsbeq	r7, r2, sp, lsl #4
    2cf0:	2c0e1301 	stccs	3, cr1, [lr], {1}
    2cf4:	16000000 	strne	r0, [r0], -r0
    2cf8:	14000010 	strne	r0, [r0], #-16
    2cfc:	0e000010 	mcreq	0, 0, r0, cr0, cr0, {0}
    2d00:	00009170 	andeq	r9, r0, r0, ror r1
    2d04:	00000014 	andeq	r0, r0, r4, lsl r0
    2d08:	000001b8 			; <UNDEFINED> instruction: 0x000001b8
    2d0c:	0061720d 	rsbeq	r7, r1, sp, lsl #4
    2d10:	2c121501 	cfldr32cs	mvfx1, [r2], {1}
    2d14:	2b000000 	blcs	2d1c <__code_start__-0x52e4>
    2d18:	29000010 	stmdbcs	r0, {r4}
    2d1c:	0f000010 	svceq	0x00000010
    2d20:	00009174 	andeq	r9, r0, r4, ror r1
    2d24:	000001c2 	andeq	r0, r0, r2, asr #3
    2d28:	916c0f00 	cmnls	ip, r0, lsl #30
    2d2c:	01c20000 	biceq	r0, r2, r0
    2d30:	10000000 	andne	r0, r0, r0
    2d34:	00000371 	andeq	r0, r0, r1, ror r3
    2d38:	2c0a0901 			; <UNDEFINED> instruction: 0x2c0a0901
    2d3c:	44000000 	strmi	r0, [r0], #-0
    2d40:	1c000091 	stcne	0, cr0, [r0], {145}	; 0x91
    2d44:	01000000 	mrseq	r0, (UNDEF: 0)
    2d48:	00020a9c 	muleq	r2, ip, sl
    2d4c:	00750d00 	rsbseq	r0, r5, r0, lsl #26
    2d50:	2c0e0d01 	stccs	13, cr0, [lr], {1}
    2d54:	42000000 	andmi	r0, r0, #0, 0
    2d58:	3e000010 	mcrcc	0, 0, r0, cr0, cr0, {0}
    2d5c:	0f000010 	svceq	0x00000010
    2d60:	0000914c 	andeq	r9, r0, ip, asr #2
    2d64:	00000238 	andeq	r0, r0, r8, lsr r2
    2d68:	0091500f 	addseq	r5, r1, pc
    2d6c:	00020a00 	andeq	r0, r2, r0, lsl #20
    2d70:	91580f00 	cmpls	r8, r0, lsl #30
    2d74:	02380000 	eorseq	r0, r8, #0, 0
    2d78:	10000000 	andne	r0, r0, r0
    2d7c:	00000909 	andeq	r0, r0, r9, lsl #18
    2d80:	2c0a0401 	cfstrscs	mvf0, [sl], {1}
    2d84:	30000000 	andcc	r0, r0, r0
    2d88:	14000091 	strne	r0, [r0], #-145	; 0xffffff6f
    2d8c:	01000000 	mrseq	r0, (UNDEF: 0)
    2d90:	0002389c 	muleq	r2, ip, r8
    2d94:	913c0b00 	teqls	ip, r0, lsl #22
    2d98:	02440000 	subeq	r0, r4, #0, 0
    2d9c:	010c0000 	mrseq	r0, (UNDEF: 12)
    2da0:	040c0550 	streq	r0, [ip], #-1360	; 0xfffffab0
    2da4:	00200030 	eoreq	r0, r0, r0, lsr r0
    2da8:	01ff1100 	mvnseq	r1, r0, lsl #2
    2dac:	01ff0000 	mvnseq	r0, r0
    2db0:	93020000 	movwls	r0, #8192	; 0x2000
    2db4:	01cf1106 	biceq	r1, pc, r6, lsl #2
    2db8:	01cf0000 	biceq	r0, pc, r0
    2dbc:	b0020000 	andlt	r0, r2, r0
    2dc0:	0568000a 	strbeq	r0, [r8, #-10]!
    2dc4:	00040000 	andeq	r0, r4, r0
    2dc8:	00000f6d 	andeq	r0, r0, sp, ror #30
    2dcc:	05e70104 	strbeq	r0, [r7, #260]!	; 0x104
    2dd0:	4c0c0000 	stcmi	0, cr0, [ip], {-0}
    2dd4:	61000009 	tstvs	r0, r9
    2dd8:	b4000009 	strlt	r0, [r0], #-9
    2ddc:	ac000091 	stcge	0, cr0, [r0], {145}	; 0x91
    2de0:	ae000001 	cdpge	0, 0, cr0, cr0, cr1, {0}
    2de4:	02000013 	andeq	r0, r0, #19, 0
    2de8:	6e690504 	cdpvs	5, 6, cr0, cr9, cr4, {0}
    2dec:	04030074 	streq	r0, [r3], #-116	; 0xffffff8c
    2df0:	00019607 	andeq	r9, r1, r7, lsl #12
    2df4:	002c0400 	eoreq	r0, ip, r0, lsl #8
    2df8:	01030000 	mrseq	r0, (UNDEF: 3)
    2dfc:	00016d06 	andeq	r6, r1, r6, lsl #26
    2e00:	05020300 	streq	r0, [r2, #-768]	; 0xfffffd00
    2e04:	00000043 	andeq	r0, r0, r3, asr #32
    2e08:	14050403 	strne	r0, [r5], #-1027	; 0xfffffbfd
    2e0c:	03000001 	movweq	r0, #1
    2e10:	010f0508 	tsteq	pc, r8, lsl #10
    2e14:	01030000 	mrseq	r0, (UNDEF: 3)
    2e18:	00016b08 	andeq	r6, r1, r8, lsl #22
    2e1c:	07020300 	streq	r0, [r2, -r0, lsl #6]
    2e20:	000001ab 	andeq	r0, r0, fp, lsr #3
    2e24:	0004cd05 	andeq	ip, r4, r5, lsl #26
    2e28:	19340500 	ldmdbne	r4!, {r8, sl}
    2e2c:	0000006e 	andeq	r0, r0, lr, rrx
    2e30:	91070403 	tstls	r7, r3, lsl #8
    2e34:	03000001 	movweq	r0, #1
    2e38:	018c0708 	orreq	r0, ip, r8, lsl #14
    2e3c:	25060000 	strcs	r0, [r6, #-0]
    2e40:	8b000000 	blhi	2e48 <__code_start__-0x51b8>
    2e44:	07000000 	streq	r0, [r0, -r0]
    2e48:	00000025 	andeq	r0, r0, r5, lsr #32
    2e4c:	00920800 	addseq	r0, r2, r0, lsl #16
    2e50:	1c020000 	stcne	0, cr0, [r2], {-0}
    2e54:	0000970e 	andeq	r9, r0, lr, lsl #14
    2e58:	7c040900 			; <UNDEFINED> instruction: 0x7c040900
    2e5c:	06000000 	streq	r0, [r0], -r0
    2e60:	00000025 	andeq	r0, r0, r5, lsr #32
    2e64:	000000ac 	andeq	r0, r0, ip, lsr #1
    2e68:	0000ac07 	andeq	sl, r0, r7, lsl #24
    2e6c:	04090000 	streq	r0, [r9], #-0
    2e70:	000000b9 	strheq	r0, [r0], -r9
    2e74:	74080103 	strvc	r0, [r8], #-259	; 0xfffffefd
    2e78:	0a000001 	beq	2e84 <__code_start__-0x517c>
    2e7c:	000000b2 	strheq	r0, [r0], -r2
    2e80:	00072808 	andeq	r2, r7, r8, lsl #16
    2e84:	0e210200 	cdpeq	2, 2, cr0, cr1, cr0, {0}
    2e88:	000000ca 	andeq	r0, r0, sl, asr #1
    2e8c:	009d0409 	addseq	r0, sp, r9, lsl #8
    2e90:	070b0000 	streq	r0, [fp, -r0]
    2e94:	00005401 	andeq	r5, r0, r1, lsl #8
    2e98:	0e0c0400 	cfcpyseq	mvf0, mvf12
    2e9c:	0000010f 	andeq	r0, r0, pc, lsl #2
    2ea0:	000a520c 	andeq	r5, sl, ip, lsl #4
    2ea4:	2f0c0000 	svccs	0x000c0000
    2ea8:	01000009 	tsteq	r0, r9
    2eac:	0009950c 	andeq	r9, r9, ip, lsl #10
    2eb0:	a40c0400 	strge	r0, [ip], #-1024	; 0xfffffc00
    2eb4:	05000009 	streq	r0, [r0, #-9]
    2eb8:	0009b30c 	andeq	fp, r9, ip, lsl #6
    2ebc:	c20c0600 	andgt	r0, ip, #0, 12
    2ec0:	07000009 	streq	r0, [r0, -r9]
    2ec4:	000a2e0c 	andeq	r2, sl, ip, lsl #28
    2ec8:	d10c0300 	mrsle	r0, LR_mon
    2ecc:	02000009 	andeq	r0, r0, #9, 0
    2ed0:	09400d00 	stmdbeq	r0, {r8, sl, fp}^
    2ed4:	032c0000 			; <UNDEFINED> instruction: 0x032c0000
    2ed8:	01ab0806 			; <UNDEFINED> instruction: 0x01ab0806
    2edc:	690e0000 	stmdbvs	lr, {}	; <UNPREDICTABLE>
    2ee0:	0903006f 	stmdbeq	r3, {r0, r1, r2, r3, r5, r6}
    2ee4:	00003309 	andeq	r3, r0, r9, lsl #6
    2ee8:	690e0000 	stmdbvs	lr, {}	; <UNPREDICTABLE>
    2eec:	03007265 	movweq	r7, #613	; 0x265
    2ef0:	0033090a 	eorseq	r0, r3, sl, lsl #18
    2ef4:	0e040000 	cdpeq	0, 0, cr0, cr4, cr0, {0}
    2ef8:	00726969 	rsbseq	r6, r2, r9, ror #18
    2efc:	33091103 	movwcc	r1, #37123	; 0x9103
    2f00:	08000000 	stmdaeq	r0, {}	; <UNPREDICTABLE>
    2f04:	72636c0e 	rsbvc	r6, r3, #3584	; 0xe00
    2f08:	09130300 	ldmdbeq	r3, {r8, r9}
    2f0c:	00000033 	andeq	r0, r0, r3, lsr r0
    2f10:	636d0e0c 	cmnvs	sp, #12, 28	; 0xc0
    2f14:	14030072 	strne	r0, [r3], #-114	; 0xffffff8e
    2f18:	00003309 	andeq	r3, r0, r9, lsl #6
    2f1c:	6c0e1000 	stcvs	0, cr1, [lr], {-0}
    2f20:	03007273 	movweq	r7, #627	; 0x273
    2f24:	00330915 	eorseq	r0, r3, r5, lsl r9
    2f28:	0e140000 	cdpeq	0, 1, cr0, cr4, cr0, {0}
    2f2c:	0072736d 	rsbseq	r7, r2, sp, ror #6
    2f30:	33091603 	movwcc	r1, #38403	; 0x9603
    2f34:	18000000 	stmdane	r0, {}	; <UNPREDICTABLE>
    2f38:	000a450f 	andeq	r4, sl, pc, lsl #10
    2f3c:	09170300 	ldmdbeq	r7, {r8, r9}
    2f40:	00000033 	andeq	r0, r0, r3, lsr r0
    2f44:	0a1b0f1c 	beq	6c6bbc <__bss_end__+0x6bcbbc>
    2f48:	1b030000 	blne	c2f50 <__bss_end__+0xb8f50>
    2f4c:	00003309 	andeq	r3, r0, r9, lsl #6
    2f50:	1c0f2000 	stcne	0, cr2, [pc], {-0}
    2f54:	03000009 	movweq	r0, #9
    2f58:	0033091d 	eorseq	r0, r3, sp, lsl r9
    2f5c:	0f240000 	svceq	0x00240000
    2f60:	000009e6 	andeq	r0, r0, r6, ror #19
    2f64:	33091e03 	movwcc	r1, #40451	; 0x9e03
    2f68:	28000000 	stmdacs	r0, {}	; <UNPREDICTABLE>
    2f6c:	09eb1000 	stmibeq	fp!, {ip}^
    2f70:	08010000 	stmdaeq	r1, {}	; <UNPREDICTABLE>
    2f74:	0001c109 	andeq	ip, r1, r9, lsl #2
    2f78:	21500400 	cmpcs	r0, r0, lsl #8
    2f7c:	33040920 	movwcc	r0, #18720	; 0x4920
    2f80:	0a000000 	beq	2f88 <__code_start__-0x5078>
    2f84:	000001bb 			; <UNDEFINED> instruction: 0x000001bb
    2f88:	000a4d10 	andeq	r4, sl, r0, lsl sp
    2f8c:	23290100 			; <UNDEFINED> instruction: 0x23290100
    2f90:	000001dc 	ldrdeq	r0, [r0], -ip
    2f94:	20215040 	eorcs	r5, r1, r0, asr #32
    2f98:	010f0409 	tsteq	pc, r9, lsl #8
    2f9c:	d60a0000 	strle	r0, [sl], -r0
    2fa0:	11000001 	tstne	r0, r1
    2fa4:	00000843 	andeq	r0, r0, r3, asr #16
    2fa8:	4c06c201 	sfmmi	f4, 1, [r6], {1}
    2fac:	14000093 	strne	r0, [r0], #-147	; 0xffffff6d
    2fb0:	01000000 	mrseq	r0, (UNDEF: 0)
    2fb4:	0002019c 	muleq	r2, ip, r1
    2fb8:	93541200 	cmpls	r4, #0, 4
    2fbc:	02010000 	andeq	r0, r1, #0, 0
    2fc0:	13000000 	movwne	r0, #0
    2fc4:	00000a01 	andeq	r0, r0, r1, lsl #20
    2fc8:	2505ac01 	strcs	sl, [r5, #-3073]	; 0xfffff3ff
    2fcc:	2c000000 	stccs	0, cr0, [r0], {-0}
    2fd0:	20000093 	mulcs	r0, r3, r0
    2fd4:	01000000 	mrseq	r0, (UNDEF: 0)
    2fd8:	0002389c 	muleq	r2, ip, r8
    2fdc:	93341200 	teqls	r4, #0, 4
    2fe0:	053b0000 	ldreq	r0, [fp, #-0]!
    2fe4:	3c140000 	ldccc	0, cr0, [r4], {-0}
    2fe8:	47000093 			; <UNDEFINED> instruction: 0x47000093
    2fec:	15000005 	strne	r0, [r0, #-5]
    2ff0:	0c055001 	stceq	0, cr5, [r5], {1}
    2ff4:	20215064 	eorcs	r5, r1, r4, rrx
    2ff8:	20130000 	andscs	r0, r3, r0
    2ffc:	0100000a 	tsteq	r0, sl
    3000:	002505a9 	eoreq	r0, r5, r9, lsr #11
    3004:	931c0000 	tstls	ip, #0, 0
    3008:	00100000 	andseq	r0, r0, r0
    300c:	9c010000 	stcls	0, cr0, [r1], {-0}
    3010:	00000265 	andeq	r0, r0, r5, ror #4
    3014:	00932412 	addseq	r2, r3, r2, lsl r4
    3018:	00053b00 	andeq	r3, r5, r0, lsl #22
    301c:	93281200 			; <UNDEFINED> instruction: 0x93281200
    3020:	03560000 	cmpeq	r6, #0, 0
    3024:	11000000 	mrsne	r0, (UNDEF: 0)
    3028:	00000715 	andeq	r0, r0, r5, lsl r7
    302c:	ec06a101 	stfd	f2, [r6], {1}
    3030:	30000092 	mulcc	r0, r2, r0
    3034:	01000000 	mrseq	r0, (UNDEF: 0)
    3038:	0002c99c 	muleq	r2, ip, r9
    303c:	00631600 	rsbeq	r1, r3, r0, lsl #12
    3040:	2c19a101 	ldfcsd	f2, [r9], {1}
    3044:	64000000 	strvs	r0, [r0], #-0
    3048:	60000010 	andvs	r0, r0, r0, lsl r0
    304c:	12000010 	andne	r0, r0, #16, 0
    3050:	000092f8 	strdeq	r9, [r0], -r8
    3054:	0000053b 	andeq	r0, r0, fp, lsr r5
    3058:	0092fc12 	addseq	pc, r2, r2, lsl ip	; <UNPREDICTABLE>
    305c:	00032800 	andeq	r2, r3, r0, lsl #16
    3060:	93101700 	tstls	r0, #0, 14
    3064:	05530000 	ldrbeq	r0, [r3, #-0]
    3068:	02bf0000 	adcseq	r0, pc, #0, 0
    306c:	01150000 	tsteq	r5, r0
    3070:	400c0550 	andmi	r0, ip, r0, asr r5
    3074:	15202150 	strne	r2, [r0, #-336]!	; 0xfffffeb0
    3078:	74055101 	strvc	r5, [r5], #-257	; 0xfffffeff
    307c:	1aff0800 	bne	fffc5084 <__bss_end__+0xfffbb084>
    3080:	93141200 	tstls	r4, #0, 4
    3084:	053b0000 	ldreq	r0, [fp, #-0]!
    3088:	13000000 	movwne	r0, #0
    308c:	000009f7 	strdeq	r0, [r0], -r7
    3090:	25059901 	strcs	r9, [r5, #-2305]	; 0xfffff6ff
    3094:	bc000000 	stclt	0, cr0, [r0], {-0}
    3098:	30000092 	mulcc	r0, r2, r0
    309c:	01000000 	mrseq	r0, (UNDEF: 0)
    30a0:	0003289c 	muleq	r3, ip, r8
    30a4:	00631800 	rsbeq	r1, r3, r0, lsl #16
    30a8:	25099d01 	strcs	r9, [r9, #-3329]	; 0xfffff2ff
    30ac:	84000000 	strhi	r0, [r0], #-0
    30b0:	82000010 	andhi	r0, r0, #16, 0
    30b4:	12000010 	andne	r0, r0, #16, 0
    30b8:	000092c4 	andeq	r9, r0, r4, asr #5
    30bc:	0000053b 	andeq	r0, r0, fp, lsr r5
    30c0:	0092c812 	addseq	ip, r2, r2, lsl r8
    30c4:	00035600 	andeq	r5, r3, r0, lsl #12
    30c8:	92d81700 	sbcsls	r1, r8, #0, 14
    30cc:	05470000 	strbeq	r0, [r7, #-0]
    30d0:	031e0000 	tsteq	lr, #0, 0
    30d4:	01150000 	tsteq	r5, r0
    30d8:	400c0550 	andmi	r0, ip, r0, asr r5
    30dc:	00202150 	eoreq	r2, r0, r0, asr r1
    30e0:	0092e012 	addseq	lr, r2, r2, lsl r0
    30e4:	00053b00 	andeq	r3, r5, r0, lsl #22
    30e8:	53130000 	tstpl	r3, #0, 0
    30ec:	01000009 	tsteq	r0, r9
    30f0:	0025058a 	eoreq	r0, r5, sl, lsl #11
    30f4:	929c0000 	addsls	r0, ip, #0, 0
    30f8:	00200000 	eoreq	r0, r0, r0
    30fc:	9c010000 	stcls	0, cr0, [r1], {-0}
    3100:	00000356 	andeq	r0, r0, r6, asr r3
    3104:	0092a814 	addseq	sl, r2, r4, lsl r8
    3108:	00054700 	andeq	r4, r5, r0, lsl #14
    310c:	50011500 	andpl	r1, r1, r0, lsl #10
    3110:	50640c05 	rsbpl	r0, r4, r5, lsl #24
    3114:	00002021 	andeq	r2, r0, r1, lsr #32
    3118:	00092113 	andeq	r2, r9, r3, lsl r1
    311c:	05810100 	streq	r0, [r1, #256]	; 0x100
    3120:	00000025 	andeq	r0, r0, r5, lsr #32
    3124:	00009284 	andeq	r9, r0, r4, lsl #5
    3128:	00000018 	andeq	r0, r0, r8, lsl r0
    312c:	03849c01 	orreq	r9, r4, #256	; 0x100
    3130:	90140000 	andsls	r0, r4, r0
    3134:	47000092 			; <UNDEFINED> instruction: 0x47000092
    3138:	15000005 	strne	r0, [r0, #-5]
    313c:	0c055001 	stceq	0, cr5, [r5], {1}
    3140:	20215064 	eorcs	r5, r1, r4, rrx
    3144:	09110000 	ldmdbeq	r1, {}	; <UNPREDICTABLE>
    3148:	01000000 	mrseq	r0, (UNDEF: 0)
    314c:	91d4063b 	bicsls	r0, r4, fp, lsr r6
    3150:	00b00000 	adcseq	r0, r0, r0
    3154:	9c010000 	stcls	0, cr0, [r1], {-0}
    3158:	000004d1 	ldrdeq	r0, [r0], -r1
    315c:	000a1219 	andeq	r1, sl, r9, lsl r2
    3160:	0e740100 	rpweqs	f0, f4, f0
    3164:	00000062 	andeq	r0, r0, r2, rrx
    3168:	e417010e 	ldr	r0, [r7], #-270	; 0xfffffef2
    316c:	5f000091 	svcpl	0x00000091
    3170:	c0000005 	andgt	r0, r0, r5
    3174:	15000003 	strne	r0, [r0, #-3]
    3178:	3e015001 	cdpcc	0, 0, cr5, cr1, cr1, {0}
    317c:	01510115 	cmpeq	r1, r5, lsl r1
    3180:	f0170032 			; <UNDEFINED> instruction: 0xf0170032
    3184:	5f000091 	svcpl	0x00000091
    3188:	d8000005 	stmdale	r0, {r0, r2}
    318c:	15000003 	strne	r0, [r0, #-3]
    3190:	3f015001 	svccc	0x00015001
    3194:	01510115 	cmpeq	r1, r5, lsl r1
    3198:	f4120032 			; <UNDEFINED> instruction: 0xf4120032
    319c:	3b000091 	blcc	33e8 <__code_start__-0x4c18>
    31a0:	17000005 	strne	r0, [r0, -r5]
    31a4:	00009200 	andeq	r9, r0, r0, lsl #4
    31a8:	000004d1 	ldrdeq	r0, [r0], -r1
    31ac:	000003fd 	strdeq	r0, [r0], -sp
    31b0:	05500115 	ldrbeq	r0, [r0, #-277]	; 0xfffffeeb
    31b4:	2150040c 	cmpcs	r0, ip, lsl #8
    31b8:	51011520 	tstpl	r1, r0, lsr #10
    31bc:	12003101 	andne	r3, r0, #1073741824	; 0x40000000
    31c0:	00009204 	andeq	r9, r0, r4, lsl #4
    31c4:	0000053b 	andeq	r0, r0, fp, lsr r5
    31c8:	00921417 	addseq	r1, r2, r7, lsl r4
    31cc:	00055300 	andeq	r5, r5, r0, lsl #6
    31d0:	00041f00 	andeq	r1, r4, r0, lsl #30
    31d4:	50011500 	andpl	r1, r1, r0, lsl #10
    31d8:	15007402 	strne	r7, [r0, #-1026]	; 0xfffffbfe
    31dc:	30015101 	andcc	r5, r1, r1, lsl #2
    31e0:	92201700 	eorls	r1, r0, #0, 14
    31e4:	05530000 	ldrbeq	r0, [r3, #-0]
    31e8:	043b0000 	ldrteq	r0, [fp], #-0
    31ec:	01150000 	tsteq	r5, r0
    31f0:	440c0550 	strmi	r0, [ip], #-1360	; 0xfffffab0
    31f4:	15202150 	strne	r2, [r0, #-336]!	; 0xfffffeb0
    31f8:	30015101 	andcc	r5, r1, r1, lsl #2
    31fc:	922c1700 	eorls	r1, ip, #0, 14
    3200:	05530000 	ldrbeq	r0, [r3, #-0]
    3204:	04570000 	ldrbeq	r0, [r7], #-0
    3208:	01150000 	tsteq	r5, r0
    320c:	4c0c0550 	cfstr32mi	mvfx0, [ip], {80}	; 0x50
    3210:	15202150 	strne	r2, [r0, #-336]!	; 0xfffffeb0
    3214:	33015101 	movwcc	r5, #4353	; 0x1101
    3218:	92381700 	eorsls	r1, r8, #0, 14
    321c:	05530000 	ldrbeq	r0, [r3, #-0]
    3220:	04730000 	ldrbteq	r0, [r3], #-0
    3224:	01150000 	tsteq	r5, r0
    3228:	500c0550 	andpl	r0, ip, r0, asr r5
    322c:	15202150 	strne	r2, [r0, #-336]!	; 0xfffffeb0
    3230:	30015101 	andcc	r5, r1, r1, lsl #2
    3234:	92441700 	subls	r1, r4, #0, 14
    3238:	05530000 	ldrbeq	r0, [r3, #-0]
    323c:	04900000 	ldreq	r0, [r0], #0
    3240:	01150000 	tsteq	r5, r0
    3244:	480c0550 	stmdami	ip, {r4, r6, r8, sl}
    3248:	15202150 	strne	r2, [r0, #-336]!	; 0xfffffeb0
    324c:	08025101 	stmdaeq	r2, {r0, r8, ip, lr}
    3250:	501700c7 	andspl	r0, r7, r7, asr #1
    3254:	53000092 	movwpl	r0, #146	; 0x92
    3258:	ae000005 	cdpge	0, 0, cr0, cr0, cr5, {0}
    325c:	15000004 	strne	r0, [r0, #-4]
    3260:	0c055001 	stceq	0, cr5, [r5], {1}
    3264:	20215068 	eorcs	r5, r1, r8, rrx
    3268:	03510115 	cmpeq	r1, #1073741829	; 0x40000005
    326c:	00010e0a 	andeq	r0, r1, sl, lsl #28
    3270:	00925c17 	addseq	r5, r2, r7, lsl ip
    3274:	00055300 	andeq	r5, r5, r0, lsl #6
    3278:	0004c700 	andeq	ip, r4, r0, lsl #14
    327c:	50011500 	andpl	r1, r1, r0, lsl #10
    3280:	15007402 	strne	r7, [r0, #-1026]	; 0xfffffbfe
    3284:	33015101 	movwcc	r5, #4353	; 0x1101
    3288:	92601200 	rsbls	r1, r0, #0, 4
    328c:	053b0000 	ldreq	r0, [fp, #-0]!
    3290:	1a000000 	bne	3298 <__code_start__-0x4d68>
    3294:	00000a3d 	andeq	r0, r0, sp, lsr sl
    3298:	b40d2e01 	strlt	r2, [sp], #-3585	; 0xfffff1ff
    329c:	20000091 	mulcs	r0, r1, r0
    32a0:	01000000 	mrseq	r0, (UNDEF: 0)
    32a4:	0005349c 	muleq	r5, ip, r4
    32a8:	06a41b00 	strteq	r1, [r4], r0, lsl #22
    32ac:	2e010000 	cdpcs	0, 0, cr0, cr1, cr0, {0}
    32b0:	00053424 	andeq	r3, r5, r4, lsr #8
    32b4:	00109b00 	andseq	r9, r0, r0, lsl #22
    32b8:	00109700 	andseq	r9, r0, r0, lsl #14
    32bc:	61761600 	cmnvs	r6, r0, lsl #12
    32c0:	2e01006c 	cdpcs	0, 0, cr0, cr1, cr12, {3}
    32c4:	00002c33 	andeq	r2, r0, r3, lsr ip
    32c8:	0010bd00 	andseq	fp, r0, r0, lsl #26
    32cc:	0010b900 	andseq	fp, r0, r0, lsl #18
    32d0:	91c41700 	bicls	r1, r4, r0, lsl #14
    32d4:	05470000 	strbeq	r0, [r7, #-0]
    32d8:	05230000 	streq	r0, [r3, #-0]!
    32dc:	01150000 	tsteq	r5, r0
    32e0:	00740250 	rsbseq	r0, r4, r0, asr r2
    32e4:	91d01400 	bicsls	r1, r0, r0, lsl #8
    32e8:	05530000 	ldrbeq	r0, [r3, #-0]
    32ec:	01150000 	tsteq	r5, r0
    32f0:	00740250 	rsbseq	r0, r4, r0, asr r2
    32f4:	04090000 	streq	r0, [r9], #-0
    32f8:	0000053a 	andeq	r0, r0, sl, lsr r5
    32fc:	01ff1d1c 	mvnseq	r1, ip, lsl sp
    3300:	01ff0000 	mvnseq	r0, r0
    3304:	93020000 	movwls	r0, #8192	; 0x2000
    3308:	0a741d06 	beq	1d0a728 <__bss_end__+0x1d00728>
    330c:	0a740000 	beq	1d03314 <__bss_end__+0x1cf9314>
    3310:	b1020000 	mrslt	r0, (UNDEF: 2)
    3314:	09e01d0b 	stmibeq	r0!, {r0, r1, r3, r8, sl, fp, ip}^
    3318:	09e00000 	stmibeq	r0!, {}^	; <UNPREDICTABLE>
    331c:	a5020000 	strge	r0, [r2, #-0]
    3320:	0a621d06 	beq	188a740 <__bss_end__+0x1880740>
    3324:	0a620000 	beq	188332c <__bss_end__+0x187932c>
    3328:	19040000 	stmdbne	r4, {}	; <UNPREDICTABLE>
    332c:	05240006 	streq	r0, [r4, #-6]!
    3330:	00040000 	andeq	r0, r4, r0
    3334:	0000112a 	andeq	r1, r0, sl, lsr #2
    3338:	05e70104 	strbeq	r0, [r7, #260]!	; 0x104
    333c:	dc0c0000 	stcle	0, cr0, [ip], {-0}
    3340:	a100000a 	tstge	r0, sl
    3344:	60000005 	andvs	r0, r0, r5
    3348:	ac000093 	stcge	0, cr0, [r0], {147}	; 0x93
    334c:	67000001 	strvs	r0, [r0, -r1]
    3350:	02000015 	andeq	r0, r0, #21, 0
    3354:	6e690504 	cdpvs	5, 6, cr0, cr9, cr4, {0}
    3358:	04030074 	streq	r0, [r3], #-116	; 0xffffff8c
    335c:	00019607 	andeq	r9, r1, r7, lsl #12
    3360:	002c0400 	eoreq	r0, ip, r0, lsl #8
    3364:	01030000 	mrseq	r0, (UNDEF: 3)
    3368:	00016d06 	andeq	r6, r1, r6, lsl #26
    336c:	05020300 	streq	r0, [r2, #-768]	; 0xfffffd00
    3370:	00000043 	andeq	r0, r0, r3, asr #32
    3374:	14050403 	strne	r0, [r5], #-1027	; 0xfffffbfd
    3378:	03000001 	movweq	r0, #1
    337c:	010f0508 	tsteq	pc, r8, lsl #10
    3380:	01030000 	mrseq	r0, (UNDEF: 3)
    3384:	00016b08 	andeq	r6, r1, r8, lsl #22
    3388:	07020300 	streq	r0, [r2, -r0, lsl #6]
    338c:	000001ab 	andeq	r0, r0, fp, lsr #3
    3390:	91070403 	tstls	r7, r3, lsl #8
    3394:	03000001 	movweq	r0, #1
    3398:	018c0708 	orreq	r0, ip, r8, lsl #14
    339c:	25050000 	strcs	r0, [r5, #-0]
    33a0:	7f000000 	svcvc	0x00000000
    33a4:	06000000 	streq	r0, [r0], -r0
    33a8:	00000025 	andeq	r0, r0, r5, lsr #32
    33ac:	00920700 	addseq	r0, r2, r0, lsl #14
    33b0:	1c020000 	stcne	0, cr0, [r2], {-0}
    33b4:	00008b0e 	andeq	r8, r0, lr, lsl #22
    33b8:	70040800 	andvc	r0, r4, r0, lsl #16
    33bc:	05000000 	streq	r0, [r0, #-0]
    33c0:	00000025 	andeq	r0, r0, r5, lsr #32
    33c4:	000000a0 	andeq	r0, r0, r0, lsr #1
    33c8:	0000a006 	andeq	sl, r0, r6
    33cc:	04080000 	streq	r0, [r8], #-0
    33d0:	000000ad 	andeq	r0, r0, sp, lsr #1
    33d4:	74080103 	strvc	r0, [r8], #-259	; 0xfffffefd
    33d8:	09000001 	stmdbeq	r0, {r0}
    33dc:	000000a6 	andeq	r0, r0, r6, lsr #1
    33e0:	00072807 	andeq	r2, r7, r7, lsl #16
    33e4:	0e210200 	cdpeq	2, 2, cr0, cr1, cr0, {0}
    33e8:	000000be 	strheq	r0, [r0], -lr
    33ec:	00910408 	addseq	r0, r1, r8, lsl #8
    33f0:	070a0000 	streq	r0, [sl, -r0]
    33f4:	00005401 	andeq	r5, r0, r1, lsl #8
    33f8:	0e0c0300 	cdpeq	3, 0, cr0, cr12, cr0, {0}
    33fc:	00000103 	andeq	r0, r0, r3, lsl #2
    3400:	000a520b 	andeq	r5, sl, fp, lsl #4
    3404:	2f0b0000 	svccs	0x000b0000
    3408:	01000009 	tsteq	r0, r9
    340c:	0009950b 	andeq	r9, r9, fp, lsl #10
    3410:	a40b0400 	strge	r0, [fp], #-1024	; 0xfffffc00
    3414:	05000009 	streq	r0, [r0, #-9]
    3418:	0009b30b 	andeq	fp, r9, fp, lsl #6
    341c:	c20b0600 	andgt	r0, fp, #0, 12
    3420:	07000009 	streq	r0, [r0, -r9]
    3424:	000a2e0b 	andeq	r2, sl, fp, lsl #28
    3428:	d10b0300 	mrsle	r0, (UNDEF: 59)
    342c:	02000009 	andeq	r0, r0, #9, 0
    3430:	0b150c00 	bleq	546438 <__bss_end__+0x53c438>
    3434:	15030000 	strne	r0, [r3, #-0]
    3438:	0000c403 	andeq	ip, r0, r3, lsl #8
    343c:	0a990d00 	beq	fe646844 <__bss_end__+0xfe63c844>
    3440:	11010000 	mrsne	r0, (UNDEF: 1)
    3444:	00011b1b 	andeq	r1, r1, fp, lsl fp
    3448:	33040800 	movwcc	r0, #18432	; 0x4800
    344c:	0d000000 	stceq	0, cr0, [r0, #-0]
    3450:	00000a84 	andeq	r0, r0, r4, lsl #21
    3454:	1b1b1201 	blne	6c7c60 <__bss_end__+0x6bdc60>
    3458:	0d000001 	stceq	0, cr0, [r0, #-4]
    345c:	00000a7a 	andeq	r0, r0, sl, ror sl
    3460:	1b1b1301 	blne	6c806c <__bss_end__+0x6be06c>
    3464:	0e000001 	cdpeq	0, 0, cr0, cr0, cr1, {0}
    3468:	00000a62 	andeq	r0, r0, r2, ror #20
    346c:	ac066801 	stcge	8, cr6, [r6], {1}
    3470:	60000094 	mulvs	r0, r4, r0
    3474:	01000000 	mrseq	r0, (UNDEF: 0)
    3478:	0002009c 	muleq	r2, ip, r0
    347c:	69700f00 	ldmdbvs	r0!, {r8, r9, sl, fp}^
    3480:	6801006e 	stmdavs	r1, {r1, r2, r3, r5, r6}
    3484:	00002c21 	andeq	r2, r0, r1, lsr #24
    3488:	0010e100 	andseq	lr, r0, r0, lsl #2
    348c:	0010db00 	andseq	sp, r0, r0, lsl #22
    3490:	0a6b1000 	beq	1ac7498 <__bss_end__+0x1abd498>
    3494:	68010000 	stmdavs	r1, {}	; <UNPREDICTABLE>
    3498:	00010332 	andeq	r0, r1, r2, lsr r3
    349c:	00111100 	andseq	r1, r1, r0, lsl #2
    34a0:	00110d00 	andseq	r0, r1, r0, lsl #26
    34a4:	06a41100 	strteq	r1, [r4], r0, lsl #2
    34a8:	6b010000 	blvs	434b0 <__bss_end__+0x394b0>
    34ac:	00011b18 	andeq	r1, r1, r8, lsl fp
    34b0:	00113400 	andseq	r3, r1, r0, lsl #8
    34b4:	00113200 	andseq	r3, r1, r0, lsl #4
    34b8:	0acc1100 	beq	ff3078c0 <__bss_end__+0xff2fd8c0>
    34bc:	6c010000 	stcvs	0, cr0, [r1], {-0}
    34c0:	00002c0e 	andeq	r2, r0, lr, lsl #24
    34c4:	00114900 	andseq	r4, r1, r0, lsl #18
    34c8:	00114700 	andseq	r4, r1, r0, lsl #14
    34cc:	0aa41100 	beq	fe9078d4 <__bss_end__+0xfe8fd8d4>
    34d0:	6e010000 	cdpvs	0, 0, cr0, cr1, cr0, {0}
    34d4:	00002c0e 	andeq	r2, r0, lr, lsl #24
    34d8:	00115e00 	andseq	r5, r1, r0, lsl #28
    34dc:	00115c00 	andseq	r5, r1, r0, lsl #24
    34e0:	0b261100 	bleq	9878e8 <__bss_end__+0x97d8e8>
    34e4:	6f010000 	svcvs	0x00010000
    34e8:	00002c0e 	andeq	r2, r0, lr, lsl #24
    34ec:	00117300 	andseq	r7, r1, r0, lsl #6
    34f0:	00117100 	andseq	r7, r1, r0, lsl #2
    34f4:	0ac51100 	beq	ff1478fc <__bss_end__+0xff13d8fc>
    34f8:	71010000 	mrsvc	r0, (UNDEF: 1)
    34fc:	00002c0e 	andeq	r2, r0, lr, lsl #24
    3500:	00118e00 	andseq	r8, r1, r0, lsl #28
    3504:	00118a00 	andseq	r8, r1, r0, lsl #20
    3508:	94e41200 	strbtls	r1, [r4], #512	; 0x200
    350c:	050f0000 	streq	r0, [pc, #-0]	; 3514 <__code_start__-0x4aec>
    3510:	01ef0000 	mvneq	r0, r0
    3514:	01130000 	tsteq	r3, r0
    3518:	00770250 	rsbseq	r0, r7, r0, asr r2
    351c:	95041400 	strls	r1, [r4, #-1024]	; 0xfffffc00
    3520:	051b0000 	ldreq	r0, [fp, #-0]
    3524:	01130000 	tsteq	r3, r0
    3528:	00770250 	rsbseq	r0, r7, r0, asr r2
    352c:	d2150000 	andsle	r0, r5, #0, 0
    3530:	0100000a 	tsteq	r0, sl
    3534:	0025055d 	eoreq	r0, r5, sp, asr r5
    3538:	94740000 	ldrbtls	r0, [r4], #-0
    353c:	00380000 	eorseq	r0, r8, r0
    3540:	9c010000 	stcls	0, cr0, [r1], {-0}
    3544:	0000028c 	andeq	r0, r0, ip, lsl #5
    3548:	6e69700f 	cdpvs	0, 6, cr7, cr9, cr15, {0}
    354c:	185d0100 	ldmdane	sp, {r8}^
    3550:	0000002c 	andeq	r0, r0, ip, lsr #32
    3554:	000011bc 			; <UNDEFINED> instruction: 0x000011bc
    3558:	000011b4 			; <UNDEFINED> instruction: 0x000011b4
    355c:	01007616 	tsteq	r0, r6, lsl r6
    3560:	002c0e60 	eoreq	r0, ip, r0, ror #28
    3564:	11f50000 	mvnsne	r0, r0
    3568:	11f30000 	mvnsne	r0, r0
    356c:	a4170000 	ldrge	r0, [r7], #-0
    3570:	01000006 	tsteq	r0, r6
    3574:	011b1861 	tsteq	fp, r1, ror #16
    3578:	00340000 	eorseq	r0, r4, r0
    357c:	21112020 	tstcs	r1, r0, lsr #32
    3580:	0100000b 	tsteq	r0, fp
    3584:	002c0e62 	eoreq	r0, ip, r2, ror #28
    3588:	120b0000 	andne	r0, fp, #0, 0
    358c:	12090000 	andne	r0, r9, #0, 0
    3590:	26110000 	ldrcs	r0, [r1], -r0
    3594:	0100000b 	tsteq	r0, fp
    3598:	002c0e63 	eoreq	r0, ip, r3, ror #28
    359c:	12200000 	eorne	r0, r0, #0, 0
    35a0:	121e0000 	andsne	r0, lr, #0, 0
    35a4:	94140000 	ldrls	r0, [r4], #-0
    35a8:	0f000094 	svceq	0x00000094
    35ac:	13000005 	movwne	r0, #5
    35b0:	0c055001 	stceq	0, cr5, [r5], {1}
    35b4:	20200034 	eorcs	r0, r0, r4, lsr r0
    35b8:	e90e0000 	stmdb	lr, {}	; <UNPREDICTABLE>
    35bc:	0100000a 	tsteq	r0, sl
    35c0:	9420064e 	strtls	r0, [r0], #-1614	; 0xfffff9b2
    35c4:	00540000 	subseq	r0, r4, r0
    35c8:	9c010000 	stcls	0, cr0, [r1], {-0}
    35cc:	0000033f 	andeq	r0, r0, pc, lsr r3
    35d0:	6e69700f 	cdpvs	0, 6, cr7, cr9, cr15, {0}
    35d4:	1e4e0100 	dvfnee	f0, f6, f0
    35d8:	0000002c 	andeq	r0, r0, ip, lsr #32
    35dc:	0000123d 	andeq	r1, r0, sp, lsr r2
    35e0:	00001237 	andeq	r1, r0, r7, lsr r2
    35e4:	0006a411 	andeq	sl, r6, r1, lsl r4
    35e8:	18510100 	ldmdane	r1, {r8}^
    35ec:	0000011b 	andeq	r0, r0, fp, lsl r1
    35f0:	0000126b 	andeq	r1, r0, fp, ror #4
    35f4:	00001269 	andeq	r1, r0, r9, ror #4
    35f8:	000acc11 	andeq	ip, sl, r1, lsl ip
    35fc:	0e520100 	rdfeqs	f0, f2, f0
    3600:	0000002c 	andeq	r0, r0, ip, lsr #32
    3604:	00001280 	andeq	r1, r0, r0, lsl #5
    3608:	0000127e 	andeq	r1, r0, lr, ror r2
    360c:	000aa411 	andeq	sl, sl, r1, lsl r4
    3610:	0e540100 	rdfeqs	f0, f4, f0
    3614:	0000002c 	andeq	r0, r0, ip, lsr #32
    3618:	00001295 	muleq	r0, r5, r2
    361c:	00001293 	muleq	r0, r3, r2
    3620:	000b2611 	andeq	r2, fp, r1, lsl r6
    3624:	0e550100 	rdfeqs	f0, f5, f0
    3628:	0000002c 	andeq	r0, r0, ip, lsr #32
    362c:	000012aa 	andeq	r1, r0, sl, lsr #5
    3630:	000012a8 	andeq	r1, r0, r8, lsr #5
    3634:	000ac511 	andeq	ip, sl, r1, lsl r5
    3638:	0e570100 	rdfeqs	f0, f7, f0
    363c:	0000002c 	andeq	r0, r0, ip, lsr #32
    3640:	000012c5 	andeq	r1, r0, r5, asr #5
    3644:	000012c1 	andeq	r1, r0, r1, asr #5
    3648:	00945012 	addseq	r5, r4, r2, lsl r0
    364c:	00050f00 	andeq	r0, r5, r0, lsl #30
    3650:	00032e00 	andeq	r2, r3, r0, lsl #28
    3654:	50011300 	andpl	r1, r1, r0, lsl #6
    3658:	00007602 	andeq	r7, r0, r2, lsl #12
    365c:	00946c14 	addseq	r6, r4, r4, lsl ip
    3660:	00051b00 	andeq	r1, r5, r0, lsl #22
    3664:	50011300 	andpl	r1, r1, r0, lsl #6
    3668:	00007602 	andeq	r7, r0, r2, lsl #12
    366c:	0a8e0e00 	beq	fe386e74 <__bss_end__+0xfe37ce74>
    3670:	42010000 	andmi	r0, r1, #0, 0
    3674:	00940406 	addseq	r0, r4, r6, lsl #8
    3678:	00001c00 	andeq	r1, r0, r0, lsl #24
    367c:	9a9c0100 	bls	fe703a84 <__bss_end__+0xfe6f9a84>
    3680:	0f000003 	svceq	0x00000003
    3684:	006e6970 	rsbeq	r6, lr, r0, ror r9
    3688:	2c1a4201 	lfmcs	f4, 4, [sl], {1}
    368c:	f3000000 	vhadd.u8	d0, d0, d0
    3690:	eb000012 	bl	36e0 <__code_start__-0x4920>
    3694:	0f000012 	svceq	0x00000012
    3698:	42010076 	andmi	r0, r1, #118, 0	; 0x76
    369c:	00002c28 	andeq	r2, r0, r8, lsr #24
    36a0:	00133500 	andseq	r3, r3, r0, lsl #10
    36a4:	00132d00 	andseq	r2, r3, r0, lsl #26
    36a8:	94141200 	ldrls	r1, [r4], #-512	; 0xfffffe00
    36ac:	03f10000 	mvnseq	r0, #0, 0
    36b0:	03900000 	orrseq	r0, r0, #0, 0
    36b4:	01130000 	tsteq	r3, r0
    36b8:	01f30350 	mvnseq	r0, r0, asr r3
    36bc:	1c180050 	ldcne	0, cr0, [r8], {80}	; 0x50
    36c0:	9a000094 	bls	3918 <__code_start__-0x46e8>
    36c4:	00000003 	andeq	r0, r0, r3
    36c8:	000af80e 	andeq	pc, sl, lr, lsl #16
    36cc:	06390100 	ldrteq	r0, [r9], -r0, lsl #2
    36d0:	000093e0 	andeq	r9, r0, r0, ror #7
    36d4:	00000024 	andeq	r0, r0, r4, lsr #32
    36d8:	03f19c01 	mvnseq	r9, #256	; 0x100
    36dc:	700f0000 	andvc	r0, pc, r0
    36e0:	01006e69 	tsteq	r0, r9, ror #28
    36e4:	002c1c39 	eoreq	r1, ip, r9, lsr ip
    36e8:	13730000 	cmnne	r3, #0, 0
    36ec:	136f0000 	cmnne	pc, #0, 0
    36f0:	a4170000 	ldrge	r0, [r7], #-0
    36f4:	01000006 	tsteq	r0, r6
    36f8:	011b183b 	tsteq	fp, fp, lsr r8
    36fc:	00280000 	eoreq	r0, r8, r0
    3700:	fc142020 	ldc2	0, cr2, [r4], {32}
    3704:	1b000093 	blne	3958 <__code_start__-0x46a8>
    3708:	13000005 	movwne	r0, #5
    370c:	0c055001 	stceq	0, cr5, [r5], {1}
    3710:	20200028 	eorcs	r0, r0, r8, lsr #32
    3714:	05510113 	ldrbeq	r0, [r1, #-275]	; 0xfffffeed
    3718:	5001f331 	andpl	pc, r1, r1, lsr r3	; <UNPREDICTABLE>
    371c:	0e000024 	cdpeq	0, 0, cr0, cr0, cr4, {1}
    3720:	00000b2e 	andeq	r0, r0, lr, lsr #22
    3724:	bc063001 	stclt	0, cr3, [r6], {1}
    3728:	24000093 	strcs	r0, [r0], #-147	; 0xffffff6d
    372c:	01000000 	mrseq	r0, (UNDEF: 0)
    3730:	0004489c 	muleq	r4, ip, r8
    3734:	69700f00 	ldmdbvs	r0!, {r8, r9, sl, fp}^
    3738:	3001006e 	andcc	r0, r1, lr, rrx
    373c:	00002c1b 	andeq	r2, r0, fp, lsl ip
    3740:	00139800 	andseq	r9, r3, r0, lsl #16
    3744:	00139400 	andseq	r9, r3, r0, lsl #8
    3748:	06a41700 	strteq	r1, [r4], r0, lsl #14
    374c:	32010000 	andcc	r0, r1, #0, 0
    3750:	00011b18 	andeq	r1, r1, r8, lsl fp
    3754:	20001c00 	andcs	r1, r0, r0, lsl #24
    3758:	93d81420 	bicsls	r1, r8, #32, 8	; 0x20000000
    375c:	051b0000 	ldreq	r0, [fp, #-0]
    3760:	01130000 	tsteq	r3, r0
    3764:	1c0c0550 	cfstr32ne	mvfx0, [ip], {80}	; 0x50
    3768:	13202000 	nopne	{0}	; <UNPREDICTABLE>
    376c:	31055101 	tstcc	r5, r1, lsl #2
    3770:	245001f3 	ldrbcs	r0, [r0], #-499	; 0xfffffe0d
    3774:	050e0000 	streq	r0, [lr, #-0]
    3778:	0100000b 	tsteq	r0, fp
    377c:	9360061e 	cmnls	r0, #31457280	; 0x1e00000
    3780:	005c0000 	subseq	r0, ip, r0
    3784:	9c010000 	stcls	0, cr0, [r1], {-0}
    3788:	0000050f 	andeq	r0, r0, pc, lsl #10
    378c:	6e69700f 	cdpvs	0, 6, cr7, cr9, cr15, {0}
    3790:	1f1e0100 	svcne	0x001e0100
    3794:	0000002c 	andeq	r0, r0, ip, lsr #32
    3798:	000013bf 			; <UNDEFINED> instruction: 0x000013bf
    379c:	000013b9 			; <UNDEFINED> instruction: 0x000013b9
    37a0:	0006a411 	andeq	sl, r6, r1, lsl r4
    37a4:	18230100 	stmdane	r3!, {r8}
    37a8:	0000011b 	andeq	r0, r0, fp, lsl r1
    37ac:	000013ed 	andeq	r1, r0, sp, ror #7
    37b0:	000013eb 	andeq	r1, r0, fp, ror #7
    37b4:	000acc11 	andeq	ip, sl, r1, lsl ip
    37b8:	0e240100 	sufeqs	f0, f4, f0
    37bc:	0000002c 	andeq	r0, r0, ip, lsr #32
    37c0:	00001402 	andeq	r1, r0, r2, lsl #8
    37c4:	00001400 	andeq	r1, r0, r0, lsl #8
    37c8:	000aa411 	andeq	sl, sl, r1, lsl r4
    37cc:	0e260100 	sufeqs	f0, f6, f0
    37d0:	0000002c 	andeq	r0, r0, ip, lsr #32
    37d4:	00001417 	andeq	r1, r0, r7, lsl r4
    37d8:	00001415 	andeq	r1, r0, r5, lsl r4
    37dc:	000b2611 	andeq	r2, fp, r1, lsl r6
    37e0:	0e270100 	sufeqs	f0, f7, f0
    37e4:	0000002c 	andeq	r0, r0, ip, lsr #32
    37e8:	0000142c 	andeq	r1, r0, ip, lsr #8
    37ec:	0000142a 	andeq	r1, r0, sl, lsr #8
    37f0:	000ac511 	andeq	ip, sl, r1, lsl r5
    37f4:	0e290100 	sufeqe	f0, f1, f0
    37f8:	0000002c 	andeq	r0, r0, ip, lsr #32
    37fc:	00001445 	andeq	r1, r0, r5, asr #8
    3800:	00001443 	andeq	r1, r0, r3, asr #8
    3804:	000ab711 	andeq	fp, sl, r1, lsl r7
    3808:	0e2a0100 	sufeqe	f0, f2, f0
    380c:	0000002c 	andeq	r0, r0, ip, lsr #32
    3810:	0000145a 	andeq	r1, r0, sl, asr r4
    3814:	00001458 	andeq	r1, r0, r8, asr r4
    3818:	00939012 	addseq	r9, r3, r2, lsl r0
    381c:	00050f00 	andeq	r0, r5, r0, lsl #30
    3820:	0004fe00 	andeq	pc, r4, r0, lsl #28
    3824:	50011300 	andpl	r1, r1, r0, lsl #6
    3828:	00007602 	andeq	r7, r0, r2, lsl #12
    382c:	0093b414 	addseq	fp, r3, r4, lsl r4
    3830:	00051b00 	andeq	r1, r5, r0, lsl #22
    3834:	50011300 	andpl	r1, r1, r0, lsl #6
    3838:	00007602 	andeq	r7, r0, r2, lsl #12
    383c:	0a741900 	beq	1d09c44 <__bss_end__+0x1cffc44>
    3840:	0a740000 	beq	1d03848 <__bss_end__+0x1cf9848>
    3844:	b1020000 	mrslt	r0, (UNDEF: 2)
    3848:	09e0190b 	stmibeq	r0!, {r0, r1, r3, r8, fp, ip}^
    384c:	09e00000 	stmibeq	r0!, {}^	; <UNPREDICTABLE>
    3850:	a5020000 	strge	r0, [r2, #-0]
    3854:	01370006 	teqeq	r7, r6
    3858:	00040000 	andeq	r0, r4, r0
    385c:	000012a7 	andeq	r1, r0, r7, lsr #5
    3860:	05e70104 	strbeq	r0, [r7, #260]!	; 0x104
    3864:	3f0c0000 	svccc	0x000c0000
    3868:	a100000b 	tstge	r0, fp
    386c:	0c000005 	stceq	0, cr0, [r0], {5}
    3870:	34000095 	strcc	r0, [r0], #-149	; 0xffffff6b
    3874:	22000000 	andcs	r0, r0, #0, 0
    3878:	02000017 	andeq	r0, r0, #23, 0
    387c:	6e690504 	cdpvs	5, 6, cr0, cr9, cr4, {0}
    3880:	04030074 	streq	r0, [r3], #-116	; 0xffffff8c
    3884:	00019607 	andeq	r9, r1, r7, lsl #12
    3888:	06010300 	streq	r0, [r1], -r0, lsl #6
    388c:	0000016d 	andeq	r0, r0, sp, ror #2
    3890:	43050203 	movwmi	r0, #20995	; 0x5203
    3894:	03000000 	movweq	r0, #0
    3898:	01140504 	tsteq	r4, r4, lsl #10
    389c:	08030000 	stmdaeq	r3, {}	; <UNPREDICTABLE>
    38a0:	00010f05 	andeq	r0, r1, r5, lsl #30
    38a4:	08010300 	stmdaeq	r1, {r8, r9}
    38a8:	0000016b 	andeq	r0, r0, fp, ror #2
    38ac:	ab070203 	blge	1c40c0 <__bss_end__+0x1ba0c0>
    38b0:	03000001 	movweq	r0, #1
    38b4:	01910704 	orrseq	r0, r1, r4, lsl #14
    38b8:	08030000 	stmdaeq	r3, {}	; <UNPREDICTABLE>
    38bc:	00018c07 	andeq	r8, r1, r7, lsl #24
    38c0:	00250400 	eoreq	r0, r5, r0, lsl #8
    38c4:	007a0000 	rsbseq	r0, sl, r0
    38c8:	25050000 	strcs	r0, [r5, #-0]
    38cc:	00000000 	andeq	r0, r0, r0
    38d0:	00009206 	andeq	r9, r0, r6, lsl #4
    38d4:	0e1c0200 	cdpeq	2, 1, cr0, cr12, cr0, {0}
    38d8:	00000086 	andeq	r0, r0, r6, lsl #1
    38dc:	006b0407 	rsbeq	r0, fp, r7, lsl #8
    38e0:	25040000 	strcs	r0, [r4, #-0]
    38e4:	9b000000 	blls	38ec <__code_start__-0x4714>
    38e8:	05000000 	streq	r0, [r0, #-0]
    38ec:	0000009b 	muleq	r0, fp, r0
    38f0:	a8040700 	stmdage	r4, {r8, r9, sl}
    38f4:	03000000 	movweq	r0, #0
    38f8:	01740801 	cmneq	r4, r1, lsl #16
    38fc:	a1080000 	mrsge	r0, (UNDEF: 8)
    3900:	06000000 	streq	r0, [r0], -r0
    3904:	00000728 	andeq	r0, r0, r8, lsr #14
    3908:	b90e2102 	stmdblt	lr, {r1, r8, sp}
    390c:	07000000 	streq	r0, [r0, -r0]
    3910:	00008c04 	andeq	r8, r0, r4, lsl #24
    3914:	07ad0900 	streq	r0, [sp, r0, lsl #18]!
    3918:	04010000 	streq	r0, [r1], #-0
    391c:	00013407 	andeq	r3, r1, r7, lsl #8
    3920:	00950c00 	addseq	r0, r5, r0, lsl #24
    3924:	00003400 	andeq	r3, r0, r0, lsl #8
    3928:	349c0100 	ldrcc	r0, [ip], #256	; 0x100
    392c:	0a000001 	beq	3938 <__code_start__-0x46c8>
    3930:	00000b3a 	andeq	r0, r0, sl, lsr fp
    3934:	34150401 	ldrcc	r0, [r5], #-1025	; 0xfffffbff
    3938:	01000001 	tsteq	r0, r1
    393c:	72730b50 	rsbsvc	r0, r3, #80, 22	; 0x14000
    3940:	04010063 	streq	r0, [r1], #-99	; 0xffffff9d
    3944:	00009b27 	andeq	r9, r0, r7, lsr #22
    3948:	00147500 	andseq	r7, r4, r0, lsl #10
    394c:	00147100 	andseq	r7, r4, r0, lsl #2
    3950:	31730c00 	cmncc	r3, r0, lsl #24
    3954:	0b050100 	bleq	143d5c <__bss_end__+0x139d5c>
    3958:	00000134 	andeq	r0, r0, r4, lsr r1
    395c:	000014a0 	andeq	r1, r0, r0, lsr #9
    3960:	00001496 	muleq	r0, r6, r4
    3964:	0032730c 	eorseq	r7, r2, ip, lsl #6
    3968:	9b110601 	blls	445174 <__bss_end__+0x43b174>
    396c:	e5000000 	str	r0, [r0, #-0]
    3970:	e1000014 	tst	r0, r4, lsl r0
    3974:	0c000014 	stceq	0, cr0, [r0], {20}
    3978:	07010063 	streq	r0, [r1, -r3, rrx]
    397c:	0000a10a 	andeq	sl, r0, sl, lsl #2
    3980:	00150900 	andseq	r0, r5, r0, lsl #18
    3984:	00150500 	andseq	r0, r5, r0, lsl #10
    3988:	04070000 	streq	r0, [r7], #-0
    398c:	000000a1 	andeq	r0, r0, r1, lsr #1
    3990:	0000f700 	andeq	pc, r0, r0, lsl #14
    3994:	5d000400 	cfstrspl	mvf0, [r0, #-0]
    3998:	04000013 	streq	r0, [r0], #-19	; 0xffffffed
    399c:	0005e701 	andeq	lr, r5, r1, lsl #14
    39a0:	0b4f0c00 	bleq	13c69a8 <__bss_end__+0x13bc9a8>
    39a4:	05a10000 	streq	r0, [r1, #0]!
    39a8:	95400000 	strbls	r0, [r0, #-0]
    39ac:	002c0000 	eoreq	r0, ip, r0
    39b0:	180f0000 	stmdane	pc, {}	; <UNPREDICTABLE>
    39b4:	04020000 	streq	r0, [r2], #-0
    39b8:	746e6905 	strbtvc	r6, [lr], #-2309	; 0xfffff6fb
    39bc:	07040300 	streq	r0, [r4, -r0, lsl #6]
    39c0:	00000196 	muleq	r0, r6, r1
    39c4:	6d060103 	stfvss	f0, [r6, #-12]
    39c8:	03000001 	movweq	r0, #1
    39cc:	00430502 	subeq	r0, r3, r2, lsl #10
    39d0:	04030000 	streq	r0, [r3], #-0
    39d4:	00011405 	andeq	r1, r1, r5, lsl #8
    39d8:	05080300 	streq	r0, [r8, #-768]	; 0xfffffd00
    39dc:	0000010f 	andeq	r0, r0, pc, lsl #2
    39e0:	6b080103 	blvs	203df4 <__bss_end__+0x1f9df4>
    39e4:	03000001 	movweq	r0, #1
    39e8:	01ab0702 			; <UNDEFINED> instruction: 0x01ab0702
    39ec:	04030000 	streq	r0, [r3], #-0
    39f0:	00019107 	andeq	r9, r1, r7, lsl #2
    39f4:	07080300 	streq	r0, [r8, -r0, lsl #6]
    39f8:	0000018c 	andeq	r0, r0, ip, lsl #3
    39fc:	00002504 	andeq	r2, r0, r4, lsl #10
    3a00:	00007a00 	andeq	r7, r0, r0, lsl #20
    3a04:	00250500 	eoreq	r0, r5, r0, lsl #10
    3a08:	06000000 	streq	r0, [r0], -r0
    3a0c:	00000092 	muleq	r0, r2, r0
    3a10:	860e1c02 	strhi	r1, [lr], -r2, lsl #24
    3a14:	07000000 	streq	r0, [r0, -r0]
    3a18:	00006b04 	andeq	r6, r0, r4, lsl #22
    3a1c:	00250400 	eoreq	r0, r5, r0, lsl #8
    3a20:	009b0000 	addseq	r0, fp, r0
    3a24:	9b050000 	blls	143a2c <__bss_end__+0x139a2c>
    3a28:	00000000 	andeq	r0, r0, r0
    3a2c:	00a80407 	adceq	r0, r8, r7, lsl #8
    3a30:	01030000 	mrseq	r0, (UNDEF: 3)
    3a34:	00017408 	andeq	r7, r1, r8, lsl #8
    3a38:	00a10800 	adceq	r0, r1, r0, lsl #16
    3a3c:	28060000 	stmdacs	r6, {}	; <UNPREDICTABLE>
    3a40:	02000007 	andeq	r0, r0, #7, 0
    3a44:	00b90e21 	adcseq	r0, r9, r1, lsr #28
    3a48:	04070000 	streq	r0, [r7], #-0
    3a4c:	0000008c 	andeq	r0, r0, ip, lsl #1
    3a50:	0007d609 	andeq	sp, r7, r9, lsl #12
    3a54:	05030100 	streq	r0, [r3, #-256]	; 0xffffff00
    3a58:	00000025 	andeq	r0, r0, r5, lsr #32
    3a5c:	00009540 	andeq	r9, r0, r0, asr #10
    3a60:	0000002c 	andeq	r0, r0, ip, lsr #32
    3a64:	610a9c01 	tstvs	sl, r1, lsl #24
    3a68:	18030100 	stmdane	r3, {r8}
    3a6c:	0000009b 	muleq	r0, fp, r0
    3a70:	0000152b 	andeq	r1, r0, fp, lsr #10
    3a74:	00001527 	andeq	r1, r0, r7, lsr #10
    3a78:	0100620a 	tsteq	r0, sl, lsl #4
    3a7c:	009b2703 	addseq	r2, fp, r3, lsl #14
    3a80:	154d0000 	strbne	r0, [sp, #-0]
    3a84:	15490000 	strbne	r0, [r9, #-0]
    3a88:	00000000 	andeq	r0, r0, r0
    3a8c:	0000010f 	andeq	r0, r0, pc, lsl #2
    3a90:	13ec0004 	mvnne	r0, #4, 0
    3a94:	01040000 	mrseq	r0, (UNDEF: 4)
    3a98:	000005e7 	andeq	r0, r0, r7, ror #11
    3a9c:	000b5f0c 	andeq	r5, fp, ip, lsl #30
    3aa0:	0005a100 	andeq	sl, r5, r0, lsl #2
    3aa4:	00956c00 	addseq	r6, r5, r0, lsl #24
    3aa8:	00002000 	andeq	r2, r0, r0
    3aac:	0018b500 	andseq	fp, r8, r0, lsl #10
    3ab0:	05040200 	streq	r0, [r4, #-512]	; 0xfffffe00
    3ab4:	00746e69 	rsbseq	r6, r4, r9, ror #28
    3ab8:	96070403 	strls	r0, [r7], -r3, lsl #8
    3abc:	03000001 	movweq	r0, #1
    3ac0:	016d0601 	cmneq	sp, r1, lsl #12
    3ac4:	02030000 	andeq	r0, r3, #0, 0
    3ac8:	00004305 	andeq	r4, r0, r5, lsl #6
    3acc:	05040300 	streq	r0, [r4, #-768]	; 0xfffffd00
    3ad0:	00000114 	andeq	r0, r0, r4, lsl r1
    3ad4:	0f050803 	svceq	0x00050803
    3ad8:	03000001 	movweq	r0, #1
    3adc:	016b0801 	cmneq	fp, r1, lsl #16
    3ae0:	02030000 	andeq	r0, r3, #0, 0
    3ae4:	0001ab07 	andeq	sl, r1, r7, lsl #22
    3ae8:	07040300 	streq	r0, [r4, -r0, lsl #6]
    3aec:	00000191 	muleq	r0, r1, r1
    3af0:	8c070803 	stchi	8, cr0, [r7], {3}
    3af4:	04000001 	streq	r0, [r0], #-1
    3af8:	00000025 	andeq	r0, r0, r5, lsr #32
    3afc:	0000007a 	andeq	r0, r0, sl, ror r0
    3b00:	00002505 	andeq	r2, r0, r5, lsl #10
    3b04:	92060000 	andls	r0, r6, #0, 0
    3b08:	02000000 	andeq	r0, r0, #0, 0
    3b0c:	00860e1c 	addeq	r0, r6, ip, lsl lr
    3b10:	04070000 	streq	r0, [r7], #-0
    3b14:	0000006b 	andeq	r0, r0, fp, rrx
    3b18:	00002504 	andeq	r2, r0, r4, lsl #10
    3b1c:	00009b00 	andeq	r9, r0, r0, lsl #22
    3b20:	009b0500 	addseq	r0, fp, r0, lsl #10
    3b24:	07000000 	streq	r0, [r0, -r0]
    3b28:	0000a804 	andeq	sl, r0, r4, lsl #16
    3b2c:	08010300 	stmdaeq	r1, {r8, r9}
    3b30:	00000174 	andeq	r0, r0, r4, ror r1
    3b34:	0000a108 	andeq	sl, r0, r8, lsl #2
    3b38:	07280600 	streq	r0, [r8, -r0, lsl #12]!
    3b3c:	21020000 	mrscs	r0, (UNDEF: 2)
    3b40:	0000b90e 	andeq	fp, r0, lr, lsl #18
    3b44:	8c040700 	stchi	7, cr0, [r4], {-0}
    3b48:	09000000 	stmdbeq	r0, {}	; <UNPREDICTABLE>
    3b4c:	000007b4 			; <UNDEFINED> instruction: 0x000007b4
    3b50:	0c070301 	stceq	3, cr0, [r7], {1}
    3b54:	6c000001 	stcvs	0, cr0, [r0], {1}
    3b58:	20000095 	mulcs	r0, r5, r0
    3b5c:	01000000 	mrseq	r0, (UNDEF: 0)
    3b60:	00010c9c 	muleq	r1, ip, ip
    3b64:	31730a00 	cmncc	r3, r0, lsl #20
    3b68:	15030100 	strne	r0, [r3, #-256]	; 0xffffff00
    3b6c:	0000010c 	andeq	r0, r0, ip, lsl #2
    3b70:	730b5001 	movwvc	r5, #45057	; 0xb001
    3b74:	03010032 	movweq	r0, #4146	; 0x1032
    3b78:	00009b26 	andeq	r9, r0, r6, lsr #22
    3b7c:	00157100 	andseq	r7, r5, r0, lsl #2
    3b80:	00156b00 	andseq	r6, r5, r0, lsl #22
    3b84:	00730c00 	rsbseq	r0, r3, r0, lsl #24
    3b88:	0c140401 	cfldrseq	mvf0, [r4], {1}
    3b8c:	a2000001 	andge	r0, r0, #1, 0
    3b90:	9c000015 	stcls	0, cr0, [r0], {21}
    3b94:	00000015 	andeq	r0, r0, r5, lsl r0
    3b98:	00a10407 	adceq	r0, r1, r7, lsl #8
    3b9c:	4e000000 	cdpmi	0, 0, cr0, cr0, cr0, {0}
    3ba0:	04000001 	streq	r0, [r0], #-1
    3ba4:	0014a200 	andseq	sl, r4, r0, lsl #4
    3ba8:	e7010400 	str	r0, [r1, -r0, lsl #8]
    3bac:	0c000005 	stceq	0, cr0, [r0], {5}
    3bb0:	00000b76 	andeq	r0, r0, r6, ror fp
    3bb4:	000005a1 	andeq	r0, r0, r1, lsr #11
    3bb8:	00000128 	andeq	r0, r0, r8, lsr #2
    3bbc:	00000000 	andeq	r0, r0, r0
    3bc0:	00001959 	andeq	r1, r0, r9, asr r9
    3bc4:	69050402 	stmdbvs	r5, {r1, sl}
    3bc8:	0300746e 	movweq	r7, #1134	; 0x46e
    3bcc:	00000b6f 	andeq	r0, r0, pc, ror #22
    3bd0:	3817d103 	ldmdacc	r7, {r0, r1, r8, ip, lr, pc}
    3bd4:	04000000 	streq	r0, [r0], #-0
    3bd8:	01960704 	orrseq	r0, r6, r4, lsl #14
    3bdc:	01040000 	mrseq	r0, (UNDEF: 4)
    3be0:	00016d06 	andeq	r6, r1, r6, lsl #26
    3be4:	05020400 	streq	r0, [r2, #-1024]	; 0xfffffc00
    3be8:	00000043 	andeq	r0, r0, r3, asr #32
    3bec:	14050404 	strne	r0, [r5], #-1028	; 0xfffffbfc
    3bf0:	04000001 	streq	r0, [r0], #-1
    3bf4:	010f0508 	tsteq	pc, r8, lsl #10
    3bf8:	01040000 	mrseq	r0, (UNDEF: 4)
    3bfc:	00016b08 	andeq	r6, r1, r8, lsl #22
    3c00:	005b0500 	subseq	r0, fp, r0, lsl #10
    3c04:	02040000 	andeq	r0, r4, #0, 0
    3c08:	0001ab07 	andeq	sl, r1, r7, lsl #22
    3c0c:	07040400 	streq	r0, [r4, -r0, lsl #8]
    3c10:	00000191 	muleq	r0, r1, r1
    3c14:	8c070804 	stchi	8, cr0, [r7], {4}
    3c18:	06000001 	streq	r0, [r0], -r1
    3c1c:	00000025 	andeq	r0, r0, r5, lsr #32
    3c20:	0000008b 	andeq	r0, r0, fp, lsl #1
    3c24:	00002507 	andeq	r2, r0, r7, lsl #10
    3c28:	92080000 	andls	r0, r8, #0, 0
    3c2c:	02000000 	andeq	r0, r0, #0, 0
    3c30:	00970e1c 	addseq	r0, r7, ip, lsl lr
    3c34:	04090000 	streq	r0, [r9], #-0
    3c38:	0000007c 	andeq	r0, r0, ip, ror r0
    3c3c:	00002506 	andeq	r2, r0, r6, lsl #10
    3c40:	0000ac00 	andeq	sl, r0, r0, lsl #24
    3c44:	00ac0700 	adceq	r0, ip, r0, lsl #14
    3c48:	09000000 	stmdbeq	r0, {}	; <UNPREDICTABLE>
    3c4c:	0000b904 	andeq	fp, r0, r4, lsl #18
    3c50:	08010400 	stmdaeq	r1, {sl}
    3c54:	00000174 	andeq	r0, r0, r4, ror r1
    3c58:	0000b205 	andeq	fp, r0, r5, lsl #4
    3c5c:	07280800 	streq	r0, [r8, -r0, lsl #16]!
    3c60:	21020000 	mrscs	r0, (UNDEF: 2)
    3c64:	0000ca0e 	andeq	ip, r0, lr, lsl #20
    3c68:	9d040900 	vstrls.16	s0, [r4, #-0]	; <UNPREDICTABLE>
    3c6c:	0a000000 	beq	3c74 <__code_start__-0x438c>
    3c70:	000007fe 	strdeq	r0, [r0], -lr
    3c74:	25050401 	strcs	r0, [r5, #-1025]	; 0xfffffbff
    3c78:	8c000000 	stchi	0, cr0, [r0], {-0}
    3c7c:	2c000095 	stccs	0, cr0, [r0], {149}	; 0x95
    3c80:	01000000 	mrseq	r0, (UNDEF: 0)
    3c84:	00014b9c 	muleq	r1, ip, fp
    3c88:	735f0b00 	cmpvc	pc, #0, 22
    3c8c:	04010031 	streq	r0, [r1], #-49	; 0xffffffcf
    3c90:	0000ac19 	andeq	sl, r0, r9, lsl ip
    3c94:	0015d100 	andseq	sp, r5, r0, lsl #2
    3c98:	0015cd00 	andseq	ip, r5, r0, lsl #26
    3c9c:	735f0b00 	cmpvc	pc, #0, 22
    3ca0:	04010032 	streq	r0, [r1], #-50	; 0xffffffce
    3ca4:	0000ac2a 	andeq	sl, r0, sl, lsr #24
    3ca8:	0015f600 	andseq	pc, r5, r0, lsl #12
    3cac:	0015f200 	andseq	pc, r5, r0, lsl #4
    3cb0:	006e0b00 	rsbeq	r0, lr, r0, lsl #22
    3cb4:	2c360401 	cfldrscs	mvf0, [r6], #-4
    3cb8:	1d000000 	stcne	0, cr0, [r0, #-0]
    3cbc:	17000016 	smladne	r0, r6, r0, r0
    3cc0:	0c000016 	stceq	0, cr0, [r0], {22}
    3cc4:	01003173 	tsteq	r0, r3, ror r1
    3cc8:	014b1a05 	cmpeq	fp, r5, lsl #20
    3ccc:	16500000 	ldrbne	r0, [r0], -r0
    3cd0:	16480000 	strbne	r0, [r8], -r0
    3cd4:	730c0000 	movwvc	r0, #49152	; 0xc000
    3cd8:	05010032 	streq	r0, [r1, #-50]	; 0xffffffce
    3cdc:	00014b2c 	andeq	r4, r1, ip, lsr #22
    3ce0:	00168c00 	andseq	r8, r6, r0, lsl #24
    3ce4:	00168600 	andseq	r8, r6, r0, lsl #12
    3ce8:	04090000 	streq	r0, [r9], #-0
    3cec:	00000062 	andeq	r0, r0, r2, rrx
	...

Disassembly of section .debug_abbrev:

00000000 <.debug_abbrev>:
       0:	25011101 	strcs	r1, [r1, #-257]	; 0xfffffeff
       4:	030b130e 	movweq	r1, #45838	; 0xb30e
       8:	110e1b0e 	tstne	lr, lr, lsl #22
       c:	10061201 	andne	r1, r6, r1, lsl #4
      10:	02000017 	andeq	r0, r0, #23, 0
      14:	0b0b0024 	bleq	2c00ac <__bss_end__+0x2b60ac>
      18:	08030b3e 	stmdaeq	r3, {r1, r2, r3, r4, r5, r8, r9, fp}
      1c:	24030000 	strcs	r0, [r3], #-0
      20:	3e0b0b00 	vmlacc.f64	d0, d11, d0
      24:	000e030b 	andeq	r0, lr, fp, lsl #6
      28:	00350400 	eorseq	r0, r5, r0, lsl #8
      2c:	00001349 	andeq	r1, r0, r9, asr #6
      30:	27011505 	strcs	r1, [r1, -r5, lsl #10]
      34:	01134919 	tsteq	r3, r9, lsl r9
      38:	06000013 			; <UNDEFINED> instruction: 0x06000013
      3c:	13490005 	movtne	r0, #36869	; 0x9005
      40:	34070000 	strcc	r0, [r7], #-0
      44:	3a0e0300 	bcc	380c4c <__bss_end__+0x376c4c>
      48:	390b3b0b 	stmdbcc	fp, {r0, r1, r3, r8, r9, fp, ip, sp}
      4c:	3f13490b 	svccc	0x0013490b
      50:	00193c19 	andseq	r3, r9, r9, lsl ip
      54:	000f0800 	andeq	r0, pc, r0, lsl #16
      58:	13490b0b 	movtne	r0, #39691	; 0x9b0b
      5c:	26090000 	strcs	r0, [r9], -r0
      60:	00134900 	andseq	r4, r3, r0, lsl #18
      64:	01040a00 	tsteq	r4, r0, lsl #20
      68:	0b0b0b3e 	bleq	2c2d68 <__bss_end__+0x2b8d68>
      6c:	0b3a1349 	bleq	e84d98 <__bss_end__+0xe7ad98>
      70:	0b390b3b 	bleq	e42d64 <__bss_end__+0xe38d64>
      74:	00001301 	andeq	r1, r0, r1, lsl #6
      78:	0300280b 	movweq	r2, #2059	; 0x80b
      7c:	00061c0e 	andeq	r1, r6, lr, lsl #24
      80:	00340c00 	eorseq	r0, r4, r0, lsl #24
      84:	0b3a0e03 	bleq	e83898 <__bss_end__+0xe79898>
      88:	0b390b3b 	bleq	e42d7c <__bss_end__+0xe38d7c>
      8c:	193f1349 	ldmdbne	pc!, {r0, r3, r6, r8, r9, ip}	; <UNPREDICTABLE>
      90:	00001802 	andeq	r1, r0, r2, lsl #16
      94:	0300340d 	movweq	r3, #1037	; 0x40d
      98:	3b0b3a08 	blcc	2ce8c0 <__bss_end__+0x2c48c0>
      9c:	490b390b 	stmdbmi	fp, {r0, r1, r3, r8, fp, ip, sp}
      a0:	00180213 	andseq	r0, r8, r3, lsl r2
      a4:	00340e00 	eorseq	r0, r4, r0, lsl #28
      a8:	0b3a0e03 	bleq	e838bc <__bss_end__+0xe798bc>
      ac:	0b390b3b 	bleq	e42da0 <__bss_end__+0xe38da0>
      b0:	18021349 	stmdane	r2, {r0, r3, r6, r8, r9, ip}
      b4:	2e0f0000 	cdpcs	0, 0, cr0, cr15, cr0, {0}
      b8:	03193f01 	tsteq	r9, #1, 30
      bc:	3b0b3a0e 	blcc	2ce8fc <__bss_end__+0x2c48fc>
      c0:	270b390b 	strcs	r3, [fp, -fp, lsl #18]
      c4:	12011119 	andne	r1, r1, #1073741830	; 0x40000006
      c8:	97184006 	ldrls	r4, [r8, -r6]
      cc:	13011942 	movwne	r1, #6466	; 0x1942
      d0:	34100000 	ldrcc	r0, [r0], #-0
      d4:	3a0e0300 	bcc	380cdc <__bss_end__+0x376cdc>
      d8:	390b3b0b 	stmdbcc	fp, {r0, r1, r3, r8, r9, fp, ip, sp}
      dc:	0213490b 	andseq	r4, r3, #180224	; 0x2c000
      e0:	1742b717 	smlaldne	fp, r2, r7, r7
      e4:	1d110000 	ldcne	0, cr0, [r1, #-0]
      e8:	52133101 	andspl	r3, r3, #1073741824	; 0x40000000
      ec:	0b42b801 	bleq	10ae0f8 <__bss_end__+0x10a40f8>
      f0:	0b581755 	bleq	1605e4c <__bss_end__+0x15fbe4c>
      f4:	0b570b59 	bleq	15c2e60 <__bss_end__+0x15b8e60>
      f8:	00001301 	andeq	r1, r0, r1, lsl #6
      fc:	01828912 	orreq	r8, r2, r2, lsl r9
     100:	31011101 	tstcc	r1, r1, lsl #2
     104:	13000013 	movwne	r0, #19
     108:	0001828a 	andeq	r8, r1, sl, lsl #5
     10c:	42911802 	addsmi	r1, r1, #131072	; 0x20000
     110:	14000018 	strne	r0, [r0], #-24	; 0xffffffe8
     114:	13310005 	teqne	r1, #5, 0
     118:	42b71702 	adcsmi	r1, r7, #524288	; 0x80000
     11c:	15000017 	strne	r0, [r0, #-23]	; 0xffffffe9
     120:	1331010b 	teqne	r1, #-1073741822	; 0xc0000002
     124:	00001755 	andeq	r1, r0, r5, asr r7
     128:	31003416 	tstcc	r0, r6, lsl r4
     12c:	b7170213 			; <UNDEFINED> instruction: 0xb7170213
     130:	00001742 	andeq	r1, r0, r2, asr #14
     134:	01828917 	orreq	r8, r2, r7, lsl r9
     138:	31011101 	tstcc	r1, r1, lsl #2
     13c:	00130113 	andseq	r0, r3, r3, lsl r1
     140:	82891800 	addhi	r1, r9, #0, 16
     144:	01110001 	tsteq	r1, r1
     148:	00001331 	andeq	r1, r0, r1, lsr r3
     14c:	03000519 	movweq	r0, #1305	; 0x519
     150:	3b0b3a08 	blcc	2ce978 <__bss_end__+0x2c4978>
     154:	490b390b 	stmdbmi	fp, {r0, r1, r3, r8, fp, ip, sp}
     158:	b7170213 			; <UNDEFINED> instruction: 0xb7170213
     15c:	00001742 	andeq	r1, r0, r2, asr #14
     160:	0300341a 	movweq	r3, #1050	; 0x41a
     164:	3b0b3a08 	blcc	2ce98c <__bss_end__+0x2c498c>
     168:	490b390b 	stmdbmi	fp, {r0, r1, r3, r8, fp, ip, sp}
     16c:	b7170213 			; <UNDEFINED> instruction: 0xb7170213
     170:	00001742 	andeq	r1, r0, r2, asr #14
     174:	03012e1b 	movweq	r2, #7707	; 0x1e1b
     178:	3b0b3a0e 	blcc	2ce9b8 <__bss_end__+0x2c49b8>
     17c:	270b390b 	strcs	r3, [fp, -fp, lsl #18]
     180:	010b2019 	tsteq	fp, r9, lsl r0
     184:	1c000013 	stcne	0, cr0, [r0], {19}
     188:	0e030005 	cdpeq	0, 0, cr0, cr3, cr5, {0}
     18c:	0b3b0b3a 	bleq	ec2e7c <__bss_end__+0xeb8e7c>
     190:	13490b39 	movtne	r0, #39737	; 0x9b39
     194:	0b1d0000 	bleq	74019c <__bss_end__+0x73619c>
     198:	1e000001 	cdpne	0, 0, cr0, cr0, cr1, {0}
     19c:	08030034 	stmdaeq	r3, {r2, r4, r5}
     1a0:	0b3b0b3a 	bleq	ec2e90 <__bss_end__+0xeb8e90>
     1a4:	13490b39 	movtne	r0, #39737	; 0x9b39
     1a8:	051f0000 	ldreq	r0, [pc, #-0]	; 1b0 <__code_start__-0x7e50>
     1ac:	3a080300 	bcc	200db4 <__bss_end__+0x1f6db4>
     1b0:	390b3b0b 	stmdbcc	fp, {r0, r1, r3, r8, r9, fp, ip, sp}
     1b4:	0013490b 	andseq	r4, r3, fp, lsl #18
     1b8:	002e2000 	eoreq	r2, lr, r0
     1bc:	0b3a0e03 	bleq	e839d0 <__bss_end__+0xe799d0>
     1c0:	0b390b3b 	bleq	e42eb4 <__bss_end__+0xe38eb4>
     1c4:	13491927 	movtne	r1, #39207	; 0x9927
     1c8:	00000b20 	andeq	r0, r0, r0, lsr #22
     1cc:	3f002e21 	svccc	0x00002e21
     1d0:	6e193c19 	mrcvs	12, 0, r3, cr9, cr9, {0}
     1d4:	3a0e030e 	bcc	380e14 <__bss_end__+0x376e14>
     1d8:	390b3b0b 	stmdbcc	fp, {r0, r1, r3, r8, r9, fp, ip, sp}
     1dc:	0000000b 	andeq	r0, r0, fp
     1e0:	25011101 	strcs	r1, [r1, #-257]	; 0xfffffeff
     1e4:	030b130e 	movweq	r1, #45838	; 0xb30e
     1e8:	110e1b0e 	tstne	lr, lr, lsl #22
     1ec:	10061201 	andne	r1, r6, r1, lsl #4
     1f0:	02000017 	andeq	r0, r0, #23, 0
     1f4:	0b0b0024 	bleq	2c028c <__bss_end__+0x2b628c>
     1f8:	08030b3e 	stmdaeq	r3, {r1, r2, r3, r4, r5, r8, r9, fp}
     1fc:	24030000 	strcs	r0, [r3], #-0
     200:	3e0b0b00 	vmlacc.f64	d0, d11, d0
     204:	000e030b 	andeq	r0, lr, fp, lsl #6
     208:	01150400 	tsteq	r5, r0, lsl #8
     20c:	13491927 	movtne	r1, #39207	; 0x9927
     210:	00001301 	andeq	r1, r0, r1, lsl #6
     214:	49000505 	stmdbmi	r0, {r0, r2, r8, sl}
     218:	06000013 			; <UNDEFINED> instruction: 0x06000013
     21c:	0e030034 	mcreq	0, 0, r0, cr3, cr4, {1}
     220:	0b3b0b3a 	bleq	ec2f10 <__bss_end__+0xeb8f10>
     224:	13490b39 	movtne	r0, #39737	; 0x9b39
     228:	193c193f 	ldmdbne	ip!, {r0, r1, r2, r3, r4, r5, r8, fp, ip}
     22c:	0f070000 	svceq	0x00070000
     230:	490b0b00 	stmdbmi	fp, {r8, r9, fp}
     234:	08000013 	stmdaeq	r0, {r0, r1, r4}
     238:	13490026 	movtne	r0, #36902	; 0x9026
     23c:	04090000 	streq	r0, [r9], #-0
     240:	0b0b3e01 	bleq	2cfa4c <__bss_end__+0x2c5a4c>
     244:	3a13490b 	bcc	4d2678 <__bss_end__+0x4c8678>
     248:	390b3b0b 	stmdbcc	fp, {r0, r1, r3, r8, r9, fp, ip, sp}
     24c:	0013010b 	andseq	r0, r3, fp, lsl #2
     250:	00280a00 	eoreq	r0, r8, r0, lsl #20
     254:	061c0e03 	ldreq	r0, [ip], -r3, lsl #28
     258:	2e0b0000 	cdpcs	0, 0, cr0, cr11, cr0, {0}
     25c:	03193f01 	tsteq	r9, #1, 30
     260:	3b0b3a0e 	blcc	2ceaa0 <__bss_end__+0x2c4aa0>
     264:	270b390b 	strcs	r3, [fp, -fp, lsl #18]
     268:	12011119 	andne	r1, r1, #1073741830	; 0x40000006
     26c:	97184006 	ldrls	r4, [r8, -r6]
     270:	13011942 	movwne	r1, #6466	; 0x1942
     274:	050c0000 	streq	r0, [ip, #-0]
     278:	3a080300 	bcc	200e80 <__bss_end__+0x1f6e80>
     27c:	390b3b0b 	stmdbcc	fp, {r0, r1, r3, r8, r9, fp, ip, sp}
     280:	0213490b 	andseq	r4, r3, #180224	; 0x2c000
     284:	1742b717 	smlaldne	fp, r2, r7, r7
     288:	340d0000 	strcc	r0, [sp], #-0
     28c:	490e0300 	stmdbmi	lr, {r8, r9}
     290:	02193413 	andseq	r3, r9, #318767104	; 0x13000000
     294:	0e000018 	mcreq	0, 0, r0, cr0, cr8, {0}
     298:	01018289 	smlabbeq	r1, r9, r2, r8
     29c:	13310111 	teqne	r1, #1073741828	; 0x40000004
     2a0:	00001301 	andeq	r1, r0, r1, lsl #6
     2a4:	01828a0f 	orreq	r8, r2, pc, lsl #20
     2a8:	91180200 	tstls	r8, r0, lsl #4
     2ac:	00001842 	andeq	r1, r0, r2, asr #16
     2b0:	01828910 	orreq	r8, r2, r0, lsl r9
     2b4:	31011100 	mrscc	r1, (UNDEF: 17)
     2b8:	11000013 	tstne	r0, r3, lsl r0
     2bc:	13490101 	movtne	r0, #37121	; 0x9101
     2c0:	00001301 	andeq	r1, r0, r1, lsl #6
     2c4:	49002112 	stmdbmi	r0, {r1, r4, r8, sp}
     2c8:	000b2f13 	andeq	r2, fp, r3, lsl pc
     2cc:	00341300 	eorseq	r1, r4, r0, lsl #6
     2d0:	0b3a0803 	bleq	e822e4 <__bss_end__+0xe782e4>
     2d4:	0b390b3b 	bleq	e42fc8 <__bss_end__+0xe38fc8>
     2d8:	0b1c1349 	bleq	705004 <__bss_end__+0x6fb004>
     2dc:	34140000 	ldrcc	r0, [r4], #-0
     2e0:	3a080300 	bcc	200ee8 <__bss_end__+0x1f6ee8>
     2e4:	390b3b0b 	stmdbcc	fp, {r0, r1, r3, r8, r9, fp, ip, sp}
     2e8:	0013490b 	andseq	r4, r3, fp, lsl #18
     2ec:	00341500 	eorseq	r1, r4, r0, lsl #10
     2f0:	0b3a0803 	bleq	e82304 <__bss_end__+0xe78304>
     2f4:	0b390b3b 	bleq	e42fe8 <__bss_end__+0xe38fe8>
     2f8:	17021349 	strne	r1, [r2, -r9, asr #6]
     2fc:	001742b7 			; <UNDEFINED> instruction: 0x001742b7
     300:	010b1600 	tsteq	fp, r0, lsl #12
     304:	06120111 			; <UNDEFINED> instruction: 0x06120111
     308:	00001301 	andeq	r1, r0, r1, lsl #6
     30c:	3f002e17 	svccc	0x00002e17
     310:	6e193c19 	mrcvs	12, 0, r3, cr9, cr9, {0}
     314:	3a0e030e 	bcc	380f54 <__bss_end__+0x376f54>
     318:	390b3b0b 	stmdbcc	fp, {r0, r1, r3, r8, r9, fp, ip, sp}
     31c:	0000000b 	andeq	r0, r0, fp
     320:	25011101 	strcs	r1, [r1, #-257]	; 0xfffffeff
     324:	030b130e 	movweq	r1, #45838	; 0xb30e
     328:	550e1b0e 	strpl	r1, [lr, #-2830]	; 0xfffff4f2
     32c:	10011117 	andne	r1, r1, r7, lsl r1
     330:	02000017 	andeq	r0, r0, #23, 0
     334:	0b0b0024 	bleq	2c03cc <__bss_end__+0x2b63cc>
     338:	08030b3e 	stmdaeq	r3, {r1, r2, r3, r4, r5, r8, r9, fp}
     33c:	24030000 	strcs	r0, [r3], #-0
     340:	3e0b0b00 	vmlacc.f64	d0, d11, d0
     344:	000e030b 	andeq	r0, lr, fp, lsl #6
     348:	00160400 	andseq	r0, r6, r0, lsl #8
     34c:	0b3a0e03 	bleq	e83b60 <__bss_end__+0xe79b60>
     350:	0b390b3b 	bleq	e43044 <__bss_end__+0xe39044>
     354:	00001349 	andeq	r1, r0, r9, asr #6
     358:	27011505 	strcs	r1, [r1, -r5, lsl #10]
     35c:	01134919 	tsteq	r3, r9, lsl r9
     360:	06000013 			; <UNDEFINED> instruction: 0x06000013
     364:	13490005 	movtne	r0, #36869	; 0x9005
     368:	34070000 	strcc	r0, [r7], #-0
     36c:	3a0e0300 	bcc	380f74 <__bss_end__+0x376f74>
     370:	390b3b0b 	stmdbcc	fp, {r0, r1, r3, r8, r9, fp, ip, sp}
     374:	3f13490b 	svccc	0x0013490b
     378:	00193c19 	andseq	r3, r9, r9, lsl ip
     37c:	000f0800 	andeq	r0, pc, r0, lsl #16
     380:	13490b0b 	movtne	r0, #39691	; 0x9b0b
     384:	26090000 	strcs	r0, [r9], -r0
     388:	00134900 	andseq	r4, r3, r0, lsl #18
     38c:	01130a00 	tsteq	r3, r0, lsl #20
     390:	0b3a0b0b 	bleq	e82fc4 <__bss_end__+0xe78fc4>
     394:	0b390b3b 	bleq	e43088 <__bss_end__+0xe39088>
     398:	00001301 	andeq	r1, r0, r1, lsl #6
     39c:	03000d0b 	movweq	r0, #3339	; 0xd0b
     3a0:	3b0b3a0e 	blcc	2cebe0 <__bss_end__+0x2c4be0>
     3a4:	490b390b 	stmdbmi	fp, {r0, r1, r3, r8, fp, ip, sp}
     3a8:	0d0b0b13 	vstreq	d0, [fp, #-76]	; 0xffffffb4
     3ac:	380b0c0b 	stmdacc	fp, {r0, r1, r3, sl, fp}
     3b0:	0c00000b 	stceq	0, cr0, [r0], {11}
     3b4:	0b3e0104 	bleq	f807cc <__bss_end__+0xf767cc>
     3b8:	13490b0b 	movtne	r0, #39691	; 0x9b0b
     3bc:	0b3b0b3a 	bleq	ec30ac <__bss_end__+0xeb90ac>
     3c0:	13010b39 	movwne	r0, #6969	; 0x1b39
     3c4:	280d0000 	stmdacs	sp, {}	; <UNPREDICTABLE>
     3c8:	1c0e0300 	stcne	3, cr0, [lr], {-0}
     3cc:	0e000006 	cdpeq	0, 0, cr0, cr0, cr6, {0}
     3d0:	0e03012e 	adfeqsp	f0, f3, #0.5
     3d4:	0b3b0b3a 	bleq	ec30c4 <__bss_end__+0xeb90c4>
     3d8:	19270b39 	stmdbne	r7!, {r0, r3, r4, r5, r8, r9, fp}
     3dc:	13010b20 	movwne	r0, #6944	; 0x1b20
     3e0:	340f0000 	strcc	r0, [pc], #-0	; 3e8 <__code_start__-0x7c18>
     3e4:	490e0300 	stmdbmi	lr, {r8, r9}
     3e8:	02193413 	andseq	r3, r9, #318767104	; 0x13000000
     3ec:	10000018 	andne	r0, r0, r8, lsl r0
     3f0:	1301010b 	movwne	r0, #4363	; 0x110b
     3f4:	17110000 	ldrne	r0, [r1, -r0]
     3f8:	0b080301 	bleq	201004 <__bss_end__+0x1f7004>
     3fc:	3b0b3a0b 	blcc	2cec30 <__bss_end__+0x2c4c30>
     400:	010b390b 	tsteq	fp, fp, lsl #18
     404:	12000013 	andne	r0, r0, #19, 0
     408:	0803000d 	stmdaeq	r3, {r0, r2, r3}
     40c:	0b3b0b3a 	bleq	ec30fc <__bss_end__+0xeb90fc>
     410:	13490b39 	movtne	r0, #39737	; 0x9b39
     414:	34130000 	ldrcc	r0, [r3], #-0
     418:	3a080300 	bcc	201020 <__bss_end__+0x1f7020>
     41c:	390b3b0b 	stmdbcc	fp, {r0, r1, r3, r8, r9, fp, ip, sp}
     420:	0013490b 	andseq	r4, r3, fp, lsl #18
     424:	00341400 	eorseq	r1, r4, r0, lsl #8
     428:	0b3a0e03 	bleq	e83c3c <__bss_end__+0xe79c3c>
     42c:	0b390b3b 	bleq	e43120 <__bss_end__+0xe39120>
     430:	00001349 	andeq	r1, r0, r9, asr #6
     434:	00010b15 	andeq	r0, r1, r5, lsl fp
     438:	01011600 	tsteq	r1, r0, lsl #12
     43c:	13011349 	movwne	r1, #4937	; 0x1349
     440:	21170000 	tstcs	r7, r0
     444:	2f134900 	svccs	0x00134900
     448:	1800000b 	stmdane	r0, {r0, r1, r3}
     44c:	193f012e 	ldmdbne	pc!, {r1, r2, r3, r5, r8}	; <UNPREDICTABLE>
     450:	0b3a0e03 	bleq	e83c64 <__bss_end__+0xe79c64>
     454:	0b390b3b 	bleq	e43148 <__bss_end__+0xe39148>
     458:	01111927 	tsteq	r1, r7, lsr #18
     45c:	18400612 	stmdane	r0, {r1, r4, r9, sl}^
     460:	01194297 			; <UNDEFINED> instruction: 0x01194297
     464:	19000013 	stmdbne	r0, {r0, r1, r4}
     468:	0e030005 	cdpeq	0, 0, cr0, cr3, cr5, {0}
     46c:	0b3b0b3a 	bleq	ec315c <__bss_end__+0xeb915c>
     470:	13490b39 	movtne	r0, #39737	; 0x9b39
     474:	42b71702 	adcsmi	r1, r7, #524288	; 0x80000
     478:	1a000017 	bne	4dc <__code_start__-0x7b24>
     47c:	1331011d 	teqne	r1, #1073741831	; 0x40000007
     480:	42b80152 	adcsmi	r0, r8, #-2147483628	; 0x80000014
     484:	5817550b 	ldmdapl	r7, {r0, r1, r3, r8, sl, ip, lr}
     488:	570b590b 	strpl	r5, [fp, -fp, lsl #18]
     48c:	0013010b 	andseq	r0, r3, fp, lsl #2
     490:	010b1b00 	tsteq	fp, r0, lsl #22
     494:	00001755 	andeq	r1, r0, r5, asr r7
     498:	31010b1c 	tstcc	r1, ip, lsl fp
     49c:	12011113 	andne	r1, r1, #-1073741820	; 0xc0000004
     4a0:	00130106 	andseq	r0, r3, r6, lsl #2
     4a4:	00341d00 	eorseq	r1, r4, r0, lsl #26
     4a8:	00001331 	andeq	r1, r0, r1, lsr r3
     4ac:	3100341e 	tstcc	r0, lr, lsl r4
     4b0:	000b1c13 	andeq	r1, fp, r3, lsl ip
     4b4:	00341f00 	eorseq	r1, r4, r0, lsl #30
     4b8:	17021331 	smladxne	r2, r1, r3, r1
     4bc:	001742b7 			; <UNDEFINED> instruction: 0x001742b7
     4c0:	00342000 	eorseq	r2, r4, r0
     4c4:	051c1331 	ldreq	r1, [ip, #-817]	; 0xfffffccf
     4c8:	89210000 	stmdbhi	r1!, {}	; <UNPREDICTABLE>
     4cc:	11010182 	smlabbne	r1, r2, r1, r0
     4d0:	00133101 	andseq	r3, r3, r1, lsl #2
     4d4:	828a2200 	addhi	r2, sl, #0, 4
     4d8:	18020001 	stmdane	r2, {r0}
     4dc:	00184291 	mulseq	r8, r1, r2
     4e0:	82892300 	addhi	r2, r9, #0, 6
     4e4:	01110101 	tsteq	r1, r1, lsl #2
     4e8:	13011331 	movwne	r1, #4913	; 0x1331
     4ec:	89240000 	stmdbhi	r4!, {}	; <UNPREDICTABLE>
     4f0:	11010182 	smlabbne	r1, r2, r1, r0
     4f4:	19429501 	stmdbne	r2, {r0, r8, sl, ip, pc}^
     4f8:	00001331 	andeq	r1, r0, r1, lsr r3
     4fc:	3f002e25 	svccc	0x00002e25
     500:	6e193c19 	mrcvs	12, 0, r3, cr9, cr9, {0}
     504:	3a0e030e 	bcc	381144 <__bss_end__+0x377144>
     508:	390b3b0b 	stmdbcc	fp, {r0, r1, r3, r8, r9, fp, ip, sp}
     50c:	0000000b 	andeq	r0, r0, fp
     510:	25011101 	strcs	r1, [r1, #-257]	; 0xfffffeff
     514:	030b130e 	movweq	r1, #45838	; 0xb30e
     518:	110e1b0e 	tstne	lr, lr, lsl #22
     51c:	10061201 	andne	r1, r6, r1, lsl #4
     520:	02000017 	andeq	r0, r0, #23, 0
     524:	0b0b0024 	bleq	2c05bc <__bss_end__+0x2b65bc>
     528:	08030b3e 	stmdaeq	r3, {r1, r2, r3, r4, r5, r8, r9, fp}
     52c:	24030000 	strcs	r0, [r3], #-0
     530:	3e0b0b00 	vmlacc.f64	d0, d11, d0
     534:	000e030b 	andeq	r0, lr, fp, lsl #6
     538:	01150400 	tsteq	r5, r0, lsl #8
     53c:	13491927 	movtne	r1, #39207	; 0x9927
     540:	00001301 	andeq	r1, r0, r1, lsl #6
     544:	49000505 	stmdbmi	r0, {r0, r2, r8, sl}
     548:	06000013 			; <UNDEFINED> instruction: 0x06000013
     54c:	0e030034 	mcreq	0, 0, r0, cr3, cr4, {1}
     550:	0b3b0b3a 	bleq	ec3240 <__bss_end__+0xeb9240>
     554:	13490b39 	movtne	r0, #39737	; 0x9b39
     558:	193c193f 	ldmdbne	ip!, {r0, r1, r2, r3, r4, r5, r8, fp, ip}
     55c:	0f070000 	svceq	0x00070000
     560:	490b0b00 	stmdbmi	fp, {r8, r9, fp}
     564:	08000013 	stmdaeq	r0, {r0, r1, r4}
     568:	13490026 	movtne	r0, #36902	; 0x9026
     56c:	34090000 	strcc	r0, [r9], #-0
     570:	3a0e0300 	bcc	381178 <__bss_end__+0x377178>
     574:	390b3b0b 	stmdbcc	fp, {r0, r1, r3, r8, r9, fp, ip, sp}
     578:	0213490b 	andseq	r4, r3, #180224	; 0x2c000
     57c:	0a000018 	beq	5e4 <__code_start__-0x7a1c>
     580:	0e030034 	mcreq	0, 0, r0, cr3, cr4, {1}
     584:	0b3b0b3a 	bleq	ec3274 <__bss_end__+0xeb9274>
     588:	13490b39 	movtne	r0, #39737	; 0x9b39
     58c:	1802193f 	stmdane	r2, {r0, r1, r2, r3, r4, r5, r8, fp, ip}
     590:	0f0b0000 	svceq	0x000b0000
     594:	000b0b00 	andeq	r0, fp, r0, lsl #22
     598:	012e0c00 			; <UNDEFINED> instruction: 0x012e0c00
     59c:	0e03193f 			; <UNDEFINED> instruction: 0x0e03193f
     5a0:	0b3b0b3a 	bleq	ec3290 <__bss_end__+0xeb9290>
     5a4:	19270b39 	stmdbne	r7!, {r0, r3, r4, r5, r8, r9, fp}
     5a8:	01111349 	tsteq	r1, r9, asr #6
     5ac:	18400612 	stmdane	r0, {r1, r4, r9, sl}^
     5b0:	01194297 			; <UNDEFINED> instruction: 0x01194297
     5b4:	0d000013 	stceq	0, cr0, [r0, #-76]	; 0xffffffb4
     5b8:	0e030034 	mcreq	0, 0, r0, cr3, cr4, {1}
     5bc:	19341349 	ldmdbne	r4!, {r0, r3, r6, r8, r9, ip}
     5c0:	00001802 	andeq	r1, r0, r2, lsl #16
     5c4:	0182890e 	orreq	r8, r2, lr, lsl #18
     5c8:	31011101 	tstcc	r1, r1, lsl #2
     5cc:	00130113 	andseq	r0, r3, r3, lsl r1
     5d0:	828a0f00 	addhi	r0, sl, #0, 30
     5d4:	18020001 	stmdane	r2, {r0}
     5d8:	00184291 	mulseq	r8, r1, r2
     5dc:	82891000 	addhi	r1, r9, #0, 0
     5e0:	01110001 	tsteq	r1, r1
     5e4:	00001331 	andeq	r1, r0, r1, lsr r3
     5e8:	49010111 	stmdbmi	r1, {r0, r4, r8}
     5ec:	00130113 	andseq	r0, r3, r3, lsl r1
     5f0:	00211200 	eoreq	r1, r1, r0, lsl #4
     5f4:	0b2f1349 	bleq	bc5320 <__bss_end__+0xbbb320>
     5f8:	2e130000 	cdpcs	0, 1, cr0, cr3, cr0, {0}
     5fc:	03193f01 	tsteq	r9, #1, 30
     600:	3b0b3a0e 	blcc	2cee40 <__bss_end__+0x2c4e40>
     604:	270b390b 	strcs	r3, [fp, -fp, lsl #18]
     608:	12011119 	andne	r1, r1, #1073741830	; 0x40000006
     60c:	97184006 	ldrls	r4, [r8, -r6]
     610:	13011942 	movwne	r1, #6466	; 0x1942
     614:	05140000 	ldreq	r0, [r4, #-0]
     618:	3a0e0300 	bcc	381220 <__bss_end__+0x377220>
     61c:	390b3b0b 	stmdbcc	fp, {r0, r1, r3, r8, r9, fp, ip, sp}
     620:	0213490b 	andseq	r4, r3, #180224	; 0x2c000
     624:	1742b717 	smlaldne	fp, r2, r7, r7
     628:	1d150000 	ldcne	0, cr0, [r5, #-0]
     62c:	52133101 	andspl	r3, r3, #1073741824	; 0x40000000
     630:	0b42b801 	bleq	10ae63c <__bss_end__+0x10a463c>
     634:	0b581755 	bleq	1606390 <__bss_end__+0x15fc390>
     638:	0b570b59 	bleq	15c33a4 <__bss_end__+0x15b93a4>
     63c:	00001301 	andeq	r1, r0, r1, lsl #6
     640:	31000516 	tstcc	r0, r6, lsl r5
     644:	b7170213 			; <UNDEFINED> instruction: 0xb7170213
     648:	00001742 	andeq	r1, r0, r2, asr #14
     64c:	55000b17 	strpl	r0, [r0, #-2839]	; 0xfffff4e9
     650:	18000017 	stmdane	r0, {r0, r1, r2, r4}
     654:	13310005 	teqne	r1, #5, 0
     658:	89190000 	ldmdbhi	r9, {}	; <UNPREDICTABLE>
     65c:	11010182 	smlabbne	r1, r2, r1, r0
     660:	00133101 	andseq	r3, r3, r1, lsl #2
     664:	011d1a00 	tsteq	sp, r0, lsl #20
     668:	01521331 	cmpeq	r2, r1, lsr r3
     66c:	110b42b8 			; <UNDEFINED> instruction: 0x110b42b8
     670:	58061201 	stmdapl	r6, {r0, r9, ip}
     674:	570b590b 	strpl	r5, [fp, -fp, lsl #18]
     678:	0013010b 	andseq	r0, r3, fp, lsl #2
     67c:	00341b00 	eorseq	r1, r4, r0, lsl #22
     680:	0b3a0803 	bleq	e82694 <__bss_end__+0xe78694>
     684:	0b390b3b 	bleq	e43378 <__bss_end__+0xe39378>
     688:	17021349 	strne	r1, [r2, -r9, asr #6]
     68c:	001742b7 			; <UNDEFINED> instruction: 0x001742b7
     690:	012e1c00 			; <UNDEFINED> instruction: 0x012e1c00
     694:	0b3a0e03 	bleq	e83ea8 <__bss_end__+0xe79ea8>
     698:	0b390b3b 	bleq	e4338c <__bss_end__+0xe3938c>
     69c:	13491927 	movtne	r1, #39207	; 0x9927
     6a0:	13010b20 	movwne	r0, #6944	; 0x1b20
     6a4:	051d0000 	ldreq	r0, [sp, #-0]
     6a8:	3a080300 	bcc	2012b0 <__bss_end__+0x1f72b0>
     6ac:	390b3b0b 	stmdbcc	fp, {r0, r1, r3, r8, r9, fp, ip, sp}
     6b0:	0013490b 	andseq	r4, r3, fp, lsl #18
     6b4:	00341e00 	eorseq	r1, r4, r0, lsl #28
     6b8:	13490e03 	movtne	r0, #40451	; 0x9e03
     6bc:	00001934 	andeq	r1, r0, r4, lsr r9
     6c0:	3f002e1f 	svccc	0x00002e1f
     6c4:	6e193c19 	mrcvs	12, 0, r3, cr9, cr9, {0}
     6c8:	3a0e030e 	bcc	381308 <__bss_end__+0x377308>
     6cc:	390b3b0b 	stmdbcc	fp, {r0, r1, r3, r8, r9, fp, ip, sp}
     6d0:	0000000b 	andeq	r0, r0, fp
     6d4:	25011101 	strcs	r1, [r1, #-257]	; 0xfffffeff
     6d8:	030b130e 	movweq	r1, #45838	; 0xb30e
     6dc:	110e1b0e 	tstne	lr, lr, lsl #22
     6e0:	10061201 	andne	r1, r6, r1, lsl #4
     6e4:	02000017 	andeq	r0, r0, #23, 0
     6e8:	0e030016 	mcreq	0, 0, r0, cr3, cr6, {0}
     6ec:	0b3b0b3a 	bleq	ec33dc <__bss_end__+0xeb93dc>
     6f0:	13490b39 	movtne	r0, #39737	; 0x9b39
     6f4:	13030000 	movwne	r0, #12288	; 0x3000
     6f8:	0b0e0301 	bleq	381304 <__bss_end__+0x377304>
     6fc:	3b0b3a0b 	blcc	2cef30 <__bss_end__+0x2c4f30>
     700:	0013010b 	andseq	r0, r3, fp, lsl #2
     704:	000d0400 	andeq	r0, sp, r0, lsl #8
     708:	13490e03 	movtne	r0, #40451	; 0x9e03
     70c:	19340b38 	ldmdbne	r4!, {r3, r4, r5, r8, r9, fp}
     710:	0f050000 	svceq	0x00050000
     714:	000b0b00 	andeq	r0, fp, r0, lsl #22
     718:	00240600 	eoreq	r0, r4, r0, lsl #12
     71c:	0b3e0b0b 	bleq	f83350 <__bss_end__+0xf79350>
     720:	00000803 	andeq	r0, r0, r3, lsl #16
     724:	0b002407 	bleq	9748 <__FUNCTION__.3989+0x8>
     728:	030b3e0b 	movweq	r3, #48651	; 0xbe0b
     72c:	0800000e 	stmdaeq	r0, {r1, r2, r3}
     730:	19270115 	stmdbne	r7!, {r0, r2, r4, r8}
     734:	13011349 	movwne	r1, #4937	; 0x1349
     738:	05090000 	streq	r0, [r9, #-0]
     73c:	00134900 	andseq	r4, r3, r0, lsl #18
     740:	00340a00 	eorseq	r0, r4, r0, lsl #20
     744:	0b3a0e03 	bleq	e83f58 <__bss_end__+0xe79f58>
     748:	0b390b3b 	bleq	e4343c <__bss_end__+0xe3943c>
     74c:	193f1349 	ldmdbne	pc!, {r0, r3, r6, r8, r9, ip}	; <UNPREDICTABLE>
     750:	0000193c 	andeq	r1, r0, ip, lsr r9
     754:	0b000f0b 	bleq	4388 <__code_start__-0x3c78>
     758:	0013490b 	andseq	r4, r3, fp, lsl #18
     75c:	00260c00 	eoreq	r0, r6, r0, lsl #24
     760:	00001349 	andeq	r1, r0, r9, asr #6
     764:	3f012e0d 	svccc	0x00012e0d
     768:	3a0e0319 	bcc	3813d4 <__bss_end__+0x3773d4>
     76c:	390b3b0b 	stmdbcc	fp, {r0, r1, r3, r8, r9, fp, ip, sp}
     770:	4919270b 	ldmdbmi	r9, {r0, r1, r3, r8, r9, sl, sp}
     774:	12011113 	andne	r1, r1, #-1073741820	; 0xc0000004
     778:	97184006 	ldrls	r4, [r8, -r6]
     77c:	13011942 	movwne	r1, #6466	; 0x1942
     780:	050e0000 	streq	r0, [lr, #-0]
     784:	3a080300 	bcc	20138c <__bss_end__+0x1f738c>
     788:	390b3b0b 	stmdbcc	fp, {r0, r1, r3, r8, r9, fp, ip, sp}
     78c:	0213490b 	andseq	r4, r3, #180224	; 0x2c000
     790:	0f000018 	svceq	0x00000018
     794:	00000018 	andeq	r0, r0, r8, lsl r0
     798:	03003410 	movweq	r3, #1040	; 0x410
     79c:	3b0b3a08 	blcc	2cefc4 <__bss_end__+0x2c4fc4>
     7a0:	490b390b 	stmdbmi	fp, {r0, r1, r3, r8, fp, ip, sp}
     7a4:	00180213 	andseq	r0, r8, r3, lsl r2
     7a8:	00341100 	eorseq	r1, r4, r0, lsl #2
     7ac:	0b3a0e03 	bleq	e83fc0 <__bss_end__+0xe79fc0>
     7b0:	0b390b3b 	bleq	e434a4 <__bss_end__+0xe394a4>
     7b4:	18021349 	stmdane	r2, {r0, r3, r6, r8, r9, ip}
     7b8:	34120000 	ldrcc	r0, [r2], #-0
     7bc:	3a080300 	bcc	2013c4 <__bss_end__+0x1f73c4>
     7c0:	390b3b0b 	stmdbcc	fp, {r0, r1, r3, r8, r9, fp, ip, sp}
     7c4:	0213490b 	andseq	r4, r3, #180224	; 0x2c000
     7c8:	1742b717 	smlaldne	fp, r2, r7, r7
     7cc:	89130000 	ldmdbhi	r3, {}	; <UNPREDICTABLE>
     7d0:	11010182 	smlabbne	r1, r2, r1, r0
     7d4:	01133101 	tsteq	r3, r1, lsl #2
     7d8:	14000013 	strne	r0, [r0], #-19	; 0xffffffed
     7dc:	0001828a 	andeq	r8, r1, sl, lsl #5
     7e0:	42911802 	addsmi	r1, r1, #131072	; 0x20000
     7e4:	15000018 	strne	r0, [r0, #-24]	; 0xffffffe8
     7e8:	01018289 	smlabbeq	r1, r9, r2, r8
     7ec:	00000111 	andeq	r0, r0, r1, lsl r1
     7f0:	49010116 	stmdbmi	r1, {r1, r2, r4, r8}
     7f4:	00130113 	andseq	r0, r3, r3, lsl r1
     7f8:	00211700 	eoreq	r1, r1, r0, lsl #14
     7fc:	052f1349 	streq	r1, [pc, #-841]!	; 4bb <__code_start__-0x7b45>
     800:	2e180000 	cdpcs	0, 1, cr0, cr8, cr0, {0}
     804:	3c193f00 	ldccc	15, cr3, [r9], {-0}
     808:	030e6e19 	movweq	r6, #60953	; 0xee19
     80c:	3b0b3a0e 	blcc	2cf04c <__bss_end__+0x2c504c>
     810:	000b390b 	andeq	r3, fp, fp, lsl #18
     814:	11010000 	mrsne	r0, (UNDEF: 1)
     818:	130e2501 	movwne	r2, #58625	; 0xe501
     81c:	1b0e030b 	blne	381450 <__bss_end__+0x377450>
     820:	1201110e 	andne	r1, r1, #-2147483645	; 0x80000003
     824:	00171006 	andseq	r1, r7, r6
     828:	00240200 	eoreq	r0, r4, r0, lsl #4
     82c:	0b3e0b0b 	bleq	f83460 <__bss_end__+0xf79460>
     830:	00000803 	andeq	r0, r0, r3, lsl #16
     834:	0b002403 	bleq	9848 <__FUNCTION__.4001+0xc0>
     838:	030b3e0b 	movweq	r3, #48651	; 0xbe0b
     83c:	0400000e 	streq	r0, [r0], #-14
     840:	19270115 	stmdbne	r7!, {r0, r2, r4, r8}
     844:	13011349 	movwne	r1, #4937	; 0x1349
     848:	05050000 	streq	r0, [r5, #-0]
     84c:	00134900 	andseq	r4, r3, r0, lsl #18
     850:	00340600 	eorseq	r0, r4, r0, lsl #12
     854:	0b3a0e03 	bleq	e84068 <__bss_end__+0xe7a068>
     858:	0b390b3b 	bleq	e4354c <__bss_end__+0xe3954c>
     85c:	193f1349 	ldmdbne	pc!, {r0, r3, r6, r8, r9, ip}	; <UNPREDICTABLE>
     860:	0000193c 	andeq	r1, r0, ip, lsr r9
     864:	0b000f07 	bleq	4488 <__code_start__-0x3b78>
     868:	0013490b 	andseq	r4, r3, fp, lsl #18
     86c:	00260800 	eoreq	r0, r6, r0, lsl #16
     870:	00001349 	andeq	r1, r0, r9, asr #6
     874:	47003409 	strmi	r3, [r0, -r9, lsl #8]
     878:	3b0b3a13 	blcc	2cf0cc <__bss_end__+0x2c50cc>
     87c:	020b390b 	andeq	r3, fp, #180224	; 0x2c000
     880:	0a000018 	beq	8e8 <__code_start__-0x7718>
     884:	193f012e 	ldmdbne	pc!, {r1, r2, r3, r5, r8}	; <UNPREDICTABLE>
     888:	0b3a0e03 	bleq	e8409c <__bss_end__+0xe7a09c>
     88c:	0b390b3b 	bleq	e43580 <__bss_end__+0xe39580>
     890:	01111927 	tsteq	r1, r7, lsr #18
     894:	18400612 	stmdane	r0, {r1, r4, r9, sl}^
     898:	01194297 			; <UNDEFINED> instruction: 0x01194297
     89c:	0b000013 	bleq	8f0 <__code_start__-0x7710>
     8a0:	08030005 	stmdaeq	r3, {r0, r2}
     8a4:	0b3b0b3a 	bleq	ec3594 <__bss_end__+0xeb9594>
     8a8:	13490b39 	movtne	r0, #39737	; 0x9b39
     8ac:	00001802 	andeq	r1, r0, r2, lsl #16
     8b0:	3f002e0c 	svccc	0x00002e0c
     8b4:	3a0e0319 	bcc	381520 <__bss_end__+0x377520>
     8b8:	390b3b0b 	stmdbcc	fp, {r0, r1, r3, r8, r9, fp, ip, sp}
     8bc:	1119270b 	tstne	r9, fp, lsl #14
     8c0:	40061201 	andmi	r1, r6, r1, lsl #4
     8c4:	19429718 	stmdbne	r2, {r3, r4, r8, r9, sl, ip, pc}^
     8c8:	2e0d0000 	cdpcs	0, 0, cr0, cr13, cr0, {0}
     8cc:	3a0e0301 	bcc	3814d8 <__bss_end__+0x3774d8>
     8d0:	390b3b0b 	stmdbcc	fp, {r0, r1, r3, r8, r9, fp, ip, sp}
     8d4:	4919270b 	ldmdbmi	r9, {r0, r1, r3, r8, r9, sl, sp}
     8d8:	12011113 	andne	r1, r1, #-1073741820	; 0xc0000004
     8dc:	97184006 	ldrls	r4, [r8, -r6]
     8e0:	13011942 	movwne	r1, #6466	; 0x1942
     8e4:	050e0000 	streq	r0, [lr, #-0]
     8e8:	3a080300 	bcc	2014f0 <__bss_end__+0x1f74f0>
     8ec:	390b3b0b 	stmdbcc	fp, {r0, r1, r3, r8, r9, fp, ip, sp}
     8f0:	0213490b 	andseq	r4, r3, #180224	; 0x2c000
     8f4:	1742b717 	smlaldne	fp, r2, r7, r7
     8f8:	890f0000 	stmdbhi	pc, {}	; <UNPREDICTABLE>
     8fc:	11010182 	smlabbne	r1, r2, r1, r0
     900:	00133101 	andseq	r3, r3, r1, lsl #2
     904:	828a1000 	addhi	r1, sl, #0, 0
     908:	18020001 	stmdane	r2, {r0}
     90c:	00184291 	mulseq	r8, r1, r2
     910:	002e1100 	eoreq	r1, lr, r0, lsl #2
     914:	193c193f 	ldmdbne	ip!, {r0, r1, r2, r3, r4, r5, r8, fp, ip}
     918:	0e030e6e 	cdpeq	14, 0, cr0, cr3, cr14, {3}
     91c:	0b3b0b3a 	bleq	ec360c <__bss_end__+0xeb960c>
     920:	00000b39 	andeq	r0, r0, r9, lsr fp
     924:	01110100 	tsteq	r1, r0, lsl #2
     928:	0b130e25 	bleq	4c41c4 <__bss_end__+0x4ba1c4>
     92c:	0e1b0e03 	cdpeq	14, 1, cr0, cr11, cr3, {0}
     930:	06120111 			; <UNDEFINED> instruction: 0x06120111
     934:	00001710 	andeq	r1, r0, r0, lsl r7
     938:	0b002402 	bleq	9948 <__FUNCTION__.4009+0xa0>
     93c:	030b3e0b 	movweq	r3, #48651	; 0xbe0b
     940:	03000008 	movweq	r0, #8
     944:	0b0b0024 	bleq	2c09dc <__bss_end__+0x2b69dc>
     948:	0e030b3e 	vmoveq.16	d3[0], r0
     94c:	15040000 	strne	r0, [r4, #-0]
     950:	49192701 	ldmdbmi	r9, {r0, r8, r9, sl, sp}
     954:	00130113 	andseq	r0, r3, r3, lsl r1
     958:	00050500 	andeq	r0, r5, r0, lsl #10
     95c:	00001349 	andeq	r1, r0, r9, asr #6
     960:	03003406 	movweq	r3, #1030	; 0x406
     964:	3b0b3a0e 	blcc	2cf1a4 <__bss_end__+0x2c51a4>
     968:	490b390b 	stmdbmi	fp, {r0, r1, r3, r8, fp, ip, sp}
     96c:	3c193f13 	ldccc	15, cr3, [r9], {19}
     970:	07000019 	smladeq	r0, r9, r0, r0
     974:	0b0b000f 	bleq	2c09b8 <__bss_end__+0x2b69b8>
     978:	00001349 	andeq	r1, r0, r9, asr #6
     97c:	49002608 	stmdbmi	r0, {r3, r9, sl, sp}
     980:	09000013 	stmdbeq	r0, {r0, r1, r4}
     984:	13470034 	movtne	r0, #28724	; 0x7034
     988:	0b3b0b3a 	bleq	ec3678 <__bss_end__+0xeb9678>
     98c:	18020b39 	stmdane	r2, {r0, r3, r4, r5, r8, r9, fp}
     990:	2e0a0000 	cdpcs	0, 0, cr0, cr10, cr0, {0}
     994:	03193f01 	tsteq	r9, #1, 30
     998:	3b0b3a0e 	blcc	2cf1d8 <__bss_end__+0x2c51d8>
     99c:	270b390b 	strcs	r3, [fp, -fp, lsl #18]
     9a0:	11134919 	tstne	r3, r9, lsl r9
     9a4:	40061201 	andmi	r1, r6, r1, lsl #4
     9a8:	19429618 	stmdbne	r2, {r3, r4, r9, sl, ip, pc}^
     9ac:	050b0000 	streq	r0, [fp, #-0]
     9b0:	3a080300 	bcc	2015b8 <__bss_end__+0x1f75b8>
     9b4:	390b3b0b 	stmdbcc	fp, {r0, r1, r3, r8, r9, fp, ip, sp}
     9b8:	0213490b 	andseq	r4, r3, #180224	; 0x2c000
     9bc:	1742b717 	smlaldne	fp, r2, r7, r7
     9c0:	01000000 	mrseq	r0, (UNDEF: 0)
     9c4:	0e250111 	mcreq	1, 1, r0, cr5, cr1, {0}
     9c8:	0e030b13 	vmoveq.32	d3[0], r0
     9cc:	01110e1b 	tsteq	r1, fp, lsl lr
     9d0:	17100612 			; <UNDEFINED> instruction: 0x17100612
     9d4:	24020000 	strcs	r0, [r2], #-0
     9d8:	3e0b0b00 	vmlacc.f64	d0, d11, d0
     9dc:	0008030b 	andeq	r0, r8, fp, lsl #6
     9e0:	00240300 	eoreq	r0, r4, r0, lsl #6
     9e4:	0b3e0b0b 	bleq	f83618 <__bss_end__+0xf79618>
     9e8:	00000e03 	andeq	r0, r0, r3, lsl #28
     9ec:	03001604 	movweq	r1, #1540	; 0x604
     9f0:	3b0b3a0e 	blcc	2cf230 <__bss_end__+0x2c5230>
     9f4:	490b390b 	stmdbmi	fp, {r0, r1, r3, r8, fp, ip, sp}
     9f8:	05000013 	streq	r0, [r0, #-19]	; 0xffffffed
     9fc:	19270115 	stmdbne	r7!, {r0, r2, r4, r8}
     a00:	13011349 	movwne	r1, #4937	; 0x1349
     a04:	05060000 	streq	r0, [r6, #-0]
     a08:	00134900 	andseq	r4, r3, r0, lsl #18
     a0c:	00340700 	eorseq	r0, r4, r0, lsl #14
     a10:	0b3a0e03 	bleq	e84224 <__bss_end__+0xe7a224>
     a14:	0b390b3b 	bleq	e43708 <__bss_end__+0xe39708>
     a18:	193f1349 	ldmdbne	pc!, {r0, r3, r6, r8, r9, ip}	; <UNPREDICTABLE>
     a1c:	0000193c 	andeq	r1, r0, ip, lsr r9
     a20:	0b000f08 	bleq	4648 <__code_start__-0x39b8>
     a24:	0013490b 	andseq	r4, r3, fp, lsl #18
     a28:	00260900 	eoreq	r0, r6, r0, lsl #18
     a2c:	00001349 	andeq	r1, r0, r9, asr #6
     a30:	0301130a 	movweq	r1, #4874	; 0x130a
     a34:	3a0b0b0e 	bcc	2c3674 <__bss_end__+0x2b9674>
     a38:	010b3b0b 	tsteq	fp, fp, lsl #22
     a3c:	0b000013 	bleq	a90 <__code_start__-0x7570>
     a40:	0e03000d 	cdpeq	0, 0, cr0, cr3, cr13, {0}
     a44:	0b381349 	bleq	e05770 <__bss_end__+0xdfb770>
     a48:	00001934 	andeq	r1, r0, r4, lsr r9
     a4c:	0b000f0c 	bleq	4684 <__code_start__-0x397c>
     a50:	0d00000b 	stceq	0, cr0, [r0, #-44]	; 0xffffffd4
     a54:	193f012e 	ldmdbne	pc!, {r1, r2, r3, r5, r8}	; <UNPREDICTABLE>
     a58:	0b3a0e03 	bleq	e8426c <__bss_end__+0xe7a26c>
     a5c:	0b390b3b 	bleq	e43750 <__bss_end__+0xe39750>
     a60:	13491927 	movtne	r1, #39207	; 0x9927
     a64:	06120111 			; <UNDEFINED> instruction: 0x06120111
     a68:	42971840 	addsmi	r1, r7, #64, 16	; 0x400000
     a6c:	00130119 	andseq	r0, r3, r9, lsl r1
     a70:	00050e00 	andeq	r0, r5, r0, lsl #28
     a74:	0b3a0803 	bleq	e82a88 <__bss_end__+0xe78a88>
     a78:	0b390b3b 	bleq	e4376c <__bss_end__+0xe3976c>
     a7c:	17021349 	strne	r1, [r2, -r9, asr #6]
     a80:	001742b7 			; <UNDEFINED> instruction: 0x001742b7
     a84:	00050f00 	andeq	r0, r5, r0, lsl #30
     a88:	0b3a0e03 	bleq	e8429c <__bss_end__+0xe7a29c>
     a8c:	0b390b3b 	bleq	e43780 <__bss_end__+0xe39780>
     a90:	18021349 	stmdane	r2, {r0, r3, r6, r8, r9, ip}
     a94:	34100000 	ldrcc	r0, [r0], #-0
     a98:	3a080300 	bcc	2016a0 <__bss_end__+0x1f76a0>
     a9c:	390b3b0b 	stmdbcc	fp, {r0, r1, r3, r8, r9, fp, ip, sp}
     aa0:	0213490b 	andseq	r4, r3, #180224	; 0x2c000
     aa4:	1742b717 	smlaldne	fp, r2, r7, r7
     aa8:	34110000 	ldrcc	r0, [r1], #-0
     aac:	3a080300 	bcc	2016b4 <__bss_end__+0x1f76b4>
     ab0:	390b3b0b 	stmdbcc	fp, {r0, r1, r3, r8, r9, fp, ip, sp}
     ab4:	0013490b 	andseq	r4, r3, fp, lsl #18
     ab8:	00341200 	eorseq	r1, r4, r0, lsl #4
     abc:	0b3a0e03 	bleq	e842d0 <__bss_end__+0xe7a2d0>
     ac0:	0b390b3b 	bleq	e437b4 <__bss_end__+0xe397b4>
     ac4:	17021349 	strne	r1, [r2, -r9, asr #6]
     ac8:	001742b7 			; <UNDEFINED> instruction: 0x001742b7
     acc:	00341300 	eorseq	r1, r4, r0, lsl #6
     ad0:	13490e03 	movtne	r0, #40451	; 0x9e03
     ad4:	18021934 	stmdane	r2, {r2, r4, r5, r8, fp, ip}
     ad8:	0b140000 	bleq	500ae0 <__bss_end__+0x4f6ae0>
     adc:	12011101 	andne	r1, r1, #1073741824	; 0x40000000
     ae0:	15000006 	strne	r0, [r0, #-6]
     ae4:	08030034 	stmdaeq	r3, {r2, r4, r5}
     ae8:	0b3b0b3a 	bleq	ec37d8 <__bss_end__+0xeb97d8>
     aec:	13490b39 	movtne	r0, #39737	; 0x9b39
     af0:	00001802 	andeq	r1, r0, r2, lsl #16
     af4:	03003416 	movweq	r3, #1046	; 0x416
     af8:	3b0b3a0e 	blcc	2cf338 <__bss_end__+0x2c5338>
     afc:	490b390b 	stmdbmi	fp, {r0, r1, r3, r8, fp, ip, sp}
     b00:	00180213 	andseq	r0, r8, r3, lsl r2
     b04:	010b1700 	tsteq	fp, r0, lsl #14
     b08:	06120111 			; <UNDEFINED> instruction: 0x06120111
     b0c:	00001301 	andeq	r1, r0, r1, lsl #6
     b10:	01828918 	orreq	r8, r2, r8, lsl r9
     b14:	31011101 	tstcc	r1, r1, lsl #2
     b18:	00130113 	andseq	r0, r3, r3, lsl r1
     b1c:	828a1900 	addhi	r1, sl, #0, 18
     b20:	18020001 	stmdane	r2, {r0}
     b24:	00184291 	mulseq	r8, r1, r2
     b28:	82891a00 	addhi	r1, r9, #0, 20
     b2c:	01110001 	tsteq	r1, r1
     b30:	00001331 	andeq	r1, r0, r1, lsr r3
     b34:	0182891b 	orreq	r8, r2, fp, lsl r9
     b38:	01011101 	tsteq	r1, r1, lsl #2
     b3c:	1c000013 	stcne	0, cr0, [r0], {19}
     b40:	13490101 	movtne	r0, #37121	; 0x9101
     b44:	00001301 	andeq	r1, r0, r1, lsl #6
     b48:	4900211d 	stmdbmi	r0, {r0, r2, r3, r4, r8, sp}
     b4c:	000b2f13 	andeq	r2, fp, r3, lsl pc
     b50:	012e1e00 			; <UNDEFINED> instruction: 0x012e1e00
     b54:	0b3a0e03 	bleq	e84368 <__bss_end__+0xe7a368>
     b58:	0b390b3b 	bleq	e4384c <__bss_end__+0xe3984c>
     b5c:	13491927 	movtne	r1, #39207	; 0x9927
     b60:	06120111 			; <UNDEFINED> instruction: 0x06120111
     b64:	42971840 	addsmi	r1, r7, #64, 16	; 0x400000
     b68:	00130119 	andseq	r0, r3, r9, lsl r1
     b6c:	00051f00 	andeq	r1, r5, r0, lsl #30
     b70:	0b3a0e03 	bleq	e84384 <__bss_end__+0xe7a384>
     b74:	0b390b3b 	bleq	e43868 <__bss_end__+0xe39868>
     b78:	17021349 	strne	r1, [r2, -r9, asr #6]
     b7c:	001742b7 			; <UNDEFINED> instruction: 0x001742b7
     b80:	012e2000 			; <UNDEFINED> instruction: 0x012e2000
     b84:	0b3a0803 	bleq	e82b98 <__bss_end__+0xe78b98>
     b88:	0b390b3b 	bleq	e4387c <__bss_end__+0xe3987c>
     b8c:	13491927 	movtne	r1, #39207	; 0x9927
     b90:	06120111 			; <UNDEFINED> instruction: 0x06120111
     b94:	42971840 	addsmi	r1, r7, #64, 16	; 0x400000
     b98:	00130119 	andseq	r0, r3, r9, lsl r1
     b9c:	012e2100 			; <UNDEFINED> instruction: 0x012e2100
     ba0:	0e03193f 			; <UNDEFINED> instruction: 0x0e03193f
     ba4:	0b3b0b3a 	bleq	ec3894 <__bss_end__+0xeb9894>
     ba8:	19270b39 	stmdbne	r7!, {r0, r3, r4, r5, r8, r9, fp}
     bac:	06120111 			; <UNDEFINED> instruction: 0x06120111
     bb0:	42971840 	addsmi	r1, r7, #64, 16	; 0x400000
     bb4:	00130119 	andseq	r0, r3, r9, lsl r1
     bb8:	002e2200 	eoreq	r2, lr, r0, lsl #4
     bbc:	193c193f 	ldmdbne	ip!, {r0, r1, r2, r3, r4, r5, r8, fp, ip}
     bc0:	0e030e6e 	cdpeq	14, 0, cr0, cr3, cr14, {3}
     bc4:	0b3b0b3a 	bleq	ec38b4 <__bss_end__+0xeb98b4>
     bc8:	00000b39 	andeq	r0, r0, r9, lsr fp
     bcc:	01110100 	tsteq	r1, r0, lsl #2
     bd0:	0b130e25 	bleq	4c446c <__bss_end__+0x4ba46c>
     bd4:	0e1b0e03 	cdpeq	14, 1, cr0, cr11, cr3, {0}
     bd8:	06120111 			; <UNDEFINED> instruction: 0x06120111
     bdc:	00001710 	andeq	r1, r0, r0, lsl r7
     be0:	0b002402 	bleq	9bf0 <init_p>
     be4:	030b3e0b 	movweq	r3, #48651	; 0xbe0b
     be8:	03000008 	movweq	r0, #8
     bec:	0b0b0024 	bleq	2c0c84 <__bss_end__+0x2b6c84>
     bf0:	0e030b3e 	vmoveq.16	d3[0], r0
     bf4:	15040000 	strne	r0, [r4, #-0]
     bf8:	49192701 	ldmdbmi	r9, {r0, r8, r9, sl, sp}
     bfc:	00130113 	andseq	r0, r3, r3, lsl r1
     c00:	00050500 	andeq	r0, r5, r0, lsl #10
     c04:	00001349 	andeq	r1, r0, r9, asr #6
     c08:	03003406 	movweq	r3, #1030	; 0x406
     c0c:	3b0b3a0e 	blcc	2cf44c <__bss_end__+0x2c544c>
     c10:	490b390b 	stmdbmi	fp, {r0, r1, r3, r8, fp, ip, sp}
     c14:	3c193f13 	ldccc	15, cr3, [r9], {19}
     c18:	07000019 	smladeq	r0, r9, r0, r0
     c1c:	0b0b000f 	bleq	2c0c60 <__bss_end__+0x2b6c60>
     c20:	00001349 	andeq	r1, r0, r9, asr #6
     c24:	49002608 	stmdbmi	r0, {r3, r9, sl, sp}
     c28:	09000013 	stmdbeq	r0, {r0, r1, r4}
     c2c:	193f012e 	ldmdbne	pc!, {r1, r2, r3, r5, r8}	; <UNPREDICTABLE>
     c30:	0b3a0e03 	bleq	e84444 <__bss_end__+0xe7a444>
     c34:	0b390b3b 	bleq	e43928 <__bss_end__+0xe39928>
     c38:	01871927 	orreq	r1, r7, r7, lsr #18
     c3c:	12011119 	andne	r1, r1, #1073741830	; 0x40000006
     c40:	97184006 	ldrls	r4, [r8, -r6]
     c44:	13011942 	movwne	r1, #6466	; 0x1942
     c48:	890a0000 	stmdbhi	sl, {}	; <UNPREDICTABLE>
     c4c:	11010182 	smlabbne	r1, r2, r1, r0
     c50:	00130101 	andseq	r0, r3, r1, lsl #2
     c54:	828a0b00 	addhi	r0, sl, #0, 22
     c58:	18020001 	stmdane	r2, {r0}
     c5c:	00184291 	mulseq	r8, r1, r2
     c60:	82890c00 	addhi	r0, r9, #0, 24
     c64:	01110001 	tsteq	r1, r1
     c68:	00001331 	andeq	r1, r0, r1, lsr r3
     c6c:	0182890d 	orreq	r8, r2, sp, lsl #18
     c70:	31011101 	tstcc	r1, r1, lsl #2
     c74:	00130113 	andseq	r0, r3, r3, lsl r1
     c78:	002e0e00 	eoreq	r0, lr, r0, lsl #28
     c7c:	193c193f 	ldmdbne	ip!, {r0, r1, r2, r3, r4, r5, r8, fp, ip}
     c80:	0e030e6e 	cdpeq	14, 0, cr0, cr3, cr14, {3}
     c84:	0b3b0b3a 	bleq	ec3974 <__bss_end__+0xeb9974>
     c88:	00000b39 	andeq	r0, r0, r9, lsr fp
     c8c:	01110100 	tsteq	r1, r0, lsl #2
     c90:	0b130e25 	bleq	4c452c <__bss_end__+0x4ba52c>
     c94:	0e1b0e03 	cdpeq	14, 1, cr0, cr11, cr3, {0}
     c98:	06120111 			; <UNDEFINED> instruction: 0x06120111
     c9c:	00001710 	andeq	r1, r0, r0, lsl r7
     ca0:	0b002402 	bleq	9cb0 <buf.3928+0xbc>
     ca4:	030b3e0b 	movweq	r3, #48651	; 0xbe0b
     ca8:	03000008 	movweq	r0, #8
     cac:	0b0b0024 	bleq	2c0d44 <__bss_end__+0x2b6d44>
     cb0:	0e030b3e 	vmoveq.16	d3[0], r0
     cb4:	15040000 	strne	r0, [r4, #-0]
     cb8:	49192701 	ldmdbmi	r9, {r0, r8, r9, sl, sp}
     cbc:	00130113 	andseq	r0, r3, r3, lsl r1
     cc0:	00050500 	andeq	r0, r5, r0, lsl #10
     cc4:	00001349 	andeq	r1, r0, r9, asr #6
     cc8:	03003406 	movweq	r3, #1030	; 0x406
     ccc:	3b0b3a0e 	blcc	2cf50c <__bss_end__+0x2c550c>
     cd0:	490b390b 	stmdbmi	fp, {r0, r1, r3, r8, fp, ip, sp}
     cd4:	3c193f13 	ldccc	15, cr3, [r9], {19}
     cd8:	07000019 	smladeq	r0, r9, r0, r0
     cdc:	0b0b000f 	bleq	2c0d20 <__bss_end__+0x2b6d20>
     ce0:	00001349 	andeq	r1, r0, r9, asr #6
     ce4:	49002608 	stmdbmi	r0, {r3, r9, sl, sp}
     ce8:	09000013 	stmdbeq	r0, {r0, r1, r4}
     cec:	193f012e 	ldmdbne	pc!, {r1, r2, r3, r5, r8}	; <UNPREDICTABLE>
     cf0:	0b3a0e03 	bleq	e84504 <__bss_end__+0xe7a504>
     cf4:	0b390b3b 	bleq	e439e8 <__bss_end__+0xe399e8>
     cf8:	06120111 			; <UNDEFINED> instruction: 0x06120111
     cfc:	42971840 	addsmi	r1, r7, #64, 16	; 0x400000
     d00:	00130119 	andseq	r0, r3, r9, lsl r1
     d04:	002e0a00 	eoreq	r0, lr, r0, lsl #20
     d08:	0e03193f 			; <UNDEFINED> instruction: 0x0e03193f
     d0c:	0b3b0b3a 	bleq	ec39fc <__bss_end__+0xeb99fc>
     d10:	19270b39 	stmdbne	r7!, {r0, r3, r4, r5, r8, r9, fp}
     d14:	0000193c 	andeq	r1, r0, ip, lsr r9
     d18:	0300340b 	movweq	r3, #1035	; 0x40b
     d1c:	3b0b3a08 	blcc	2cf544 <__bss_end__+0x2c5544>
     d20:	490b390b 	stmdbmi	fp, {r0, r1, r3, r8, fp, ip, sp}
     d24:	b7170213 			; <UNDEFINED> instruction: 0xb7170213
     d28:	00001742 	andeq	r1, r0, r2, asr #14
     d2c:	0300340c 	movweq	r3, #1036	; 0x40c
     d30:	3b0b3a0e 	blcc	2cf570 <__bss_end__+0x2c5570>
     d34:	490b390b 	stmdbmi	fp, {r0, r1, r3, r8, fp, ip, sp}
     d38:	0d000013 	stceq	0, cr0, [r0, #-76]	; 0xffffffb4
     d3c:	00018289 	andeq	r8, r1, r9, lsl #5
     d40:	13310111 	teqne	r1, #1073741828	; 0x40000004
     d44:	2e0e0000 	cdpcs	0, 0, cr0, cr14, cr0, {0}
     d48:	3c193f00 	ldccc	15, cr3, [r9], {-0}
     d4c:	030e6e19 	movweq	r6, #60953	; 0xee19
     d50:	3b0b3a0e 	blcc	2cf590 <__bss_end__+0x2c5590>
     d54:	000b390b 	andeq	r3, fp, fp, lsl #18
     d58:	11010000 	mrsne	r0, (UNDEF: 1)
     d5c:	130e2501 	movwne	r2, #58625	; 0xe501
     d60:	1b0e030b 	blne	381994 <__bss_end__+0x377994>
     d64:	1117550e 	tstne	r7, lr, lsl #10
     d68:	00171001 	andseq	r1, r7, r1
     d6c:	00240200 	eoreq	r0, r4, r0, lsl #4
     d70:	0b3e0b0b 	bleq	f839a4 <__bss_end__+0xf799a4>
     d74:	00000803 	andeq	r0, r0, r3, lsl #16
     d78:	49002603 	stmdbmi	r0, {r0, r1, r9, sl, sp}
     d7c:	04000013 	streq	r0, [r0], #-19	; 0xffffffed
     d80:	0b0b0024 	bleq	2c0e18 <__bss_end__+0x2b6e18>
     d84:	0e030b3e 	vmoveq.16	d3[0], r0
     d88:	15050000 	strne	r0, [r5, #-0]
     d8c:	49192701 	ldmdbmi	r9, {r0, r8, r9, sl, sp}
     d90:	00130113 	andseq	r0, r3, r3, lsl r1
     d94:	00050600 	andeq	r0, r5, r0, lsl #12
     d98:	00001349 	andeq	r1, r0, r9, asr #6
     d9c:	03003407 	movweq	r3, #1031	; 0x407
     da0:	3b0b3a0e 	blcc	2cf5e0 <__bss_end__+0x2c55e0>
     da4:	490b390b 	stmdbmi	fp, {r0, r1, r3, r8, fp, ip, sp}
     da8:	3c193f13 	ldccc	15, cr3, [r9], {19}
     dac:	08000019 	stmdaeq	r0, {r0, r3, r4}
     db0:	0b0b000f 	bleq	2c0df4 <__bss_end__+0x2b6df4>
     db4:	00001349 	andeq	r1, r0, r9, asr #6
     db8:	03003409 	movweq	r3, #1033	; 0x409
     dbc:	3b0b3a0e 	blcc	2cf5fc <__bss_end__+0x2c55fc>
     dc0:	490b390b 	stmdbmi	fp, {r0, r1, r3, r8, fp, ip, sp}
     dc4:	0a000013 	beq	e18 <__code_start__-0x71e8>
     dc8:	193f012e 	ldmdbne	pc!, {r1, r2, r3, r5, r8}	; <UNPREDICTABLE>
     dcc:	0b3a0e03 	bleq	e845e0 <__bss_end__+0xe7a5e0>
     dd0:	0b390b3b 	bleq	e43ac4 <__bss_end__+0xe39ac4>
     dd4:	01871927 	orreq	r1, r7, r7, lsr #18
     dd8:	12011119 	andne	r1, r1, #1073741830	; 0x40000006
     ddc:	97184006 	ldrls	r4, [r8, -r6]
     de0:	13011942 	movwne	r1, #6466	; 0x1942
     de4:	340b0000 	strcc	r0, [fp], #-0
     de8:	3a0e0300 	bcc	3819f0 <__bss_end__+0x3779f0>
     dec:	390b3b0b 	stmdbcc	fp, {r0, r1, r3, r8, r9, fp, ip, sp}
     df0:	0213490b 	andseq	r4, r3, #180224	; 0x2c000
     df4:	1742b717 	smlaldne	fp, r2, r7, r7
     df8:	890c0000 	stmdbhi	ip, {}	; <UNPREDICTABLE>
     dfc:	11000182 	smlabbne	r0, r2, r1, r0
     e00:	00133101 	andseq	r3, r3, r1, lsl #2
     e04:	82890d00 	addhi	r0, r9, #0, 26
     e08:	01110101 	tsteq	r1, r1, lsl #2
     e0c:	13011331 	movwne	r1, #4913	; 0x1331
     e10:	8a0e0000 	bhi	380e18 <__bss_end__+0x376e18>
     e14:	02000182 	andeq	r0, r0, #-2147483616	; 0x80000020
     e18:	18429118 	stmdane	r2, {r3, r4, r8, ip, pc}^
     e1c:	2e0f0000 	cdpcs	0, 0, cr0, cr15, cr0, {0}
     e20:	03193f01 	tsteq	r9, #1, 30
     e24:	3b0b3a0e 	blcc	2cf664 <__bss_end__+0x2c5664>
     e28:	270b390b 	strcs	r3, [fp, -fp, lsl #18]
     e2c:	12011119 	andne	r1, r1, #1073741830	; 0x40000006
     e30:	97184006 	ldrls	r4, [r8, -r6]
     e34:	13011942 	movwne	r1, #6466	; 0x1942
     e38:	2e100000 	cdpcs	0, 1, cr0, cr0, cr0, {0}
     e3c:	03193f01 	tsteq	r9, #1, 30
     e40:	3b0b3a0e 	blcc	2cf680 <__bss_end__+0x2c5680>
     e44:	270b390b 	strcs	r3, [fp, -fp, lsl #18]
     e48:	11134919 	tstne	r3, r9, lsl r9
     e4c:	40061201 	andmi	r1, r6, r1, lsl #4
     e50:	19429718 	stmdbne	r2, {r3, r4, r8, r9, sl, ip, pc}^
     e54:	00001301 	andeq	r1, r0, r1, lsl #6
     e58:	3f002e11 	svccc	0x00002e11
     e5c:	6e193c19 	mrcvs	12, 0, r3, cr9, cr9, {0}
     e60:	3a0e030e 	bcc	381aa0 <__bss_end__+0x377aa0>
     e64:	390b3b0b 	stmdbcc	fp, {r0, r1, r3, r8, r9, fp, ip, sp}
     e68:	0000000b 	andeq	r0, r0, fp
     e6c:	25011101 	strcs	r1, [r1, #-257]	; 0xfffffeff
     e70:	030b130e 	movweq	r1, #45838	; 0xb30e
     e74:	110e1b0e 	tstne	lr, lr, lsl #22
     e78:	10061201 	andne	r1, r6, r1, lsl #4
     e7c:	02000017 	andeq	r0, r0, #23, 0
     e80:	0b0b0024 	bleq	2c0f18 <__bss_end__+0x2b6f18>
     e84:	08030b3e 	stmdaeq	r3, {r1, r2, r3, r4, r5, r8, r9, fp}
     e88:	24030000 	strcs	r0, [r3], #-0
     e8c:	3e0b0b00 	vmlacc.f64	d0, d11, d0
     e90:	000e030b 	andeq	r0, lr, fp, lsl #6
     e94:	01150400 	tsteq	r5, r0, lsl #8
     e98:	13491927 	movtne	r1, #39207	; 0x9927
     e9c:	00001301 	andeq	r1, r0, r1, lsl #6
     ea0:	49000505 	stmdbmi	r0, {r0, r2, r8, sl}
     ea4:	06000013 			; <UNDEFINED> instruction: 0x06000013
     ea8:	0e030034 	mcreq	0, 0, r0, cr3, cr4, {1}
     eac:	0b3b0b3a 	bleq	ec3b9c <__bss_end__+0xeb9b9c>
     eb0:	13490b39 	movtne	r0, #39737	; 0x9b39
     eb4:	193c193f 	ldmdbne	ip!, {r0, r1, r2, r3, r4, r5, r8, fp, ip}
     eb8:	0f070000 	svceq	0x00070000
     ebc:	490b0b00 	stmdbmi	fp, {r8, r9, fp}
     ec0:	08000013 	stmdaeq	r0, {r0, r1, r4}
     ec4:	13490026 	movtne	r0, #36902	; 0x9026
     ec8:	2e090000 	cdpcs	0, 0, cr0, cr9, cr0, {0}
     ecc:	03193f01 	tsteq	r9, #1, 30
     ed0:	3b0b3a0e 	blcc	2cf710 <__bss_end__+0x2c5710>
     ed4:	270b390b 	strcs	r3, [fp, -fp, lsl #18]
     ed8:	12011119 	andne	r1, r1, #1073741830	; 0x40000006
     edc:	97184006 	ldrls	r4, [r8, -r6]
     ee0:	13011942 	movwne	r1, #6466	; 0x1942
     ee4:	050a0000 	streq	r0, [sl, #-0]
     ee8:	3a080300 	bcc	201af0 <__bss_end__+0x1f7af0>
     eec:	390b3b0b 	stmdbcc	fp, {r0, r1, r3, r8, r9, fp, ip, sp}
     ef0:	0213490b 	andseq	r4, r3, #180224	; 0x2c000
     ef4:	1742b717 	smlaldne	fp, r2, r7, r7
     ef8:	890b0000 	stmdbhi	fp, {}	; <UNPREDICTABLE>
     efc:	11010182 	smlabbne	r1, r2, r1, r0
     f00:	00133101 	andseq	r3, r3, r1, lsl #2
     f04:	828a0c00 	addhi	r0, sl, #0, 24
     f08:	18020001 	stmdane	r2, {r0}
     f0c:	00184291 	mulseq	r8, r1, r2
     f10:	00340d00 	eorseq	r0, r4, r0, lsl #26
     f14:	0b3a0803 	bleq	e82f28 <__bss_end__+0xe78f28>
     f18:	0b390b3b 	bleq	e43c0c <__bss_end__+0xe39c0c>
     f1c:	17021349 	strne	r1, [r2, -r9, asr #6]
     f20:	001742b7 			; <UNDEFINED> instruction: 0x001742b7
     f24:	010b0e00 	tsteq	fp, r0, lsl #28
     f28:	06120111 			; <UNDEFINED> instruction: 0x06120111
     f2c:	00001301 	andeq	r1, r0, r1, lsl #6
     f30:	0182890f 	orreq	r8, r2, pc, lsl #18
     f34:	31011100 	mrscc	r1, (UNDEF: 17)
     f38:	10000013 	andne	r0, r0, r3, lsl r0
     f3c:	193f012e 	ldmdbne	pc!, {r1, r2, r3, r5, r8}	; <UNPREDICTABLE>
     f40:	0b3a0e03 	bleq	e84754 <__bss_end__+0xe7a754>
     f44:	0b390b3b 	bleq	e43c38 <__bss_end__+0xe39c38>
     f48:	13491927 	movtne	r1, #39207	; 0x9927
     f4c:	06120111 			; <UNDEFINED> instruction: 0x06120111
     f50:	42971840 	addsmi	r1, r7, #64, 16	; 0x400000
     f54:	00130119 	andseq	r0, r3, r9, lsl r1
     f58:	002e1100 	eoreq	r1, lr, r0, lsl #2
     f5c:	193c193f 	ldmdbne	ip!, {r0, r1, r2, r3, r4, r5, r8, fp, ip}
     f60:	0e030e6e 	cdpeq	14, 0, cr0, cr3, cr14, {3}
     f64:	0b3b0b3a 	bleq	ec3c54 <__bss_end__+0xeb9c54>
     f68:	00000b39 	andeq	r0, r0, r9, lsr fp
     f6c:	01110100 	tsteq	r1, r0, lsl #2
     f70:	0b130e25 	bleq	4c480c <__bss_end__+0x4ba80c>
     f74:	0e1b0e03 	cdpeq	14, 1, cr0, cr11, cr3, {0}
     f78:	06120111 			; <UNDEFINED> instruction: 0x06120111
     f7c:	00001710 	andeq	r1, r0, r0, lsl r7
     f80:	0b002402 	bleq	9f90 <buf.3928+0x39c>
     f84:	030b3e0b 	movweq	r3, #48651	; 0xbe0b
     f88:	03000008 	movweq	r0, #8
     f8c:	0b0b0024 	bleq	2c1024 <__bss_end__+0x2b7024>
     f90:	0e030b3e 	vmoveq.16	d3[0], r0
     f94:	35040000 	strcc	r0, [r4, #-0]
     f98:	00134900 	andseq	r4, r3, r0, lsl #18
     f9c:	00160500 	andseq	r0, r6, r0, lsl #10
     fa0:	0b3a0e03 	bleq	e847b4 <__bss_end__+0xe7a7b4>
     fa4:	0b390b3b 	bleq	e43c98 <__bss_end__+0xe39c98>
     fa8:	00001349 	andeq	r1, r0, r9, asr #6
     fac:	27011506 	strcs	r1, [r1, -r6, lsl #10]
     fb0:	01134919 	tsteq	r3, r9, lsl r9
     fb4:	07000013 	smladeq	r0, r3, r0, r0
     fb8:	13490005 	movtne	r0, #36869	; 0x9005
     fbc:	34080000 	strcc	r0, [r8], #-0
     fc0:	3a0e0300 	bcc	381bc8 <__bss_end__+0x377bc8>
     fc4:	390b3b0b 	stmdbcc	fp, {r0, r1, r3, r8, r9, fp, ip, sp}
     fc8:	3f13490b 	svccc	0x0013490b
     fcc:	00193c19 	andseq	r3, r9, r9, lsl ip
     fd0:	000f0900 	andeq	r0, pc, r0, lsl #18
     fd4:	13490b0b 	movtne	r0, #39691	; 0x9b0b
     fd8:	260a0000 	strcs	r0, [sl], -r0
     fdc:	00134900 	andseq	r4, r3, r0, lsl #18
     fe0:	01040b00 	tsteq	r4, r0, lsl #22
     fe4:	0b0b0b3e 	bleq	2c3ce4 <__bss_end__+0x2b9ce4>
     fe8:	0b3a1349 	bleq	e85d14 <__bss_end__+0xe7bd14>
     fec:	0b390b3b 	bleq	e43ce0 <__bss_end__+0xe39ce0>
     ff0:	00001301 	andeq	r1, r0, r1, lsl #6
     ff4:	0300280c 	movweq	r2, #2060	; 0x80c
     ff8:	000b1c0e 	andeq	r1, fp, lr, lsl #24
     ffc:	01130d00 	tsteq	r3, r0, lsl #26
    1000:	0b0b0e03 	bleq	2c4814 <__bss_end__+0x2ba814>
    1004:	0b3b0b3a 	bleq	ec3cf4 <__bss_end__+0xeb9cf4>
    1008:	13010b39 	movwne	r0, #6969	; 0x1b39
    100c:	0d0e0000 	stceq	0, cr0, [lr, #-0]
    1010:	3a080300 	bcc	201c18 <__bss_end__+0x1f7c18>
    1014:	390b3b0b 	stmdbcc	fp, {r0, r1, r3, r8, r9, fp, ip, sp}
    1018:	3813490b 	ldmdacc	r3, {r0, r1, r3, r8, fp, lr}
    101c:	0f00000b 	svceq	0x0000000b
    1020:	0e03000d 	cdpeq	0, 0, cr0, cr3, cr13, {0}
    1024:	0b3b0b3a 	bleq	ec3d14 <__bss_end__+0xeb9d14>
    1028:	13490b39 	movtne	r0, #39737	; 0x9b39
    102c:	00000b38 	andeq	r0, r0, r8, lsr fp
    1030:	03003410 	movweq	r3, #1040	; 0x410
    1034:	3b0b3a0e 	blcc	2cf874 <__bss_end__+0x2c5874>
    1038:	490b390b 	stmdbmi	fp, {r0, r1, r3, r8, fp, ip, sp}
    103c:	00061c13 	andeq	r1, r6, r3, lsl ip
    1040:	012e1100 			; <UNDEFINED> instruction: 0x012e1100
    1044:	0e03193f 			; <UNDEFINED> instruction: 0x0e03193f
    1048:	0b3b0b3a 	bleq	ec3d38 <__bss_end__+0xeb9d38>
    104c:	19270b39 	stmdbne	r7!, {r0, r3, r4, r5, r8, r9, fp}
    1050:	06120111 			; <UNDEFINED> instruction: 0x06120111
    1054:	42971840 	addsmi	r1, r7, #64, 16	; 0x400000
    1058:	00130119 	andseq	r0, r3, r9, lsl r1
    105c:	82891200 	addhi	r1, r9, #0, 4
    1060:	01110001 	tsteq	r1, r1
    1064:	00001331 	andeq	r1, r0, r1, lsr r3
    1068:	3f012e13 	svccc	0x00012e13
    106c:	3a0e0319 	bcc	381cd8 <__bss_end__+0x377cd8>
    1070:	390b3b0b 	stmdbcc	fp, {r0, r1, r3, r8, r9, fp, ip, sp}
    1074:	4919270b 	ldmdbmi	r9, {r0, r1, r3, r8, r9, sl, sp}
    1078:	12011113 	andne	r1, r1, #-1073741820	; 0xc0000004
    107c:	97184006 	ldrls	r4, [r8, -r6]
    1080:	13011942 	movwne	r1, #6466	; 0x1942
    1084:	89140000 	ldmdbhi	r4, {}	; <UNPREDICTABLE>
    1088:	11010182 	smlabbne	r1, r2, r1, r0
    108c:	00133101 	andseq	r3, r3, r1, lsl #2
    1090:	828a1500 	addhi	r1, sl, #0, 10
    1094:	18020001 	stmdane	r2, {r0}
    1098:	00184291 	mulseq	r8, r1, r2
    109c:	00051600 	andeq	r1, r5, r0, lsl #12
    10a0:	0b3a0803 	bleq	e830b4 <__bss_end__+0xe790b4>
    10a4:	0b390b3b 	bleq	e43d98 <__bss_end__+0xe39d98>
    10a8:	17021349 	strne	r1, [r2, -r9, asr #6]
    10ac:	001742b7 			; <UNDEFINED> instruction: 0x001742b7
    10b0:	82891700 	addhi	r1, r9, #0, 14
    10b4:	01110101 	tsteq	r1, r1, lsl #2
    10b8:	13011331 	movwne	r1, #4913	; 0x1331
    10bc:	34180000 	ldrcc	r0, [r8], #-0
    10c0:	3a080300 	bcc	201cc8 <__bss_end__+0x1f7cc8>
    10c4:	390b3b0b 	stmdbcc	fp, {r0, r1, r3, r8, r9, fp, ip, sp}
    10c8:	0213490b 	andseq	r4, r3, #180224	; 0x2c000
    10cc:	1742b717 	smlaldne	fp, r2, r7, r7
    10d0:	34190000 	ldrcc	r0, [r9], #-0
    10d4:	3a0e0300 	bcc	381cdc <__bss_end__+0x377cdc>
    10d8:	390b3b0b 	stmdbcc	fp, {r0, r1, r3, r8, r9, fp, ip, sp}
    10dc:	1c13490b 			; <UNDEFINED> instruction: 0x1c13490b
    10e0:	1a000005 	bne	10fc <__code_start__-0x6f04>
    10e4:	0e03012e 	adfeqsp	f0, f3, #0.5
    10e8:	0b3b0b3a 	bleq	ec3dd8 <__bss_end__+0xeb9dd8>
    10ec:	19270b39 	stmdbne	r7!, {r0, r3, r4, r5, r8, r9, fp}
    10f0:	06120111 			; <UNDEFINED> instruction: 0x06120111
    10f4:	42971840 	addsmi	r1, r7, #64, 16	; 0x400000
    10f8:	00130119 	andseq	r0, r3, r9, lsl r1
    10fc:	00051b00 	andeq	r1, r5, r0, lsl #22
    1100:	0b3a0e03 	bleq	e84914 <__bss_end__+0xe7a914>
    1104:	0b390b3b 	bleq	e43df8 <__bss_end__+0xe39df8>
    1108:	17021349 	strne	r1, [r2, -r9, asr #6]
    110c:	001742b7 			; <UNDEFINED> instruction: 0x001742b7
    1110:	00351c00 	eorseq	r1, r5, r0, lsl #24
    1114:	2e1d0000 	cdpcs	0, 1, cr0, cr13, cr0, {0}
    1118:	3c193f00 	ldccc	15, cr3, [r9], {-0}
    111c:	030e6e19 	movweq	r6, #60953	; 0xee19
    1120:	3b0b3a0e 	blcc	2cf960 <__bss_end__+0x2c5960>
    1124:	000b390b 	andeq	r3, fp, fp, lsl #18
    1128:	11010000 	mrsne	r0, (UNDEF: 1)
    112c:	130e2501 	movwne	r2, #58625	; 0xe501
    1130:	1b0e030b 	blne	381d64 <__bss_end__+0x377d64>
    1134:	1201110e 	andne	r1, r1, #-2147483645	; 0x80000003
    1138:	00171006 	andseq	r1, r7, r6
    113c:	00240200 	eoreq	r0, r4, r0, lsl #4
    1140:	0b3e0b0b 	bleq	f83d74 <__bss_end__+0xf79d74>
    1144:	00000803 	andeq	r0, r0, r3, lsl #16
    1148:	0b002403 	bleq	a15c <__bss_end__+0x15c>
    114c:	030b3e0b 	movweq	r3, #48651	; 0xbe0b
    1150:	0400000e 	streq	r0, [r0], #-14
    1154:	13490035 	movtne	r0, #36917	; 0x9035
    1158:	15050000 	strne	r0, [r5, #-0]
    115c:	49192701 	ldmdbmi	r9, {r0, r8, r9, sl, sp}
    1160:	00130113 	andseq	r0, r3, r3, lsl r1
    1164:	00050600 	andeq	r0, r5, r0, lsl #12
    1168:	00001349 	andeq	r1, r0, r9, asr #6
    116c:	03003407 	movweq	r3, #1031	; 0x407
    1170:	3b0b3a0e 	blcc	2cf9b0 <__bss_end__+0x2c59b0>
    1174:	490b390b 	stmdbmi	fp, {r0, r1, r3, r8, fp, ip, sp}
    1178:	3c193f13 	ldccc	15, cr3, [r9], {19}
    117c:	08000019 	stmdaeq	r0, {r0, r3, r4}
    1180:	0b0b000f 	bleq	2c11c4 <__bss_end__+0x2b71c4>
    1184:	00001349 	andeq	r1, r0, r9, asr #6
    1188:	49002609 	stmdbmi	r0, {r0, r3, r9, sl, sp}
    118c:	0a000013 	beq	11e0 <__code_start__-0x6e20>
    1190:	0b3e0104 	bleq	f815a8 <__bss_end__+0xf775a8>
    1194:	13490b0b 	movtne	r0, #39691	; 0x9b0b
    1198:	0b3b0b3a 	bleq	ec3e88 <__bss_end__+0xeb9e88>
    119c:	13010b39 	movwne	r0, #6969	; 0x1b39
    11a0:	280b0000 	stmdacs	fp, {}	; <UNPREDICTABLE>
    11a4:	1c0e0300 	stcne	3, cr0, [lr], {-0}
    11a8:	0c00000b 	stceq	0, cr0, [r0], {11}
    11ac:	0e030016 	mcreq	0, 0, r0, cr3, cr6, {0}
    11b0:	0b3b0b3a 	bleq	ec3ea0 <__bss_end__+0xeb9ea0>
    11b4:	13490b39 	movtne	r0, #39737	; 0x9b39
    11b8:	340d0000 	strcc	r0, [sp], #-0
    11bc:	3a0e0300 	bcc	381dc4 <__bss_end__+0x377dc4>
    11c0:	390b3b0b 	stmdbcc	fp, {r0, r1, r3, r8, r9, fp, ip, sp}
    11c4:	0013490b 	andseq	r4, r3, fp, lsl #18
    11c8:	012e0e00 			; <UNDEFINED> instruction: 0x012e0e00
    11cc:	0e03193f 			; <UNDEFINED> instruction: 0x0e03193f
    11d0:	0b3b0b3a 	bleq	ec3ec0 <__bss_end__+0xeb9ec0>
    11d4:	19270b39 	stmdbne	r7!, {r0, r3, r4, r5, r8, r9, fp}
    11d8:	06120111 			; <UNDEFINED> instruction: 0x06120111
    11dc:	42971840 	addsmi	r1, r7, #64, 16	; 0x400000
    11e0:	00130119 	andseq	r0, r3, r9, lsl r1
    11e4:	00050f00 	andeq	r0, r5, r0, lsl #30
    11e8:	0b3a0803 	bleq	e831fc <__bss_end__+0xe791fc>
    11ec:	0b390b3b 	bleq	e43ee0 <__bss_end__+0xe39ee0>
    11f0:	17021349 	strne	r1, [r2, -r9, asr #6]
    11f4:	001742b7 			; <UNDEFINED> instruction: 0x001742b7
    11f8:	00051000 	andeq	r1, r5, r0
    11fc:	0b3a0e03 	bleq	e84a10 <__bss_end__+0xe7aa10>
    1200:	0b390b3b 	bleq	e43ef4 <__bss_end__+0xe39ef4>
    1204:	17021349 	strne	r1, [r2, -r9, asr #6]
    1208:	001742b7 			; <UNDEFINED> instruction: 0x001742b7
    120c:	00341100 	eorseq	r1, r4, r0, lsl #2
    1210:	0b3a0e03 	bleq	e84a24 <__bss_end__+0xe7aa24>
    1214:	0b390b3b 	bleq	e43f08 <__bss_end__+0xe39f08>
    1218:	17021349 	strne	r1, [r2, -r9, asr #6]
    121c:	001742b7 			; <UNDEFINED> instruction: 0x001742b7
    1220:	82891200 	addhi	r1, r9, #0, 4
    1224:	01110101 	tsteq	r1, r1, lsl #2
    1228:	13011331 	movwne	r1, #4913	; 0x1331
    122c:	8a130000 	bhi	4c1234 <__bss_end__+0x4b7234>
    1230:	02000182 	andeq	r0, r0, #-2147483616	; 0x80000020
    1234:	18429118 	stmdane	r2, {r3, r4, r8, ip, pc}^
    1238:	89140000 	ldmdbhi	r4, {}	; <UNPREDICTABLE>
    123c:	11010182 	smlabbne	r1, r2, r1, r0
    1240:	00133101 	andseq	r3, r3, r1, lsl #2
    1244:	012e1500 			; <UNDEFINED> instruction: 0x012e1500
    1248:	0e03193f 			; <UNDEFINED> instruction: 0x0e03193f
    124c:	0b3b0b3a 	bleq	ec3f3c <__bss_end__+0xeb9f3c>
    1250:	19270b39 	stmdbne	r7!, {r0, r3, r4, r5, r8, r9, fp}
    1254:	01111349 	tsteq	r1, r9, asr #6
    1258:	18400612 	stmdane	r0, {r1, r4, r9, sl}^
    125c:	01194297 			; <UNDEFINED> instruction: 0x01194297
    1260:	16000013 			; <UNDEFINED> instruction: 0x16000013
    1264:	08030034 	stmdaeq	r3, {r2, r4, r5}
    1268:	0b3b0b3a 	bleq	ec3f58 <__bss_end__+0xeb9f58>
    126c:	13490b39 	movtne	r0, #39737	; 0x9b39
    1270:	42b71702 	adcsmi	r1, r7, #524288	; 0x80000
    1274:	17000017 	smladne	r0, r7, r0, r0
    1278:	0e030034 	mcreq	0, 0, r0, cr3, cr4, {1}
    127c:	0b3b0b3a 	bleq	ec3f6c <__bss_end__+0xeb9f6c>
    1280:	13490b39 	movtne	r0, #39737	; 0x9b39
    1284:	0000061c 	andeq	r0, r0, ip, lsl r6
    1288:	01828918 	orreq	r8, r2, r8, lsl r9
    128c:	31011100 	mrscc	r1, (UNDEF: 17)
    1290:	19000013 	stmdbne	r0, {r0, r1, r4}
    1294:	193f002e 	ldmdbne	pc!, {r1, r2, r3, r5}	; <UNPREDICTABLE>
    1298:	0e6e193c 			; <UNDEFINED> instruction: 0x0e6e193c
    129c:	0b3a0e03 	bleq	e84ab0 <__bss_end__+0xe7aab0>
    12a0:	0b390b3b 	bleq	e43f94 <__bss_end__+0xe39f94>
    12a4:	01000000 	mrseq	r0, (UNDEF: 0)
    12a8:	0e250111 	mcreq	1, 1, r0, cr5, cr1, {0}
    12ac:	0e030b13 	vmoveq.32	d3[0], r0
    12b0:	01110e1b 	tsteq	r1, fp, lsl lr
    12b4:	17100612 			; <UNDEFINED> instruction: 0x17100612
    12b8:	24020000 	strcs	r0, [r2], #-0
    12bc:	3e0b0b00 	vmlacc.f64	d0, d11, d0
    12c0:	0008030b 	andeq	r0, r8, fp, lsl #6
    12c4:	00240300 	eoreq	r0, r4, r0, lsl #6
    12c8:	0b3e0b0b 	bleq	f83efc <__bss_end__+0xf79efc>
    12cc:	00000e03 	andeq	r0, r0, r3, lsl #28
    12d0:	27011504 	strcs	r1, [r1, -r4, lsl #10]
    12d4:	01134919 	tsteq	r3, r9, lsl r9
    12d8:	05000013 	streq	r0, [r0, #-19]	; 0xffffffed
    12dc:	13490005 	movtne	r0, #36869	; 0x9005
    12e0:	34060000 	strcc	r0, [r6], #-0
    12e4:	3a0e0300 	bcc	381eec <__bss_end__+0x377eec>
    12e8:	390b3b0b 	stmdbcc	fp, {r0, r1, r3, r8, r9, fp, ip, sp}
    12ec:	3f13490b 	svccc	0x0013490b
    12f0:	00193c19 	andseq	r3, r9, r9, lsl ip
    12f4:	000f0700 	andeq	r0, pc, r0, lsl #14
    12f8:	13490b0b 	movtne	r0, #39691	; 0x9b0b
    12fc:	26080000 	strcs	r0, [r8], -r0
    1300:	00134900 	andseq	r4, r3, r0, lsl #18
    1304:	012e0900 			; <UNDEFINED> instruction: 0x012e0900
    1308:	0e03193f 			; <UNDEFINED> instruction: 0x0e03193f
    130c:	0b3b0b3a 	bleq	ec3ffc <__bss_end__+0xeb9ffc>
    1310:	19270b39 	stmdbne	r7!, {r0, r3, r4, r5, r8, r9, fp}
    1314:	01111349 	tsteq	r1, r9, asr #6
    1318:	18400612 	stmdane	r0, {r1, r4, r9, sl}^
    131c:	01194297 			; <UNDEFINED> instruction: 0x01194297
    1320:	0a000013 	beq	1374 <__code_start__-0x6c8c>
    1324:	0e030005 	cdpeq	0, 0, cr0, cr3, cr5, {0}
    1328:	0b3b0b3a 	bleq	ec4018 <__bss_end__+0xeba018>
    132c:	13490b39 	movtne	r0, #39737	; 0x9b39
    1330:	00001802 	andeq	r1, r0, r2, lsl #16
    1334:	0300050b 	movweq	r0, #1291	; 0x50b
    1338:	3b0b3a08 	blcc	2cfb60 <__bss_end__+0x2c5b60>
    133c:	490b390b 	stmdbmi	fp, {r0, r1, r3, r8, fp, ip, sp}
    1340:	b7170213 			; <UNDEFINED> instruction: 0xb7170213
    1344:	00001742 	andeq	r1, r0, r2, asr #14
    1348:	0300340c 	movweq	r3, #1036	; 0x40c
    134c:	3b0b3a08 	blcc	2cfb74 <__bss_end__+0x2c5b74>
    1350:	490b390b 	stmdbmi	fp, {r0, r1, r3, r8, fp, ip, sp}
    1354:	b7170213 			; <UNDEFINED> instruction: 0xb7170213
    1358:	00001742 	andeq	r1, r0, r2, asr #14
    135c:	01110100 	tsteq	r1, r0, lsl #2
    1360:	0b130e25 	bleq	4c4bfc <__bss_end__+0x4babfc>
    1364:	0e1b0e03 	cdpeq	14, 1, cr0, cr11, cr3, {0}
    1368:	06120111 			; <UNDEFINED> instruction: 0x06120111
    136c:	00001710 	andeq	r1, r0, r0, lsl r7
    1370:	0b002402 	bleq	a380 <__bss_end__+0x380>
    1374:	030b3e0b 	movweq	r3, #48651	; 0xbe0b
    1378:	03000008 	movweq	r0, #8
    137c:	0b0b0024 	bleq	2c1414 <__bss_end__+0x2b7414>
    1380:	0e030b3e 	vmoveq.16	d3[0], r0
    1384:	15040000 	strne	r0, [r4, #-0]
    1388:	49192701 	ldmdbmi	r9, {r0, r8, r9, sl, sp}
    138c:	00130113 	andseq	r0, r3, r3, lsl r1
    1390:	00050500 	andeq	r0, r5, r0, lsl #10
    1394:	00001349 	andeq	r1, r0, r9, asr #6
    1398:	03003406 	movweq	r3, #1030	; 0x406
    139c:	3b0b3a0e 	blcc	2cfbdc <__bss_end__+0x2c5bdc>
    13a0:	490b390b 	stmdbmi	fp, {r0, r1, r3, r8, fp, ip, sp}
    13a4:	3c193f13 	ldccc	15, cr3, [r9], {19}
    13a8:	07000019 	smladeq	r0, r9, r0, r0
    13ac:	0b0b000f 	bleq	2c13f0 <__bss_end__+0x2b73f0>
    13b0:	00001349 	andeq	r1, r0, r9, asr #6
    13b4:	49002608 	stmdbmi	r0, {r3, r9, sl, sp}
    13b8:	09000013 	stmdbeq	r0, {r0, r1, r4}
    13bc:	193f012e 	ldmdbne	pc!, {r1, r2, r3, r5, r8}	; <UNPREDICTABLE>
    13c0:	0b3a0e03 	bleq	e84bd4 <__bss_end__+0xe7abd4>
    13c4:	0b390b3b 	bleq	e440b8 <__bss_end__+0xe3a0b8>
    13c8:	13491927 	movtne	r1, #39207	; 0x9927
    13cc:	06120111 			; <UNDEFINED> instruction: 0x06120111
    13d0:	42971840 	addsmi	r1, r7, #64, 16	; 0x400000
    13d4:	0a000019 	beq	1440 <__code_start__-0x6bc0>
    13d8:	08030005 	stmdaeq	r3, {r0, r2}
    13dc:	0b3b0b3a 	bleq	ec40cc <__bss_end__+0xeba0cc>
    13e0:	13490b39 	movtne	r0, #39737	; 0x9b39
    13e4:	42b71702 	adcsmi	r1, r7, #524288	; 0x80000
    13e8:	00000017 	andeq	r0, r0, r7, lsl r0
    13ec:	25011101 	strcs	r1, [r1, #-257]	; 0xfffffeff
    13f0:	030b130e 	movweq	r1, #45838	; 0xb30e
    13f4:	110e1b0e 	tstne	lr, lr, lsl #22
    13f8:	10061201 	andne	r1, r6, r1, lsl #4
    13fc:	02000017 	andeq	r0, r0, #23, 0
    1400:	0b0b0024 	bleq	2c1498 <__bss_end__+0x2b7498>
    1404:	08030b3e 	stmdaeq	r3, {r1, r2, r3, r4, r5, r8, r9, fp}
    1408:	24030000 	strcs	r0, [r3], #-0
    140c:	3e0b0b00 	vmlacc.f64	d0, d11, d0
    1410:	000e030b 	andeq	r0, lr, fp, lsl #6
    1414:	01150400 	tsteq	r5, r0, lsl #8
    1418:	13491927 	movtne	r1, #39207	; 0x9927
    141c:	00001301 	andeq	r1, r0, r1, lsl #6
    1420:	49000505 	stmdbmi	r0, {r0, r2, r8, sl}
    1424:	06000013 			; <UNDEFINED> instruction: 0x06000013
    1428:	0e030034 	mcreq	0, 0, r0, cr3, cr4, {1}
    142c:	0b3b0b3a 	bleq	ec411c <__bss_end__+0xeba11c>
    1430:	13490b39 	movtne	r0, #39737	; 0x9b39
    1434:	193c193f 	ldmdbne	ip!, {r0, r1, r2, r3, r4, r5, r8, fp, ip}
    1438:	0f070000 	svceq	0x00070000
    143c:	490b0b00 	stmdbmi	fp, {r8, r9, fp}
    1440:	08000013 	stmdaeq	r0, {r0, r1, r4}
    1444:	13490026 	movtne	r0, #36902	; 0x9026
    1448:	2e090000 	cdpcs	0, 0, cr0, cr9, cr0, {0}
    144c:	03193f01 	tsteq	r9, #1, 30
    1450:	3b0b3a0e 	blcc	2cfc90 <__bss_end__+0x2c5c90>
    1454:	270b390b 	strcs	r3, [fp, -fp, lsl #18]
    1458:	11134919 	tstne	r3, r9, lsl r9
    145c:	40061201 	andmi	r1, r6, r1, lsl #4
    1460:	19429718 	stmdbne	r2, {r3, r4, r8, r9, sl, ip, pc}^
    1464:	00001301 	andeq	r1, r0, r1, lsl #6
    1468:	0300050a 	movweq	r0, #1290	; 0x50a
    146c:	3b0b3a08 	blcc	2cfc94 <__bss_end__+0x2c5c94>
    1470:	490b390b 	stmdbmi	fp, {r0, r1, r3, r8, fp, ip, sp}
    1474:	00180213 	andseq	r0, r8, r3, lsl r2
    1478:	00050b00 	andeq	r0, r5, r0, lsl #22
    147c:	0b3a0803 	bleq	e83490 <__bss_end__+0xe79490>
    1480:	0b390b3b 	bleq	e44174 <__bss_end__+0xe3a174>
    1484:	17021349 	strne	r1, [r2, -r9, asr #6]
    1488:	001742b7 			; <UNDEFINED> instruction: 0x001742b7
    148c:	00340c00 	eorseq	r0, r4, r0, lsl #24
    1490:	0b3a0803 	bleq	e834a4 <__bss_end__+0xe794a4>
    1494:	0b390b3b 	bleq	e44188 <__bss_end__+0xe3a188>
    1498:	17021349 	strne	r1, [r2, -r9, asr #6]
    149c:	001742b7 			; <UNDEFINED> instruction: 0x001742b7
    14a0:	11010000 	mrsne	r0, (UNDEF: 1)
    14a4:	130e2501 	movwne	r2, #58625	; 0xe501
    14a8:	1b0e030b 	blne	3820dc <__bss_end__+0x3780dc>
    14ac:	1117550e 	tstne	r7, lr, lsl #10
    14b0:	00171001 	andseq	r1, r7, r1
    14b4:	00240200 	eoreq	r0, r4, r0, lsl #4
    14b8:	0b3e0b0b 	bleq	f840ec <__bss_end__+0xf7a0ec>
    14bc:	00000803 	andeq	r0, r0, r3, lsl #16
    14c0:	03001603 	movweq	r1, #1539	; 0x603
    14c4:	3b0b3a0e 	blcc	2cfd04 <__bss_end__+0x2c5d04>
    14c8:	490b390b 	stmdbmi	fp, {r0, r1, r3, r8, fp, ip, sp}
    14cc:	04000013 	streq	r0, [r0], #-19	; 0xffffffed
    14d0:	0b0b0024 	bleq	2c1568 <__bss_end__+0x2b7568>
    14d4:	0e030b3e 	vmoveq.16	d3[0], r0
    14d8:	26050000 	strcs	r0, [r5], -r0
    14dc:	00134900 	andseq	r4, r3, r0, lsl #18
    14e0:	01150600 	tsteq	r5, r0, lsl #12
    14e4:	13491927 	movtne	r1, #39207	; 0x9927
    14e8:	00001301 	andeq	r1, r0, r1, lsl #6
    14ec:	49000507 	stmdbmi	r0, {r0, r1, r2, r8, sl}
    14f0:	08000013 	stmdaeq	r0, {r0, r1, r4}
    14f4:	0e030034 	mcreq	0, 0, r0, cr3, cr4, {1}
    14f8:	0b3b0b3a 	bleq	ec41e8 <__bss_end__+0xeba1e8>
    14fc:	13490b39 	movtne	r0, #39737	; 0x9b39
    1500:	193c193f 	ldmdbne	ip!, {r0, r1, r2, r3, r4, r5, r8, fp, ip}
    1504:	0f090000 	svceq	0x00090000
    1508:	490b0b00 	stmdbmi	fp, {r8, r9, fp}
    150c:	0a000013 	beq	1560 <__code_start__-0x6aa0>
    1510:	193f012e 	ldmdbne	pc!, {r1, r2, r3, r5, r8}	; <UNPREDICTABLE>
    1514:	0b3a0e03 	bleq	e84d28 <__bss_end__+0xe7ad28>
    1518:	0b390b3b 	bleq	e4420c <__bss_end__+0xe3a20c>
    151c:	13491927 	movtne	r1, #39207	; 0x9927
    1520:	06120111 			; <UNDEFINED> instruction: 0x06120111
    1524:	42971840 	addsmi	r1, r7, #64, 16	; 0x400000
    1528:	00130119 	andseq	r0, r3, r9, lsl r1
    152c:	00050b00 	andeq	r0, r5, r0, lsl #22
    1530:	0b3a0803 	bleq	e83544 <__bss_end__+0xe79544>
    1534:	0b390b3b 	bleq	e44228 <__bss_end__+0xe3a228>
    1538:	17021349 	strne	r1, [r2, -r9, asr #6]
    153c:	001742b7 			; <UNDEFINED> instruction: 0x001742b7
    1540:	00340c00 	eorseq	r0, r4, r0, lsl #24
    1544:	0b3a0803 	bleq	e83558 <__bss_end__+0xe79558>
    1548:	0b390b3b 	bleq	e4423c <__bss_end__+0xe3a23c>
    154c:	17021349 	strne	r1, [r2, -r9, asr #6]
    1550:	001742b7 			; <UNDEFINED> instruction: 0x001742b7
	...

Disassembly of section .debug_loc:

00000000 <.debug_loc>:
       0:	00010101 	andeq	r0, r1, r1, lsl #2
       4:	00000000 	andeq	r0, r0, r0
       8:	00010100 	andeq	r0, r1, r0, lsl #2
       c:	01040000 	mrseq	r0, (UNDEF: 4)
      10:	01300000 	teqeq	r0, r0
      14:	00020000 	andeq	r0, r2, r0
      18:	01309f30 	teqeq	r0, r0, lsr pc
      1c:	01500000 	cmpeq	r0, r0
      20:	00020000 	andeq	r0, r2, r0
      24:	01509f31 	cmpeq	r0, r1, lsr pc
      28:	01780000 	cmneq	r8, r0
      2c:	00010000 	andeq	r0, r1, r0
      30:	00017855 	andeq	r7, r1, r5, asr r8
      34:	00017b00 	andeq	r7, r1, r0, lsl #22
      38:	51000100 	mrspl	r0, (UNDEF: 16)
      3c:	0000017b 	andeq	r0, r0, fp, ror r1
      40:	0000017c 	andeq	r0, r0, ip, ror r1
      44:	7f750003 	svcvc	0x00750003
      48:	00017c9f 	muleq	r1, pc, ip	; <UNPREDICTABLE>
      4c:	0001ec00 	andeq	lr, r1, r0, lsl #24
      50:	55000100 	strpl	r0, [r0, #-256]	; 0xffffff00
      54:	000001f0 	strdeq	r0, [r0], -r0	; <UNPREDICTABLE>
      58:	00000258 	andeq	r0, r0, r8, asr r2
      5c:	00550001 	subseq	r0, r5, r1
      60:	00000000 	andeq	r0, r0, r0
      64:	02000000 	andeq	r0, r0, #0, 0
      68:	9c000000 	stcls	0, cr0, [r0], {-0}
      6c:	e0000001 	and	r0, r0, r1
      70:	02000001 	andeq	r0, r0, #1, 0
      74:	f09f3200 			; <UNDEFINED> instruction: 0xf09f3200
      78:	58000001 	stmdapl	r0, {r0}
      7c:	02000002 	andeq	r0, r0, #2, 0
      80:	009f3200 	addseq	r3, pc, r0, lsl #4
      84:	00000000 	andeq	r0, r0, r0
      88:	02000000 	andeq	r0, r0, #0, 0
      8c:	00000000 	andeq	r0, r0, r0
      90:	0001a800 	andeq	sl, r1, r0, lsl #16
      94:	0001b800 	andeq	fp, r1, r0, lsl #16
      98:	30000200 	andcc	r0, r0, r0, lsl #4
      9c:	0001b89f 	muleq	r1, pc, r8	; <UNPREDICTABLE>
      a0:	0001d800 	andeq	sp, r1, r0, lsl #16
      a4:	57000100 	strpl	r0, [r0, -r0, lsl #2]
      a8:	000001f0 	strdeq	r0, [r0], -r0	; <UNPREDICTABLE>
      ac:	00000258 	andeq	r0, r0, r8, asr r2
      b0:	00570001 	subseq	r0, r7, r1
	...
      c0:	0b000000 	bleq	c8 <__code_start__-0x7f38>
      c4:	01000000 	mrseq	r0, (UNDEF: 0)
      c8:	000b5000 	andeq	r5, fp, r0
      cc:	00940000 	addseq	r0, r4, r0
      d0:	00010000 	andeq	r0, r1, r0
      d4:	00000054 	andeq	r0, r0, r4, asr r0
      d8:	00000000 	andeq	r0, r0, r0
      dc:	14000000 	strne	r0, [r0], #-0
      e0:	28000000 	stmdacs	r0, {}	; <UNPREDICTABLE>
      e4:	01000000 	mrseq	r0, (UNDEF: 0)
      e8:	00005000 	andeq	r5, r0, r0
	...
      f4:	0000006c 	andeq	r0, r0, ip, rrx
      f8:	00000094 	muleq	r0, r4, r0
      fc:	00500001 	subseq	r0, r0, r1
     100:	00000000 	andeq	r0, r0, r0
     104:	01000000 	mrseq	r0, (UNDEF: 0)
     108:	00004000 	andeq	r4, r0, r0
     10c:	00006400 	andeq	r6, r0, r0, lsl #8
     110:	54000100 	strpl	r0, [r0], #-256	; 0xffffff00
	...
     120:	018c0000 	orreq	r0, ip, r0
     124:	01ac0000 			; <UNDEFINED> instruction: 0x01ac0000
     128:	00010000 	andeq	r0, r1, r0
     12c:	0001ac50 	andeq	sl, r1, r0, asr ip
     130:	0001b300 	andeq	fp, r1, r0, lsl #6
     134:	91000200 	mrsls	r0, R8_usr
     138:	0001b36c 	andeq	fp, r1, ip, ror #6
     13c:	0001c800 	andeq	ip, r1, r0, lsl #16
     140:	f3000400 	vshl.u8	d0, d0, d0
     144:	009f5001 	addseq	r5, pc, r1
	...
     154:	00015000 	andeq	r5, r1, r0
     158:	00017000 	andeq	r7, r1, r0
     15c:	50000100 	andpl	r0, r0, r0, lsl #2
     160:	00000170 	andeq	r0, r0, r0, ror r1
     164:	00000177 	andeq	r0, r0, r7, ror r1
     168:	6c910002 	ldcvs	0, cr0, [r1], {2}
     16c:	00000177 	andeq	r0, r0, r7, ror r1
     170:	0000018c 	andeq	r0, r0, ip, lsl #3
     174:	01f30004 	mvnseq	r0, r4
     178:	00009f50 	andeq	r9, r0, r0, asr pc
	...
     188:	00000114 	andeq	r0, r0, r4, lsl r1
     18c:	00000134 	andeq	r0, r0, r4, lsr r1
     190:	34500001 	ldrbcc	r0, [r0], #-1
     194:	3b000001 	blcc	1a0 <__code_start__-0x7e60>
     198:	02000001 	andeq	r0, r0, #1, 0
     19c:	3b6c9100 	blcc	1b245a4 <__bss_end__+0x1b1a5a4>
     1a0:	50000001 	andpl	r0, r0, r1
     1a4:	04000001 	streq	r0, [r0], #-1
     1a8:	5001f300 	andpl	pc, r1, r0, lsl #6
     1ac:	0000009f 	muleq	r0, pc, r0	; <UNPREDICTABLE>
	...
     1b8:	d8000000 	stmdale	r0, {}	; <UNPREDICTABLE>
     1bc:	f8000000 			; <UNDEFINED> instruction: 0xf8000000
     1c0:	01000000 	mrseq	r0, (UNDEF: 0)
     1c4:	00f85000 	rscseq	r5, r8, r0
     1c8:	00ff0000 	rscseq	r0, pc, r0
     1cc:	00020000 	andeq	r0, r2, r0
     1d0:	00ff6c91 	smlalseq	r6, pc, r1, ip	; <UNPREDICTABLE>
     1d4:	01140000 	tsteq	r4, r0
     1d8:	00040000 	andeq	r0, r4, r0
     1dc:	9f5001f3 	svcls	0x005001f3
	...
     1ec:	009c0000 	addseq	r0, ip, r0
     1f0:	00bc0000 	adcseq	r0, ip, r0
     1f4:	00010000 	andeq	r0, r1, r0
     1f8:	0000bc50 	andeq	fp, r0, r0, asr ip
     1fc:	0000c300 	andeq	ip, r0, r0, lsl #6
     200:	91000200 	mrsls	r0, R8_usr
     204:	0000c36c 	andeq	ip, r0, ip, ror #6
     208:	0000d800 	andeq	sp, r0, r0, lsl #16
     20c:	f3000400 	vshl.u8	d0, d0, d0
     210:	009f5001 	addseq	r5, pc, r1
	...
     220:	00006000 	andeq	r6, r0, r0
     224:	00008000 	andeq	r8, r0, r0
     228:	50000100 	andpl	r0, r0, r0, lsl #2
     22c:	00000080 	andeq	r0, r0, r0, lsl #1
     230:	00000087 	andeq	r0, r0, r7, lsl #1
     234:	6c910002 	ldcvs	0, cr0, [r1], {2}
     238:	00000087 	andeq	r0, r0, r7, lsl #1
     23c:	0000009c 	muleq	r0, ip, r0
     240:	01f30004 	mvnseq	r0, r4
     244:	00009f50 	andeq	r9, r0, r0, asr pc
	...
     250:	0000002c 	andeq	r0, r0, ip, lsr #32
     254:	00000060 	andeq	r0, r0, r0, rrx
     258:	00700005 	rsbseq	r0, r0, r5
     25c:	009f1b34 	addseq	r1, pc, r4, lsr fp	; <UNPREDICTABLE>
     260:	00000000 	andeq	r0, r0, r0
     264:	02000000 	andeq	r0, r0, #0, 0
     268:	00002c00 	andeq	r2, r0, r0, lsl #24
     26c:	00003c00 	andeq	r3, r0, r0, lsl #24
     270:	30000200 	andcc	r0, r0, r0, lsl #4
     274:	0000009f 	muleq	r0, pc, r0	; <UNPREDICTABLE>
	...
     280:	10000000 	andne	r0, r0, r0
     284:	20000085 	andcs	r0, r0, r5, lsl #1
     288:	01000085 	smlabbeq	r0, r5, r0, r0
     28c:	85205000 	strhi	r5, [r0, #-0]!
     290:	854c0000 	strbhi	r0, [ip, #-0]
     294:	00010000 	andeq	r0, r1, r0
     298:	00854c54 	addeq	r4, r5, r4, asr ip
     29c:	00856000 	addeq	r6, r5, r0
     2a0:	f3000400 	vshl.u8	d0, d0, d0
     2a4:	009f5001 	addseq	r5, pc, r1
     2a8:	00000000 	andeq	r0, r0, r0
     2ac:	1a000000 	bne	2b4 <__code_start__-0x7d4c>
     2b0:	10002323 	andne	r2, r0, r3, lsr #6
     2b4:	10000085 	andne	r0, r0, r5, lsl #1
     2b8:	02000085 	andeq	r0, r0, #133, 0	; 0x85
     2bc:	109f3400 	addsne	r3, pc, r0, lsl #8
     2c0:	60000085 	andvs	r0, r0, r5, lsl #1
     2c4:	02000085 	andeq	r0, r0, #133, 0	; 0x85
     2c8:	009f3c00 	addseq	r3, pc, r0, lsl #24
     2cc:	00000000 	andeq	r0, r0, r0
     2d0:	6a000000 	bvs	2d8 <__code_start__-0x7d28>
     2d4:	10007373 	andne	r7, r0, r3, ror r3
     2d8:	10000085 	andne	r0, r0, r5, lsl #1
     2dc:	04000085 	streq	r0, [r0], #-133	; 0xffffff7b
     2e0:	243c4000 	ldrtcs	r4, [ip], #-0
     2e4:	0085109f 	umulleq	r1, r5, pc, r0	; <UNPREDICTABLE>
     2e8:	00856000 	addeq	r6, r5, r0
     2ec:	08000500 	stmdaeq	r0, {r8, sl}
     2f0:	9f243ffe 	svcls	0x00243ffe
	...
     304:	02280000 	eoreq	r0, r8, #0, 0
     308:	02500000 	subseq	r0, r0, #0, 0
     30c:	00010000 	andeq	r0, r1, r0
     310:	00025050 	andeq	r5, r2, r0, asr r0
     314:	00026000 	andeq	r6, r2, r0
     318:	70000300 	andvc	r0, r0, r0, lsl #6
     31c:	02609f7d 	rsbeq	r9, r0, #500	; 0x1f4
     320:	026c0000 	rsbeq	r0, ip, #0, 0
     324:	00040000 	andeq	r0, r4, r0
     328:	9f5001f3 	svcls	0x005001f3
     32c:	0000026c 	andeq	r0, r0, ip, ror #4
     330:	0000026f 	andeq	r0, r0, pc, ror #4
     334:	6f500001 	svcvs	0x00500001
     338:	ac000002 	stcge	0, cr0, [r0], {2}
     33c:	04000002 	streq	r0, [r0], #-2
     340:	5001f300 	andpl	pc, r1, r0, lsl #6
     344:	0000009f 	muleq	r0, pc, r0	; <UNPREDICTABLE>
     348:	00000000 	andeq	r0, r0, r0
     34c:	4c000100 	stfmis	f0, [r0], {-0}
     350:	54000002 	strpl	r0, [r0], #-2
     354:	02000002 	andeq	r0, r0, #2, 0
     358:	009f3400 	addseq	r3, pc, r0, lsl #8
     35c:	00000000 	andeq	r0, r0, r0
     360:	01000000 	mrseq	r0, (UNDEF: 0)
     364:	4c000000 	stcmi	0, cr0, [r0], {-0}
     368:	50000002 	andpl	r0, r0, r2
     36c:	01000002 	tsteq	r0, r2
     370:	02505000 	subseq	r5, r0, #0, 0
     374:	02540000 	subseq	r0, r4, #0, 0
     378:	00030000 	andeq	r0, r3, r0
     37c:	009f7d70 	addseq	r7, pc, r0, ror sp	; <UNPREDICTABLE>
     380:	00000000 	andeq	r0, r0, r0
     384:	01000000 	mrseq	r0, (UNDEF: 0)
     388:	0001fc00 	andeq	pc, r1, r0, lsl #24
     38c:	00020400 	andeq	r0, r2, r0, lsl #8
     390:	34000200 	strcc	r0, [r0], #-512	; 0xfffffe00
     394:	0000009f 	muleq	r0, pc, r0	; <UNPREDICTABLE>
	...
     3b0:	0000d000 	andeq	sp, r0, r0
     3b4:	00010c00 	andeq	r0, r1, r0, lsl #24
     3b8:	50000100 	andpl	r0, r0, r0, lsl #2
     3bc:	0000010c 	andeq	r0, r0, ip, lsl #2
     3c0:	00000120 	andeq	r0, r0, r0, lsr #2
     3c4:	01f30004 	mvnseq	r0, r4
     3c8:	01209f50 			; <UNDEFINED> instruction: 0x01209f50
     3cc:	01380000 	teqeq	r8, r0
     3d0:	00010000 	andeq	r0, r1, r0
     3d4:	00013850 	andeq	r3, r1, r0, asr r8
     3d8:	00014000 	andeq	r4, r1, r0
     3dc:	f3000400 	vshl.u8	d0, d0, d0
     3e0:	409f5001 	addsmi	r5, pc, r1
     3e4:	43000001 	movwmi	r0, #1
     3e8:	01000001 	tsteq	r0, r1
     3ec:	01435000 	mrseq	r5, (UNDEF: 67)
     3f0:	01640000 	cmneq	r4, r0
     3f4:	00040000 	andeq	r0, r4, r0
     3f8:	9f5001f3 	svcls	0x005001f3
     3fc:	00000164 	andeq	r0, r0, r4, ror #2
     400:	00000167 	andeq	r0, r0, r7, ror #2
     404:	67500001 	ldrbvs	r0, [r0, -r1]
     408:	88000001 	stmdahi	r0, {r0}
     40c:	04000001 	streq	r0, [r0], #-1
     410:	5001f300 	andpl	pc, r1, r0, lsl #6
     414:	0001889f 	muleq	r1, pc, r8	; <UNPREDICTABLE>
     418:	00018b00 	andeq	r8, r1, r0, lsl #22
     41c:	50000100 	andpl	r0, r0, r0, lsl #2
     420:	0000018b 	andeq	r0, r0, fp, lsl #3
     424:	000001dc 	ldrdeq	r0, [r0], -ip
     428:	01f30004 	mvnseq	r0, r4
     42c:	00009f50 	andeq	r9, r0, r0, asr pc
	...
     44c:	000000d0 	ldrdeq	r0, [r0], -r0	; <UNPREDICTABLE>
     450:	00000110 	andeq	r0, r0, r0, lsl r1
     454:	10510001 	subsne	r0, r1, r1
     458:	18000001 	stmdane	r0, {r0}
     45c:	03000001 	movweq	r0, #1
     460:	9f017100 	svcls	0x00017100
     464:	00000118 	andeq	r0, r0, r8, lsl r1
     468:	00000120 	andeq	r0, r0, r0, lsr #2
     46c:	01f30004 	mvnseq	r0, r4
     470:	01209f51 			; <UNDEFINED> instruction: 0x01209f51
     474:	01340000 	teqeq	r4, r0
     478:	00010000 	andeq	r0, r1, r0
     47c:	00013451 	andeq	r3, r1, r1, asr r4
     480:	00014000 	andeq	r4, r1, r0
     484:	f3000400 	vshl.u8	d0, d0, d0
     488:	409f5101 	addsmi	r5, pc, r1, lsl #2
     48c:	43000001 	movwmi	r0, #1
     490:	01000001 	tsteq	r0, r1
     494:	01435100 	mrseq	r5, (UNDEF: 83)
     498:	01640000 	cmneq	r4, r0
     49c:	00040000 	andeq	r0, r4, r0
     4a0:	9f5101f3 	svcls	0x005101f3
     4a4:	00000164 	andeq	r0, r0, r4, ror #2
     4a8:	00000167 	andeq	r0, r0, r7, ror #2
     4ac:	67510001 	ldrbvs	r0, [r1, -r1]
     4b0:	88000001 	stmdahi	r0, {r0}
     4b4:	04000001 	streq	r0, [r0], #-1
     4b8:	5101f300 	mrspl	pc, SP_irq	; <UNPREDICTABLE>
     4bc:	0001889f 	muleq	r1, pc, r8	; <UNPREDICTABLE>
     4c0:	00018b00 	andeq	r8, r1, r0, lsl #22
     4c4:	51000100 	mrspl	r0, (UNDEF: 16)
     4c8:	0000018b 	andeq	r0, r0, fp, lsl #3
     4cc:	000001dc 	ldrdeq	r0, [r0], -ip
     4d0:	01f30004 	mvnseq	r0, r4
     4d4:	00009f51 	andeq	r9, r0, r1, asr pc
     4d8:	00000000 	andeq	r0, r0, r0
     4dc:	00030000 	andeq	r0, r3, r0
     4e0:	000000f0 	strdeq	r0, [r0], -r0	; <UNPREDICTABLE>
     4e4:	000000f4 	strdeq	r0, [r0], -r4
     4e8:	00510001 	subseq	r0, r1, r1
	...
     4f4:	00010c00 	andeq	r0, r1, r0, lsl #24
     4f8:	00011000 	andeq	r1, r1, r0
     4fc:	51000100 	mrspl	r0, (UNDEF: 16)
	...
     508:	010c0000 	mrseq	r0, (UNDEF: 12)
     50c:	01100000 	tsteq	r0, r0
     510:	00010000 	andeq	r0, r1, r0
     514:	00000050 	andeq	r0, r0, r0, asr r0
	...
     530:	24000000 	strcs	r0, [r0], #-0
     534:	01000000 	mrseq	r0, (UNDEF: 0)
     538:	00245000 	eoreq	r5, r4, r0
     53c:	00280000 	eoreq	r0, r8, r0
     540:	00030000 	andeq	r0, r3, r0
     544:	289f7d70 	ldmcs	pc, {r4, r5, r6, r8, sl, fp, ip, sp, lr}	; <UNPREDICTABLE>
     548:	34000000 	strcc	r0, [r0], #-0
     54c:	01000000 	mrseq	r0, (UNDEF: 0)
     550:	00345300 	eorseq	r5, r4, r0, lsl #6
     554:	00480000 	subeq	r0, r8, r0
     558:	00090000 	andeq	r0, r9, r0
     55c:	235001f3 	cmpcs	r0, #-1073741764	; 0xc000003c
     560:	1afc0903 	bne	fff02974 <__bss_end__+0xffef8974>
     564:	0000489f 	muleq	r0, pc, r8	; <UNPREDICTABLE>
     568:	00006000 	andeq	r6, r0, r0
     56c:	50000100 	andpl	r0, r0, r0, lsl #2
     570:	00000060 	andeq	r0, r0, r0, rrx
     574:	00000068 	andeq	r0, r0, r8, rrx
     578:	01f30004 	mvnseq	r0, r4
     57c:	00689f50 	rsbeq	r9, r8, r0, asr pc
     580:	006b0000 	rsbeq	r0, fp, r0
     584:	00010000 	andeq	r0, r1, r0
     588:	00006b50 	andeq	r6, r0, r0, asr fp
     58c:	00008c00 	andeq	r8, r0, r0, lsl #24
     590:	f3000400 	vshl.u8	d0, d0, d0
     594:	8c9f5001 	ldchi	0, cr5, [pc], {1}
     598:	d0000000 	andle	r0, r0, r0
     59c:	09000000 	stmdbeq	r0, {}	; <UNPREDICTABLE>
     5a0:	5001f300 	andpl	pc, r1, r0, lsl #6
     5a4:	fc090323 	stc2	3, cr0, [r9], {35}	; 0x23
     5a8:	00009f1a 	andeq	r9, r0, sl, lsl pc
	...
     5b4:	00300000 	eorseq	r0, r0, r0
     5b8:	00480000 	subeq	r0, r8, r0
     5bc:	00010000 	andeq	r0, r1, r0
     5c0:	00008c50 	andeq	r8, r0, r0, asr ip
     5c4:	0000a400 	andeq	sl, r0, r0, lsl #8
     5c8:	50000100 	andpl	r0, r0, r0, lsl #2
	...
     5d4:	00200002 	eoreq	r0, r0, r2
     5d8:	00280000 	eoreq	r0, r8, r0
     5dc:	00020000 	andeq	r0, r2, r0
     5e0:	00009f34 	andeq	r9, r0, r4, lsr pc
     5e4:	00000000 	andeq	r0, r0, r0
     5e8:	00020000 	andeq	r0, r2, r0
     5ec:	00200000 	eoreq	r0, r0, r0
     5f0:	00240000 	eoreq	r0, r4, r0
     5f4:	00010000 	andeq	r0, r1, r0
     5f8:	00002450 	andeq	r2, r0, r0, asr r4
     5fc:	00002800 	andeq	r2, r0, r0, lsl #16
     600:	70000300 	andvc	r0, r0, r0, lsl #6
     604:	00009f7d 	andeq	r9, r0, sp, ror pc
     608:	00000000 	andeq	r0, r0, r0
     60c:	04020000 	streq	r0, [r2], #-0
     610:	00000038 	andeq	r0, r0, r8, lsr r0
     614:	00000038 	andeq	r0, r0, r8, lsr r0
     618:	9f340002 	svcls	0x00340002
	...
     624:	00380402 	eorseq	r0, r8, r2, lsl #8
     628:	00380000 	eorseq	r0, r8, r0
     62c:	00010000 	andeq	r0, r1, r0
     630:	00000053 	andeq	r0, r0, r3, asr r0
	...
     63c:	2c000000 	stccs	0, cr0, [r0], {-0}
     640:	38000000 	stmdacc	r0, {}	; <UNPREDICTABLE>
     644:	01000000 	mrseq	r0, (UNDEF: 0)
     648:	00385000 	eorseq	r5, r8, r0
     64c:	00480000 	subeq	r0, r8, r0
     650:	00010000 	andeq	r0, r1, r0
     654:	00004854 	andeq	r4, r0, r4, asr r8
     658:	00005800 	andeq	r5, r0, r0, lsl #16
     65c:	50000100 	andpl	r0, r0, r0, lsl #2
	...
     670:	0000000b 	andeq	r0, r0, fp
     674:	0b500001 	bleq	1400680 <__bss_end__+0x13f6680>
     678:	14000000 	strne	r0, [r0], #-0
     67c:	01000000 	mrseq	r0, (UNDEF: 0)
     680:	00005400 	andeq	r5, r0, r0, lsl #8
     684:	00000000 	andeq	r0, r0, r0
     688:	01000000 	mrseq	r0, (UNDEF: 0)
     68c:	00000001 	andeq	r0, r0, r1
     690:	00080000 	andeq	r0, r8, r0
     694:	00010000 	andeq	r0, r1, r0
     698:	00000850 	andeq	r0, r0, r0, asr r8
     69c:	00003400 	andeq	r3, r0, r0, lsl #8
     6a0:	54000100 	strpl	r0, [r0], #-256	; 0xffffff00
	...
     6b0:	02880000 	addeq	r0, r8, #0, 0
     6b4:	02b80000 	adcseq	r0, r8, #0, 0
     6b8:	00010000 	andeq	r0, r1, r0
     6bc:	0002b850 	andeq	fp, r2, r0, asr r8
     6c0:	0006ec00 	andeq	lr, r6, r0, lsl #24
     6c4:	59000100 	stmdbpl	r0, {r8}
     6c8:	000006ec 	andeq	r0, r0, ip, ror #13
     6cc:	00000720 	andeq	r0, r0, r0, lsr #14
     6d0:	01f30004 	mvnseq	r0, r4
     6d4:	00009f50 	andeq	r9, r0, r0, asr pc
	...
     6e4:	00000288 	andeq	r0, r0, r8, lsl #5
     6e8:	000002a0 	andeq	r0, r0, r0, lsr #5
     6ec:	a0510001 	subsge	r0, r1, r1
     6f0:	b8000002 	stmdalt	r0, {r1}
     6f4:	03000002 	movweq	r0, #2
     6f8:	9f017100 	svcls	0x00017100
     6fc:	000002b8 			; <UNDEFINED> instruction: 0x000002b8
     700:	00000720 	andeq	r0, r0, r0, lsr #14
     704:	01f30004 	mvnseq	r0, r4
     708:	00009f51 	andeq	r9, r0, r1, asr pc
	...
     71c:	02880000 	addeq	r0, r8, #0, 0
     720:	02b80000 	adcseq	r0, r8, #0, 0
     724:	00010000 	andeq	r0, r1, r0
     728:	0002b852 	andeq	fp, r2, r2, asr r8
     72c:	0003ec00 	andeq	lr, r3, r0, lsl #24
     730:	56000100 	strpl	r0, [r0], -r0, lsl #2
     734:	000003ec 	andeq	r0, r0, ip, ror #7
     738:	000004a0 	andeq	r0, r0, r0, lsr #9
     73c:	a05b0001 	subsge	r0, fp, r1
     740:	c0000004 	andgt	r0, r0, r4
     744:	01000004 	tsteq	r0, r4
     748:	04c05600 	strbeq	r5, [r0], #1536	; 0x600
     74c:	05440000 	strbeq	r0, [r4, #-0]
     750:	00010000 	andeq	r0, r1, r0
     754:	0005445b 	andeq	r4, r5, fp, asr r4
     758:	0006ec00 	andeq	lr, r6, r0, lsl #24
     75c:	56000100 	strpl	r0, [r0], -r0, lsl #2
	...
     768:	00000001 	andeq	r0, r0, r1
     76c:	01000000 	mrseq	r0, (UNDEF: 0)
     770:	00000001 	andeq	r0, r0, r1
     774:	02000000 	andeq	r0, r0, #0, 0
     778:	00000002 	andeq	r0, r0, r2
     77c:	0000029c 	muleq	r0, ip, r2
     780:	000002b8 			; <UNDEFINED> instruction: 0x000002b8
     784:	b8500001 	ldmdalt	r0, {r0}^
     788:	bc000002 	stclt	0, cr0, [r0], {2}
     78c:	01000002 	tsteq	r0, r2
     790:	02bc5400 	adcseq	r5, ip, #0, 8
     794:	02c00000 	sbceq	r0, r0, #0, 0
     798:	00030000 	andeq	r0, r3, r0
     79c:	c09f0174 	addsgt	r0, pc, r4, ror r1	; <UNPREDICTABLE>
     7a0:	e4000002 	str	r0, [r0], #-2
     7a4:	01000002 	tsteq	r0, r2
     7a8:	02e45400 	rsceq	r5, r4, #0, 8
     7ac:	02e80000 	rsceq	r0, r8, #0, 0
     7b0:	00030000 	andeq	r0, r3, r0
     7b4:	e89f0174 	ldm	pc, {r2, r4, r5, r6, r8}	; <UNPREDICTABLE>
     7b8:	bc000002 	stclt	0, cr0, [r0], {2}
     7bc:	01000006 	tsteq	r0, r6
     7c0:	06bc5400 	ldrteq	r5, [ip], r0, lsl #8
     7c4:	06c00000 	strbeq	r0, [r0], r0
     7c8:	00030000 	andeq	r0, r3, r0
     7cc:	c09f0174 	addsgt	r0, pc, r4, ror r1	; <UNPREDICTABLE>
     7d0:	d8000006 	stmdale	r0, {r1, r2}
     7d4:	01000006 	tsteq	r0, r6
     7d8:	06d85400 	ldrbeq	r5, [r8], r0, lsl #8
     7dc:	06e00000 	strbteq	r0, [r0], r0
     7e0:	00030000 	andeq	r0, r3, r0
     7e4:	e09f0174 	adds	r0, pc, r4, ror r1	; <UNPREDICTABLE>
     7e8:	ec000006 	stc	0, cr0, [r0], {6}
     7ec:	01000006 	tsteq	r0, r6
     7f0:	00005400 	andeq	r5, r0, r0, lsl #8
	...
     7fc:	02a40000 	adceq	r0, r4, #0, 0
     800:	06ec0000 	strbteq	r0, [ip], r0
     804:	00010000 	andeq	r0, r1, r0
     808:	0006ec58 	andeq	lr, r6, r8, asr ip
     80c:	00072000 	andeq	r2, r7, r0
     810:	f3000a00 	vpmax.u8	d0, d0, d0
     814:	01f35101 	mvnseq	r5, r1, lsl #2
     818:	1c312250 	lfmne	f2, 4, [r1], #-320	; 0xfffffec0
     81c:	0000009f 	muleq	r0, pc, r0	; <UNPREDICTABLE>
     820:	00000000 	andeq	r0, r0, r0
     824:	00000100 	andeq	r0, r0, r0, lsl #2
     828:	08000000 	stmdaeq	r0, {}	; <UNPREDICTABLE>
     82c:	5c000004 	stcpl	0, cr0, [r0], {4}
     830:	01000004 	tsteq	r0, r4
     834:	04c05700 	strbeq	r5, [r0], #1792	; 0x700
     838:	04e40000 	strbteq	r0, [r4], #0
     83c:	00010000 	andeq	r0, r1, r0
     840:	00052857 	andeq	r2, r5, r7, asr r8
     844:	00054400 	andeq	r4, r5, r0, lsl #8
     848:	57000100 	strpl	r0, [r0, -r0, lsl #2]
	...
     854:	00000001 	andeq	r0, r0, r1
     858:	000002ac 	andeq	r0, r0, ip, lsr #5
     85c:	000002b8 			; <UNDEFINED> instruction: 0x000002b8
     860:	b8520001 	ldmdalt	r2, {r0}^
     864:	20000002 	andcs	r0, r0, r2
     868:	03000007 	movweq	r0, #7
     86c:	7dc89100 	stfvcp	f1, [r8]
	...
     880:	00010100 	andeq	r0, r1, r0, lsl #2
	...
     88c:	045c0000 	ldrbeq	r0, [ip], #-0
     890:	04740000 	ldrbteq	r0, [r4], #-0
     894:	00010000 	andeq	r0, r1, r0
     898:	00047450 	andeq	r7, r4, r0, asr r4
     89c:	0004a000 	andeq	sl, r4, r0
     8a0:	57000100 	strpl	r0, [r0, -r0, lsl #2]
     8a4:	000004e4 	andeq	r0, r0, r4, ror #9
     8a8:	000004fc 	strdeq	r0, [r0], -ip
     8ac:	fc500001 	mrrc2	0, 0, r0, r0, cr1	; <UNPREDICTABLE>
     8b0:	28000004 	stmdacs	r0, {r2}
     8b4:	01000005 	tsteq	r0, r5
     8b8:	058c5700 	streq	r5, [ip, #1792]	; 0x700
     8bc:	058c0000 	streq	r0, [ip]
     8c0:	00010000 	andeq	r0, r1, r0
     8c4:	00058c50 	andeq	r8, r5, r0, asr ip
     8c8:	00059400 	andeq	r9, r5, r0, lsl #8
     8cc:	57000100 	strpl	r0, [r0, -r0, lsl #2]
     8d0:	000005c4 	andeq	r0, r0, r4, asr #11
     8d4:	000005c8 	andeq	r0, r0, r8, asr #11
     8d8:	f8500001 			; <UNDEFINED> instruction: 0xf8500001
     8dc:	fc000005 	stc2	0, cr0, [r0], {5}
     8e0:	01000005 	tsteq	r0, r5
     8e4:	062c5000 	strteq	r5, [ip], -r0
     8e8:	06300000 	ldrteq	r0, [r0], -r0
     8ec:	00010000 	andeq	r0, r1, r0
     8f0:	00067450 	andeq	r7, r6, r0, asr r4
     8f4:	00067800 	andeq	r7, r6, r0, lsl #16
     8f8:	50000100 	andpl	r0, r0, r0, lsl #2
     8fc:	000006b8 			; <UNDEFINED> instruction: 0x000006b8
     900:	000006d8 	ldrdeq	r0, [r0], -r8
     904:	00570001 	subseq	r0, r7, r1
     908:	00000000 	andeq	r0, r0, r0
     90c:	02000000 	andeq	r0, r0, #0, 0
     910:	00000000 	andeq	r0, r0, r0
     914:	0002f400 	andeq	pc, r2, r0, lsl #8
     918:	0002f800 	andeq	pc, r2, r0, lsl #16
     91c:	30000200 	andcc	r0, r0, r0, lsl #4
     920:	0002f89f 	muleq	r2, pc, r8	; <UNPREDICTABLE>
     924:	00031400 	andeq	r1, r3, r0, lsl #8
     928:	55000100 	strpl	r0, [r0, #-256]	; 0xffffff00
     92c:	0000031c 	andeq	r0, r0, ip, lsl r3
     930:	000006d8 	ldrdeq	r0, [r0], -r8
     934:	00550001 	subseq	r0, r5, r1
     938:	00000000 	andeq	r0, r0, r0
     93c:	01000000 	mrseq	r0, (UNDEF: 0)
	...
     948:	0003b800 	andeq	fp, r3, r0, lsl #16
     94c:	00043c00 	andeq	r3, r4, r0, lsl #24
     950:	56000100 	strpl	r0, [r0], -r0, lsl #2
     954:	0000043c 	andeq	r0, r0, ip, lsr r4
     958:	000004a0 	andeq	r0, r0, r0, lsr #9
     95c:	7e7b0003 	cdpvc	0, 7, cr0, cr11, cr3, {0}
     960:	0004a09f 	muleq	r4, pc, r0	; <UNPREDICTABLE>
     964:	0004c400 	andeq	ip, r4, r0, lsl #8
     968:	56000100 	strpl	r0, [r0], -r0, lsl #2
     96c:	000004c4 	andeq	r0, r0, r4, asr #9
     970:	00000528 	andeq	r0, r0, r8, lsr #10
     974:	7e7b0003 	cdpvc	0, 7, cr0, cr11, cr3, {0}
     978:	0005289f 	muleq	r5, pc, r8	; <UNPREDICTABLE>
     97c:	00054400 	andeq	r4, r5, r0, lsl #8
     980:	56000100 	strpl	r0, [r0], -r0, lsl #2
	...
     990:	00700000 	rsbseq	r0, r0, r0
     994:	00940000 	addseq	r0, r4, r0
     998:	00010000 	andeq	r0, r1, r0
     99c:	00009450 	andeq	r9, r0, r0, asr r4
     9a0:	0000fc00 	andeq	pc, r0, r0, lsl #24
     9a4:	70000300 	andvc	r0, r0, r0, lsl #6
     9a8:	00fc9f02 	rscseq	r9, ip, r2, lsl #30
     9ac:	02240000 	eoreq	r0, r4, #0, 0
     9b0:	00040000 	andeq	r0, r4, r0
     9b4:	9f5001f3 	svcls	0x005001f3
	...
     9d0:	00000070 	andeq	r0, r0, r0, ror r0
     9d4:	000000e0 	andeq	r0, r0, r0, ror #1
     9d8:	e0510001 	subs	r0, r1, r1
     9dc:	54000000 	strpl	r0, [r0], #-0
     9e0:	01000001 	tsteq	r0, r1
     9e4:	01545500 	cmpeq	r4, r0, lsl #10
     9e8:	01580000 	cmpeq	r8, r0
     9ec:	00010000 	andeq	r0, r1, r0
     9f0:	00015851 	andeq	r5, r1, r1, asr r8
     9f4:	0001b000 	andeq	fp, r1, r0
     9f8:	55000100 	strpl	r0, [r0, #-256]	; 0xffffff00
     9fc:	000001b0 			; <UNDEFINED> instruction: 0x000001b0
     a00:	000001c0 	andeq	r0, r0, r0, asr #3
     a04:	c0510001 	subsgt	r0, r1, r1
     a08:	e4000001 	str	r0, [r0], #-1
     a0c:	01000001 	tsteq	r0, r1
     a10:	01e45500 	mvneq	r5, r0, lsl #10
     a14:	01f80000 	mvnseq	r0, r0
     a18:	00010000 	andeq	r0, r1, r0
     a1c:	0001f851 	andeq	pc, r1, r1, asr r8	; <UNPREDICTABLE>
     a20:	00022400 	andeq	r2, r2, r0, lsl #8
     a24:	55000100 	strpl	r0, [r0, #-256]	; 0xffffff00
	...
     a34:	00000070 	andeq	r0, r0, r0, ror r0
     a38:	00000084 	andeq	r0, r0, r4, lsl #1
     a3c:	84520001 	ldrbhi	r0, [r2], #-1
     a40:	24000000 	strcs	r0, [r0], #-0
     a44:	01000002 	tsteq	r0, r2
     a48:	00005400 	andeq	r5, r0, r0, lsl #8
	...
     a54:	01000000 	mrseq	r0, (UNDEF: 0)
     a58:	00000000 	andeq	r0, r0, r0
     a5c:	00700000 	rsbseq	r0, r0, r0
     a60:	00f40000 	rscseq	r0, r4, r0
     a64:	00010000 	andeq	r0, r1, r0
     a68:	00014c53 	andeq	r4, r1, r3, asr ip
     a6c:	00018000 	andeq	r8, r1, r0
     a70:	53000100 	movwpl	r0, #256	; 0x100
     a74:	00000180 	andeq	r0, r0, r0, lsl #3
     a78:	0000018c 	andeq	r0, r0, ip, lsl #3
     a7c:	01f30004 	mvnseq	r0, r4
     a80:	01b09f53 	asrseq	r9, r3, pc
     a84:	01e80000 	mvneq	r0, r0
     a88:	00010000 	andeq	r0, r1, r0
     a8c:	0001e853 	andeq	lr, r1, r3, asr r8
     a90:	0001ff00 	andeq	pc, r1, r0, lsl #30
     a94:	5c000100 	stfpls	f0, [r0], {-0}
     a98:	000001ff 	strdeq	r0, [r0], -pc	; <UNPREDICTABLE>
     a9c:	00000224 	andeq	r0, r0, r4, lsr #4
     aa0:	01f30004 	mvnseq	r0, r4
     aa4:	00009f53 	andeq	r9, r0, r3, asr pc
	...
     ab4:	00000070 	andeq	r0, r0, r0, ror r0
     ab8:	0000008c 	andeq	r0, r0, ip, lsl #1
     abc:	00910002 	addseq	r0, r1, r2
     ac0:	0000008c 	andeq	r0, r0, ip, lsl #1
     ac4:	00000193 	muleq	r0, r3, r1
     ac8:	b0520001 	subslt	r0, r2, r1
     acc:	f4000001 	vst4.8	{d0-d3}, [r0], r1
     ad0:	01000001 	tsteq	r0, r1
     ad4:	00005200 	andeq	r5, r0, r0, lsl #4
     ad8:	00000000 	andeq	r0, r0, r0
     adc:	00010000 	andeq	r0, r1, r0
     ae0:	00010100 	andeq	r0, r1, r0, lsl #2
     ae4:	00000000 	andeq	r0, r0, r0
     ae8:	01000000 	mrseq	r0, (UNDEF: 0)
     aec:	00010101 	andeq	r0, r1, r1, lsl #2
     af0:	00010100 	andeq	r0, r1, r0, lsl #2
	...
     afc:	008c0000 	addeq	r0, ip, r0
     b00:	00fc0000 	rscseq	r0, ip, r0
     b04:	00040000 	andeq	r0, r4, r0
     b08:	9f7fa091 	svcls	0x007fa091
     b0c:	000000fc 	strdeq	r0, [r0], -ip
     b10:	0000013c 	andeq	r0, r0, ip, lsr r1
     b14:	3c500001 	mrrccc	0, 0, r0, r0, cr1	; <UNPREDICTABLE>
     b18:	48000001 	stmdami	r0, {r0}
     b1c:	03000001 	movweq	r0, #1
     b20:	9f027100 	svcls	0x00027100
     b24:	00000148 	andeq	r0, r0, r8, asr #2
     b28:	0000014c 	andeq	r0, r0, ip, asr #2
     b2c:	4c500001 	mrrcmi	0, 0, r0, r0, cr1	; <UNPREDICTABLE>
     b30:	58000001 	stmdapl	r0, {r0}
     b34:	04000001 	streq	r0, [r0], #-1
     b38:	7fa09100 	svcvc	0x00a09100
     b3c:	0001589f 	muleq	r1, pc, r8	; <UNPREDICTABLE>
     b40:	00016c00 	andeq	r6, r1, r0, lsl #24
     b44:	51000100 	mrspl	r0, (UNDEF: 16)
     b48:	0000016c 	andeq	r0, r0, ip, ror #2
     b4c:	00000178 	andeq	r0, r0, r8, ror r1
     b50:	7f710003 	svcvc	0x00710003
     b54:	0001789f 	muleq	r1, pc, r8	; <UNPREDICTABLE>
     b58:	00018400 	andeq	r8, r1, r0, lsl #8
     b5c:	71000300 	mrsvc	r0, LR_irq
     b60:	01849f01 	orreq	r9, r4, r1, lsl #30
     b64:	01930000 	orrseq	r0, r3, r0
     b68:	00010000 	andeq	r0, r1, r0
     b6c:	0001b050 	andeq	fp, r1, r0, asr r0
     b70:	0001b000 	andeq	fp, r1, r0
     b74:	91000400 	tstls	r0, r0, lsl #8
     b78:	b09f7fa0 	addslt	r7, pc, r0, lsr #31
     b7c:	b8000001 	stmdalt	r0, {r0}
     b80:	04000001 	streq	r0, [r0], #-1
     b84:	7fa19100 	svcvc	0x00a19100
     b88:	0001b89f 	muleq	r1, pc, r8	; <UNPREDICTABLE>
     b8c:	0001bc00 	andeq	fp, r1, r0, lsl #24
     b90:	50000100 	andpl	r0, r0, r0, lsl #2
     b94:	000001bc 			; <UNDEFINED> instruction: 0x000001bc
     b98:	000001c0 	andeq	r0, r0, r0, asr #3
     b9c:	a0910004 	addsge	r0, r1, r4
     ba0:	01c09f7f 	biceq	r9, r0, pc, ror pc
     ba4:	01d40000 	bicseq	r0, r4, r0
     ba8:	00010000 	andeq	r0, r1, r0
     bac:	0001d450 	andeq	sp, r1, r0, asr r4
     bb0:	0001e400 	andeq	lr, r1, r0, lsl #8
     bb4:	70000300 	andvc	r0, r0, r0, lsl #6
     bb8:	01e49f7f 	mvneq	r9, pc, ror pc
     bbc:	02240000 	eoreq	r0, r4, #0, 0
     bc0:	00040000 	andeq	r0, r4, r0
     bc4:	9f7fa091 	svcls	0x007fa091
	...
     bd0:	01000000 	mrseq	r0, (UNDEF: 0)
     bd4:	00000001 	andeq	r0, r0, r1
	...
     be4:	00000090 	muleq	r0, r0, r0
     be8:	000000dc 	ldrdeq	r0, [r0], -ip
     bec:	dc5c0001 	mrrcle	0, 0, r0, ip, cr1
     bf0:	f4000000 	vst4.8	{d0-d3}, [r0], r0
     bf4:	01000000 	mrseq	r0, (UNDEF: 0)
     bf8:	00f45300 	rscseq	r5, r4, r0, lsl #6
     bfc:	014c0000 	mrseq	r0, (UNDEF: 76)
     c00:	00010000 	andeq	r0, r1, r0
     c04:	00014c5c 	andeq	r4, r1, ip, asr ip
     c08:	00015800 	andeq	r5, r1, r0, lsl #16
     c0c:	53000100 	movwpl	r0, #256	; 0x100
     c10:	00000158 	andeq	r0, r0, r8, asr r1
     c14:	00000174 	andeq	r0, r0, r4, ror r1
     c18:	b05c0001 	subslt	r0, ip, r1
     c1c:	c0000001 	andgt	r0, r0, r1
     c20:	01000001 	tsteq	r0, r1
     c24:	01c05300 	biceq	r5, r0, r0, lsl #6
     c28:	01dc0000 	bicseq	r0, ip, r0
     c2c:	00010000 	andeq	r0, r1, r0
     c30:	0001e45c 	andeq	lr, r1, ip, asr r4
     c34:	0001e800 	andeq	lr, r1, r0, lsl #16
     c38:	53000100 	movwpl	r0, #256	; 0x100
     c3c:	000001e8 	andeq	r0, r0, r8, ror #3
     c40:	000001ff 	strdeq	r0, [r0], -pc	; <UNPREDICTABLE>
     c44:	ff5c0001 			; <UNDEFINED> instruction: 0xff5c0001
     c48:	24000001 	strcs	r0, [r0], #-1
     c4c:	04000002 	streq	r0, [r0], #-2
     c50:	5301f300 	movwpl	pc, #4864	; 0x1300	; <UNPREDICTABLE>
     c54:	0000009f 	muleq	r0, pc, r0	; <UNPREDICTABLE>
     c58:	00000000 	andeq	r0, r0, r0
     c5c:	01010100 	mrseq	r0, (UNDEF: 17)
     c60:	00000000 	andeq	r0, r0, r0
     c64:	0000dc00 	andeq	sp, r0, r0, lsl #24
     c68:	0000f000 	andeq	pc, r0, r0
     c6c:	30000200 	andcc	r0, r0, r0, lsl #4
     c70:	0000f09f 	muleq	r0, pc, r0	; <UNPREDICTABLE>
     c74:	0000f800 	andeq	pc, r0, r0, lsl #16
     c78:	31000200 	mrscc	r0, R8_usr
     c7c:	0000fc9f 	muleq	r0, pc, ip	; <UNPREDICTABLE>
     c80:	00014c00 	andeq	r4, r1, r0, lsl #24
     c84:	56000100 	strpl	r0, [r0], -r0, lsl #2
     c88:	0000014c 	andeq	r0, r0, ip, asr #2
     c8c:	00000154 	andeq	r0, r0, r4, asr r1
     c90:	9f300002 	svcls	0x00300002
	...
     c9c:	01000000 	mrseq	r0, (UNDEF: 0)
     ca0:	01000001 	tsteq	r0, r1
     ca4:	00380001 	eorseq	r0, r8, r1
     ca8:	00540000 	subseq	r0, r4, r0
     cac:	00010000 	andeq	r0, r1, r0
     cb0:	00005450 	andeq	r5, r0, r0, asr r4
     cb4:	00005800 	andeq	r5, r0, r0, lsl #16
     cb8:	52000100 	andpl	r0, r0, #0
     cbc:	00000058 	andeq	r0, r0, r8, asr r0
     cc0:	00000060 	andeq	r0, r0, r0, rrx
     cc4:	01720003 	cmneq	r2, r3
     cc8:	0000609f 	muleq	r0, pc, r0	; <UNPREDICTABLE>
     ccc:	00006400 	andeq	r6, r0, r0, lsl #8
     cd0:	52000100 	andpl	r0, r0, #0
     cd4:	00000064 	andeq	r0, r0, r4, rrx
     cd8:	00000070 	andeq	r0, r0, r0, ror r0
     cdc:	01720003 	cmneq	r2, r3
     ce0:	0000009f 	muleq	r0, pc, r0	; <UNPREDICTABLE>
	...
     cec:	00003800 	andeq	r3, r0, r0, lsl #16
     cf0:	00005000 	andeq	r5, r0, r0
     cf4:	51000100 	mrspl	r0, (UNDEF: 16)
     cf8:	00000050 	andeq	r0, r0, r0, asr r0
     cfc:	00000070 	andeq	r0, r0, r0, ror r0
     d00:	01f30004 	mvnseq	r0, r4
     d04:	00009f51 	andeq	r9, r0, r1, asr pc
	...
     d10:	01000000 	mrseq	r0, (UNDEF: 0)
     d14:	00380001 	eorseq	r0, r8, r1
     d18:	00500000 	subseq	r0, r0, r0
     d1c:	00010000 	andeq	r0, r1, r0
     d20:	00005052 	andeq	r5, r0, r2, asr r0
     d24:	00005c00 	andeq	r5, r0, r0, lsl #24
     d28:	51000100 	mrspl	r0, (UNDEF: 16)
     d2c:	0000005c 	andeq	r0, r0, ip, asr r0
     d30:	00000060 	andeq	r0, r0, r0, rrx
     d34:	01710003 	cmneq	r1, r3
     d38:	0000609f 	muleq	r0, pc, r0	; <UNPREDICTABLE>
     d3c:	00007000 	andeq	r7, r0, r0
     d40:	51000100 	mrspl	r0, (UNDEF: 16)
	...
     d50:	00000038 	andeq	r0, r0, r8, lsr r0
     d54:	0000004c 	andeq	r0, r0, ip, asr #32
     d58:	4c530001 	mrrcmi	0, 0, r0, r3, cr1
     d5c:	68000000 	stmdavs	r0, {}	; <UNPREDICTABLE>
     d60:	01000000 	mrseq	r0, (UNDEF: 0)
     d64:	00005300 	andeq	r5, r0, r0, lsl #6
	...
     d74:	00400000 	subeq	r0, r0, r0
     d78:	00480000 	subeq	r0, r8, r0
     d7c:	00010000 	andeq	r0, r1, r0
     d80:	0000485c 	andeq	r4, r0, ip, asr r8
     d84:	00004c00 	andeq	r4, r0, r0, lsl #24
     d88:	72000800 	andvc	r0, r0, #0, 16
     d8c:	1c007300 	stcne	3, cr7, [r0], {-0}
     d90:	4c9f0123 	ldfmis	f0, [pc], {35}	; 0x23
     d94:	54000000 	strpl	r0, [r0], #-0
     d98:	09000000 	stmdbeq	r0, {}	; <UNPREDICTABLE>
     d9c:	f3007200 	vhsub.u8	d7, d0, d0
     da0:	231c5301 	tstcs	ip, #67108864	; 0x4000000
     da4:	00549f01 	subseq	r9, r4, r1, lsl #30
     da8:	00700000 	rsbseq	r0, r0, r0
     dac:	000a0000 	andeq	r0, sl, r0
     db0:	f35201f3 	vbsl	q8, q9, <illegal reg q9.5>
     db4:	231c5301 	tstcs	ip, #67108864	; 0x4000000
     db8:	00009f01 	andeq	r9, r0, r1, lsl #30
     dbc:	00000000 	andeq	r0, r0, r0
     dc0:	00010000 	andeq	r0, r1, r0
     dc4:	0000004c 	andeq	r0, r0, ip, asr #32
     dc8:	00000070 	andeq	r0, r0, r0, ror r0
     dcc:	00500001 	subseq	r0, r0, r1
	...
     dd8:	00000101 	andeq	r0, r0, r1, lsl #2
     ddc:	00001400 	andeq	r1, r0, r0, lsl #8
     de0:	00001c00 	andeq	r1, r0, r0, lsl #24
     de4:	50000100 	andpl	r0, r0, r0, lsl #2
     de8:	0000001c 	andeq	r0, r0, ip, lsl r0
     dec:	00000024 	andeq	r0, r0, r4, lsr #32
     df0:	01700003 	cmneq	r0, r3
     df4:	0000249f 	muleq	r0, pc, r4	; <UNPREDICTABLE>
     df8:	00003800 	andeq	r3, r0, r0, lsl #16
     dfc:	50000100 	andpl	r0, r0, r0, lsl #2
	...
     e0c:	00000014 	andeq	r0, r0, r4, lsl r0
     e10:	00000018 	andeq	r0, r0, r8, lsl r0
     e14:	18510001 	ldmdane	r1, {r0}^
     e18:	38000000 	stmdacc	r0, {}	; <UNPREDICTABLE>
     e1c:	04000000 	streq	r0, [r0], #-0
     e20:	5101f300 	mrspl	pc, SP_irq	; <UNPREDICTABLE>
     e24:	0000009f 	muleq	r0, pc, r0	; <UNPREDICTABLE>
     e28:	00000000 	andeq	r0, r0, r0
     e2c:	18000000 	stmdane	r0, {}	; <UNPREDICTABLE>
     e30:	38000000 	stmdacc	r0, {}	; <UNPREDICTABLE>
     e34:	01000000 	mrseq	r0, (UNDEF: 0)
     e38:	00005100 	andeq	r5, r0, r0, lsl #2
	...
     e4c:	00000004 	andeq	r0, r0, r4
     e50:	04500001 	ldrbeq	r0, [r0], #-1
     e54:	0c000000 	stceq	0, cr0, [r0], {-0}
     e58:	03000000 	movweq	r0, #0
     e5c:	9f307000 	svcls	0x00307000
     e60:	0000000c 	andeq	r0, r0, ip
     e64:	00000014 	andeq	r0, r0, r4, lsl r0
     e68:	01f30004 	mvnseq	r0, r4
     e6c:	00009f50 	andeq	r9, r0, r0, asr pc
	...
     e78:	02240000 	eoreq	r0, r4, #0, 0
     e7c:	02680000 	rsbeq	r0, r8, #0, 0
     e80:	00010000 	andeq	r0, r1, r0
     e84:	00026850 	andeq	r6, r2, r0, asr r8
     e88:	00028800 	andeq	r8, r2, r0, lsl #16
     e8c:	f3000400 	vshl.u8	d0, d0, d0
     e90:	009f5001 	addseq	r5, pc, r1
	...
     e9c:	24000000 	strcs	r0, [r0], #-0
     ea0:	64000002 	strvs	r0, [r0], #-2
     ea4:	01000002 	tsteq	r0, r2
     ea8:	02645100 	rsbeq	r5, r4, #0
     eac:	02880000 	addeq	r0, r8, #0, 0
     eb0:	00040000 	andeq	r0, r4, r0
     eb4:	9f5101f3 	svcls	0x005101f3
	...
     ec0:	00010100 	andeq	r0, r1, r0, lsl #2
     ec4:	00080000 	andeq	r0, r8, r0
     ec8:	00100000 	andseq	r0, r0, r0
     ecc:	00010000 	andeq	r0, r1, r0
     ed0:	00001053 	andeq	r1, r0, r3, asr r0
     ed4:	00001800 	andeq	r1, r0, r0, lsl #16
     ed8:	73000300 	movwvc	r0, #768	; 0x300
     edc:	00189f04 	andseq	r9, r8, r4, lsl #30
     ee0:	001f0000 	andseq	r0, pc, r0
     ee4:	00010000 	andeq	r0, r1, r0
     ee8:	00000053 	andeq	r0, r0, r3, asr r0
     eec:	00000000 	andeq	r0, r0, r0
     ef0:	fc000100 	stc2	1, cr0, [r0], {-0}
     ef4:	18000090 	stmdane	r0, {r4, r7}
     ef8:	06000091 			; <UNDEFINED> instruction: 0x06000091
     efc:	001c0c00 	andseq	r0, ip, r0, lsl #24
     f00:	009f2010 	addseq	r2, pc, r0, lsl r0	; <UNPREDICTABLE>
     f04:	00000000 	andeq	r0, r0, r0
     f08:	02000000 	andeq	r0, r0, #0, 0
     f0c:	0090fc00 	addseq	pc, r0, r0, lsl #24
     f10:	00911800 	addseq	r1, r1, r0, lsl #16
     f14:	0c000600 	stceq	6, cr0, [r0], {-0}
     f18:	20100024 	andscs	r0, r0, r4, lsr #32
     f1c:	0000009f 	muleq	r0, pc, r0	; <UNPREDICTABLE>
     f20:	00000000 	andeq	r0, r0, r0
     f24:	fc000300 	stc2	3, cr0, [r0], {-0}
     f28:	18000090 	stmdane	r0, {r4, r7}
     f2c:	05000091 	streq	r0, [r0, #-145]	; 0xffffff6f
     f30:	47b40800 	ldrmi	r0, [r4, r0, lsl #16]!
     f34:	00009f24 	andeq	r9, r0, r4, lsr #30
     f38:	00000000 	andeq	r0, r0, r0
     f3c:	00040000 	andeq	r0, r4, r0
     f40:	000090fc 	strdeq	r9, [r0], -ip
     f44:	00009118 	andeq	r9, r0, r8, lsl r1
     f48:	20080003 	andcs	r0, r8, r3
     f4c:	0000009f 	muleq	r0, pc, r0	; <UNPREDICTABLE>
     f50:	00000000 	andeq	r0, r0, r0
     f54:	00000200 	andeq	r0, r0, r0, lsl #4
     f58:	cc000000 	stcgt	0, cr0, [r0], {-0}
     f5c:	d0000090 	mulle	r0, r0, r0
     f60:	02000090 	andeq	r0, r0, #144, 0	; 0x90
     f64:	d09f3000 	addsle	r3, pc, r0
     f68:	d4000090 	strle	r0, [r0], #-144	; 0xffffff70
     f6c:	01000090 	swpeq	r0, r0, [r0]	; <UNPREDICTABLE>
     f70:	90d85300 	sbcsls	r5, r8, r0, lsl #6
     f74:	90e00000 	rscls	r0, r0, r0
     f78:	00010000 	andeq	r0, r1, r0
     f7c:	00000053 	andeq	r0, r0, r3, asr r0
     f80:	00000000 	andeq	r0, r0, r0
     f84:	00000200 	andeq	r0, r0, r0, lsl #4
     f88:	0090b400 	addseq	fp, r0, r0, lsl #8
     f8c:	0090b800 	addseq	fp, r0, r0, lsl #16
     f90:	30000200 	andcc	r0, r0, r0, lsl #4
     f94:	0090b89f 	umullseq	fp, r0, pc, r8	; <UNPREDICTABLE>
     f98:	0090bc00 	addseq	fp, r0, r0, lsl #24
     f9c:	50000100 	andpl	r0, r0, r0, lsl #2
	...
     fac:	0000006c 	andeq	r0, r0, ip, rrx
     fb0:	00000078 	andeq	r0, r0, r8, ror r0
     fb4:	78500001 	ldmdavc	r0, {r0}^
     fb8:	84000000 	strhi	r0, [r0], #-0
     fbc:	04000000 	streq	r0, [r0], #-0
     fc0:	5001f300 	andpl	pc, r1, r0, lsl #6
     fc4:	0000009f 	muleq	r0, pc, r0	; <UNPREDICTABLE>
	...
     fd0:	00005400 	andeq	r5, r0, r0, lsl #8
     fd4:	00006000 	andeq	r6, r0, r0
     fd8:	50000100 	andpl	r0, r0, r0, lsl #2
     fdc:	00000060 	andeq	r0, r0, r0, rrx
     fe0:	0000006c 	andeq	r0, r0, ip, rrx
     fe4:	01f30004 	mvnseq	r0, r4
     fe8:	00009f50 	andeq	r9, r0, r0, asr pc
	...
     ff4:	00300000 	eorseq	r0, r0, r0
     ff8:	003b0000 	eorseq	r0, fp, r0
     ffc:	00010000 	andeq	r0, r1, r0
    1000:	00003b50 	andeq	r3, r0, r0, asr fp
    1004:	00005400 	andeq	r5, r0, r0, lsl #8
    1008:	55000100 	strpl	r0, [r0, #-256]	; 0xffffff00
	...
    1014:	00400000 	subeq	r0, r0, r0
    1018:	00540000 	subseq	r0, r4, r0
    101c:	00010000 	andeq	r0, r1, r0
    1020:	00000054 	andeq	r0, r0, r4, asr r0
    1024:	00000000 	andeq	r0, r0, r0
    1028:	44000000 	strmi	r0, [r0], #-0
    102c:	48000000 	stmdami	r0, {}	; <UNPREDICTABLE>
    1030:	01000000 	mrseq	r0, (UNDEF: 0)
    1034:	00005000 	andeq	r5, r0, r0
	...
    1040:	00240000 	eoreq	r0, r4, r0
    1044:	00270000 	eoreq	r0, r7, r0
    1048:	00010000 	andeq	r0, r1, r0
    104c:	00002750 	andeq	r2, r0, r0, asr r7
    1050:	00003000 	andeq	r3, r0, r0
    1054:	54000100 	strpl	r0, [r0], #-256	; 0xffffff00
	...
    1064:	00000138 	andeq	r0, r0, r8, lsr r1
    1068:	00000143 	andeq	r0, r0, r3, asr #2
    106c:	43500001 	cmpmi	r0, #1, 0
    1070:	68000001 	stmdavs	r0, {r0}
    1074:	01000001 	tsteq	r0, r1
    1078:	00005400 	andeq	r5, r0, r0, lsl #8
	...
    1084:	00000128 	andeq	r0, r0, r8, lsr #2
    1088:	00000138 	andeq	r0, r0, r8, lsr r1
    108c:	00540001 	subseq	r0, r4, r1
	...
    109c:	0f000000 	svceq	0x00000000
    10a0:	01000000 	mrseq	r0, (UNDEF: 0)
    10a4:	000f5000 	andeq	r5, pc, r0
    10a8:	00200000 	eoreq	r0, r0, r0
    10ac:	00010000 	andeq	r0, r1, r0
    10b0:	00000054 	andeq	r0, r0, r4, asr r0
	...
    10c0:	00000f00 	andeq	r0, r0, r0, lsl #30
    10c4:	51000100 	mrspl	r0, (UNDEF: 16)
    10c8:	0000000f 	andeq	r0, r0, pc
    10cc:	00000020 	andeq	r0, r0, r0, lsr #32
    10d0:	00550001 	subseq	r0, r5, r1
	...
    10e0:	00014c00 	andeq	r4, r1, r0, lsl #24
    10e4:	00018000 	andeq	r8, r1, r0
    10e8:	50000100 	andpl	r0, r0, r0, lsl #2
    10ec:	00000180 	andeq	r0, r0, r0, lsl #3
    10f0:	0000018c 	andeq	r0, r0, ip, lsl #3
    10f4:	8c540001 	mrrchi	0, 0, r0, r4, cr1
    10f8:	ac000001 	stcge	0, cr0, [r0], {1}
    10fc:	04000001 	streq	r0, [r0], #-1
    1100:	5001f300 	andpl	pc, r1, r0, lsl #6
    1104:	0000009f 	muleq	r0, pc, r0	; <UNPREDICTABLE>
	...
    1110:	00014c00 	andeq	r4, r1, r0, lsl #24
    1114:	00018300 	andeq	r8, r1, r0, lsl #6
    1118:	51000100 	mrspl	r0, (UNDEF: 16)
    111c:	00000183 	andeq	r0, r0, r3, lsl #3
    1120:	000001ac 	andeq	r0, r0, ip, lsr #3
    1124:	01f30004 	mvnseq	r0, r4
    1128:	00009f51 	andeq	r9, r0, r1, asr pc
	...
    1134:	0000017c 	andeq	r0, r0, ip, ror r1
    1138:	000001ac 	andeq	r0, r0, ip, lsr #3
    113c:	00570001 	subseq	r0, r7, r1
	...
    1148:	00018400 	andeq	r8, r1, r0, lsl #8
    114c:	0001a000 	andeq	sl, r1, r0
    1150:	50000100 	andpl	r0, r0, r0, lsl #2
	...
    115c:	01900000 	orrseq	r0, r0, r0
    1160:	01ac0000 			; <UNDEFINED> instruction: 0x01ac0000
    1164:	00010000 	andeq	r0, r1, r0
    1168:	00000054 	andeq	r0, r0, r4, asr r0
    116c:	00000000 	andeq	r0, r0, r0
    1170:	90000100 	andls	r0, r0, r0, lsl #2
    1174:	ac000001 	stcge	0, cr0, [r0], {1}
    1178:	05000001 	streq	r0, [r0, #-1]
    117c:	00743700 	rsbseq	r3, r4, r0, lsl #14
    1180:	00009f24 	andeq	r9, r0, r4, lsr #30
	...
    118c:	01980000 	orrseq	r0, r8, r0
    1190:	019c0000 	orrseq	r0, ip, r0
    1194:	00010000 	andeq	r0, r1, r0
    1198:	00019c51 	andeq	r9, r1, r1, asr ip
    119c:	0001a000 	andeq	sl, r1, r0
    11a0:	37000900 	strcc	r0, [r0, -r0, lsl #18]
    11a4:	20240074 	eorcs	r0, r4, r4, ror r0
    11a8:	9f1a0070 	svcls	0x001a0070
	...
    11bc:	00000114 	andeq	r0, r0, r4, lsl r1
    11c0:	00000120 	andeq	r0, r0, r0, lsr #2
    11c4:	20500001 	subscs	r0, r0, r1
    11c8:	24000001 	strcs	r0, [r0], #-1
    11cc:	04000001 	streq	r0, [r0], #-1
    11d0:	5001f300 	andpl	pc, r1, r0, lsl #6
    11d4:	0001249f 	muleq	r1, pc, r4	; <UNPREDICTABLE>
    11d8:	00013000 	andeq	r3, r1, r0
    11dc:	50000100 	andpl	r0, r0, r0, lsl #2
    11e0:	00000130 	andeq	r0, r0, r0, lsr r1
    11e4:	0000014c 	andeq	r0, r0, ip, asr #2
    11e8:	00540001 	subseq	r0, r4, r1
    11ec:	00000000 	andeq	r0, r0, r0
    11f0:	01000000 	mrseq	r0, (UNDEF: 0)
    11f4:	00012c00 	andeq	r2, r1, r0, lsl #24
    11f8:	00014400 	andeq	r4, r1, r0, lsl #8
    11fc:	30000200 	andcc	r0, r0, r0, lsl #4
    1200:	0000009f 	muleq	r0, pc, r0	; <UNPREDICTABLE>
    1204:	00000000 	andeq	r0, r0, r0
    1208:	34000000 	strcc	r0, [r0], #-0
    120c:	40000001 	andmi	r0, r0, r1
    1210:	01000001 	tsteq	r0, r1
    1214:	00005000 	andeq	r5, r0, r0
    1218:	00000000 	andeq	r0, r0, r0
    121c:	00010000 	andeq	r0, r1, r0
    1220:	00000134 	andeq	r0, r0, r4, lsr r1
    1224:	0000014c 	andeq	r0, r0, ip, asr #2
    1228:	74310005 	ldrtvc	r0, [r1], #-5
    122c:	009f2400 	addseq	r2, pc, r0, lsl #8
	...
    123c:	0000c000 	andeq	ip, r0, r0
    1240:	0000ec00 	andeq	lr, r0, r0, lsl #24
    1244:	50000100 	andpl	r0, r0, r0, lsl #2
    1248:	000000ec 	andeq	r0, r0, ip, ror #1
    124c:	000000f8 	strdeq	r0, [r0], -r8
    1250:	f8540001 			; <UNDEFINED> instruction: 0xf8540001
    1254:	14000000 	strne	r0, [r0], #-0
    1258:	04000001 	streq	r0, [r0], #-1
    125c:	5001f300 	andpl	pc, r1, r0, lsl #6
    1260:	0000009f 	muleq	r0, pc, r0	; <UNPREDICTABLE>
    1264:	00000000 	andeq	r0, r0, r0
    1268:	e8000000 	stmda	r0, {}	; <UNPREDICTABLE>
    126c:	14000000 	strne	r0, [r0], #-0
    1270:	01000001 	tsteq	r0, r1
    1274:	00005600 	andeq	r5, r0, r0, lsl #12
	...
    1280:	000000f0 	strdeq	r0, [r0], -r0	; <UNPREDICTABLE>
    1284:	00000108 	andeq	r0, r0, r8, lsl #2
    1288:	00500001 	subseq	r0, r0, r1
	...
    1294:	0000fc00 	andeq	pc, r0, r0, lsl #24
    1298:	00011400 	andeq	r1, r1, r0, lsl #8
    129c:	54000100 	strpl	r0, [r0], #-256	; 0xffffff00
	...
    12a8:	00fc0001 	rscseq	r0, ip, r1
    12ac:	01140000 	tsteq	r4, r0
    12b0:	00050000 	andeq	r0, r5, r0
    12b4:	24007437 	strcs	r7, [r0], #-1079	; 0xfffffbc9
    12b8:	0000009f 	muleq	r0, pc, r0	; <UNPREDICTABLE>
    12bc:	00000000 	andeq	r0, r0, r0
    12c0:	00000200 	andeq	r0, r0, r0, lsl #4
    12c4:	0000fc00 	andeq	pc, r0, r0, lsl #24
    12c8:	00010400 	andeq	r0, r1, r0, lsl #8
    12cc:	37000900 	strcc	r0, [r0, -r0, lsl #18]
    12d0:	20240074 	eorcs	r0, r4, r4, ror r0
    12d4:	9f1a0070 	svcls	0x001a0070
    12d8:	00000104 	andeq	r0, r0, r4, lsl #2
    12dc:	0000010b 	andeq	r0, r0, fp, lsl #2
    12e0:	00510001 	subseq	r0, r1, r1
	...
    12f0:	a4000000 	strge	r0, [r0], #-0
    12f4:	b3000000 	movwlt	r0, #0
    12f8:	01000000 	mrseq	r0, (UNDEF: 0)
    12fc:	00b35000 	adcseq	r5, r3, r0
    1300:	00b80000 	adcseq	r0, r8, r0
    1304:	00040000 	andeq	r0, r4, r0
    1308:	9f5001f3 	svcls	0x005001f3
    130c:	000000b8 	strheq	r0, [r0], -r8
    1310:	000000bb 	strheq	r0, [r0], -fp
    1314:	bb500001 	bllt	1401320 <__bss_end__+0x13f7320>
    1318:	c0000000 	andgt	r0, r0, r0
    131c:	04000000 	streq	r0, [r0], #-0
    1320:	5001f300 	andpl	pc, r1, r0, lsl #6
    1324:	0000009f 	muleq	r0, pc, r0	; <UNPREDICTABLE>
	...
    1334:	0000a400 	andeq	sl, r0, r0, lsl #8
    1338:	0000b300 	andeq	fp, r0, r0, lsl #6
    133c:	51000100 	mrspl	r0, (UNDEF: 16)
    1340:	000000b3 	strheq	r0, [r0], -r3
    1344:	000000b8 	strheq	r0, [r0], -r8
    1348:	01f30004 	mvnseq	r0, r4
    134c:	00b89f51 	adcseq	r9, r8, r1, asr pc
    1350:	00bb0000 	adcseq	r0, fp, r0
    1354:	00010000 	andeq	r0, r1, r0
    1358:	0000bb51 	andeq	fp, r0, r1, asr fp
    135c:	0000c000 	andeq	ip, r0, r0
    1360:	f3000400 	vshl.u8	d0, d0, d0
    1364:	009f5101 	addseq	r5, pc, r1, lsl #2
	...
    1370:	80000000 	andhi	r0, r0, r0
    1374:	98000000 	stmdals	r0, {}	; <UNPREDICTABLE>
    1378:	01000000 	mrseq	r0, (UNDEF: 0)
    137c:	00985000 	addseq	r5, r8, r0
    1380:	00a40000 	adceq	r0, r4, r0
    1384:	00040000 	andeq	r0, r4, r0
    1388:	9f5001f3 	svcls	0x005001f3
	...
    1398:	0000005c 	andeq	r0, r0, ip, asr r0
    139c:	00000074 	andeq	r0, r0, r4, ror r0
    13a0:	74500001 	ldrbvc	r0, [r0], #-1
    13a4:	80000000 	andhi	r0, r0, r0
    13a8:	04000000 	streq	r0, [r0], #-0
    13ac:	5001f300 	andpl	pc, r1, r0, lsl #6
    13b0:	0000009f 	muleq	r0, pc, r0	; <UNPREDICTABLE>
	...
    13c0:	2c000000 	stccs	0, cr0, [r0], {-0}
    13c4:	01000000 	mrseq	r0, (UNDEF: 0)
    13c8:	002c5000 	eoreq	r5, ip, r0
    13cc:	00380000 	eorseq	r0, r8, r0
    13d0:	00010000 	andeq	r0, r1, r0
    13d4:	00003854 	andeq	r3, r0, r4, asr r8
    13d8:	00005c00 	andeq	r5, r0, r0, lsl #24
    13dc:	f3000400 	vshl.u8	d0, d0, d0
    13e0:	009f5001 	addseq	r5, pc, r1
	...
    13ec:	00002800 	andeq	r2, r0, r0, lsl #16
    13f0:	00005c00 	andeq	r5, r0, r0, lsl #24
    13f4:	56000100 	strpl	r0, [r0], -r0, lsl #2
	...
    1400:	00300000 	eorseq	r0, r0, r0
    1404:	00440000 	subeq	r0, r4, r0
    1408:	00010000 	andeq	r0, r1, r0
    140c:	00000050 	andeq	r0, r0, r0, asr r0
    1410:	00000000 	andeq	r0, r0, r0
    1414:	3c000000 	stccc	0, cr0, [r0], {-0}
    1418:	5c000000 	stcpl	0, cr0, [r0], {-0}
    141c:	01000000 	mrseq	r0, (UNDEF: 0)
    1420:	00005400 	andeq	r5, r0, r0, lsl #8
    1424:	00000000 	andeq	r0, r0, r0
    1428:	00010000 	andeq	r0, r1, r0
    142c:	0000003c 	andeq	r0, r0, ip, lsr r0
    1430:	0000005c 	andeq	r0, r0, ip, asr r0
    1434:	74370005 	ldrtvc	r0, [r7], #-5
    1438:	009f2400 	addseq	r2, pc, r0, lsl #8
	...
    1444:	00004400 	andeq	r4, r0, r0, lsl #8
    1448:	00005000 	andeq	r5, r0, r0
    144c:	50000100 	andpl	r0, r0, r0, lsl #2
	...
    1458:	00440001 	subeq	r0, r4, r1
    145c:	005c0000 	subseq	r0, ip, r0
    1460:	00050000 	andeq	r0, r5, r0
    1464:	24007431 	strcs	r7, [r0], #-1073	; 0xfffffbcf
    1468:	0000009f 	muleq	r0, pc, r0	; <UNPREDICTABLE>
	...
    1478:	00001c00 	andeq	r1, r0, r0, lsl #24
    147c:	51000100 	mrspl	r0, (UNDEF: 16)
    1480:	0000001c 	andeq	r0, r0, ip, lsl r0
    1484:	00000034 	andeq	r0, r0, r4, lsr r0
    1488:	01f30004 	mvnseq	r0, r4
    148c:	00009f51 	andeq	r9, r0, r1, asr pc
    1490:	00000000 	andeq	r0, r0, r0
    1494:	00020000 	andeq	r0, r2, r0
    1498:	01000000 	mrseq	r0, (UNDEF: 0)
    149c:	00000001 	andeq	r0, r0, r1
    14a0:	00000000 	andeq	r0, r0, r0
    14a4:	00000004 	andeq	r0, r0, r4
    14a8:	04500001 	ldrbeq	r0, [r0], #-1
    14ac:	1c000000 	stcne	0, cr0, [r0], {-0}
    14b0:	01000000 	mrseq	r0, (UNDEF: 0)
    14b4:	001c5200 	andseq	r5, ip, r0, lsl #4
    14b8:	00240000 	eoreq	r0, r4, r0
    14bc:	00010000 	andeq	r0, r1, r0
    14c0:	00002453 	andeq	r2, r0, r3, asr r4
    14c4:	00002800 	andeq	r2, r0, r0, lsl #16
    14c8:	73000300 	movwvc	r0, #768	; 0x300
    14cc:	00289f01 	eoreq	r9, r8, r1, lsl #30
    14d0:	00340000 	eorseq	r0, r4, r0
    14d4:	00010000 	andeq	r0, r1, r0
    14d8:	00000053 	andeq	r0, r0, r3, asr r0
    14dc:	00000000 	andeq	r0, r0, r0
    14e0:	00000300 	andeq	r0, r0, r0, lsl #6
    14e4:	00000000 	andeq	r0, r0, r0
    14e8:	00002400 	andeq	r2, r0, r0, lsl #8
    14ec:	51000100 	mrspl	r0, (UNDEF: 16)
    14f0:	00000024 	andeq	r0, r0, r4, lsr #32
    14f4:	00000034 	andeq	r0, r0, r4, lsr r0
    14f8:	7f710003 	svcvc	0x00710003
    14fc:	0000009f 	muleq	r0, pc, r0	; <UNPREDICTABLE>
	...
    1508:	00001000 	andeq	r1, r0, r0
    150c:	00001c00 	andeq	r1, r0, r0, lsl #24
    1510:	5c000100 	stfpls	f0, [r0], {-0}
    1514:	00000024 	andeq	r0, r0, r4, lsr #32
    1518:	00000034 	andeq	r0, r0, r4, lsr r0
    151c:	00520001 	subseq	r0, r2, r1
	...
    152c:	18000000 	stmdane	r0, {}	; <UNPREDICTABLE>
    1530:	01000000 	mrseq	r0, (UNDEF: 0)
    1534:	00185000 	andseq	r5, r8, r0
    1538:	00240000 	eoreq	r0, r4, r0
    153c:	00010000 	andeq	r0, r1, r0
    1540:	00000050 	andeq	r0, r0, r0, asr r0
	...
    1550:	00001c00 	andeq	r1, r0, r0, lsl #24
    1554:	51000100 	mrspl	r0, (UNDEF: 16)
    1558:	0000001c 	andeq	r0, r0, ip, lsl r0
    155c:	0000002c 	andeq	r0, r0, ip, lsr #32
    1560:	00510001 	subseq	r0, r1, r1
	...
    1574:	00000400 	andeq	r0, r0, r0, lsl #8
    1578:	51000100 	mrspl	r0, (UNDEF: 16)
    157c:	00000004 	andeq	r0, r0, r4
    1580:	0000000c 	andeq	r0, r0, ip
    1584:	0c510001 	mrrceq	0, 0, r0, r1, cr1
    1588:	20000000 	andcs	r0, r0, r0
    158c:	03000000 	movweq	r0, #0
    1590:	9f7f7100 	svcls	0x007f7100
	...
    159c:	00000002 	andeq	r0, r0, r2
    15a0:	00000000 	andeq	r0, r0, r0
    15a4:	00040000 	andeq	r0, r4, r0
    15a8:	00010000 	andeq	r0, r1, r0
    15ac:	00000450 	andeq	r0, r0, r0, asr r4
    15b0:	00001400 	andeq	r1, r0, r0, lsl #8
    15b4:	5c000100 	stfpls	f0, [r0], {-0}
    15b8:	00000014 	andeq	r0, r0, r4, lsl r0
    15bc:	00000020 	andeq	r0, r0, r0, lsr #32
    15c0:	7f7c0003 	svcvc	0x007c0003
    15c4:	0000009f 	muleq	r0, pc, r0	; <UNPREDICTABLE>
    15c8:	00000000 	andeq	r0, r0, r0
    15cc:	03030000 	movweq	r0, #12288	; 0x3000
    15d0:	00958c00 	addseq	r8, r5, r0, lsl #24
    15d4:	00958c00 	addseq	r8, r5, r0, lsl #24
    15d8:	50000100 	andpl	r0, r0, r0, lsl #2
    15dc:	0000958c 	andeq	r9, r0, ip, lsl #11
    15e0:	000095b8 			; <UNDEFINED> instruction: 0x000095b8
    15e4:	01f30004 	mvnseq	r0, r4
    15e8:	00009f50 	andeq	r9, r0, r0, asr pc
    15ec:	00000000 	andeq	r0, r0, r0
    15f0:	03000000 	movweq	r0, #0
    15f4:	958c0003 	strls	r0, [ip, #3]
    15f8:	958c0000 	strls	r0, [ip]
    15fc:	00010000 	andeq	r0, r1, r0
    1600:	00958c51 	addseq	r8, r5, r1, asr ip
    1604:	0095b800 	addseq	fp, r5, r0, lsl #16
    1608:	f3000400 	vshl.u8	d0, d0, d0
    160c:	009f5101 	addseq	r5, pc, r1, lsl #2
	...
    1618:	00000303 	andeq	r0, r0, r3, lsl #6
    161c:	00958c00 	addseq	r8, r5, r0, lsl #24
    1620:	00958c00 	addseq	r8, r5, r0, lsl #24
    1624:	52000100 	andpl	r0, r0, #0
    1628:	0000958c 	andeq	r9, r0, ip, lsl #11
    162c:	00009594 	muleq	r0, r4, r5
    1630:	94520001 	ldrbls	r0, [r2], #-1
    1634:	b8000095 	stmdalt	r0, {r0, r2, r4, r7}
    1638:	03000095 	movweq	r0, #149	; 0x95
    163c:	9f017200 	svcls	0x00017200
	...
    1648:	00010102 	andeq	r0, r1, r2, lsl #2
    164c:	00000000 	andeq	r0, r0, r0
    1650:	0000958c 	andeq	r9, r0, ip, lsl #11
    1654:	00009598 	muleq	r0, r8, r5
    1658:	98500001 	ldmdals	r0, {r0}^
    165c:	9c000095 	stcls	0, cr0, [r0], {149}	; 0x95
    1660:	03000095 	movweq	r0, #149	; 0x95
    1664:	9f017000 	svcls	0x00017000
    1668:	0000959c 	muleq	r0, ip, r5
    166c:	000095ac 	andeq	r9, r0, ip, lsr #11
    1670:	b0500001 	subslt	r0, r0, r1
    1674:	b4000095 	strlt	r0, [r0], #-149	; 0xffffff6b
    1678:	01000095 	swpeq	r0, r5, [r0]	; <UNPREDICTABLE>
    167c:	00005000 	andeq	r5, r0, r0
    1680:	00000000 	andeq	r0, r0, r0
    1684:	00020000 	andeq	r0, r2, r0
    1688:	00000000 	andeq	r0, r0, r0
    168c:	0000958c 	andeq	r9, r0, ip, lsl #11
    1690:	0000959c 	muleq	r0, ip, r5
    1694:	9c510001 	mrrcls	0, 0, r0, r1, cr1
    1698:	a0000095 	mulge	r0, r5, r0
    169c:	03000095 	movweq	r0, #149	; 0x95
    16a0:	9f017100 	svcls	0x00017100
    16a4:	000095a0 	andeq	r9, r0, r0, lsr #11
    16a8:	000095b8 			; <UNDEFINED> instruction: 0x000095b8
    16ac:	00510001 	subseq	r0, r1, r1
    16b0:	00000000 	andeq	r0, r0, r0
    16b4:	Address 0x00000000000016b4 is out of bounds.


Disassembly of section .debug_aranges:

00000000 <.debug_aranges>:
   0:	0000001c 	andeq	r0, r0, ip, lsl r0
   4:	00000002 	andeq	r0, r0, r2
   8:	00040000 	andeq	r0, r4, r0
   c:	00000000 	andeq	r0, r0, r0
  10:	00008020 	andeq	r8, r0, r0, lsr #32
  14:	00000258 	andeq	r0, r0, r8, asr r2
	...
  20:	0000001c 	andeq	r0, r0, ip, lsl r0
  24:	055e0002 	ldrbeq	r0, [lr, #-2]
  28:	00040000 	andeq	r0, r4, r0
  2c:	00000000 	andeq	r0, r0, r0
  30:	00008348 	andeq	r8, r0, r8, asr #6
  34:	000001c8 	andeq	r0, r0, r8, asr #3
	...
  40:	0000001c 	andeq	r0, r0, ip, lsl r0
  44:	0afe0002 	beq	fff80054 <__bss_end__+0xfff76054>
  48:	00040000 	andeq	r0, r4, r0
  4c:	00000000 	andeq	r0, r0, r0
  50:	00008510 	andeq	r8, r0, r0, lsl r5
  54:	00000050 	andeq	r0, r0, r0, asr r0
	...
  60:	0000001c 	andeq	r0, r0, ip, lsl r0
  64:	11100002 	tstne	r0, r2
  68:	00040000 	andeq	r0, r4, r0
  6c:	00000000 	andeq	r0, r0, r0
  70:	00008560 	andeq	r8, r0, r0, ror #10
  74:	000002fc 	strdeq	r0, [r0], -ip
	...
  80:	0000001c 	andeq	r0, r0, ip, lsl r0
  84:	18550002 	ldmdane	r5, {r1}^
  88:	00040000 	andeq	r0, r4, r0
  8c:	00000000 	andeq	r0, r0, r0
  90:	0000885c 	andeq	r8, r0, ip, asr r8
  94:	00000058 	andeq	r0, r0, r8, asr r0
	...
  a0:	0000001c 	andeq	r0, r0, ip, lsl r0
  a4:	19f60002 	ldmibne	r6!, {r1}^
  a8:	00040000 	andeq	r0, r4, r0
  ac:	00000000 	andeq	r0, r0, r0
  b0:	000088b4 			; <UNDEFINED> instruction: 0x000088b4
  b4:	0000003c 	andeq	r0, r0, ip, lsr r0
	...
  c0:	0000001c 	andeq	r0, r0, ip, lsl r0
  c4:	1b430002 	blne	10c00d4 <__bss_end__+0x10b60d4>
  c8:	00040000 	andeq	r0, r4, r0
  cc:	00000000 	andeq	r0, r0, r0
  d0:	000088f0 	strdeq	r8, [r0], -r0
  d4:	00000034 	andeq	r0, r0, r4, lsr r0
	...
  e0:	0000001c 	andeq	r0, r0, ip, lsl r0
  e4:	1c3a0002 	ldcne	0, cr0, [sl], #-8
  e8:	00040000 	andeq	r0, r4, r0
  ec:	00000000 	andeq	r0, r0, r0
  f0:	00008924 	andeq	r8, r0, r4, lsr #18
  f4:	00000720 	andeq	r0, r0, r0, lsr #14
	...
 100:	0000001c 	andeq	r0, r0, ip, lsl r0
 104:	26d30002 	ldrbcs	r0, [r3], r2
 108:	00040000 	andeq	r0, r4, r0
 10c:	00000000 	andeq	r0, r0, r0
 110:	00009044 	andeq	r9, r0, r4, asr #32
 114:	0000002c 	andeq	r0, r0, ip, lsr #32
	...
 120:	0000001c 	andeq	r0, r0, ip, lsl r0
 124:	28060002 	stmdacs	r6, {r1}
 128:	00040000 	andeq	r0, r4, r0
 12c:	00000000 	andeq	r0, r0, r0
 130:	00009070 	andeq	r9, r0, r0, ror r0
 134:	0000002c 	andeq	r0, r0, ip, lsr #32
	...
 140:	0000001c 	andeq	r0, r0, ip, lsl r0
 144:	294d0002 	stmdbcs	sp, {r1}^
 148:	00040000 	andeq	r0, r4, r0
 14c:	00000000 	andeq	r0, r0, r0
 150:	000090b4 	strheq	r9, [r0], -r4
 154:	0000007c 	andeq	r0, r0, ip, ror r0
	...
 160:	0000001c 	andeq	r0, r0, ip, lsl r0
 164:	2b710002 	blcs	1c40174 <__bss_end__+0x1c36174>
 168:	00040000 	andeq	r0, r4, r0
 16c:	00000000 	andeq	r0, r0, r0
 170:	00009130 	andeq	r9, r0, r0, lsr r1
 174:	00000084 	andeq	r0, r0, r4, lsl #1
	...
 180:	0000001c 	andeq	r0, r0, ip, lsl r0
 184:	2dc20002 	stclcs	0, cr0, [r2, #8]
 188:	00040000 	andeq	r0, r4, r0
 18c:	00000000 	andeq	r0, r0, r0
 190:	000091b4 			; <UNDEFINED> instruction: 0x000091b4
 194:	000001ac 	andeq	r0, r0, ip, lsr #3
	...
 1a0:	0000001c 	andeq	r0, r0, ip, lsl r0
 1a4:	332e0002 			; <UNDEFINED> instruction: 0x332e0002
 1a8:	00040000 	andeq	r0, r4, r0
 1ac:	00000000 	andeq	r0, r0, r0
 1b0:	00009360 	andeq	r9, r0, r0, ror #6
 1b4:	000001ac 	andeq	r0, r0, ip, lsr #3
	...
 1c0:	0000001c 	andeq	r0, r0, ip, lsl r0
 1c4:	38560002 	ldmdacc	r6, {r1}^
 1c8:	00040000 	andeq	r0, r4, r0
 1cc:	00000000 	andeq	r0, r0, r0
 1d0:	0000950c 	andeq	r9, r0, ip, lsl #10
 1d4:	00000034 	andeq	r0, r0, r4, lsr r0
	...
 1e0:	0000001c 	andeq	r0, r0, ip, lsl r0
 1e4:	39910002 	ldmibcc	r1, {r1}
 1e8:	00040000 	andeq	r0, r4, r0
 1ec:	00000000 	andeq	r0, r0, r0
 1f0:	00009540 	andeq	r9, r0, r0, asr #10
 1f4:	0000002c 	andeq	r0, r0, ip, lsr #32
	...
 200:	0000001c 	andeq	r0, r0, ip, lsl r0
 204:	3a8c0002 	bcc	fe300214 <__bss_end__+0xfe2f6214>
 208:	00040000 	andeq	r0, r4, r0
 20c:	00000000 	andeq	r0, r0, r0
 210:	0000956c 	andeq	r9, r0, ip, ror #10
 214:	00000020 	andeq	r0, r0, r0, lsr #32
	...
 220:	0000001c 	andeq	r0, r0, ip, lsl r0
 224:	3b9f0002 	blcc	fe7c0234 <__bss_end__+0xfe7b6234>
 228:	00040000 	andeq	r0, r4, r0
 22c:	00000000 	andeq	r0, r0, r0
 230:	0000958c 	andeq	r9, r0, ip, lsl #11
 234:	0000002c 	andeq	r0, r0, ip, lsr #32
	...

Disassembly of section .debug_ranges:

00000000 <.debug_ranges>:
   0:	00000030 	andeq	r0, r0, r0, lsr r0
   4:	00000034 	andeq	r0, r0, r4, lsr r0
   8:	00000038 	andeq	r0, r0, r8, lsr r0
   c:	0000003c 	andeq	r0, r0, ip, lsr r0
  10:	00000040 	andeq	r0, r0, r0, asr #32
  14:	00000064 	andeq	r0, r0, r4, rrx
	...
  20:	000000a8 	andeq	r0, r0, r8, lsr #1
  24:	000000ac 	andeq	r0, r0, ip, lsr #1
  28:	000000b0 	strheq	r0, [r0], -r0	; <UNPREDICTABLE>
  2c:	000000b4 	strheq	r0, [r0], -r4
  30:	000000c4 	andeq	r0, r0, r4, asr #1
  34:	000000c8 	andeq	r0, r0, r8, asr #1
  38:	000000d4 	ldrdeq	r0, [r0], -r4
  3c:	000000e8 	andeq	r0, r0, r8, ror #1
  40:	000000ec 	andeq	r0, r0, ip, ror #1
  44:	000000f0 	strdeq	r0, [r0], -r0	; <UNPREDICTABLE>
  48:	000000f0 	strdeq	r0, [r0], -r0	; <UNPREDICTABLE>
  4c:	000000f4 	strdeq	r0, [r0], -r4
  50:	00000108 	andeq	r0, r0, r8, lsl #2
  54:	0000010c 	andeq	r0, r0, ip, lsl #2
	...
  60:	00000144 	andeq	r0, r0, r4, asr #2
  64:	00000150 	andeq	r0, r0, r0, asr r1
  68:	0000019c 	muleq	r0, ip, r1
  6c:	000001e0 	andeq	r0, r0, r0, ror #3
  70:	000001f0 	strdeq	r0, [r0], -r0	; <UNPREDICTABLE>
  74:	00000258 	andeq	r0, r0, r8, asr r2
	...
  80:	00000144 	andeq	r0, r0, r4, asr #2
  84:	00000150 	andeq	r0, r0, r0, asr r1
  88:	000001a0 	andeq	r0, r0, r0, lsr #3
  8c:	000001a4 	andeq	r0, r0, r4, lsr #3
  90:	000001a8 	andeq	r0, r0, r8, lsr #3
  94:	000001d8 	ldrdeq	r0, [r0], -r8
  98:	000001f0 	strdeq	r0, [r0], -r0	; <UNPREDICTABLE>
  9c:	0000021c 	andeq	r0, r0, ip, lsl r2
	...
  a8:	00008510 	andeq	r8, r0, r0, lsl r5
  ac:	00008510 	andeq	r8, r0, r0, lsl r5
  b0:	0000851c 	andeq	r8, r0, ip, lsl r5
  b4:	00008524 	andeq	r8, r0, r4, lsr #10
	...
  c0:	00008510 	andeq	r8, r0, r0, lsl r5
  c4:	00008560 	andeq	r8, r0, r0, ror #10
	...
  d0:	00000020 	andeq	r0, r0, r0, lsr #32
  d4:	00000020 	andeq	r0, r0, r0, lsr #32
  d8:	00000020 	andeq	r0, r0, r0, lsr #32
  dc:	00000028 	andeq	r0, r0, r8, lsr #32
	...
  e8:	000001fc 	strdeq	r0, [r0], -ip
  ec:	000001fc 	strdeq	r0, [r0], -ip
  f0:	000001fc 	strdeq	r0, [r0], -ip
  f4:	00000204 	andeq	r0, r0, r4, lsl #4
	...
 100:	0000024c 	andeq	r0, r0, ip, asr #4
 104:	0000024c 	andeq	r0, r0, ip, asr #4
 108:	0000024c 	andeq	r0, r0, ip, asr #4
 10c:	00000254 	andeq	r0, r0, r4, asr r2
	...
 118:	000090b4 	strheq	r9, [r0], -r4
 11c:	00009130 	andeq	r9, r0, r0, lsr r1
	...
 128:	0000958c 	andeq	r9, r0, ip, lsl #11
 12c:	000095b8 			; <UNDEFINED> instruction: 0x000095b8
	...

Disassembly of section .debug_line:

00000000 <.debug_line>:
       0:	00000280 	andeq	r0, r0, r0, lsl #5
       4:	00910003 	addseq	r0, r1, r3
       8:	01020000 	mrseq	r0, (UNDEF: 2)
       c:	000d0efb 	strdeq	r0, [sp], -fp
      10:	01010101 	tsteq	r1, r1, lsl #2
      14:	01000000 	mrseq	r0, (UNDEF: 0)
      18:	2f010000 	svccs	0x00010000
      1c:	72657355 	rsbvc	r7, r5, #1409286145	; 0x54000001
      20:	64612f73 	strbtvs	r2, [r1], #-3955	; 0xfffff08d
      24:	2f6e696d 	svccs	0x006e696d
      28:	342d5343 	strtcc	r5, [sp], #-835	; 0xfffffcbd
      2c:	632f4e39 			; <UNDEFINED> instruction: 0x632f4e39
      30:	6e393473 	mrcvs	4, 1, r3, cr9, cr3, {3}
      34:	6131322d 	teqvs	r1, sp, lsr #4
      38:	2f2f7475 	svccs	0x002f7475
      3c:	7062696c 	rsbvc	r6, r2, ip, ror #18
      40:	6e692f69 	cdpvs	15, 6, cr2, cr9, cr9, {3}
      44:	64756c63 	ldrbtvs	r6, [r5], #-3171	; 0xfffff39d
      48:	67000065 	strvs	r0, [r0, -r5, rrx]
      4c:	666f7270 			; <UNDEFINED> instruction: 0x666f7270
      50:	0000632e 	andeq	r6, r0, lr, lsr #6
      54:	70720000 	rsbsvc	r0, r2, r0
      58:	00682e69 	rsbeq	r2, r8, r9, ror #28
      5c:	72000001 	andvc	r0, r0, #1, 0
      60:	612d6970 			; <UNDEFINED> instruction: 0x612d6970
      64:	69746d72 	ldmdbvs	r4!, {r1, r4, r5, r6, r8, sl, fp, sp, lr}^
      68:	2e72656d 	cdpcs	5, 7, cr6, cr2, cr13, {3}
      6c:	00010068 	andeq	r0, r1, r8, rrx
      70:	69707200 	ldmdbvs	r0!, {r9, ip, sp, lr}^
      74:	746e692d 	strbtvc	r6, [lr], #-2349	; 0xfffff6d3
      78:	75727265 	ldrbvc	r7, [r2, #-613]!	; 0xfffffd9b
      7c:	2e737470 	mrccs	4, 3, r7, cr3, cr0, {3}
      80:	00010068 	andeq	r0, r1, r8, rrx
      84:	6d697400 	cfstrdvs	mvd7, [r9, #-0]
      88:	692d7265 	pushvs	{r0, r2, r5, r6, r9, ip, sp, lr}
      8c:	7265746e 	rsbvc	r7, r5, #1845493760	; 0x6e000000
      90:	74707572 	ldrbtvc	r7, [r0], #-1394	; 0xfffffa8e
      94:	0000682e 	andeq	r6, r0, lr, lsr #16
      98:	05000000 	streq	r0, [r0, #-0]
      9c:	02050024 	andeq	r0, r5, #36, 0	; 0x24
      a0:	00008020 	andeq	r8, r0, r0, lsr #32
      a4:	0100c203 	tsteq	r0, r3, lsl #4
      a8:	05130505 	ldreq	r0, [r3, #-1285]	; 0xfffffafb
      ac:	2e110624 	cfmsub32cs	mvax1, mvfx0, mvfx1, mvfx4
      b0:	062f0505 	strteq	r0, [pc], -r5, lsl #10
      b4:	0618052f 	ldreq	r0, [r8], -pc, lsr #10
      b8:	06050501 	streq	r0, [r5], -r1, lsl #10
      bc:	0607054e 	streq	r0, [r7], -lr, asr #10
      c0:	06050501 	streq	r0, [r5], -r1, lsl #10
      c4:	054a0903 	strbeq	r0, [sl, #-2307]	; 0xfffff6fd
      c8:	05130608 	ldreq	r0, [r3, #-1544]	; 0xfffff9f8
      cc:	064a2d05 	strbeq	r2, [sl], -r5, lsl #26
      d0:	0608052f 	streq	r0, [r8], -pc, lsr #10
      d4:	2e530301 	cdpcs	3, 5, cr0, cr3, cr1, {0}
      d8:	032e2d03 			; <UNDEFINED> instruction: 0x032e2d03
      dc:	2d032e53 	stccs	14, cr2, [r3, #-332]	; 0xfffffeb4
      e0:	0605052e 	streq	r0, [r5], -lr, lsr #10
      e4:	030d0530 	movweq	r0, #54576	; 0xd530
      e8:	05050150 	streq	r0, [r5, #-336]	; 0xfffffeb0
      ec:	06080513 			; <UNDEFINED> instruction: 0x06080513
      f0:	06090501 	streq	r0, [r9], -r1, lsl #10
      f4:	060e052f 	streq	r0, [lr], -pc, lsr #10
      f8:	2e130501 	cfmul32cs	mvfx0, mvfx3, mvfx1
      fc:	052e0e05 	streq	r0, [lr, #-3589]!	; 0xfffff1fb
     100:	0e052e13 	mcreq	14, 0, r2, cr5, cr3, {0}
     104:	2e35052e 	cdpcs	5, 3, cr0, cr5, cr14, {1}
     108:	06050566 	streq	r0, [r5], -r6, ror #10
     10c:	13013003 	movwne	r3, #4099	; 0x1003
     110:	01061405 	tsteq	r6, r5, lsl #8
     114:	052f1705 	streq	r1, [pc, #-1797]!	; fffffa17 <__bss_end__+0xffff5a17>
     118:	052e0605 	streq	r0, [lr, #-1541]!	; 0xfffff9fb
     11c:	0513060e 	ldreq	r0, [r3, #-1550]	; 0xfffff9f2
     120:	0c052d28 	stceq	13, cr2, [r5], {40}	; 0x28
     124:	0605054a 	streq	r0, [r5], -sl, asr #10
     128:	0601052f 	streq	r0, [r1], -pc, lsr #10
     12c:	06100515 			; <UNDEFINED> instruction: 0x06100515
     130:	130505be 	movwne	r0, #21950	; 0x55be
     134:	11061005 	tstne	r6, r5
     138:	064b0505 	strbeq	r0, [fp], -r5, lsl #10
     13c:	23054b30 	movwcs	r4, #23344	; 0x5b30
     140:	7fb90306 	svcvc	0x00b90306
     144:	03050501 	movweq	r0, #21761	; 0x5501
     148:	062e00c7 	strteq	r0, [lr], -r7, asr #1
     14c:	06230530 			; <UNDEFINED> instruction: 0x06230530
     150:	017fb703 	cmneq	pc, r3, lsl #14
     154:	c9030505 	stmdbgt	r3, {r0, r2, r8, sl}
     158:	4c062e00 	stcmi	14, cr2, [r6], {-0}
     15c:	0623054c 	strteq	r0, [r3], -ip, asr #10
     160:	017fb303 	cmneq	pc, r3, lsl #6
     164:	cd030505 	cfstr32gt	mvfx0, [r3, #-20]	; 0xffffffec
     168:	4d062e00 	stcmi	14, cr2, [r6, #-0]
     16c:	0311052f 	tsteq	r1, #197132288	; 0xbc00000
     170:	05017fae 	streq	r7, [r1, #-4014]	; 0xfffff052
     174:	0d051305 	stceq	3, cr1, [r5, #-20]	; 0xffffffec
     178:	0b050106 	bleq	140598 <__bss_end__+0x136598>
     17c:	05052d67 	streq	r2, [r5, #-3431]	; 0xfffff299
     180:	2e00d403 	cdpcs	4, 0, cr13, cr0, cr3, {0}
     184:	ac030b05 			; <UNDEFINED> instruction: 0xac030b05
     188:	05052e7f 	streq	r2, [r5, #-3711]	; 0xfffff181
     18c:	03132f06 	tsteq	r3, #6, 30
     190:	050100d2 	streq	r0, [r1, #-210]	; 0xffffff2e
     194:	ad03060b 	stcge	6, cr0, [r3, #-44]	; 0xffffffd4
     198:	0505017f 	streq	r0, [r5, #-383]	; 0xfffffe81
     19c:	2e00d303 	cdpcs	3, 0, cr13, cr0, cr3, {0}
     1a0:	4d2f2f06 	stcmi	15, cr2, [pc, #-24]!	; 190 <__code_start__-0x7e70>
     1a4:	010a0513 	tsteq	sl, r3, lsl r5
     1a8:	01060e05 	tsteq	r6, r5, lsl #28
     1ac:	a7032805 	strge	r2, [r3, -r5, lsl #16]
     1b0:	0a052e7f 	beq	14bbb4 <__bss_end__+0x141bb4>
     1b4:	2e00d903 	vmlacs.f16	s26, s0, s6	; <UNPREDICTABLE>
     1b8:	4b060905 	blmi	1825d4 <__bss_end__+0x1785d4>
     1bc:	0a0513d8 	beq	145124 <__bss_end__+0x13b124>
     1c0:	060e050e 	streq	r0, [lr], -lr, lsl #10
     1c4:	2e0a0501 	cfsh32cs	mvfx0, mvfx10, #1
     1c8:	054d0d05 	strbeq	r0, [sp, #-3333]	; 0xfffff2fb
     1cc:	0d052c09 	stceq	12, cr2, [r5, #-36]	; 0xffffffdc
     1d0:	2e7fba03 	vaddcs.f32	s23, s30, s6
     1d4:	0a054a2f 	beq	152a98 <__bss_end__+0x148a98>
     1d8:	00c40306 	sbceq	r0, r4, r6, lsl #6
     1dc:	060e0501 	streq	r0, [lr], -r1, lsl #10
     1e0:	2e0a0501 	cfsh32cs	mvfx0, mvfx10, #1
     1e4:	4b060905 	blmi	182600 <__bss_end__+0x178600>
     1e8:	bc060d05 	stclt	13, cr0, [r6], {5}
     1ec:	062c0905 	strteq	r0, [ip], -r5, lsl #18
     1f0:	0d051330 	stceq	3, cr1, [r5, #-192]	; 0xffffff40
     1f4:	0b051106 	bleq	144614 <__bss_end__+0x13a614>
     1f8:	2d0d0567 	cfstr32cs	mvfx0, [sp, #-412]	; 0xfffffe64
     1fc:	054b0b05 	strbeq	r0, [fp, #-2821]	; 0xfffff4fb
     200:	034b060d 	movteq	r0, #46605	; 0xb60d
     204:	05017fb1 	streq	r7, [r1, #-4017]	; 0xfffff04f
     208:	11051305 	tstne	r5, r5, lsl #6
     20c:	1f050106 	svcne	0x00050106
     210:	2c110530 	cfldr32cs	mvfx0, [r1], {48}	; 0x30
     214:	30060505 	andcc	r0, r6, r5, lsl #10
     218:	05010a05 	streq	r0, [r1, #-2565]	; 0xfffff5fb
     21c:	05050115 	streq	r0, [r5, #-277]	; 0xfffffeeb
     220:	0e050106 	adfeqs	f0, f5, f6
     224:	2e05052e 	cfsh32cs	mvfx0, mvfx5, #30
     228:	4b060905 	blmi	182644 <__bss_end__+0x178644>
     22c:	01061205 	tsteq	r6, r5, lsl #4
     230:	054a0c05 	strbeq	r0, [sl, #-3077]	; 0xfffff3fb
     234:	05490624 	strbeq	r0, [r9, #-1572]	; 0xfffff9dc
     238:	05010625 	streq	r0, [r1, #-1573]	; 0xfffff9db
     23c:	052e0615 	streq	r0, [lr, #-1557]!	; 0xfffff9eb
     240:	66010605 	strvs	r0, [r1], -r5, lsl #12
     244:	11051806 	tstne	r5, r6, lsl #16
     248:	054a0106 	strbeq	r0, [sl, #-262]	; 0xfffffefa
     24c:	c103060a 	tstgt	r3, sl, lsl #12
     250:	0e050100 	adfeqs	f0, f5, f0
     254:	0a050106 	beq	140674 <__bss_end__+0x136674>
     258:	0605052e 	streq	r0, [r5], -lr, lsr #10
     25c:	030d0551 	movweq	r0, #54609	; 0xd551
     260:	4b2e7fb4 	blmi	ba0138 <__bss_end__+0xb96138>
     264:	057f2405 	ldrbeq	r2, [pc, #-1029]!	; fffffe67 <__bss_end__+0xffff5e67>
     268:	05010625 	streq	r0, [r1, #-1573]	; 0xfffff9db
     26c:	052e0615 	streq	r0, [lr, #-1557]!	; 0xfffff9eb
     270:	05010605 	streq	r0, [r1, #-1541]	; 0xfffff9fb
     274:	05054a1f 	streq	r4, [r5, #-2591]	; 0xfffff5e1
     278:	0534062e 	ldreq	r0, [r4, #-1582]!	; 0xfffff9d2
     27c:	02010611 	andeq	r0, r1, #17825792	; 0x1100000
     280:	0101001e 	tsteq	r1, lr, lsl r0
     284:	00000161 	andeq	r0, r0, r1, ror #2
     288:	00710003 	rsbseq	r0, r1, r3
     28c:	01020000 	mrseq	r0, (UNDEF: 2)
     290:	000d0efb 	strdeq	r0, [sp], -fp
     294:	01010101 	tsteq	r1, r1, lsl #2
     298:	01000000 	mrseq	r0, (UNDEF: 0)
     29c:	2f010000 	svccs	0x00010000
     2a0:	72657355 	rsbvc	r7, r5, #1409286145	; 0x54000001
     2a4:	64612f73 	strbtvs	r2, [r1], #-3955	; 0xfffff08d
     2a8:	2f6e696d 	svccs	0x006e696d
     2ac:	342d5343 	strtcc	r5, [sp], #-835	; 0xfffffcbd
     2b0:	632f4e39 			; <UNDEFINED> instruction: 0x632f4e39
     2b4:	6e393473 	mrcvs	4, 1, r3, cr9, cr3, {3}
     2b8:	6131322d 	teqvs	r1, sp, lsr #4
     2bc:	2f2f7475 	svccs	0x002f7475
     2c0:	7062696c 	rsbvc	r6, r2, ip, ror #18
     2c4:	6e692f69 	cdpvs	15, 6, cr2, cr9, cr9, {3}
     2c8:	64756c63 	ldrbtvs	r6, [r5], #-3171	; 0xfffff39d
     2cc:	69000065 	stmdbvs	r0, {r0, r2, r5, r6}
     2d0:	7265746e 	rsbvc	r7, r5, #1845493760	; 0x6e000000
     2d4:	74707572 	ldrbtvc	r7, [r0], #-1394	; 0xfffffa8e
     2d8:	2e632d73 	mcrcs	13, 3, r2, cr3, cr3, {3}
     2dc:	00000063 	andeq	r0, r0, r3, rrx
     2e0:	69707200 	ldmdbvs	r0!, {r9, ip, sp, lr}^
     2e4:	0100682e 	tsteq	r0, lr, lsr #16
     2e8:	70720000 	rsbsvc	r0, r2, r0
     2ec:	6e692d69 	cdpvs	13, 6, cr2, cr9, cr9, {3}
     2f0:	72726574 	rsbsvc	r6, r2, #116, 10	; 0x1d000000
     2f4:	73747075 	cmnvc	r4, #117, 0	; 0x75
     2f8:	0100682e 	tsteq	r0, lr, lsr #16
     2fc:	05000000 	streq	r0, [r0, #-0]
     300:	02050015 	andeq	r0, r5, #21, 0
     304:	00008348 	andeq	r8, r0, r8, asr #6
     308:	15050516 	strne	r0, [r5, #-1302]	; 0xfffffaea
     30c:	0f061505 	svceq	0x00061505
     310:	06310505 	ldrteq	r0, [r1], -r5, lsl #10
     314:	13356767 	teqne	r5, #27000832	; 0x19c0000
     318:	062c0516 			; <UNDEFINED> instruction: 0x062c0516
     31c:	06050514 			; <UNDEFINED> instruction: 0x06050514
     320:	01090567 	tsteq	r9, r7, ror #10
     324:	05011405 	streq	r1, [r1, #-1029]	; 0xfffffbfb
     328:	05010605 	streq	r0, [r1, #-1541]	; 0xfffff9fb
     32c:	04020009 	streq	r0, [r2], #-9
     330:	05830603 	streq	r0, [r3, #1539]	; 0x603
     334:	04020015 	streq	r0, [r2], #-21	; 0xffffffeb
     338:	05010603 	streq	r0, [r1, #-1539]	; 0xfffff9fd
     33c:	04020010 	streq	r0, [r2], #-16
     340:	1b052e03 	blne	14bb54 <__bss_end__+0x141b54>
     344:	03040200 	movweq	r0, #16896	; 0x4200
     348:	14052d06 	strne	r2, [r5], #-3334	; 0xfffff2fa
     34c:	03040200 	movweq	r0, #16896	; 0x4200
     350:	00050501 	andeq	r0, r5, r1, lsl #10
     354:	06030402 	streq	r0, [r3], -r2, lsl #8
     358:	06290501 	strteq	r0, [r9], -r1, lsl #10
     35c:	130205dc 	movwne	r0, #9692	; 0x25dc
     360:	06290501 	strteq	r0, [r9], -r1, lsl #10
     364:	2f020511 	svccs	0x00020511
     368:	052d2905 	streq	r2, [sp, #-2309]!	; 0xfffff6fb
     36c:	069e2f02 	ldreq	r2, [lr], r2, lsl #30
     370:	a22d054a 	eorge	r0, sp, #310378496	; 0x12800000
     374:	01130205 	tsteq	r3, r5, lsl #4
     378:	11062d05 	tstne	r6, r5, lsl #26
     37c:	052f0205 	streq	r0, [pc, #-517]!	; 17f <__code_start__-0x7e81>
     380:	02052d2d 	andeq	r2, r5, #2880	; 0xb40
     384:	4a069e2f 	bmi	1a7c48 <__bss_end__+0x19dc48>
     388:	05a02005 	streq	r2, [r0, #5]!
     38c:	05011302 	streq	r1, [r1, #-770]	; 0xfffffcfe
     390:	05110620 	ldreq	r0, [r1, #-1568]	; 0xfffff9e0
     394:	20052f02 	andcs	r2, r5, r2, lsl #30
     398:	2f02052d 	svccs	0x0002052d
     39c:	054a069e 	strbeq	r0, [sl, #-1694]	; 0xfffff962
     3a0:	0205a030 	andeq	sl, r5, #48, 0	; 0x30
     3a4:	30050113 	andcc	r0, r5, r3, lsl r1
     3a8:	02051106 	andeq	r1, r5, #-2147483647	; 0x80000001
     3ac:	2d30052f 	cfldr32cs	mvfx0, [r0, #-188]!	; 0xffffff44
     3b0:	9e2f0205 	cdpls	2, 2, cr0, cr15, cr5, {0}
     3b4:	29054a06 	stmdbcs	r5, {r1, r2, r9, fp, lr}
     3b8:	130205a0 	movwne	r0, #9632	; 0x25a0
     3bc:	06290501 	strteq	r0, [r9], -r1, lsl #10
     3c0:	2f020511 	svccs	0x00020511
     3c4:	052d2905 	streq	r2, [sp, #-2309]!	; 0xfffff6fb
     3c8:	069e2f02 	ldreq	r2, [lr], r2, lsl #30
     3cc:	a025054a 	eorge	r0, r5, sl, asr #10
     3d0:	01130205 	tsteq	r3, r5, lsl #4
     3d4:	11062505 	tstne	r6, r5, lsl #10
     3d8:	052f0205 	streq	r0, [pc, #-517]!	; 1db <__code_start__-0x7e25>
     3dc:	02052d25 	andeq	r2, r5, #2368	; 0x940
     3e0:	4a069e2f 	bmi	1a7ca4 <__bss_end__+0x19dca4>
     3e4:	01000a02 	tsteq	r0, r2, lsl #20
     3e8:	0001b001 	andeq	fp, r1, r1
     3ec:	f2000300 	vcgt.s8	d0, d0, d0
     3f0:	02000000 	andeq	r0, r0, #0, 0
     3f4:	0d0efb01 	vstreq	d15, [lr, #-4]
     3f8:	01010100 	mrseq	r0, (UNDEF: 17)
     3fc:	00000001 	andeq	r0, r0, r1
     400:	01000001 	tsteq	r0, r1
     404:	6573552f 	ldrbvs	r5, [r3, #-1327]!	; 0xfffffad1
     408:	612f7372 			; <UNDEFINED> instruction: 0x612f7372
     40c:	6e696d64 	cdpvs	13, 6, cr6, cr9, cr4, {3}
     410:	2d53432f 	ldclcs	3, cr4, [r3, #-188]	; 0xffffff44
     414:	2f4e3934 	svccs	0x004e3934
     418:	39347363 	ldmdbcc	r4!, {r0, r1, r5, r6, r8, r9, ip, sp, lr}
     41c:	31322d6e 	teqcc	r2, lr, ror #26
     420:	2f747561 	svccs	0x00747561
     424:	62696c2f 	rsbvs	r6, r9, #12032	; 0x2f00
     428:	692f6970 	stmdbvs	pc!, {r4, r5, r6, r8, fp, sp, lr}	; <UNPREDICTABLE>
     42c:	756c636e 	strbvc	r6, [ip, #-878]!	; 0xfffffc92
     430:	2f006564 	svccs	0x00006564
     434:	2f74706f 	svccs	0x0074706f
     438:	656d6f68 	strbvs	r6, [sp, #-3944]!	; 0xfffff098
     43c:	77657262 	strbvc	r7, [r5, -r2, ror #4]!
     440:	6c65432f 	stclvs	3, cr4, [r5], #-188	; 0xffffff44
     444:	2f72616c 	svccs	0x0072616c
     448:	2d6d7261 	sfmcs	f7, 2, [sp, #-388]!	; 0xfffffe7c
     44c:	656e6f6e 	strbvs	r6, [lr, #-3950]!	; 0xfffff092
     450:	6261652d 	rsbvs	r6, r1, #188743680	; 0xb400000
     454:	65742d69 	ldrbvs	r2, [r4, #-3433]!	; 0xfffff297
     458:	392f7473 	stmdbcc	pc!, {r0, r1, r4, r5, r6, sl, ip, sp, lr}	; <UNPREDICTABLE>
     45c:	3130322d 	teqcc	r0, sp, lsr #4
     460:	2d347139 	ldfcss	f7, [r4, #-228]!	; 0xffffff1c
     464:	30317363 	eorscc	r7, r1, r3, ror #6
     468:	6c2f6537 	cfstr32vs	mvfx6, [pc], #-220	; 394 <__code_start__-0x7c6c>
     46c:	672f6269 	strvs	r6, [pc, -r9, ror #4]!
     470:	612f6363 			; <UNDEFINED> instruction: 0x612f6363
     474:	6e2d6d72 	mcrvs	13, 1, r6, cr13, cr2, {3}
     478:	2d656e6f 	stclcs	14, cr6, [r5, #-444]!	; 0xfffffe44
     47c:	69626165 	stmdbvs	r2!, {r0, r2, r5, r6, r8, sp, lr}^
     480:	322e392f 	eorcc	r3, lr, #770048	; 0xbc000
     484:	692f312e 	stmdbvs	pc!, {r1, r2, r3, r5, r8, ip, sp}	; <UNPREDICTABLE>
     488:	756c636e 	strbvc	r6, [ip, #-878]!	; 0xfffffc92
     48c:	00006564 	andeq	r6, r0, r4, ror #10
     490:	656d6974 	strbvs	r6, [sp, #-2420]!	; 0xfffff68c
     494:	6e692d72 	mcrvs	13, 3, r2, cr9, cr2, {3}
     498:	72726574 	rsbsvc	r6, r2, #116, 10	; 0x1d000000
     49c:	2e747075 	mrccs	0, 3, r7, cr4, cr5, {3}
     4a0:	00000063 	andeq	r0, r0, r3, rrx
     4a4:	69707200 	ldmdbvs	r0!, {r9, ip, sp, lr}^
     4a8:	0100682e 	tsteq	r0, lr, lsr #16
     4ac:	70720000 	rsbsvc	r0, r2, r0
     4b0:	72612d69 	rsbvc	r2, r1, #6720	; 0x1a40
     4b4:	6d69746d 	cfstrdvs	mvd7, [r9, #-436]!	; 0xfffffe4c
     4b8:	682e7265 	stmdavs	lr!, {r0, r2, r5, r6, r9, ip, sp, lr}
     4bc:	00000100 	andeq	r0, r0, r0, lsl #2
     4c0:	69647473 	stmdbvs	r4!, {r0, r1, r4, r5, r6, sl, ip, sp, lr}^
     4c4:	672d746e 	strvs	r7, [sp, -lr, ror #8]!
     4c8:	682e6363 	stmdavs	lr!, {r0, r1, r5, r6, r8, r9, sp, lr}
     4cc:	00000200 	andeq	r0, r0, r0, lsl #4
     4d0:	2d697072 	stclcs	0, cr7, [r9, #-456]!	; 0xfffffe38
     4d4:	65746e69 	ldrbvs	r6, [r4, #-3689]!	; 0xfffff197
     4d8:	70757272 	rsbsvc	r7, r5, r2, ror r2
     4dc:	682e7374 	stmdavs	lr!, {r2, r4, r5, r6, r8, r9, ip, sp, lr}
     4e0:	00000100 	andeq	r0, r0, r0, lsl #2
     4e4:	002d0500 	eoreq	r0, sp, r0, lsl #10
     4e8:	85100205 	ldrhi	r0, [r0, #-517]	; 0xfffffdfb
     4ec:	10030000 	andne	r0, r3, r0
     4f0:	13050501 	movwne	r0, #21761	; 0x5501
     4f4:	2d030d05 	stccs	13, cr0, [r3, #-20]	; 0xffffffec
     4f8:	16050501 	strne	r0, [r5], -r1, lsl #10
     4fc:	01010101 	tsteq	r1, r1, lsl #2
     500:	01010101 	tsteq	r1, r1, lsl #2
     504:	01010101 	tsteq	r1, r1, lsl #2
     508:	01010101 	tsteq	r1, r1, lsl #2
     50c:	13010101 	movwne	r0, #4353	; 0x1101
     510:	01010101 	tsteq	r1, r1, lsl #2
     514:	01010101 	tsteq	r1, r1, lsl #2
     518:	01010101 	tsteq	r1, r1, lsl #2
     51c:	01010101 	tsteq	r1, r1, lsl #2
     520:	13010101 	movwne	r0, #4353	; 0x1101
     524:	01010101 	tsteq	r1, r1, lsl #2
     528:	01010101 	tsteq	r1, r1, lsl #2
     52c:	01010101 	tsteq	r1, r1, lsl #2
     530:	01010101 	tsteq	r1, r1, lsl #2
     534:	13010101 	movwne	r0, #4353	; 0x1101
     538:	01010101 	tsteq	r1, r1, lsl #2
     53c:	01010101 	tsteq	r1, r1, lsl #2
     540:	01010101 	tsteq	r1, r1, lsl #2
     544:	01010101 	tsteq	r1, r1, lsl #2
     548:	13010101 	movwne	r0, #4353	; 0x1101
     54c:	01010101 	tsteq	r1, r1, lsl #2
     550:	01010101 	tsteq	r1, r1, lsl #2
     554:	01010101 	tsteq	r1, r1, lsl #2
     558:	01010101 	tsteq	r1, r1, lsl #2
     55c:	13010101 	movwne	r0, #4353	; 0x1101
     560:	01010101 	tsteq	r1, r1, lsl #2
     564:	01010101 	tsteq	r1, r1, lsl #2
     568:	01010101 	tsteq	r1, r1, lsl #2
     56c:	01010101 	tsteq	r1, r1, lsl #2
     570:	13010101 	movwne	r0, #4353	; 0x1101
     574:	01310501 	teqeq	r1, r1, lsl #10
     578:	05130505 	ldreq	r0, [r3, #-1285]	; 0xfffffafb
     57c:	4703062d 	strmi	r0, [r3, -sp, lsr #12]
     580:	03050501 	movweq	r0, #21761	; 0x5501
     584:	062e6639 			; <UNDEFINED> instruction: 0x062e6639
     588:	6a2e4c03 	bvs	b9359c <__bss_end__+0xb8959c>
     58c:	0601056a 	streq	r0, [r1], -sl, ror #10
     590:	054a1d03 	strbeq	r1, [sl, #-3331]	; 0xfffff2fd
     594:	4a630305 	bmi	18c11b0 <__bss_end__+0x18b71b0>
     598:	01000a02 	tsteq	r0, r2, lsl #20
     59c:	0002d401 	andeq	sp, r2, r1, lsl #8
     5a0:	5e000300 	cdppl	3, 0, cr0, cr0, cr0, {0}
     5a4:	02000000 	andeq	r0, r0, #0, 0
     5a8:	0d0efb01 	vstreq	d15, [lr, #-4]
     5ac:	01010100 	mrseq	r0, (UNDEF: 17)
     5b0:	00000001 	andeq	r0, r0, r1
     5b4:	01000001 	tsteq	r0, r1
     5b8:	72732f2e 	rsbsvc	r2, r3, #184	; 0xb8
     5bc:	552f0063 	strpl	r0, [pc, #-99]!	; 561 <__code_start__-0x7a9f>
     5c0:	73726573 	cmnvc	r2, #482344960	; 0x1cc00000
     5c4:	6d64612f 	stfvse	f6, [r4, #-188]!	; 0xffffff44
     5c8:	432f6e69 			; <UNDEFINED> instruction: 0x432f6e69
     5cc:	39342d53 	ldmdbcc	r4!, {r0, r1, r4, r6, r8, sl, fp, sp}
     5d0:	73632f4e 	cmnvc	r3, #312	; 0x138
     5d4:	2d6e3934 			; <UNDEFINED> instruction: 0x2d6e3934
     5d8:	75613132 	strbvc	r3, [r1, #-306]!	; 0xfffffece
     5dc:	6c2f2f74 	stcvs	15, cr2, [pc], #-464	; 414 <__code_start__-0x7bec>
     5e0:	69706269 	ldmdbvs	r0!, {r0, r3, r5, r6, r9, sp, lr}^
     5e4:	636e692f 	cmnvs	lr, #770048	; 0xbc000
     5e8:	6564756c 	strbvs	r7, [r4, #-1388]!	; 0xfffffa94
     5ec:	6d6b0000 	stclvs	0, cr0, [fp, #-0]
     5f0:	6f6c6c61 	svcvs	0x006c6c61
     5f4:	00632e63 	rsbeq	r2, r3, r3, ror #28
     5f8:	72000001 	andvc	r0, r0, #1, 0
     5fc:	682e6970 	stmdavs	lr!, {r4, r5, r6, r8, fp, sp, lr}
     600:	00000200 	andeq	r0, r0, r0, lsl #4
     604:	00200500 	eoreq	r0, r0, r0, lsl #10
     608:	85600205 	strbhi	r0, [r0, #-517]!	; 0xfffffdfb
     60c:	33030000 	movwcc	r0, #12288	; 0x3000
     610:	05010601 	streq	r0, [r1, #-1537]	; 0xfffff9ff
     614:	014b0605 	cmpeq	fp, r5, lsl #12
     618:	02002e06 	andeq	r2, r0, #96	; 0x60
     61c:	2e060204 	cdpcs	2, 0, cr0, cr6, cr4, {0}
     620:	02040200 	andeq	r0, r4, #0, 4
     624:	04020001 	streq	r0, [r2], #-1
     628:	02001302 	andeq	r1, r0, #134217728	; 0x8000000
     62c:	82010204 	andhi	r0, r1, #4, 4	; 0x40000000
     630:	03180513 	tsteq	r8, #79691776	; 0x4c00000
     634:	0505016b 	streq	r0, [r5, #-363]	; 0xfffffe95
     638:	01060113 	tsteq	r6, r3, lsl r1
     63c:	01150f06 	tsteq	r5, r6, lsl #30
     640:	060e0513 			; <UNDEFINED> instruction: 0x060e0513
     644:	2e160501 	cfmul32cs	mvfx0, mvfx6, mvfx1
     648:	0605052e 	streq	r0, [r5], -lr, lsr #10
     64c:	05011403 	streq	r1, [r1, #-1027]	; 0xfffffbfd
     650:	0501060e 	streq	r0, [r1, #-1550]	; 0xfffff9f2
     654:	054b0605 	strbeq	r0, [fp, #-1541]	; 0xfffff9fb
     658:	2e01060a 	cfmadd32cs	mvax0, mvfx0, mvfx1, mvfx10
     65c:	2f060505 	svccs	0x00060505
     660:	03180501 	tsteq	r8, #4194304	; 0x400000
     664:	0505015f 	streq	r0, [r5, #-351]	; 0xfffffea1
     668:	03010613 	movweq	r0, #5651	; 0x1613
     66c:	02000120 	andeq	r0, r0, #8
     670:	4a060204 	bmi	180e88 <__bss_end__+0x176e88>
     674:	02040200 	andeq	r0, r4, #0, 4
     678:	04020001 	streq	r0, [r2], #-1
     67c:	01051302 	tsteq	r5, r2, lsl #6
     680:	02040200 	andeq	r0, r4, #0, 4
     684:	05051306 	streq	r1, [r5, #-774]	; 0xfffffcfa
     688:	01040200 	mrseq	r0, R12_usr
     68c:	4a790306 	bmi	1e412ac <__bss_end__+0x1e372ac>
     690:	01040200 	mrseq	r0, R12_usr
     694:	04020001 	streq	r0, [r2], #-1
     698:	00ba0601 	adcseq	r0, sl, r1, lsl #12
     69c:	06010402 	streq	r0, [r1], -r2, lsl #8
     6a0:	0402002e 	streq	r0, [r2], #-46	; 0xffffffd2
     6a4:	02002f01 	andeq	r2, r0, #1, 30
     6a8:	002e0104 	eoreq	r0, lr, r4, lsl #2
     6ac:	d6010402 	strle	r0, [r1], -r2, lsl #8
     6b0:	01040200 	mrseq	r0, R12_usr
     6b4:	04020032 	streq	r0, [r2], #-50	; 0xffffffce
     6b8:	02000101 	andeq	r0, r0, #1073741824	; 0x40000000
     6bc:	ba060104 	blt	180ad4 <__bss_end__+0x176ad4>
     6c0:	01040200 	mrseq	r0, R12_usr
     6c4:	3c052e06 	stccc	14, cr2, [r5], {6}
     6c8:	01064408 	tsteq	r6, r8, lsl #8
     6cc:	4b060505 	blmi	181ae8 <__bss_end__+0x177ae8>
     6d0:	04020001 	streq	r0, [r2], #-1
     6d4:	02004a02 	andeq	r4, r0, #8192	; 0x2000
     6d8:	00010204 	andeq	r0, r1, r4, lsl #4
     6dc:	13020402 	movwne	r0, #9218	; 0x2402
     6e0:	02040200 	andeq	r0, r4, #0, 4
     6e4:	01138201 	tsteq	r3, r1, lsl #4
     6e8:	5a031805 	bpl	c6704 <__bss_end__+0xbc704>
     6ec:	13050501 	movwne	r0, #21761	; 0x5501
     6f0:	01061105 	tsteq	r6, r5, lsl #2
     6f4:	0305052e 	movweq	r0, #21806	; 0x552e
     6f8:	02000125 	andeq	r0, r0, #1073741833	; 0x40000009
     6fc:	4a060204 	bmi	180f14 <__bss_end__+0x176f14>
     700:	02040200 	andeq	r0, r4, #0, 4
     704:	00070514 	andeq	r0, r7, r4, lsl r5
     708:	06020402 	streq	r0, [r2], -r2, lsl #8
     70c:	06050501 	streq	r0, [r5], -r1, lsl #10
     710:	1805014d 	stmdane	r5, {r0, r2, r3, r6, r8}
     714:	054a4f03 	strbeq	r4, [sl, #-3843]	; 0xfffff0fd
     718:	19051305 	stmdbne	r5, {r0, r2, r8, r9, ip}
     71c:	052e0106 	streq	r0, [lr, #-262]!	; 0xfffffefa
     720:	01300305 	teqeq	r0, r5, lsl #6
     724:	054c0105 	strbeq	r0, [ip, #-261]	; 0xfffffefb
     728:	04020005 	streq	r0, [r2], #-5
     72c:	77030601 	strvc	r0, [r3, -r1, lsl #12]
     730:	0402004a 	streq	r0, [r2], #-74	; 0xffffffb6
     734:	02000101 	andeq	r0, r0, #1073741824	; 0x40000000
     738:	9e060104 	adflss	f0, f6, f4
     73c:	01040200 	mrseq	r0, R12_usr
     740:	0402002e 	streq	r0, [r2], #-46	; 0xffffffd2
     744:	002e0601 	eoreq	r0, lr, r1, lsl #12
     748:	2f010402 	svccs	0x00010402
     74c:	01040200 	mrseq	r0, R12_usr
     750:	0402002e 	streq	r0, [r2], #-46	; 0xffffffd2
     754:	0200d601 	andeq	sp, r0, #1048576	; 0x100000
     758:	002f0104 	eoreq	r0, pc, r4, lsl #2
     75c:	2e010402 	cdpcs	4, 0, cr0, cr1, cr2, {0}
     760:	01040200 	mrseq	r0, R12_usr
     764:	310905d6 	ldrdcc	r0, [r9, -r6]
     768:	01061005 	tsteq	r6, r5
     76c:	0005052e 	andeq	r0, r5, lr, lsr #10
     770:	06010402 	streq	r0, [r1], -r2, lsl #8
     774:	04020030 	streq	r0, [r2], #-48	; 0xffffffd0
     778:	02000101 	andeq	r0, r0, #1073741824	; 0x40000000
     77c:	05d60104 	ldrbeq	r0, [r6, #260]	; 0x104
     780:	080c0319 	stmdaeq	ip, {r0, r3, r4, r8, r9}
     784:	13050574 	movwne	r0, #21876	; 0x5574
     788:	01060805 	tsteq	r6, r5, lsl #16
     78c:	054a0705 	strbeq	r0, [sl, #-1797]	; 0xfffff8fb
     790:	05054919 	streq	r4, [r5, #-2329]	; 0xfffff6e7
     794:	0c053106 	stfeqs	f3, [r5], {6}
     798:	05050106 	streq	r0, [r5, #-262]	; 0xfffffefa
     79c:	18056706 	stmdane	r5, {r1, r2, r8, r9, sl, sp, lr}
     7a0:	05014803 	streq	r4, [r1, #-2051]	; 0xfffff7fd
     7a4:	06011305 	streq	r1, [r1], -r5, lsl #6
     7a8:	150f0601 	strne	r0, [pc, #-1537]	; 1af <__code_start__-0x7e51>
     7ac:	0e051301 	cdpeq	3, 0, cr1, cr5, cr1, {0}
     7b0:	16050106 	strne	r0, [r5], -r6, lsl #2
     7b4:	0a052e2e 	beq	14c074 <__bss_end__+0x142074>
     7b8:	05013603 	streq	r3, [r1, #-1539]	; 0xfffff9fd
     7bc:	054b0605 	strbeq	r0, [fp, #-1541]	; 0xfffff9fb
     7c0:	054b0601 	strbeq	r0, [fp, #-1537]	; 0xfffff9ff
     7c4:	06a4062d 	strteq	r0, [r4], sp, lsr #12
     7c8:	06050501 	streq	r0, [r5], -r1, lsl #10
     7cc:	0200014b 	andeq	r0, r0, #-1073741806	; 0xc0000012
     7d0:	00820204 	addeq	r0, r2, r4, lsl #4
     7d4:	13020402 	movwne	r0, #9218	; 0x2402
     7d8:	02000c05 	andeq	r0, r0, #1280	; 0x500
     7dc:	01060204 	tsteq	r6, r4, lsl #4
     7e0:	02000505 	andeq	r0, r0, #20971520	; 0x1400000
     7e4:	67060204 	strvs	r0, [r6, -r4, lsl #4]
     7e8:	02001805 	andeq	r1, r0, #327680	; 0x50000
     7ec:	bd030204 	sfmlt	f0, 4, [r3, #-16]
     7f0:	0505017f 	streq	r0, [r5, #-383]	; 0xfffffe81
     7f4:	02040200 	andeq	r0, r4, #0, 4
     7f8:	04020013 	streq	r0, [r2], #-19	; 0xffffffed
     7fc:	02000102 	andeq	r0, r0, #-2147483648	; 0x80000000
     800:	01060204 	tsteq	r6, r4, lsl #4
     804:	02040200 	andeq	r0, r4, #0, 4
     808:	02000f06 	andeq	r0, r0, #6, 30
     80c:	00150204 	andseq	r0, r5, r4, lsl #4
     810:	01020402 	tsteq	r2, r2, lsl #8
     814:	02040200 	andeq	r0, r4, #0, 4
     818:	000e0513 	andeq	r0, lr, r3, lsl r5
     81c:	06020402 	streq	r0, [r2], -r2, lsl #8
     820:	00160501 	andseq	r0, r6, r1, lsl #10
     824:	2e020402 	cdpcs	4, 0, cr0, cr2, cr2, {0}
     828:	02040200 	andeq	r0, r4, #0, 4
     82c:	000a052e 	andeq	r0, sl, lr, lsr #10
     830:	03020402 	movweq	r0, #9218	; 0x2402
     834:	050100c1 	streq	r0, [r1, #-193]	; 0xffffff3f
     838:	04020005 	streq	r0, [r2], #-5
     83c:	004b0602 	subeq	r0, fp, r2, lsl #12
     840:	06020402 	streq	r0, [r2], -r2, lsl #8
     844:	0001052e 	andeq	r0, r1, lr, lsr #10
     848:	2f020402 	svccs	0x00020402
     84c:	02000505 	andeq	r0, r0, #20971520	; 0x1400000
     850:	46060104 	strmi	r0, [r6], -r4, lsl #2
     854:	01040200 	mrseq	r0, R12_usr
     858:	0402002e 	streq	r0, [r2], #-46	; 0xffffffd2
     85c:	1605d601 	strne	sp, [r5], -r1, lsl #12
     860:	05f20b03 	ldrbeq	r0, [r2, #2819]!	; 0xb03
     864:	9e012f05 	cdpls	15, 0, cr2, cr1, cr5, {0}
     868:	058a1e05 	streq	r1, [sl, #3589]	; 0xe05
     86c:	9e012f05 	cdpls	15, 0, cr2, cr1, cr5, {0}
     870:	01000802 	tsteq	r0, r2, lsl #16
     874:	00011501 	andeq	r1, r1, r1, lsl #10
     878:	e3000300 	movw	r0, #768	; 0x300
     87c:	02000000 	andeq	r0, r0, #0, 0
     880:	0d0efb01 	vstreq	d15, [lr, #-4]
     884:	01010100 	mrseq	r0, (UNDEF: 17)
     888:	00000001 	andeq	r0, r0, r1
     88c:	01000001 	tsteq	r0, r1
     890:	696c2f2e 	stmdbvs	ip!, {r1, r2, r3, r5, r8, r9, sl, fp, sp}^
     894:	2f006362 	svccs	0x00006362
     898:	2f74706f 	svccs	0x0074706f
     89c:	656d6f68 	strbvs	r6, [sp, #-3944]!	; 0xfffff098
     8a0:	77657262 	strbvc	r7, [r5, -r2, ror #4]!
     8a4:	6c65432f 	stclvs	3, cr4, [r5], #-188	; 0xffffff44
     8a8:	2f72616c 	svccs	0x0072616c
     8ac:	2d6d7261 	sfmcs	f7, 2, [sp, #-388]!	; 0xfffffe7c
     8b0:	656e6f6e 	strbvs	r6, [lr, #-3950]!	; 0xfffff092
     8b4:	6261652d 	rsbvs	r6, r1, #188743680	; 0xb400000
     8b8:	65742d69 	ldrbvs	r2, [r4, #-3433]!	; 0xfffff297
     8bc:	392f7473 	stmdbcc	pc!, {r0, r1, r4, r5, r6, sl, ip, sp, lr}	; <UNPREDICTABLE>
     8c0:	3130322d 	teqcc	r0, sp, lsr #4
     8c4:	2d347139 	ldfcss	f7, [r4, #-228]!	; 0xffffff1c
     8c8:	30317363 	eorscc	r7, r1, r3, ror #6
     8cc:	6c2f6537 	cfstr32vs	mvfx6, [pc], #-220	; 7f8 <__code_start__-0x7808>
     8d0:	672f6269 	strvs	r6, [pc, -r9, ror #4]!
     8d4:	612f6363 			; <UNDEFINED> instruction: 0x612f6363
     8d8:	6e2d6d72 	mcrvs	13, 1, r6, cr13, cr2, {3}
     8dc:	2d656e6f 	stclcs	14, cr6, [r5, #-444]!	; 0xfffffe44
     8e0:	69626165 	stmdbvs	r2!, {r0, r2, r5, r6, r8, sp, lr}^
     8e4:	322e392f 	eorcc	r3, lr, #770048	; 0xbc000
     8e8:	692f312e 	stmdbvs	pc!, {r1, r2, r3, r5, r8, ip, sp}	; <UNPREDICTABLE>
     8ec:	756c636e 	strbvc	r6, [ip, #-878]!	; 0xfffffc92
     8f0:	2f006564 	svccs	0x00006564
     8f4:	72657355 	rsbvc	r7, r5, #1409286145	; 0x54000001
     8f8:	64612f73 	strbtvs	r2, [r1], #-3955	; 0xfffff08d
     8fc:	2f6e696d 	svccs	0x006e696d
     900:	342d5343 	strtcc	r5, [sp], #-835	; 0xfffffcbd
     904:	632f4e39 			; <UNDEFINED> instruction: 0x632f4e39
     908:	6e393473 	mrcvs	4, 1, r3, cr9, cr3, {3}
     90c:	6131322d 	teqvs	r1, sp, lsr #4
     910:	2f2f7475 	svccs	0x002f7475
     914:	7062696c 	rsbvc	r6, r2, ip, ror #18
     918:	6e692f69 	cdpvs	15, 6, cr2, cr9, cr9, {3}
     91c:	64756c63 	ldrbtvs	r6, [r5], #-3171	; 0xfffff39d
     920:	70000065 	andvc	r0, r0, r5, rrx
     924:	746e6972 	strbtvc	r6, [lr], #-2418	; 0xfffff68e
     928:	00632e6b 	rsbeq	r2, r3, fp, ror #28
     92c:	73000001 	movwvc	r0, #1
     930:	72616474 	rsbvc	r6, r1, #116, 8	; 0x74000000
     934:	00682e67 	rsbeq	r2, r8, r7, ror #28
     938:	72000002 	andvc	r0, r0, #2, 0
     93c:	682e6970 	stmdavs	lr!, {r4, r5, r6, r8, fp, sp, lr}
     940:	00000300 	andeq	r0, r0, r0, lsl #6
     944:	6975623c 	ldmdbvs	r5!, {r2, r3, r4, r5, r9, sp, lr}^
     948:	692d746c 	pushvs	{r2, r3, r5, r6, sl, ip, sp, lr}
     94c:	00003e6e 	andeq	r3, r0, lr, ror #28
     950:	61760000 	cmnvs	r6, r0
     954:	6972702d 	ldmdbvs	r2!, {r0, r2, r3, r5, ip, sp, lr}^
     958:	2e6b746e 	cdpcs	4, 6, cr7, cr11, cr14, {3}
     95c:	00010068 	andeq	r0, r1, r8, rrx
     960:	22050000 	andcs	r0, r5, #0, 0
     964:	5c020500 	cfstr32pl	mvfx0, [r2], {-0}
     968:	17000088 	strne	r0, [r0, -r8, lsl #1]
     96c:	05050106 	streq	r0, [r5, #-262]	; 0xfffffefa
     970:	14136806 	ldrne	r6, [r3], #-2054	; 0xfffff7fa
     974:	054b0905 	strbeq	r0, [fp, #-2309]	; 0xfffff6fb
     978:	05010612 	streq	r0, [r1, #-1554]	; 0xfffff9ee
     97c:	16bb0605 	ldrtne	r0, [fp], r5, lsl #12
     980:	34066606 	strcc	r6, [r6], #-1542	; 0xfffff9fa
     984:	13060105 	movwne	r0, #24837	; 0x6105
     988:	00080266 	andeq	r0, r8, r6, ror #4
     98c:	009d0101 	addseq	r0, sp, r1, lsl #2
     990:	00030000 	andeq	r0, r3, r0
     994:	0000005f 	andeq	r0, r0, pc, asr r0
     998:	0efb0102 	cdpeq	1, 15, cr0, cr11, cr2, {0}
     99c:	0101000d 	tsteq	r1, sp
     9a0:	00000101 	andeq	r0, r0, r1, lsl #2
     9a4:	00000100 	andeq	r0, r0, r0, lsl #2
     9a8:	6c2f2e01 	stcvs	14, cr2, [pc], #-4	; 9ac <__code_start__-0x7654>
     9ac:	00636269 	rsbeq	r6, r3, r9, ror #4
     9b0:	6573552f 	ldrbvs	r5, [r3, #-1327]!	; 0xfffffad1
     9b4:	612f7372 			; <UNDEFINED> instruction: 0x612f7372
     9b8:	6e696d64 	cdpvs	13, 6, cr6, cr9, cr4, {3}
     9bc:	2d53432f 	ldclcs	3, cr4, [r3, #-188]	; 0xffffff44
     9c0:	2f4e3934 	svccs	0x004e3934
     9c4:	39347363 	ldmdbcc	r4!, {r0, r1, r5, r6, r8, r9, ip, sp, lr}
     9c8:	31322d6e 	teqcc	r2, lr, ror #26
     9cc:	2f747561 	svccs	0x00747561
     9d0:	62696c2f 	rsbvs	r6, r9, #12032	; 0x2f00
     9d4:	692f6970 	stmdbvs	pc!, {r4, r5, r6, r8, fp, sp, lr}	; <UNPREDICTABLE>
     9d8:	756c636e 	strbvc	r6, [ip, #-878]!	; 0xfffffc92
     9dc:	00006564 	andeq	r6, r0, r4, ror #10
     9e0:	63747570 	cmnvs	r4, #112, 10	; 0x1c000000
     9e4:	2e726168 	rpwcssz	f6, f2, #0.0
     9e8:	00010063 	andeq	r0, r1, r3, rrx
     9ec:	69707200 	ldmdbvs	r0!, {r9, ip, sp, lr}^
     9f0:	0200682e 	andeq	r6, r0, #3014656	; 0x2e0000
     9f4:	05000000 	streq	r0, [r0, #-0]
     9f8:	02050024 	andeq	r0, r5, #36, 0	; 0x24
     9fc:	000088b4 			; <UNDEFINED> instruction: 0x000088b4
     a00:	05010614 	streq	r0, [r1, #-1556]	; 0xfffff9ec
     a04:	054a0626 	strbeq	r0, [sl, #-1574]	; 0xfffff9da
     a08:	01052e34 	tsteq	r5, r4, lsr lr
     a0c:	1b050106 	blne	140e2c <__bss_end__+0x136e2c>
     a10:	05054f06 	streq	r4, [r5, #-3846]	; 0xfffff0fa
     a14:	06110513 			; <UNDEFINED> instruction: 0x06110513
     a18:	67010501 	strvs	r0, [r1, -r1, lsl #10]
     a1c:	67062305 	strvs	r2, [r6, -r5, lsl #6]
     a20:	05130505 	ldreq	r0, [r3, #-1285]	; 0xfffffafb
     a24:	05010611 	streq	r0, [r1, #-1553]	; 0xfffff9ef
     a28:	04024b01 	streq	r4, [r2], #-2817	; 0xfffff4ff
     a2c:	aa010100 	bge	40e34 <__bss_end__+0x36e34>
     a30:	03000000 	movweq	r0, #0
     a34:	00005c00 	andeq	r5, r0, r0, lsl #24
     a38:	fb010200 	blx	41242 <__bss_end__+0x37242>
     a3c:	01000d0e 	tsteq	r0, lr, lsl #26
     a40:	00010101 	andeq	r0, r1, r1, lsl #2
     a44:	00010000 	andeq	r0, r1, r0
     a48:	2f2e0100 	svccs	0x002e0100
     a4c:	6362696c 	cmnvs	r2, #108, 18	; 0x1b0000
     a50:	73552f00 	cmpvc	r5, #0, 30
     a54:	2f737265 	svccs	0x00737265
     a58:	696d6461 	stmdbvs	sp!, {r0, r5, r6, sl, sp, lr}^
     a5c:	53432f6e 	movtpl	r2, #16238	; 0x3f6e
     a60:	4e39342d 	cdpmi	4, 3, cr3, cr9, cr13, {1}
     a64:	3473632f 	ldrbtcc	r6, [r3], #-815	; 0xfffffcd1
     a68:	322d6e39 	eorcc	r6, sp, #912	; 0x390
     a6c:	74756131 	ldrbtvc	r6, [r5], #-305	; 0xfffffecf
     a70:	696c2f2f 	stmdbvs	ip!, {r0, r1, r2, r3, r5, r8, r9, sl, fp, sp}^
     a74:	2f697062 	svccs	0x00697062
     a78:	6c636e69 	stclvs	14, cr6, [r3], #-420	; 0xfffffe5c
     a7c:	00656475 	rsbeq	r6, r5, r5, ror r4
     a80:	74757000 	ldrbtvc	r7, [r5], #-0
     a84:	00632e6b 	rsbeq	r2, r3, fp, ror #28
     a88:	72000001 	andvc	r0, r0, #1, 0
     a8c:	682e6970 	stmdavs	lr!, {r4, r5, r6, r8, fp, sp, lr}
     a90:	00000200 	andeq	r0, r0, r0, lsl #4
     a94:	00220500 	eoreq	r0, r2, r0, lsl #10
     a98:	88f00205 	ldmhi	r0!, {r0, r2, r9}^
     a9c:	06150000 	ldreq	r0, [r5], -r0
     aa0:	06050501 	streq	r0, [r5], -r1, lsl #10
     aa4:	000b054b 	andeq	r0, fp, fp, asr #10
     aa8:	01010402 	tsteq	r1, r2, lsl #8
     aac:	02000505 	andeq	r0, r0, #20971520	; 0x1400000
     ab0:	2e060104 	adfcss	f0, f6, f4
     ab4:	02000905 	andeq	r0, r0, #81920	; 0x14000
     ab8:	4b060204 	blmi	1812d0 <__bss_end__+0x1772d0>
     abc:	02000f05 	andeq	r0, r0, #5, 30
     ac0:	05650204 	strbeq	r0, [r5, #-516]!	; 0xfffffdfc
     ac4:	04020010 	streq	r0, [r2], #-16
     ac8:	00010602 	andeq	r0, r1, r2, lsl #12
     acc:	2e020402 	cdpcs	4, 0, cr0, cr2, cr2, {0}
     ad0:	32060505 	andcc	r0, r6, #20971520	; 0x1400000
     ad4:	13060105 	movwne	r0, #24837	; 0x6105
     ad8:	01000602 	tsteq	r0, r2, lsl #12
     adc:	0005f501 	andeq	pc, r5, r1, lsl #10
     ae0:	f9000300 			; <UNDEFINED> instruction: 0xf9000300
     ae4:	02000000 	andeq	r0, r0, #0, 0
     ae8:	0d0efb01 	vstreq	d15, [lr, #-4]
     aec:	01010100 	mrseq	r0, (UNDEF: 17)
     af0:	00000001 	andeq	r0, r0, r1
     af4:	01000001 	tsteq	r0, r1
     af8:	696c2f2e 	stmdbvs	ip!, {r1, r2, r3, r5, r8, r9, sl, fp, sp}^
     afc:	2f006362 	svccs	0x00006362
     b00:	2f74706f 	svccs	0x0074706f
     b04:	656d6f68 	strbvs	r6, [sp, #-3944]!	; 0xfffff098
     b08:	77657262 	strbvc	r7, [r5, -r2, ror #4]!
     b0c:	6c65432f 	stclvs	3, cr4, [r5], #-188	; 0xffffff44
     b10:	2f72616c 	svccs	0x0072616c
     b14:	2d6d7261 	sfmcs	f7, 2, [sp, #-388]!	; 0xfffffe7c
     b18:	656e6f6e 	strbvs	r6, [lr, #-3950]!	; 0xfffff092
     b1c:	6261652d 	rsbvs	r6, r1, #188743680	; 0xb400000
     b20:	65742d69 	ldrbvs	r2, [r4, #-3433]!	; 0xfffff297
     b24:	392f7473 	stmdbcc	pc!, {r0, r1, r4, r5, r6, sl, ip, sp, lr}	; <UNPREDICTABLE>
     b28:	3130322d 	teqcc	r0, sp, lsr #4
     b2c:	2d347139 	ldfcss	f7, [r4, #-228]!	; 0xffffff1c
     b30:	30317363 	eorscc	r7, r1, r3, ror #6
     b34:	6c2f6537 	cfstr32vs	mvfx6, [pc], #-220	; a60 <__code_start__-0x75a0>
     b38:	672f6269 	strvs	r6, [pc, -r9, ror #4]!
     b3c:	612f6363 			; <UNDEFINED> instruction: 0x612f6363
     b40:	6e2d6d72 	mcrvs	13, 1, r6, cr13, cr2, {3}
     b44:	2d656e6f 	stclcs	14, cr6, [r5, #-444]!	; 0xfffffe44
     b48:	69626165 	stmdbvs	r2!, {r0, r2, r5, r6, r8, sp, lr}^
     b4c:	322e392f 	eorcc	r3, lr, #770048	; 0xbc000
     b50:	692f312e 	stmdbvs	pc!, {r1, r2, r3, r5, r8, ip, sp}	; <UNPREDICTABLE>
     b54:	756c636e 	strbvc	r6, [ip, #-878]!	; 0xfffffc92
     b58:	2f006564 	svccs	0x00006564
     b5c:	72657355 	rsbvc	r7, r5, #1409286145	; 0x54000001
     b60:	64612f73 	strbtvs	r2, [r1], #-3955	; 0xfffff08d
     b64:	2f6e696d 	svccs	0x006e696d
     b68:	342d5343 	strtcc	r5, [sp], #-835	; 0xfffffcbd
     b6c:	632f4e39 			; <UNDEFINED> instruction: 0x632f4e39
     b70:	6e393473 	mrcvs	4, 1, r3, cr9, cr3, {3}
     b74:	6131322d 	teqvs	r1, sp, lsr #4
     b78:	2f2f7475 	svccs	0x002f7475
     b7c:	7062696c 	rsbvc	r6, r2, ip, ror #18
     b80:	6e692f69 	cdpvs	15, 6, cr2, cr9, cr9, {3}
     b84:	64756c63 	ldrbtvs	r6, [r5], #-3171	; 0xfffff39d
     b88:	76000065 	strvc	r0, [r0], -r5, rrx
     b8c:	72702d61 	rsbsvc	r2, r0, #6208	; 0x1840
     b90:	6b746e69 	blvs	1d1c53c <__bss_end__+0x1d1253c>
     b94:	0100632e 	tsteq	r0, lr, lsr #6
     b98:	74730000 	ldrbtvc	r0, [r3], #-0
     b9c:	746e6964 	strbtvc	r6, [lr], #-2404	; 0xfffff69c
     ba0:	6363672d 	cmnvs	r3, #11796480	; 0xb40000
     ba4:	0200682e 	andeq	r6, r0, #3014656	; 0x2e0000
     ba8:	70720000 	rsbsvc	r0, r2, r0
     bac:	00682e69 	rsbeq	r2, r8, r9, ror #28
     bb0:	72000003 	andvc	r0, r0, #3, 0
     bb4:	692d6970 	pushvs	{r4, r5, r6, r8, fp, sp, lr}
     bb8:	7265746e 	rsbvc	r7, r5, #1845493760	; 0x6e000000
     bbc:	2e6c616e 	powcsez	f6, f4, #0.5
     bc0:	00030068 	andeq	r0, r3, r8, rrx
     bc4:	64747300 	ldrbtvs	r7, [r4], #-768	; 0xfffffd00
     bc8:	2e677261 	cdpcs	2, 6, cr7, cr7, cr1, {3}
     bcc:	00020068 	andeq	r0, r2, r8, rrx
     bd0:	75623c00 	strbvc	r3, [r2, #-3072]!	; 0xfffff400
     bd4:	2d746c69 	ldclcs	12, cr6, [r4, #-420]!	; 0xfffffe5c
     bd8:	003e6e69 	eorseq	r6, lr, r9, ror #28
     bdc:	00000000 	andeq	r0, r0, r0
     be0:	05001b05 	streq	r1, [r0, #-2821]	; 0xfffff4fb
     be4:	00892402 	addeq	r2, r9, r2, lsl #8
     be8:	01260300 			; <UNDEFINED> instruction: 0x01260300
     bec:	05011d05 	streq	r1, [r1, #-3333]	; 0xfffff2fb
     bf0:	0501062d 	streq	r0, [r1, #-1581]	; 0xfffff9d3
     bf4:	054a2e01 	strbeq	r2, [sl, #-3585]	; 0xfffff1ff
     bf8:	05510633 	ldrbeq	r0, [r1, #-1587]	; 0xfffff9cd
     bfc:	06051302 	streq	r1, [r5], -r2, lsl #6
     c00:	02050106 	andeq	r0, r5, #-2147483647	; 0x80000001
     c04:	08053006 	stmdaeq	r5, {r1, r2, ip, sp}
     c08:	01040200 	mrseq	r0, R12_usr
     c0c:	00020501 	andeq	r0, r2, r1, lsl #10
     c10:	06010402 	streq	r0, [r1], -r2, lsl #8
     c14:	00030501 	andeq	r0, r3, r1, lsl #10
     c18:	06020402 	streq	r0, [r2], -r2, lsl #8
     c1c:	0008052f 	andeq	r0, r8, pc, lsr #10
     c20:	06020402 	streq	r0, [r2], -r2, lsl #8
     c24:	00150501 	andseq	r0, r5, r1, lsl #10
     c28:	06020402 	streq	r0, [r2], -r2, lsl #8
     c2c:	00180549 	andseq	r0, r8, r9, asr #10
     c30:	06020402 	streq	r0, [r2], -r2, lsl #8
     c34:	04020001 	streq	r0, [r2], #-1
     c38:	02052e02 	andeq	r2, r5, #2, 28
     c3c:	05053006 	streq	r3, [r5, #-6]
     c40:	02050106 	andeq	r0, r5, #-2147483647	; 0x80000001
     c44:	01054b06 	tsteq	r5, r6, lsl #22
     c48:	3e051306 	cdpcc	3, 0, cr1, cr5, cr6, {0}
     c4c:	02053106 	andeq	r3, r5, #-2147483647	; 0x80000001
     c50:	060e0514 			; <UNDEFINED> instruction: 0x060e0514
     c54:	2e060501 	cfsh32cs	mvfx0, mvfx6, #1
     c58:	2f060205 	svccs	0x00060205
     c5c:	01060405 	tsteq	r6, r5, lsl #8
     c60:	2f060305 	svccs	0x00060305
     c64:	01061105 	tsteq	r6, r5, lsl #2
     c68:	052e0905 	streq	r0, [lr, #-2309]!	; 0xfffff6fb
     c6c:	15300602 	ldrne	r0, [r0, #-1538]!	; 0xfffff9fe
     c70:	01060705 	tsteq	r6, r5, lsl #14
     c74:	052e0205 	streq	r0, [lr, #-517]!	; 0xfffffdfb
     c78:	0402000b 	streq	r0, [r2], #-11
     c7c:	052e0601 	streq	r0, [lr, #-1537]!	; 0xfffff9ff
     c80:	04020002 	streq	r0, [r2], #-2
     c84:	05010601 	streq	r0, [r1, #-1537]	; 0xfffff9ff
     c88:	04020003 	streq	r0, [r2], #-3
     c8c:	052f0603 	streq	r0, [pc, #-1539]!	; 691 <__code_start__-0x796f>
     c90:	0402000c 	streq	r0, [r2], #-12
     c94:	05010603 	streq	r0, [r1, #-1539]	; 0xfffff9fd
     c98:	0402000a 	streq	r0, [r2], #-10
     c9c:	17052e03 	strne	r2, [r5, -r3, lsl #28]
     ca0:	03040200 	movweq	r0, #16896	; 0x4200
     ca4:	02002d06 	andeq	r2, r0, #384	; 0x180
     ca8:	01060304 	tsteq	r6, r4, lsl #6
     cac:	30060205 	andcc	r0, r6, r5, lsl #4
     cb0:	01060905 	tsteq	r6, r5, lsl #18
     cb4:	0602052e 	streq	r0, [r2], -lr, lsr #10
     cb8:	06010530 			; <UNDEFINED> instruction: 0x06010530
     cbc:	06490513 			; <UNDEFINED> instruction: 0x06490513
     cc0:	05010631 	streq	r0, [r1, #-1585]	; 0xfffff9cf
     cc4:	05a00602 	streq	r0, [r0, #1538]!	; 0x602
     cc8:	05010604 	streq	r0, [r1, #-1540]	; 0xfffff9fc
     ccc:	052f0603 	streq	r0, [pc, #-1539]!	; 6d1 <__code_start__-0x792f>
     cd0:	05010609 	streq	r0, [r1, #-1545]	; 0xfffff9f7
     cd4:	13300602 	teqne	r0, #2097152	; 0x200000
     cd8:	01060b05 	tsteq	r6, r5, lsl #22
     cdc:	30060205 	andcc	r0, r6, r5, lsl #4
     ce0:	04052e06 	streq	r2, [r5], #-3590	; 0xfffff1fa
     ce4:	15240206 	strne	r0, [r4, #-518]!	; 0xfffffdfa
     ce8:	060f0513 			; <UNDEFINED> instruction: 0x060f0513
     cec:	06052e01 	streq	r2, [r5], -r1, lsl #28
     cf0:	0605054a 	streq	r0, [r5], -sl, asr #10
     cf4:	0905134b 	stmdbeq	r5, {r0, r1, r3, r6, r8, r9, ip}
     cf8:	05050106 	streq	r0, [r5, #-262]	; 0xfffffefa
     cfc:	0b052f06 	bleq	14c91c <__bss_end__+0x14291c>
     d00:	0d051006 	stceq	0, cr1, [r5, #-24]	; 0xffffffe8
     d04:	01040200 	mrseq	r0, R12_usr
     d08:	0004052c 	andeq	r0, r4, ip, lsr #10
     d0c:	06010402 	streq	r0, [r1], -r2, lsl #8
     d10:	00050534 	andeq	r0, r5, r4, lsr r5
     d14:	13010402 	movwne	r0, #5122	; 0x1402
     d18:	02001b05 	andeq	r1, r0, #5120	; 0x1400
     d1c:	01060104 	tsteq	r6, r4, lsl #2
     d20:	02000705 	andeq	r0, r0, #1310720	; 0x140000
     d24:	05d60104 	ldrbeq	r0, [r6, #260]	; 0x104
     d28:	04020018 	streq	r0, [r2], #-24	; 0xffffffe8
     d2c:	0a052e01 	beq	14c538 <__bss_end__+0x142538>
     d30:	01040200 	mrseq	r0, R12_usr
     d34:	000b054a 	andeq	r0, fp, sl, asr #10
     d38:	06010402 	streq	r0, [r1], -r2, lsl #8
     d3c:	000e052f 	andeq	r0, lr, pc, lsr #10
     d40:	06010402 	streq	r0, [r1], -r2, lsl #8
     d44:	0004052e 	andeq	r0, r4, lr, lsr #10
     d48:	2e010402 	cdpcs	4, 0, cr0, cr1, cr2, {0}
     d4c:	06054b06 	streq	r4, [r5], -r6, lsl #22
     d50:	05050106 	streq	r0, [r5, #-262]	; 0xfffffefa
     d54:	0a052f06 	beq	14c974 <__bss_end__+0x142974>
     d58:	07050106 	streq	r0, [r5, -r6, lsl #2]
     d5c:	0d052e4a 	stceq	14, cr2, [r5, #-296]	; 0xfffffed8
     d60:	4a2e7603 	bmi	b9e574 <__bss_end__+0xb94574>
     d64:	050d0b05 	streq	r0, [sp, #-2821]	; 0xfffff4fb
     d68:	0402000d 	streq	r0, [r2], #-13
     d6c:	14030601 	strne	r0, [r3], #-1537	; 0xfffff9ff
     d70:	0011052e 	andseq	r0, r1, lr, lsr #10
     d74:	13010402 	movwne	r0, #5122	; 0x1402
     d78:	02002d05 	andeq	r2, r0, #320	; 0x140
     d7c:	01060104 	tsteq	r6, r4, lsl #2
     d80:	02002a05 	andeq	r2, r0, #20480	; 0x5000
     d84:	052e0104 	streq	r0, [lr, #-260]!	; 0xfffffefc
     d88:	04020016 	streq	r0, [r2], #-22	; 0xffffffea
     d8c:	14054a01 	strne	r4, [r5], #-2561	; 0xfffff5ff
     d90:	01040200 	mrseq	r0, R12_usr
     d94:	0d054b06 	vstreq	d4, [r5, #-24]	; 0xffffffe8
     d98:	01040200 	mrseq	r0, R12_usr
     d9c:	02000106 	andeq	r0, r0, #-2147483647	; 0x80000001
     da0:	064a0104 	strbeq	r0, [sl], -r4, lsl #2
     da4:	0612052f 	ldreq	r0, [r2], -pc, lsr #10
     da8:	0d054a01 	vstreq	s8, [r5, #-4]
     dac:	12052f06 	andne	r2, r5, #6, 30
     db0:	19050106 	stmdbne	r5, {r1, r2, r8}
     db4:	04054b06 	streq	r4, [r5], #-2822	; 0xfffff4fa
     db8:	02040200 	andeq	r0, r4, #0, 4
     dbc:	00011103 	andeq	r1, r1, r3, lsl #2
     dc0:	01020402 	tsteq	r2, r2, lsl #8
     dc4:	02000205 	andeq	r0, r0, #1342177280	; 0x50000000
     dc8:	05150204 	ldreq	r0, [r5, #-516]	; 0xfffffdfc
     dcc:	04020009 	streq	r0, [r2], #-9
     dd0:	00010602 	andeq	r0, r1, r2, lsl #12
     dd4:	4a020402 	bmi	81de4 <__bss_end__+0x77de4>
     dd8:	02000105 	andeq	r0, r0, #1073741825	; 0x40000001
     ddc:	059f0204 	ldreq	r0, [pc, #516]	; fe8 <__code_start__-0x7018>
     de0:	6e030604 	cfmadd32vs	mvax0, mvfx0, mvfx3, mvfx4
     de4:	0609054a 	streq	r0, [r9], -sl, asr #10
     de8:	06040501 	streq	r0, [r4], -r1, lsl #10
     dec:	0606052f 	streq	r0, [r6], -pc, lsr #10
     df0:	2f040511 	svccs	0x00040511
     df4:	63030b05 	movwvs	r0, #15109	; 0x3b05
     df8:	0019052e 	andseq	r0, r9, lr, lsr #10
     dfc:	06010402 	streq	r0, [r1], -r2, lsl #8
     e00:	052e2403 	streq	r2, [lr, #-1027]!	; 0xfffffbfd
     e04:	0402001a 	streq	r0, [r2], #-26	; 0xffffffe6
     e08:	28051301 	stmdacs	r5, {r0, r8, r9, ip}
     e0c:	01040200 	mrseq	r0, R12_usr
     e10:	25050106 	strcs	r0, [r5, #-262]	; 0xfffffefa
     e14:	01040200 	mrseq	r0, R12_usr
     e18:	001f052e 	andseq	r0, pc, lr, lsr #10
     e1c:	4a010402 	bmi	41e2c <__bss_end__+0x37e2c>
     e20:	02000b05 	andeq	r0, r0, #5120	; 0x1400
     e24:	4b060104 	blmi	18123c <__bss_end__+0x17723c>
     e28:	02000405 	andeq	r0, r0, #83886080	; 0x5000000
     e2c:	01060104 	tsteq	r6, r4, lsl #2
     e30:	01040200 	mrseq	r0, R12_usr
     e34:	0402004a 	streq	r0, [r2], #-74	; 0xffffffb6
     e38:	004e0601 	subeq	r0, lr, r1, lsl #12
     e3c:	01010402 	tsteq	r1, r2, lsl #8
     e40:	01040200 	mrseq	r0, R12_usr
     e44:	04020001 	streq	r0, [r2], #-1
     e48:	02000101 	andeq	r0, r0, #1073741824	; 0x40000000
     e4c:	2e060104 	adfcss	f0, f6, f4
     e50:	01040200 	mrseq	r0, R12_usr
     e54:	04020066 	streq	r0, [r2], #-102	; 0xffffff9a
     e58:	02002e01 	andeq	r2, r0, #1, 28
     e5c:	4a060104 	bmi	181274 <__bss_end__+0x177274>
     e60:	a6034805 	strge	r4, [r3], -r5, lsl #16
     e64:	0520087f 	streq	r0, [r0, #-2175]!	; 0xfffff781
     e68:	06011305 	streq	r1, [r1], -r5, lsl #6
     e6c:	0402002e 	streq	r0, [r2], #-46	; 0xffffffd2
     e70:	002e0602 	eoreq	r0, lr, r2, lsl #12
     e74:	01020402 	tsteq	r2, r2, lsl #8
     e78:	02040200 	andeq	r0, r4, #0, 4
     e7c:	00110513 	andseq	r0, r1, r3, lsl r5
     e80:	06020402 	streq	r0, [r2], -r2, lsl #8
     e84:	00050501 	andeq	r0, r5, r1, lsl #10
     e88:	06020402 	streq	r0, [r2], -r2, lsl #8
     e8c:	0007054b 	andeq	r0, r7, fp, asr #10
     e90:	06020402 	streq	r0, [r2], -r2, lsl #8
     e94:	06090501 	streq	r0, [r9], -r1, lsl #10
     e98:	060e054b 	streq	r0, [lr], -fp, asr #10
     e9c:	00480501 	subeq	r0, r8, r1, lsl #10
     ea0:	62010402 	andvs	r0, r1, #33554432	; 0x2000000
     ea4:	02000505 	andeq	r0, r0, #20971520	; 0x1400000
     ea8:	4b060104 	blmi	1812c0 <__bss_end__+0x1772c0>
     eac:	01040200 	mrseq	r0, R12_usr
     eb0:	04020001 	streq	r0, [r2], #-1
     eb4:	009e0601 	addseq	r0, lr, r1, lsl #12
     eb8:	2e010402 	cdpcs	4, 0, cr0, cr1, cr2, {0}
     ebc:	01040200 	mrseq	r0, R12_usr
     ec0:	40052e06 	andmi	r2, r5, r6, lsl #28
     ec4:	d600e103 	strle	lr, [r0], -r3, lsl #2
     ec8:	02050106 	andeq	r0, r5, #-2147483647	; 0x80000001
     ecc:	1e059f06 	cdpne	15, 0, cr9, cr5, cr6, {0}
     ed0:	12050106 	andne	r0, r5, #-2147483647	; 0x80000001
     ed4:	0605052e 	streq	r0, [r5], -lr, lsr #10
     ed8:	1402052f 	strne	r0, [r2], #-1327	; 0xfffffad1
     edc:	01060905 	tsteq	r6, r5, lsl #18
     ee0:	4b060505 	blmi	1822fc <__bss_end__+0x1782fc>
     ee4:	05130205 	ldreq	r0, [r3, #-517]	; 0xfffffdfb
     ee8:	050d0608 	streq	r0, [sp, #-1544]	; 0xfffff9f8
     eec:	04053302 	streq	r3, [r5], #-770	; 0xfffffcfe
     ef0:	0f054c06 	svceq	0x00054c06
     ef4:	09050106 	stmdbeq	r5, {r1, r2, r8}
     ef8:	0608052e 	streq	r0, [r8], -lr, lsr #10
     efc:	0602052c 	streq	r0, [r2], -ip, lsr #10
     f00:	000d052e 	andeq	r0, sp, lr, lsr #10
     f04:	4a010402 	bmi	41f14 <__bss_end__+0x37f14>
     f08:	4b060305 	blmi	181b24 <__bss_end__+0x177b24>
     f0c:	01060505 	tsteq	r6, r5, lsl #10
     f10:	4d060805 	stcmi	8, cr0, [r6, #-20]	; 0xffffffec
     f14:	01060e05 	tsteq	r6, r5, lsl #28
     f18:	052e0a05 	streq	r0, [lr, #-2565]!	; 0xfffff5fb
     f1c:	052f0604 	streq	r0, [pc, #-1540]!	; 920 <__code_start__-0x76e0>
     f20:	05010609 	streq	r0, [r1, #-1545]	; 0xfffff9f7
     f24:	052f0604 	streq	r0, [pc, #-1540]!	; 928 <__code_start__-0x76d8>
     f28:	2e010607 	cfmadd32cs	mvax0, mvfx0, mvfx1, mvfx7
     f2c:	30060405 	andcc	r0, r6, r5, lsl #8
     f30:	01060705 	tsteq	r6, r5, lsl #14
     f34:	30060405 	andcc	r0, r6, r5, lsl #8
     f38:	0d051413 	cfstrseq	mvf1, [r5, #-76]	; 0xffffffb4
     f3c:	09051006 	stmdbeq	r5, {r1, r2, ip}
     f40:	12053006 	andne	r3, r5, #6, 0
     f44:	0a050106 	beq	141364 <__bss_end__+0x137364>
     f48:	6609052e 	strvs	r0, [r9], -lr, lsr #10
     f4c:	4b060505 	blmi	182368 <__bss_end__+0x178368>
     f50:	01061205 	tsteq	r6, r5, lsl #4
     f54:	052e1605 	streq	r1, [lr, #-1541]!	; 0xfffff9fb
     f58:	05052e0b 	streq	r2, [r5, #-3595]	; 0xfffff1f5
     f5c:	08052f06 	stmdaeq	r5, {r1, r2, r8, r9, sl, fp, sp}
     f60:	052e0106 	streq	r0, [lr, #-262]!	; 0xfffffefa
     f64:	01300604 	teqeq	r0, r4, lsl #12
     f68:	0015014a 	andseq	r0, r5, sl, asr #2
     f6c:	02010402 	andeq	r0, r1, #33554432	; 0x2000000
     f70:	02000f36 	andeq	r0, r0, #216	; 0xd8
     f74:	00010104 	andeq	r0, r1, r4, lsl #2
     f78:	d6010402 	strle	r0, [r1], -r2, lsl #8
     f7c:	13341105 	teqne	r4, #1073741825	; 0x40000001
     f80:	04020001 	streq	r0, [r2], #-1
     f84:	00ba0602 	adcseq	r0, sl, r2, lsl #12
     f88:	06030402 	streq	r0, [r3], -r2, lsl #8
     f8c:	040200ba 	streq	r0, [r2], #-186	; 0xffffff46
     f90:	02000103 	andeq	r0, r0, #-1073741824	; 0xc0000000
     f94:	05140304 	ldreq	r0, [r4, #-772]	; 0xfffffcfc
     f98:	04020015 	streq	r0, [r2], #-21	; 0xffffffeb
     f9c:	05010603 	streq	r0, [r1, #-1539]	; 0xfffff9fd
     fa0:	04020011 	streq	r0, [r2], #-17	; 0xffffffef
     fa4:	052f0603 	streq	r0, [pc, #-1539]!	; 9a9 <__code_start__-0x7657>
     fa8:	0402001a 	streq	r0, [r2], #-26	; 0xffffffe6
     fac:	05010603 	streq	r0, [r1, #-1539]	; 0xfffff9fd
     fb0:	04020011 	streq	r0, [r2], #-17	; 0xffffffef
     fb4:	00d70603 	sbcseq	r0, r7, r3, lsl #12
     fb8:	13030402 	movwne	r0, #13314	; 0x3402
     fbc:	03040200 	movweq	r0, #16896	; 0x4200
     fc0:	00140517 	andseq	r0, r4, r7, lsl r5
     fc4:	06030402 	streq	r0, [r3], -r2, lsl #8
     fc8:	00130501 	andseq	r0, r3, r1, lsl #10
     fcc:	82030402 	andhi	r0, r3, #33554432	; 0x2000000
     fd0:	4e061805 	cdpmi	8, 0, cr1, cr6, cr5, {0}
     fd4:	01061b05 	tsteq	r6, r5, lsl #22
     fd8:	05821a05 	streq	r1, [r2, #2565]	; 0xa05
     fdc:	054b0609 	strbeq	r0, [fp, #-1545]	; 0xfffff9f7
     fe0:	2e01060d 	cfmadd32cs	mvax0, mvfx0, mvfx1, mvfx13
     fe4:	f3060905 	vmls.i8	d0, d6, d5
     fe8:	1505ba06 	strne	fp, [r5, #-2566]	; 0xfffff5fa
     fec:	18053006 	stmdane	r5, {r1, r2, ip, sp}
     ff0:	17050106 	strne	r0, [r5, -r6, lsl #2]
     ff4:	06190566 	ldreq	r0, [r9], -r6, ror #10
     ff8:	0615054b 	ldreq	r0, [r5], -fp, asr #10
     ffc:	05666f03 	strbeq	r6, [r6, #-3843]!	; 0xfffff0fd
    1000:	01480611 	cmpeq	r8, r1, lsl r6
    1004:	030905d6 	movweq	r0, #38358	; 0x95d6
    1008:	0d052e0b 	stceq	14, cr2, [r5, #-44]	; 0xffffffd4
    100c:	052e0106 	streq	r0, [lr, #-262]!	; 0xfffffefa
    1010:	06f30609 	ldrbteq	r0, [r3], r9, lsl #12
    1014:	061505ba 			; <UNDEFINED> instruction: 0x061505ba
    1018:	7503062f 	strvc	r0, [r3, #-1583]	; 0xfffff9d1
    101c:	06190566 	ldreq	r0, [r9], -r6, ror #10
    1020:	054a1303 	strbeq	r1, [sl, #-771]	; 0xfffffcfd
    1024:	6d030615 	stcvs	6, cr0, [r3, #-84]	; 0xffffffac
    1028:	15030666 	strne	r0, [r3, #-1638]	; 0xfffff99a
    102c:	06ba014a 	ldrteq	r0, [sl], sl, asr #2
    1030:	0605052e 	streq	r0, [r5], -lr, lsr #10
    1034:	2e9e011a 	mrccs	1, 4, r0, cr14, cr10, {0}
    1038:	05010e03 	streq	r0, [r1, #-3587]	; 0xfffff1fd
    103c:	05010609 	streq	r0, [r1, #-1545]	; 0xfffff9f7
    1040:	75080605 	strvc	r0, [r8, #-1541]	; 0xfffff9fb
    1044:	18030405 	stmdane	r3, {r0, r2, sl}
    1048:	06070501 	streq	r0, [r7], -r1, lsl #10
    104c:	06040501 	streq	r0, [r4], -r1, lsl #10
    1050:	03050531 	movweq	r0, #21809	; 0x5531
    1054:	1c052e67 	stcne	14, cr2, [r5], {103}	; 0x67
    1058:	09050106 	stmdbeq	r5, {r1, r2, r8}
    105c:	06050582 	streq	r0, [r5], -r2, lsl #11
    1060:	1c0531f3 	stfnes	f3, [r5], {243}	; 0xf3
    1064:	09050106 	stmdbeq	r5, {r1, r2, r8}
    1068:	06050582 	streq	r0, [r5], -r2, lsl #11
    106c:	1b0530f3 	blne	14d440 <__bss_end__+0x143440>
    1070:	09050106 	stmdbeq	r5, {r1, r2, r8}
    1074:	06050582 	streq	r0, [r5], -r2, lsl #11
    1078:	070530f3 			; <UNDEFINED> instruction: 0x070530f3
    107c:	05050106 	streq	r0, [r5, #-262]	; 0xfffffefa
    1080:	05308306 	ldreq	r8, [r0, #-774]!	; 0xfffffcfa
    1084:	05010609 	streq	r0, [r1, #-1545]	; 0xfffff9f7
    1088:	75080605 	strvc	r0, [r8, #-1541]	; 0xfffff9fb
    108c:	05301105 	ldreq	r1, [r0, #-261]!	; 0xfffffefb
    1090:	05010622 	streq	r0, [r1, #-1570]	; 0xfffff9de
    1094:	054b0605 	strbeq	r0, [fp, #-1541]	; 0xfffff9fb
    1098:	05058311 	streq	r8, [r5, #-785]	; 0xfffffcef
    109c:	359e0183 	ldrcc	r0, [lr, #387]	; 0x183
    10a0:	01060e05 	tsteq	r6, r5, lsl #28
    10a4:	062e0a05 	strteq	r0, [lr], -r5, lsl #20
    10a8:	0604052d 	streq	r0, [r4], -sp, lsr #10
    10ac:	00130501 	andseq	r0, r3, r1, lsl #10
    10b0:	4a010402 	bmi	420c0 <__bss_end__+0x380c0>
    10b4:	02001005 	andeq	r1, r0, #5, 0
    10b8:	002e0104 	eoreq	r0, lr, r4, lsl #2
    10bc:	66010402 	strvs	r0, [r1], -r2, lsl #8
    10c0:	16060205 	strne	r0, [r6], -r5, lsl #4
    10c4:	01060705 	tsteq	r6, r5, lsl #14
    10c8:	4b060205 	blmi	1818e4 <__bss_end__+0x1778e4>
    10cc:	13060105 	movwne	r0, #24837	; 0x6105
    10d0:	001a0266 	andseq	r0, sl, r6, ror #4
    10d4:	00840101 	addeq	r0, r4, r1, lsl #2
    10d8:	00030000 	andeq	r0, r3, r0
    10dc:	00000069 	andeq	r0, r0, r9, rrx
    10e0:	0efb0102 	cdpeq	1, 15, cr0, cr11, cr2, {0}
    10e4:	0101000d 	tsteq	r1, sp
    10e8:	00000101 	andeq	r0, r0, r1, lsl #2
    10ec:	00000100 	andeq	r0, r0, r0, lsl #2
    10f0:	732f2e01 			; <UNDEFINED> instruction: 0x732f2e01
    10f4:	66666174 			; <UNDEFINED> instruction: 0x66666174
    10f8:	6372732d 	cmnvs	r2, #-1275068416	; 0xb4000000
    10fc:	73552f00 	cmpvc	r5, #0, 30
    1100:	2f737265 	svccs	0x00737265
    1104:	696d6461 	stmdbvs	sp!, {r0, r5, r6, sl, sp, lr}^
    1108:	53432f6e 	movtpl	r2, #16238	; 0x3f6e
    110c:	4e39342d 	cdpmi	4, 3, cr3, cr9, cr13, {1}
    1110:	3473632f 	ldrbtcc	r6, [r3], #-815	; 0xfffffcd1
    1114:	322d6e39 	eorcc	r6, sp, #912	; 0x390
    1118:	74756131 	ldrbtvc	r6, [r5], #-305	; 0xfffffecf
    111c:	696c2f2f 	stmdbvs	ip!, {r0, r1, r2, r3, r5, r8, r9, sl, fp, sp}^
    1120:	2f697062 	svccs	0x00697062
    1124:	6c636e69 	stclvs	14, cr6, [r3], #-420	; 0xfffffe5c
    1128:	00656475 	rsbeq	r6, r5, r5, ror r4
    112c:	656c6300 	strbvs	r6, [ip, #-768]!	; 0xfffffd00
    1130:	722d6e61 	eorvc	r6, sp, #1552	; 0x610
    1134:	6f6f6265 	svcvs	0x006f6265
    1138:	00632e74 	rsbeq	r2, r3, r4, ror lr
    113c:	72000001 	andvc	r0, r0, #1, 0
    1140:	682e6970 	stmdavs	lr!, {r4, r5, r6, r8, fp, sp, lr}
    1144:	00000200 	andeq	r0, r0, r0, lsl #4
    1148:	00190500 	andseq	r0, r9, r0, lsl #10
    114c:	90440205 	subls	r0, r4, r5, lsl #4
    1150:	05150000 	ldreq	r0, [r5, #-0]
    1154:	2f832f05 	svccs	0x00832f05
    1158:	0006024b 	andeq	r0, r6, fp, asr #4
    115c:	00980101 	addseq	r0, r8, r1, lsl #2
    1160:	00030000 	andeq	r0, r3, r0
    1164:	00000063 	andeq	r0, r0, r3, rrx
    1168:	0efb0102 	cdpeq	1, 15, cr0, cr11, cr2, {0}
    116c:	0101000d 	tsteq	r1, sp
    1170:	00000101 	andeq	r0, r0, r1, lsl #2
    1174:	00000100 	andeq	r0, r0, r0, lsl #2
    1178:	732f2e01 			; <UNDEFINED> instruction: 0x732f2e01
    117c:	66666174 			; <UNDEFINED> instruction: 0x66666174
    1180:	6372732d 	cmnvs	r2, #-1275068416	; 0xb4000000
    1184:	73552f00 	cmpvc	r5, #0, 30
    1188:	2f737265 	svccs	0x00737265
    118c:	696d6461 	stmdbvs	sp!, {r0, r5, r6, sl, sp, lr}^
    1190:	53432f6e 	movtpl	r2, #16238	; 0x3f6e
    1194:	4e39342d 	cdpmi	4, 3, cr3, cr9, cr13, {1}
    1198:	3473632f 	ldrbtcc	r6, [r3], #-815	; 0xfffffcd1
    119c:	322d6e39 	eorcc	r6, sp, #912	; 0x390
    11a0:	74756131 	ldrbtvc	r6, [r5], #-305	; 0xfffffecf
    11a4:	696c2f2f 	stmdbvs	ip!, {r0, r1, r2, r3, r5, r8, r9, sl, fp, sp}^
    11a8:	2f697062 	svccs	0x00697062
    11ac:	6c636e69 	stclvs	14, cr6, [r3], #-420	; 0xfffffe5c
    11b0:	00656475 	rsbeq	r6, r5, r5, ror r4
    11b4:	74736300 	ldrbtvc	r6, [r3], #-768	; 0xfffffd00
    11b8:	2e747261 	cdpcs	2, 7, cr7, cr4, cr1, {3}
    11bc:	00010063 	andeq	r0, r1, r3, rrx
    11c0:	69707200 	ldmdbvs	r0!, {r9, ip, sp, lr}^
    11c4:	0200682e 	andeq	r6, r0, #3014656	; 0x2e0000
    11c8:	05000000 	streq	r0, [r0, #-0]
    11cc:	02050010 	andeq	r0, r5, #16, 0
    11d0:	00009070 	andeq	r9, r0, r0, ror r0
    11d4:	2f050514 	svccs	0x00050514
    11d8:	05130205 	ldreq	r0, [r3, #-517]	; 0xfffffdfb
    11dc:	14131405 	ldrne	r1, [r3], #-1029	; 0xfffffbfb
    11e0:	0f060a05 	svceq	0x00060a05
    11e4:	09053106 	stmdbeq	r5, {r1, r2, r8, ip, sp}
    11e8:	0610054b 	ldreq	r0, [r0], -fp, asr #10
    11ec:	05054a01 	streq	r4, [r5, #-2561]	; 0xfffff5ff
    11f0:	02053006 	andeq	r3, r5, #6, 0
    11f4:	0006022f 	andeq	r0, r6, pc, lsr #4
    11f8:	00d30101 	sbcseq	r0, r3, r1, lsl #2
    11fc:	00030000 	andeq	r0, r3, r0
    1200:	00000063 	andeq	r0, r0, r3, rrx
    1204:	0efb0102 	cdpeq	1, 15, cr0, cr11, cr2, {0}
    1208:	0101000d 	tsteq	r1, sp
    120c:	00000101 	andeq	r0, r0, r1, lsl #2
    1210:	00000100 	andeq	r0, r0, r0, lsl #2
    1214:	732f2e01 			; <UNDEFINED> instruction: 0x732f2e01
    1218:	66666174 			; <UNDEFINED> instruction: 0x66666174
    121c:	6372732d 	cmnvs	r2, #-1275068416	; 0xb4000000
    1220:	73552f00 	cmpvc	r5, #0, 30
    1224:	2f737265 	svccs	0x00737265
    1228:	696d6461 	stmdbvs	sp!, {r0, r5, r6, sl, sp, lr}^
    122c:	53432f6e 	movtpl	r2, #16238	; 0x3f6e
    1230:	4e39342d 	cdpmi	4, 3, cr3, cr9, cr13, {1}
    1234:	3473632f 	ldrbtcc	r6, [r3], #-815	; 0xfffffcd1
    1238:	322d6e39 	eorcc	r6, sp, #912	; 0x390
    123c:	74756131 	ldrbtvc	r6, [r5], #-305	; 0xfffffecf
    1240:	696c2f2f 	stmdbvs	ip!, {r0, r1, r2, r3, r5, r8, r9, sl, fp, sp}^
    1244:	2f697062 	svccs	0x00697062
    1248:	6c636e69 	stclvs	14, cr6, [r3], #-420	; 0xfffffe5c
    124c:	00656475 	rsbeq	r6, r5, r5, ror r4
    1250:	62657200 	rsbvs	r7, r5, #0, 4
    1254:	2e746f6f 	cdpcs	15, 7, cr6, cr4, cr15, {3}
    1258:	00010063 	andeq	r0, r1, r3, rrx
    125c:	69707200 	ldmdbvs	r0!, {r9, ip, sp, lr}^
    1260:	0200682e 	andeq	r6, r0, #3014656	; 0x2e0000
    1264:	05000000 	streq	r0, [r0, #-0]
    1268:	02050019 	andeq	r0, r5, #25, 0
    126c:	000090b4 	strheq	r9, [r0], -r4
    1270:	05010d03 	streq	r0, [r1, #-3331]	; 0xfffff2fd
    1274:	31131305 	tstcc	r3, r5, lsl #6
    1278:	01061305 	tsteq	r6, r5, lsl #6
    127c:	052f0105 	streq	r0, [pc, #-261]!	; 117f <__code_start__-0x6e81>
    1280:	0585061b 	streq	r0, [r5, #1563]	; 0x61b
    1284:	05141305 	ldreq	r1, [r4, #-773]	; 0xfffffcfb
    1288:	16052f09 	strne	r2, [r5], -r9, lsl #30
    128c:	0e050106 	adfeqs	f0, f5, f6
    1290:	0605052e 	streq	r0, [r5], -lr, lsr #10
    1294:	0601052f 	streq	r0, [r1], -pc, lsr #10
    1298:	0617052f 	ldreq	r0, [r7], -pc, lsr #10
    129c:	2f050530 	svccs	0x00050530
    12a0:	01060805 	tsteq	r6, r5, lsl #16
    12a4:	052e0705 	streq	r0, [lr, #-1797]!	; 0xfffff8fb
    12a8:	0b030605 	bleq	c2ac4 <__bss_end__+0xb8ac4>
    12ac:	134d2f4a 	movtne	r2, #57162	; 0xdf4a
    12b0:	67151313 			; <UNDEFINED> instruction: 0x67151313
    12b4:	01040200 	mrseq	r0, R12_usr
    12b8:	000d0567 	andeq	r0, sp, r7, ror #10
    12bc:	01010402 	tsteq	r1, r2, lsl #8
    12c0:	02000a05 	andeq	r0, r0, #20480	; 0x5000
    12c4:	05010104 	streq	r0, [r1, #-260]	; 0xfffffefc
    12c8:	2e6a0309 	cdpcs	3, 6, cr0, cr10, cr9, {0}
    12cc:	01000c02 	tsteq	r0, r2, lsl #24
    12d0:	0000d901 	andeq	sp, r0, r1, lsl #18
    12d4:	62000300 	andvs	r0, r0, #0, 6
    12d8:	02000000 	andeq	r0, r0, #0, 0
    12dc:	0d0efb01 	vstreq	d15, [lr, #-4]
    12e0:	01010100 	mrseq	r0, (UNDEF: 17)
    12e4:	00000001 	andeq	r0, r0, r1
    12e8:	01000001 	tsteq	r0, r1
    12ec:	74732f2e 	ldrbtvc	r2, [r3], #-3886	; 0xfffff0d2
    12f0:	2d666661 	stclcs	6, cr6, [r6, #-388]!	; 0xfffffe7c
    12f4:	00637273 	rsbeq	r7, r3, r3, ror r2
    12f8:	6573552f 	ldrbvs	r5, [r3, #-1327]!	; 0xfffffad1
    12fc:	612f7372 			; <UNDEFINED> instruction: 0x612f7372
    1300:	6e696d64 	cdpvs	13, 6, cr6, cr9, cr4, {3}
    1304:	2d53432f 	ldclcs	3, cr4, [r3, #-188]	; 0xffffff44
    1308:	2f4e3934 	svccs	0x004e3934
    130c:	39347363 	ldmdbcc	r4!, {r0, r1, r5, r6, r8, r9, ip, sp, lr}
    1310:	31322d6e 	teqcc	r2, lr, ror #26
    1314:	2f747561 	svccs	0x00747561
    1318:	62696c2f 	rsbvs	r6, r9, #12032	; 0x2f00
    131c:	692f6970 	stmdbvs	pc!, {r4, r5, r6, r8, fp, sp, lr}	; <UNPREDICTABLE>
    1320:	756c636e 	strbvc	r6, [ip, #-878]!	; 0xfffffc92
    1324:	00006564 	andeq	r6, r0, r4, ror #10
    1328:	656d6974 	strbvs	r6, [sp, #-2420]!	; 0xfffff68c
    132c:	00632e72 	rsbeq	r2, r3, r2, ror lr
    1330:	72000001 	andvc	r0, r0, #1, 0
    1334:	682e6970 	stmdavs	lr!, {r4, r5, r6, r8, fp, sp, lr}
    1338:	00000200 	andeq	r0, r0, r0, lsl #4
    133c:	00230500 	eoreq	r0, r3, r0, lsl #10
    1340:	91300205 	teqls	r0, r5, lsl #4
    1344:	05150000 	ldreq	r0, [r5, #-0]
    1348:	0c052f05 	stceq	15, cr2, [r5], {5}
    134c:	01050106 	tsteq	r5, r6, lsl #2
    1350:	061f054b 	ldreq	r0, [pc], -fp, asr #10
    1354:	3105054d 	tstcc	r5, sp, asr #10
    1358:	0612052f 	ldreq	r0, [r2], -pc, lsr #10
    135c:	06050501 	streq	r0, [r5], -r1, lsl #10
    1360:	01052f4b 	tsteq	r5, fp, asr #30
    1364:	1c051306 	stcne	3, cr1, [r5], {6}
    1368:	01064c06 	tsteq	r6, r6, lsl #24
    136c:	4b060505 	blmi	182788 <__bss_end__+0x178788>
    1370:	01061305 	tsteq	r6, r5, lsl #6
    1374:	0605052e 	streq	r0, [r5], -lr, lsr #10
    1378:	1309052f 	movwne	r0, #38191	; 0x952f
    137c:	01061705 	tsteq	r6, r5, lsl #14
    1380:	2f060905 	svccs	0x00060905
    1384:	01061105 	tsteq	r6, r5, lsl #2
    1388:	052e0c05 	streq	r0, [lr, #-3077]!	; 0xfffff3fb
    138c:	066b061c 			; <UNDEFINED> instruction: 0x066b061c
    1390:	06050501 	streq	r0, [r5], -r1, lsl #10
    1394:	054a062f 	strbeq	r0, [sl, #-1583]	; 0xfffff9d1
    1398:	1e054b01 	vmlane.f64	d4, d5, d1
    139c:	01062f06 	tsteq	r6, r6, lsl #30
    13a0:	2f060505 	svccs	0x00060505
    13a4:	01054a06 	tsteq	r5, r6, lsl #20
    13a8:	0002024b 	andeq	r0, r2, fp, asr #4
    13ac:	01b50101 			; <UNDEFINED> instruction: 0x01b50101
    13b0:	00030000 	andeq	r0, r3, r0
    13b4:	0000009e 	muleq	r0, lr, r0
    13b8:	0efb0102 	cdpeq	1, 15, cr0, cr11, cr2, {0}
    13bc:	0101000d 	tsteq	r1, sp
    13c0:	00000101 	andeq	r0, r0, r1, lsl #2
    13c4:	00000100 	andeq	r0, r0, r0, lsl #2
    13c8:	6f682f01 	svcvs	0x00682f01
    13cc:	652f656d 	strvs	r6, [pc, #-1389]!	; e67 <__code_start__-0x7199>
    13d0:	656c676e 	strbvs	r6, [ip, #-1902]!	; 0xfffff892
    13d4:	6c632f72 	stclvs	15, cr2, [r3], #-456	; 0xfffffe38
    13d8:	2f737361 	svccs	0x00737361
    13dc:	34317363 	ldrtcc	r7, [r1], #-867	; 0xfffffc9d
    13e0:	322d6530 	eorcc	r6, sp, #48, 10	; 0xc000000
    13e4:	72707331 	rsbsvc	r7, r0, #-1006632960	; 0xc4000000
    13e8:	696c2f2f 	stmdbvs	ip!, {r0, r1, r2, r3, r5, r8, r9, sl, fp, sp}^
    13ec:	2f697062 	svccs	0x00697062
    13f0:	6c636e69 	stclvs	14, cr6, [r3], #-420	; 0xfffffe5c
    13f4:	00656475 	rsbeq	r6, r5, r5, ror r4
    13f8:	7273752f 	rsbsvc	r7, r3, #197132288	; 0xbc00000
    13fc:	62696c2f 	rsbvs	r6, r9, #12032	; 0x2f00
    1400:	6363672f 	cmnvs	r3, #12320768	; 0xbc0000
    1404:	6d72612f 	ldfvse	f6, [r2, #-188]!	; 0xffffff44
    1408:	6e6f6e2d 	cdpvs	14, 6, cr6, cr15, cr13, {1}
    140c:	61652d65 	cmnvs	r5, r5, ror #26
    1410:	392f6962 	stmdbcc	pc!, {r1, r5, r6, r8, fp, sp, lr}	; <UNPREDICTABLE>
    1414:	312e322e 			; <UNDEFINED> instruction: 0x312e322e
    1418:	636e692f 	cmnvs	lr, #770048	; 0xbc000
    141c:	6564756c 	strbvs	r7, [r4, #-1388]!	; 0xfffffa94
    1420:	61750000 	cmnvs	r5, r0
    1424:	632e7472 			; <UNDEFINED> instruction: 0x632e7472
    1428:	00000000 	andeq	r0, r0, r0
    142c:	2e697072 	mcrcs	0, 3, r7, cr9, cr2, {3}
    1430:	00010068 	andeq	r0, r1, r8, rrx
    1434:	72617500 	rsbvc	r7, r1, #0, 10
    1438:	00682e74 	rsbeq	r2, r8, r4, ror lr
    143c:	67000001 	strvs	r0, [r0, -r1]
    1440:	2e6f6970 			; <UNDEFINED> instruction: 0x2e6f6970
    1444:	00010068 	andeq	r0, r1, r8, rrx
    1448:	64747300 	ldrbtvs	r7, [r4], #-768	; 0xfffffd00
    144c:	2e746e69 	cdpcs	14, 7, cr6, cr4, cr9, {3}
    1450:	00020068 	andeq	r0, r2, r8, rrx
    1454:	38050000 	stmdacc	r5, {}	; <UNPREDICTABLE>
    1458:	b4020500 	strlt	r0, [r2], #-1280	; 0xfffffb00
    145c:	03000091 	movweq	r0, #145	; 0x91
    1460:	0106012d 	tsteq	r6, sp, lsr #2
    1464:	67060505 	strvs	r0, [r6, -r5, lsl #10]
    1468:	01061105 	tsteq	r6, r5, lsl #2
    146c:	052e0505 	streq	r0, [lr, #-1285]!	; 0xfffffafb
    1470:	16056701 	strne	r6, [r5], -r1, lsl #14
    1474:	2e0b0306 	cdpcs	3, 0, cr0, cr11, cr6, {0}
    1478:	67350505 	ldrvs	r0, [r5, -r5, lsl #10]!
    147c:	03683568 	cmneq	r8, #104, 10	; 0x1a000000
    1480:	6b852e0c 	blvs	fe14ccb8 <__bss_end__+0xfe142cb8>
    1484:	0c036969 			; <UNDEFINED> instruction: 0x0c036969
    1488:	676b1366 	strbvs	r1, [fp, -r6, ror #6]!
    148c:	2f060105 	svccs	0x00060105
    1490:	08061905 	stmdaeq	r6, {r0, r2, r8, fp, ip}
    1494:	34050525 	strcc	r0, [r5], #-1317	; 0xfffffadb
    1498:	01060d05 	tsteq	r6, r5, lsl #26
    149c:	054c0105 	strbeq	r0, [ip, #-261]	; 0xfffffefb
    14a0:	05670619 	strbeq	r0, [r7, #-1561]!	; 0xfffff9e7
    14a4:	0d053605 	stceq	6, cr3, [r5, #-20]	; 0xffffffec
    14a8:	28050106 	stmdacs	r5, {r1, r2, r8}
    14ac:	3001054a 	andcc	r0, r1, sl, asr #10
    14b0:	87061505 	strhi	r1, [r6, -r5, lsl #10]
    14b4:	2f2f0505 	svccs	0x002f0505
    14b8:	02000905 	andeq	r0, r0, #81920	; 0x14000
    14bc:	05130104 	ldreq	r0, [r3, #-260]	; 0xfffffefc
    14c0:	0402000a 	streq	r0, [r2], #-10
    14c4:	0c051101 	stfeqs	f1, [r5], {1}
    14c8:	01040200 	mrseq	r0, R12_usr
    14cc:	0a050106 	beq	1418ec <__bss_end__+0x1378ec>
    14d0:	01040200 	mrseq	r0, R12_usr
    14d4:	0605052e 	streq	r0, [r5], -lr, lsr #10
    14d8:	060e054c 	streq	r0, [lr], -ip, asr #10
    14dc:	4a090501 	bmi	2428e8 <__bss_end__+0x2388e8>
    14e0:	2f060505 	svccs	0x00060505
    14e4:	0601052f 	streq	r0, [r1], -pc, lsr #10
    14e8:	061c0513 			; <UNDEFINED> instruction: 0x061c0513
    14ec:	05010667 	streq	r0, [r1, #-1639]	; 0xfffff999
    14f0:	2f4b0605 	svccs	0x004b0605
    14f4:	02000905 	andeq	r0, r0, #81920	; 0x14000
    14f8:	05130104 	ldreq	r0, [r3, #-260]	; 0xfffffefc
    14fc:	0402000a 	streq	r0, [r2], #-10
    1500:	0c051101 	stfeqs	f1, [r5], {1}
    1504:	01040200 	mrseq	r0, R12_usr
    1508:	0a050106 	beq	141928 <__bss_end__+0x137928>
    150c:	01040200 	mrseq	r0, R12_usr
    1510:	0605052e 	streq	r0, [r5], -lr, lsr #10
    1514:	0105674c 	tsteq	r5, ip, asr #14
    1518:	19052f06 	stmdbne	r5, {r1, r2, r8, r9, sl, fp, sp}
    151c:	1b054c06 	blne	15453c <__bss_end__+0x14a53c>
    1520:	2e2a052e 	cfsh64cs	mvdx0, mvdx10, #30
    1524:	01063105 	tsteq	r6, r5, lsl #2
    1528:	052e0105 	streq	r0, [lr, #-261]!	; 0xfffffefb
    152c:	0531061c 	ldreq	r0, [r1, #-1564]!	; 0xfffff9e4
    1530:	09032f05 	stmdbeq	r3, {r0, r2, r8, r9, sl, fp, sp}
    1534:	060e052e 	streq	r0, [lr], -lr, lsr #10
    1538:	4a210501 	bmi	842944 <__bss_end__+0x838944>
    153c:	0a030105 	beq	c1958 <__bss_end__+0xb7958>
    1540:	061a052e 	ldreq	r0, [sl], -lr, lsr #10
    1544:	00090568 	andeq	r0, r9, r8, ror #10
    1548:	30010402 	andcc	r0, r1, r2, lsl #8
    154c:	02000a05 	andeq	r0, r0, #20480	; 0x5000
    1550:	05110104 	ldreq	r0, [r1, #-260]	; 0xfffffefc
    1554:	0402000c 	streq	r0, [r2], #-12
    1558:	05010601 	streq	r0, [r1, #-1537]	; 0xfffff9ff
    155c:	0402000a 	streq	r0, [r2], #-10
    1560:	06022e01 	streq	r2, [r2], -r1, lsl #28
    1564:	b7010100 	strlt	r0, [r1, -r0, lsl #2]
    1568:	03000001 	movweq	r0, #1
    156c:	00006500 	andeq	r6, r0, r0, lsl #10
    1570:	fb010200 	blx	41d7a <__bss_end__+0x37d7a>
    1574:	01000d0e 	tsteq	r0, lr, lsl #26
    1578:	00010101 	andeq	r0, r1, r1, lsl #2
    157c:	00010000 	andeq	r0, r1, r0
    1580:	2f2e0100 	svccs	0x002e0100
    1584:	00637273 	rsbeq	r7, r3, r3, ror r2
    1588:	6573552f 	ldrbvs	r5, [r3, #-1327]!	; 0xfffffad1
    158c:	612f7372 			; <UNDEFINED> instruction: 0x612f7372
    1590:	6e696d64 	cdpvs	13, 6, cr6, cr9, cr4, {3}
    1594:	2d53432f 	ldclcs	3, cr4, [r3, #-188]	; 0xffffff44
    1598:	2f4e3934 	svccs	0x004e3934
    159c:	39347363 	ldmdbcc	r4!, {r0, r1, r5, r6, r8, r9, ip, sp, lr}
    15a0:	31322d6e 	teqcc	r2, lr, ror #26
    15a4:	2f747561 	svccs	0x00747561
    15a8:	62696c2f 	rsbvs	r6, r9, #12032	; 0x2f00
    15ac:	692f6970 	stmdbvs	pc!, {r4, r5, r6, r8, fp, sp, lr}	; <UNPREDICTABLE>
    15b0:	756c636e 	strbvc	r6, [ip, #-878]!	; 0xfffffc92
    15b4:	00006564 	andeq	r6, r0, r4, ror #10
    15b8:	6f697067 	svcvs	0x00697067
    15bc:	0100632e 	tsteq	r0, lr, lsr #6
    15c0:	70720000 	rsbsvc	r0, r2, r0
    15c4:	00682e69 	rsbeq	r2, r8, r9, ror #28
    15c8:	67000002 	strvs	r0, [r0, -r2]
    15cc:	2e6f6970 			; <UNDEFINED> instruction: 0x2e6f6970
    15d0:	00020068 	andeq	r0, r2, r8, rrx
    15d4:	24050000 	strcs	r0, [r5], #-0
    15d8:	60020500 	andvs	r0, r2, r0, lsl #10
    15dc:	03000093 	movweq	r0, #147	; 0x93
    15e0:	0505011d 	streq	r0, [r5, #-285]	; 0xfffffee3
    15e4:	06080513 			; <UNDEFINED> instruction: 0x06080513
    15e8:	49240501 	stmdbmi	r4!, {r0, r8, sl}
    15ec:	4f060505 	svcmi	0x00060505
    15f0:	01063005 	tsteq	r6, r5
    15f4:	05662a05 	strbeq	r2, [r6, #-2565]!	; 0xfffff5fb
    15f8:	05052e18 	streq	r2, [r5, #-3608]	; 0xfffff1e8
    15fc:	16054b06 	strne	r4, [r5], -r6, lsl #22
    1600:	052e0106 	streq	r0, [lr, #-262]!	; 0xfffffefa
    1604:	05300605 	ldreq	r0, [r0, #-1541]!	; 0xfffff9fb
    1608:	05010627 	streq	r0, [r1, #-1575]	; 0xfffff9d9
    160c:	05054a0e 	streq	r4, [r5, #-2574]	; 0xfffff5f2
    1610:	05142f06 	ldreq	r2, [r4, #-3846]	; 0xfffff0fa
    1614:	0501060e 	streq	r0, [r1, #-1550]	; 0xfffff9f2
    1618:	144b0605 	strbne	r0, [fp], #-1541	; 0xfffff9fb
    161c:	01056606 	tsteq	r5, r6, lsl #12
    1620:	0620052f 	strteq	r0, [r0], -pc, lsr #10
    1624:	1405054d 	strne	r0, [r5], #-1357	; 0xfffffab3
    1628:	06080513 			; <UNDEFINED> instruction: 0x06080513
    162c:	47200501 	strmi	r0, [r0, -r1, lsl #10]!
    1630:	33060505 	movwcc	r0, #25861	; 0x6505
    1634:	01056606 	tsteq	r5, r6, lsl #12
    1638:	0621052f 	strteq	r0, [r1], -pc, lsr #10
    163c:	1405054d 	strne	r0, [r5], #-1357	; 0xfffffab3
    1640:	06080513 			; <UNDEFINED> instruction: 0x06080513
    1644:	47210501 	strmi	r0, [r1, -r1, lsl #10]!
    1648:	33060505 	movwcc	r0, #25861	; 0x6505
    164c:	01056606 	tsteq	r5, r6, lsl #12
    1650:	062b052f 	strteq	r0, [fp], -pc, lsr #10
    1654:	0501064d 	streq	r0, [r1, #-1613]	; 0xfffff9b3
    1658:	052f0605 	streq	r0, [pc, #-1541]!	; 105b <__code_start__-0x6fa5>
    165c:	05010608 	streq	r0, [r1, #-1544]	; 0xfffff9f8
    1660:	064b0609 	strbeq	r0, [fp], -r9, lsl #12
    1664:	0530062e 	ldreq	r0, [r0, #-1582]!	; 0xfffff9d2
    1668:	052f0601 	streq	r0, [pc, #-1537]!	; 106f <__code_start__-0x6f91>
    166c:	05350623 	ldreq	r0, [r5, #-1571]!	; 0xfffff9dd
    1670:	08051305 	stmdaeq	r5, {r0, r2, r8, r9, ip}
    1674:	23050106 	movwcs	r0, #20742	; 0x5106
    1678:	06050549 	streq	r0, [r5], -r9, asr #10
    167c:	0630054d 	ldrteq	r0, [r0], -sp, asr #10
    1680:	662a0501 	strtvs	r0, [sl], -r1, lsl #10
    1684:	052e1805 	streq	r1, [lr, #-2053]!	; 0xfffff7fb
    1688:	054b0605 	strbeq	r0, [fp, #-1541]	; 0xfffff9fb
    168c:	2e010616 	mcrcs	6, 0, r0, cr1, cr6, {0}
    1690:	30060505 	andcc	r0, r6, r5, lsl #10
    1694:	01062705 	tsteq	r6, r5, lsl #14
    1698:	054a0e05 	strbeq	r0, [sl, #-3589]	; 0xfffff1fb
    169c:	142f0605 	strtne	r0, [pc], #-1541	; 16a4 <__code_start__-0x695c>
    16a0:	2e4a0614 	mcrcs	6, 2, r0, cr10, cr4, {0}
    16a4:	052f0105 	streq	r0, [pc, #-261]!	; 15a7 <__code_start__-0x6a59>
    16a8:	054d061d 	strbeq	r0, [sp, #-1565]	; 0xfffff9e3
    16ac:	08051305 	stmdaeq	r5, {r0, r2, r8, r9, ip}
    16b0:	10050106 	andne	r0, r5, r6, lsl #2
    16b4:	3501054b 	strcc	r0, [r1, #-1355]	; 0xfffffab5
    16b8:	77031d05 	strvc	r1, [r3, -r5, lsl #26]
    16bc:	0605052e 	streq	r0, [r5], -lr, lsr #10
    16c0:	0513134d 	ldreq	r1, [r3, #-845]	; 0xfffffcb3
    16c4:	2e010615 	mcrcs	6, 0, r0, cr1, cr5, {0}
    16c8:	2f060505 	svccs	0x00060505
    16cc:	061b0513 			; <UNDEFINED> instruction: 0x061b0513
    16d0:	05056601 	streq	r6, [r5, #-1537]	; 0xfffff9ff
    16d4:	01052f06 	tsteq	r5, r6, lsl #30
    16d8:	3c051306 	stccc	3, cr1, [r5], {6}
    16dc:	05054c06 	streq	r4, [r5, #-3078]	; 0xfffff3fa
    16e0:	06080513 			; <UNDEFINED> instruction: 0x06080513
    16e4:	653c0501 	ldrvs	r0, [ip, #-1281]!	; 0xfffffaff
    16e8:	69060505 	stmdbvs	r6, {r0, r2, r8, sl}
    16ec:	01063005 	tsteq	r6, r5
    16f0:	05662a05 	strbeq	r2, [r6, #-2565]!	; 0xfffff5fb
    16f4:	05052e18 	streq	r2, [r5, #-3608]	; 0xfffff1e8
    16f8:	16054b06 	strne	r4, [r5], -r6, lsl #22
    16fc:	052e0106 	streq	r0, [lr, #-262]!	; 0xfffffefa
    1700:	05300605 	ldreq	r0, [r0, #-1541]!	; 0xfffff9fb
    1704:	05010627 	streq	r0, [r1, #-1575]	; 0xfffff9d9
    1708:	05054a0e 	streq	r4, [r5, #-2574]	; 0xfffff5f2
    170c:	05142f06 	ldreq	r2, [r4, #-3846]	; 0xfffff0fa
    1710:	0501060e 	streq	r0, [r1, #-1550]	; 0xfffff9f2
    1714:	064c0605 	strbeq	r0, [ip], -r5, lsl #12
    1718:	01052e2e 	tsteq	r5, lr, lsr #28
    171c:	00040230 	andeq	r0, r4, r0, lsr r2
    1720:	00e90101 	rsceq	r0, r9, r1, lsl #2
    1724:	00030000 	andeq	r0, r3, r0
    1728:	0000005e 	andeq	r0, r0, lr, asr r0
    172c:	0efb0102 	cdpeq	1, 15, cr0, cr11, cr2, {0}
    1730:	0101000d 	tsteq	r1, sp
    1734:	00000101 	andeq	r0, r0, r1, lsl #2
    1738:	00000100 	andeq	r0, r0, r0, lsl #2
    173c:	6c2f2e01 	stcvs	14, cr2, [pc], #-4	; 1740 <__code_start__-0x68c0>
    1740:	00636269 	rsbeq	r6, r3, r9, ror #4
    1744:	6573552f 	ldrbvs	r5, [r3, #-1327]!	; 0xfffffad1
    1748:	612f7372 			; <UNDEFINED> instruction: 0x612f7372
    174c:	6e696d64 	cdpvs	13, 6, cr6, cr9, cr4, {3}
    1750:	2d53432f 	ldclcs	3, cr4, [r3, #-188]	; 0xffffff44
    1754:	2f4e3934 	svccs	0x004e3934
    1758:	39347363 	ldmdbcc	r4!, {r0, r1, r5, r6, r8, r9, ip, sp, lr}
    175c:	31322d6e 	teqcc	r2, lr, ror #26
    1760:	2f747561 	svccs	0x00747561
    1764:	62696c2f 	rsbvs	r6, r9, #12032	; 0x2f00
    1768:	692f6970 	stmdbvs	pc!, {r4, r5, r6, r8, fp, sp, lr}	; <UNPREDICTABLE>
    176c:	756c636e 	strbvc	r6, [ip, #-878]!	; 0xfffffc92
    1770:	00006564 	andeq	r6, r0, r4, ror #10
    1774:	63727473 	cmnvs	r2, #1929379840	; 0x73000000
    1778:	632e7461 			; <UNDEFINED> instruction: 0x632e7461
    177c:	00000100 	andeq	r0, r0, r0, lsl #2
    1780:	2e697072 	mcrcs	0, 3, r7, cr9, cr2, {3}
    1784:	00020068 	andeq	r0, r2, r8, rrx
    1788:	2c050000 	stccs	0, cr0, [r5], {-0}
    178c:	0c020500 	cfstr32eq	mvfx0, [r2], {-0}
    1790:	15000095 	strne	r0, [r0, #-149]	; 0xffffff6b
    1794:	13130505 	tstne	r3, #20971520	; 0x1400000
    1798:	11060b05 	tstne	r6, r5, lsl #22
    179c:	02000505 	andeq	r0, r0, #20971520	; 0x1400000
    17a0:	30060104 	andcc	r0, r6, r4, lsl #2
    17a4:	01040200 	mrseq	r0, R12_usr
    17a8:	00090515 	andeq	r0, r9, r5, lsl r5
    17ac:	13010402 	movwne	r0, #5122	; 0x1402
    17b0:	02001005 	andeq	r1, r0, #5, 0
    17b4:	2e060104 	adfcss	f0, f6, f4
    17b8:	02000b05 	andeq	r0, r0, #5120	; 0x1400
    17bc:	002e0104 	eoreq	r0, lr, r4, lsl #2
    17c0:	06010402 	streq	r0, [r1], -r2, lsl #8
    17c4:	0005052f 	andeq	r0, r5, pc, lsr #10
    17c8:	06010402 	streq	r0, [r1], -r2, lsl #8
    17cc:	054e0601 	strbeq	r0, [lr, #-1537]	; 0xfffff9ff
    17d0:	05010608 	streq	r0, [r1, #-1544]	; 0xfffff9f8
    17d4:	04020005 	streq	r0, [r2], #-5
    17d8:	052f0601 	streq	r0, [pc, #-1537]!	; 11df <__code_start__-0x6e21>
    17dc:	04020009 	streq	r0, [r2], #-9
    17e0:	0b051301 	bleq	1463ec <__bss_end__+0x13c3ec>
    17e4:	01040200 	mrseq	r0, R12_usr
    17e8:	09050106 	stmdbeq	r5, {r1, r2, r8}
    17ec:	01040200 	mrseq	r0, R12_usr
    17f0:	0f054b06 	svceq	0x00054b06
    17f4:	01040200 	mrseq	r0, R12_usr
    17f8:	0d050106 	stfeqs	f0, [r5, #-24]	; 0xffffffe8
    17fc:	01040200 	mrseq	r0, R12_usr
    1800:	05052f06 	streq	r2, [r5, #-3846]	; 0xfffff0fa
    1804:	01040200 	mrseq	r0, R12_usr
    1808:	06020106 	streq	r0, [r2], -r6, lsl #2
    180c:	a2010100 	andge	r0, r1, #0
    1810:	03000000 	movweq	r0, #0
    1814:	00005e00 	andeq	r5, r0, r0, lsl #28
    1818:	fb010200 	blx	42022 <__bss_end__+0x38022>
    181c:	01000d0e 	tsteq	r0, lr, lsl #26
    1820:	00010101 	andeq	r0, r1, r1, lsl #2
    1824:	00010000 	andeq	r0, r1, r0
    1828:	2f2e0100 	svccs	0x002e0100
    182c:	6362696c 	cmnvs	r2, #108, 18	; 0x1b0000
    1830:	73552f00 	cmpvc	r5, #0, 30
    1834:	2f737265 	svccs	0x00737265
    1838:	696d6461 	stmdbvs	sp!, {r0, r5, r6, sl, sp, lr}^
    183c:	53432f6e 	movtpl	r2, #16238	; 0x3f6e
    1840:	4e39342d 	cdpmi	4, 3, cr3, cr9, cr13, {1}
    1844:	3473632f 	ldrbtcc	r6, [r3], #-815	; 0xfffffcd1
    1848:	322d6e39 	eorcc	r6, sp, #912	; 0x390
    184c:	74756131 	ldrbtvc	r6, [r5], #-305	; 0xfffffecf
    1850:	696c2f2f 	stmdbvs	ip!, {r0, r1, r2, r3, r5, r8, r9, sl, fp, sp}^
    1854:	2f697062 	svccs	0x00697062
    1858:	6c636e69 	stclvs	14, cr6, [r3], #-420	; 0xfffffe5c
    185c:	00656475 	rsbeq	r6, r5, r5, ror r4
    1860:	72747300 	rsbsvc	r7, r4, #0, 6
    1864:	2e706d63 	cdpcs	13, 7, cr6, cr0, cr3, {3}
    1868:	00010063 	andeq	r0, r1, r3, rrx
    186c:	69707200 	ldmdbvs	r0!, {r9, ip, sp, lr}^
    1870:	0200682e 	andeq	r6, r0, #3014656	; 0x2e0000
    1874:	05000000 	streq	r0, [r0, #-0]
    1878:	0205002a 	andeq	r0, r5, #42, 0	; 0x2a
    187c:	00009540 	andeq	r9, r0, r0, asr #10
    1880:	13090514 	movwne	r0, #38164	; 0x9514
    1884:	05010f05 	streq	r0, [r1, #-3845]	; 0xfffff0fb
    1888:	05010610 	streq	r0, [r1, #-1552]	; 0xfffff9f0
    188c:	1c052e0f 	stcne	14, cr2, [r5], {15}
    1890:	01040200 	mrseq	r0, R12_usr
    1894:	0013054a 	andseq	r0, r3, sl, asr #10
    1898:	2e010402 	cdpcs	4, 0, cr0, cr1, cr2, {0}
    189c:	2f061105 	svccs	0x00061105
    18a0:	2e061605 	cfmadd32cs	mvax0, mvfx1, mvfx6, mvfx5
    18a4:	0609052e 	streq	r0, [r9], -lr, lsr #10
    18a8:	0615052f 	ldreq	r0, [r5], -pc, lsr #10
    18ac:	2f010501 	svccs	0x00010501
    18b0:	01000402 	tsteq	r0, r2, lsl #8
    18b4:	0000a001 	andeq	sl, r0, r1
    18b8:	5e000300 	cdppl	3, 0, cr0, cr0, cr0, {0}
    18bc:	02000000 	andeq	r0, r0, #0, 0
    18c0:	0d0efb01 	vstreq	d15, [lr, #-4]
    18c4:	01010100 	mrseq	r0, (UNDEF: 17)
    18c8:	00000001 	andeq	r0, r0, r1
    18cc:	01000001 	tsteq	r0, r1
    18d0:	696c2f2e 	stmdbvs	ip!, {r1, r2, r3, r5, r8, r9, sl, fp, sp}^
    18d4:	2f006362 	svccs	0x00006362
    18d8:	72657355 	rsbvc	r7, r5, #1409286145	; 0x54000001
    18dc:	64612f73 	strbtvs	r2, [r1], #-3955	; 0xfffff08d
    18e0:	2f6e696d 	svccs	0x006e696d
    18e4:	342d5343 	strtcc	r5, [sp], #-835	; 0xfffffcbd
    18e8:	632f4e39 			; <UNDEFINED> instruction: 0x632f4e39
    18ec:	6e393473 	mrcvs	4, 1, r3, cr9, cr3, {3}
    18f0:	6131322d 	teqvs	r1, sp, lsr #4
    18f4:	2f2f7475 	svccs	0x002f7475
    18f8:	7062696c 	rsbvc	r6, r2, ip, ror #18
    18fc:	6e692f69 	cdpvs	15, 6, cr2, cr9, cr9, {3}
    1900:	64756c63 	ldrbtvs	r6, [r5], #-3171	; 0xfffff39d
    1904:	73000065 	movwvc	r0, #101	; 0x65
    1908:	70637274 	rsbvc	r7, r3, r4, ror r2
    190c:	00632e79 	rsbeq	r2, r3, r9, ror lr
    1910:	72000001 	andvc	r0, r0, #1, 0
    1914:	682e6970 	stmdavs	lr!, {r4, r5, r6, r8, fp, sp, lr}
    1918:	00000200 	andeq	r0, r0, r0, lsl #4
    191c:	002a0500 	eoreq	r0, sl, r0, lsl #10
    1920:	956c0205 	strbls	r0, [ip, #-517]!	; 0xfffffdfb
    1924:	05140000 	ldreq	r0, [r4, #-0]
    1928:	05131305 	ldreq	r1, [r3, #-773]	; 0xfffffcfb
    192c:	05110614 	ldreq	r0, [r1, #-1556]	; 0xfffff9ec
    1930:	04020022 	streq	r0, [r2], #-34	; 0xffffffde
    1934:	052f0601 	streq	r0, [pc, #-1537]!	; 133b <__code_start__-0x6cc5>
    1938:	0402000b 	streq	r0, [r2], #-11
    193c:	15050101 	strne	r0, [r5, #-257]	; 0xfffffeff
    1940:	01040200 	mrseq	r0, R12_usr
    1944:	13050106 	movwne	r0, #20742	; 0x5106
    1948:	01040200 	mrseq	r0, R12_usr
    194c:	000b054a 	andeq	r0, fp, sl, asr #10
    1950:	4a010402 	bmi	42960 <__bss_end__+0x38960>
    1954:	01000602 	tsteq	r0, r2, lsl #12
    1958:	00010301 	andeq	r0, r1, r1, lsl #6
    195c:	c7000300 	strgt	r0, [r0, -r0, lsl #6]
    1960:	02000000 	andeq	r0, r0, #0, 0
    1964:	0d0efb01 	vstreq	d15, [lr, #-4]
    1968:	01010100 	mrseq	r0, (UNDEF: 17)
    196c:	00000001 	andeq	r0, r0, r1
    1970:	01000001 	tsteq	r0, r1
    1974:	696c2f2e 	stmdbvs	ip!, {r1, r2, r3, r5, r8, r9, sl, fp, sp}^
    1978:	2f006362 	svccs	0x00006362
    197c:	72657355 	rsbvc	r7, r5, #1409286145	; 0x54000001
    1980:	64612f73 	strbtvs	r2, [r1], #-3955	; 0xfffff08d
    1984:	2f6e696d 	svccs	0x006e696d
    1988:	342d5343 	strtcc	r5, [sp], #-835	; 0xfffffcbd
    198c:	632f4e39 			; <UNDEFINED> instruction: 0x632f4e39
    1990:	6e393473 	mrcvs	4, 1, r3, cr9, cr3, {3}
    1994:	6131322d 	teqvs	r1, sp, lsr #4
    1998:	2f2f7475 	svccs	0x002f7475
    199c:	7062696c 	rsbvc	r6, r2, ip, ror #18
    19a0:	6e692f69 	cdpvs	15, 6, cr2, cr9, cr9, {3}
    19a4:	64756c63 	ldrbtvs	r6, [r5], #-3171	; 0xfffff39d
    19a8:	6f2f0065 	svcvs	0x002f0065
    19ac:	682f7470 	stmdavs	pc!, {r4, r5, r6, sl, ip, sp, lr}	; <UNPREDICTABLE>
    19b0:	62656d6f 	rsbvs	r6, r5, #7104	; 0x1bc0
    19b4:	2f776572 	svccs	0x00776572
    19b8:	6c6c6543 	cfstr64vs	mvdx6, [ip], #-268	; 0xfffffef4
    19bc:	612f7261 			; <UNDEFINED> instruction: 0x612f7261
    19c0:	6e2d6d72 	mcrvs	13, 1, r6, cr13, cr2, {3}
    19c4:	2d656e6f 	stclcs	14, cr6, [r5, #-444]!	; 0xfffffe44
    19c8:	69626165 	stmdbvs	r2!, {r0, r2, r5, r6, r8, sp, lr}^
    19cc:	7365742d 	cmnvc	r5, #754974720	; 0x2d000000
    19d0:	2d392f74 	ldccs	15, cr2, [r9, #-464]!	; 0xfffffe30
    19d4:	39313032 	ldmdbcc	r1!, {r1, r4, r5, ip, sp}
    19d8:	632d3471 			; <UNDEFINED> instruction: 0x632d3471
    19dc:	37303173 			; <UNDEFINED> instruction: 0x37303173
    19e0:	696c2f65 	stmdbvs	ip!, {r0, r2, r5, r6, r8, r9, sl, fp, sp}^
    19e4:	63672f62 	cmnvs	r7, #392	; 0x188
    19e8:	72612f63 	rsbvc	r2, r1, #396	; 0x18c
    19ec:	6f6e2d6d 	svcvs	0x006e2d6d
    19f0:	652d656e 	strvs	r6, [sp, #-1390]!	; 0xfffffa92
    19f4:	2f696261 	svccs	0x00696261
    19f8:	2e322e39 	mrccs	14, 1, r2, cr2, cr9, {1}
    19fc:	6e692f31 	mcrvs	15, 3, r2, cr9, cr1, {1}
    1a00:	64756c63 	ldrbtvs	r6, [r5], #-3171	; 0xfffff39d
    1a04:	73000065 	movwvc	r0, #101	; 0x65
    1a08:	636e7274 	cmnvs	lr, #116, 4	; 0x40000007
    1a0c:	632e706d 			; <UNDEFINED> instruction: 0x632e706d
    1a10:	00000100 	andeq	r0, r0, r0, lsl #2
    1a14:	2e697072 	mcrcs	0, 3, r7, cr9, cr2, {3}
    1a18:	00020068 	andeq	r0, r2, r8, rrx
    1a1c:	64747300 	ldrbtvs	r7, [r4], #-768	; 0xfffffd00
    1a20:	2e666564 	cdpcs	5, 6, cr6, cr6, cr4, {3}
    1a24:	00030068 	andeq	r0, r3, r8, rrx
    1a28:	39050000 	stmdbcc	r5, {}	; <UNPREDICTABLE>
    1a2c:	8c020500 	cfstr32hi	mvfx0, [r2], {-0}
    1a30:	15000095 	strne	r0, [r0, #-149]	; 0xffffff6b
    1a34:	13130505 	tstne	r3, #20971520	; 0x1400000
    1a38:	06010a05 	streq	r0, [r1], -r5, lsl #20
    1a3c:	09054a01 	stmdbeq	r5, {r0, r9, fp, lr}
    1a40:	0c052f06 	stceq	15, cr2, [r5], {6}
    1a44:	13050106 	movwne	r0, #20742	; 0x5106
    1a48:	2e0b052e 	cfsh32cs	mvfx0, mvfx11, #30
    1a4c:	4b060d05 	blmi	184e68 <__bss_end__+0x17ae68>
    1a50:	01061b05 	tsteq	r6, r5, lsl #22
    1a54:	300c052e 	andcc	r0, ip, lr, lsr #10
    1a58:	022f0105 	eoreq	r0, pc, #1073741825	; 0x40000001
    1a5c:	01010002 	tsteq	r1, r2

Disassembly of section .debug_str:

00000000 <.debug_str>:
   0:	5f515249 	svcpl	0x00515249
   4:	65736142 	ldrbvs	r6, [r3, #-322]!	; 0xfffffebe
   8:	72617500 	rsbvc	r7, r1, #0, 10
   c:	6e695f74 	mcrvs	15, 3, r5, cr9, cr4, {3}
  10:	61007469 	tstvs	r0, r9, ror #8
  14:	745f6d72 	ldrbvc	r6, [pc], #-3442	; 1c <__code_start__-0x7fe4>
  18:	72656d69 	rsbvc	r6, r5, #6720	; 0x1a40
  1c:	6e6f435f 	mcrvs	3, 3, r4, cr15, cr15, {2}
  20:	6c6f7274 	sfmvs	f7, 2, [pc], #-464	; fffffe58 <__bss_end__+0xffff5e58>
  24:	6d726100 	ldfvse	f6, [r2, #-0]
  28:	6d69745f 	cfstrdvs	mvd7, [r9, #-380]!	; 0xfffffe84
  2c:	425f7265 	subsmi	r7, pc, #1342177286	; 0x50000006
  30:	00657361 	rsbeq	r7, r5, r1, ror #6
  34:	61736944 	cmnvs	r3, r4, asr #18
  38:	5f656c62 	svcpl	0x00656c62
  3c:	73515249 	cmpvc	r1, #-1879048188	; 0x90000004
  40:	7300325f 	movwvc	r3, #607	; 0x25f
  44:	74726f68 	ldrbtvc	r6, [r2], #-3944	; 0xfffff098
  48:	746e6920 	strbtvc	r6, [lr], #-2336	; 0xfffff6e0
  4c:	72706700 	rsbsvc	r6, r0, #0, 14
  50:	695f666f 	ldmdbvs	pc, {r0, r1, r2, r3, r5, r6, r9, sl, sp, lr}^	; <UNPREDICTABLE>
  54:	0074696e 	rsbseq	r6, r4, lr, ror #18
  58:	6573552f 	ldrbvs	r5, [r3, #-1327]!	; 0xfffffad1
  5c:	612f7372 			; <UNDEFINED> instruction: 0x612f7372
  60:	6e696d64 	cdpvs	13, 6, cr6, cr9, cr4, {3}
  64:	2d53432f 	ldclcs	3, cr4, [r3, #-188]	; 0xffffff44
  68:	2f4e3934 	svccs	0x004e3934
  6c:	39347363 	ldmdbcc	r4!, {r0, r1, r5, r6, r8, r9, ip, sp, lr}
  70:	31322d6e 	teqcc	r2, lr, ror #26
  74:	2f747561 	svccs	0x00747561
  78:	7362616c 	cmnvc	r2, #27
  7c:	692d352f 	pushvs	{r0, r1, r2, r3, r5, r8, sl, ip, sp}
  80:	7265746e 	rsbvc	r7, r5, #1845493760	; 0x6e000000
  84:	74707572 	ldrbtvc	r7, [r0], #-1394	; 0xfffffa8e
  88:	2d322f73 	ldccs	15, cr2, [r2, #-460]!	; 0xfffffe34
  8c:	6f727067 	svcvs	0x00727067
  90:	70720066 	rsbsvc	r0, r2, r6, rrx
  94:	75705f69 	ldrbvc	r5, [r0, #-3945]!	; 0xfffff097
  98:	61686374 	smcvs	34356	; 0x8634
  9c:	5f5f0072 	svcpl	0x005f0072
  a0:	65646f63 	strbvs	r6, [r4, #-3939]!	; 0xfffff09d
  a4:	6174735f 	cmnvs	r4, pc, asr r3
  a8:	5f5f7472 	svcpl	0x005f7472
  ac:	54555000 	ldrbpl	r5, [r5], #-0
  b0:	46003233 			; <UNDEFINED> instruction: 0x46003233
  b4:	635f5149 	cmpvs	pc, #1073741842	; 0x40000012
  b8:	72746e6f 	rsbsvc	r6, r4, #1776	; 0x6f0
  bc:	61006c6f 	tstvs	r0, pc, ror #24
  c0:	745f6d72 	ldrbvc	r6, [pc], #-3442	; c8 <__code_start__-0x7f38>
  c4:	72656d69 	rsbvc	r6, r5, #6720	; 0x1a40
  c8:	616f4c5f 	cmnvs	pc, pc, asr ip	; <UNPREDICTABLE>
  cc:	69740064 	ldmdbvs	r4!, {r2, r5, r6}^
  d0:	5f72656d 	svcpl	0x0072656d
  d4:	65746e69 	ldrbvs	r6, [r4, #-3689]!	; 0xfffff197
  d8:	70757272 	rsbsvc	r7, r5, r2, ror r2
  dc:	6e695f74 	mcrvs	15, 3, r5, cr9, cr4, {3}
  e0:	49007469 	stmdbmi	r0, {r0, r3, r5, r6, sl, ip, sp, lr}
  e4:	705f5152 	subsvc	r5, pc, r2, asr r1	; <UNPREDICTABLE>
  e8:	69646e65 	stmdbvs	r4!, {r0, r2, r5, r6, r9, sl, fp, sp, lr}^
  ec:	325f676e 	subscc	r6, pc, #28835840	; 0x1b80000
  f0:	616e4500 	cmnvs	lr, r0, lsl #10
  f4:	5f656c62 	svcpl	0x00656c62
  f8:	73515249 	cmpvc	r1, #-1879048188	; 0x90000004
  fc:	6900315f 	stmdbvs	r0, {r0, r1, r2, r3, r4, r6, r8, ip, sp}
 100:	00726574 	rsbseq	r6, r2, r4, ror r5
 104:	6f727067 	svcvs	0x00727067
 108:	75645f66 	strbvc	r5, [r4, #-3942]!	; 0xfffff09a
 10c:	6c00706d 	stcvs	0, cr7, [r0], {109}	; 0x6d
 110:	20676e6f 	rsbcs	r6, r7, pc, ror #28
 114:	676e6f6c 	strbvs	r6, [lr, -ip, ror #30]!
 118:	746e6920 	strbtvc	r6, [lr], #-2336	; 0xfffff6e0
 11c:	72657000 	rsbvc	r7, r5, #0, 0
 120:	00646f69 	rsbeq	r6, r4, r9, ror #30
 124:	61656c63 	cmnvs	r5, r3, ror #24
 128:	65725f6e 	ldrbvs	r5, [r2, #-3950]!	; 0xfffff092
 12c:	746f6f62 	strbtvc	r6, [pc], #-3938	; 134 <__code_start__-0x7ecc>
 130:	746e6900 	strbtvc	r6, [lr], #-2304	; 0xfffff700
 134:	696e695f 	stmdbvs	lr!, {r0, r1, r2, r3, r4, r6, r8, fp, sp, lr}^
 138:	72610074 	rsbvc	r0, r1, #116, 0	; 0x74
 13c:	69745f6d 	ldmdbvs	r4!, {r0, r2, r3, r5, r6, r8, r9, sl, fp, ip, lr}^
 140:	5f72656d 	svcpl	0x0072656d
 144:	43515249 	cmpmi	r1, #-1879048188	; 0x90000004
 148:	7261656c 	rsbvc	r6, r1, #108, 10	; 0x1b000000
 14c:	616e4500 	cmnvs	lr, r0, lsl #10
 150:	5f656c62 	svcpl	0x00656c62
 154:	73515249 	cmpvc	r1, #-1879048188	; 0x90000004
 158:	6100325f 	tstvs	r0, pc, asr r2
 15c:	745f6d72 	ldrbvc	r6, [pc], #-3442	; 164 <__code_start__-0x7e9c>
 160:	72656d69 	rsbvc	r6, r5, #6720	; 0x1a40
 164:	6c61565f 	stclvs	6, cr5, [r1], #-380	; 0xfffffe84
 168:	75006575 	strvc	r6, [r0, #-1397]	; 0xfffffa8b
 16c:	6769736e 	strbvs	r7, [r9, -lr, ror #6]!
 170:	2064656e 	rsbcs	r6, r4, lr, ror #10
 174:	72616863 	rsbvc	r6, r1, #6488064	; 0x630000
 178:	73694400 	cmnvc	r9, #0, 8
 17c:	656c6261 	strbvs	r6, [ip, #-609]!	; 0xfffffd9f
 180:	7361425f 	cmnvc	r1, #-268435451	; 0xf0000005
 184:	495f6369 	ldmdbmi	pc, {r0, r3, r5, r6, r8, r9, sp, lr}^	; <UNPREDICTABLE>
 188:	00735152 	rsbseq	r5, r3, r2, asr r1
 18c:	676e6f6c 	strbvs	r6, [lr, -ip, ror #30]!
 190:	6e6f6c20 	cdpvs	12, 6, cr6, cr15, cr0, {1}
 194:	6e752067 	cdpvs	0, 7, cr2, cr5, cr7, {3}
 198:	6e676973 			; <UNDEFINED> instruction: 0x6e676973
 19c:	69206465 	stmdbvs	r0!, {r0, r2, r5, r6, sl, sp, lr}
 1a0:	6e00746e 	cdpvs	4, 0, cr7, cr0, cr14, {3}
 1a4:	616d746f 	cmnvs	sp, pc, ror #8
 1a8:	73006e69 	movwvc	r6, #3689	; 0xe69
 1ac:	74726f68 	ldrbtvc	r6, [r2], #-3944	; 0xfffff098
 1b0:	736e7520 	cmnvc	lr, #32, 10	; 0x8000000
 1b4:	656e6769 	strbvs	r6, [lr, #-1897]!	; 0xfffff897
 1b8:	6e692064 	cdpvs	0, 6, cr2, cr9, cr4, {3}
 1bc:	72610074 	rsbvc	r0, r1, #116, 0	; 0x74
 1c0:	69745f6d 	ldmdbvs	r4!, {r0, r2, r3, r5, r6, r8, r9, sl, fp, ip, lr}^
 1c4:	5f72656d 	svcpl	0x0072656d
 1c8:	6f6c6552 	svcvs	0x006c6552
 1cc:	47006461 	strmi	r6, [r0, -r1, ror #8]
 1d0:	32335445 	eorscc	r5, r3, #1157627904	; 0x45000000
 1d4:	6d726100 	ldfvse	f6, [r2, #-0]
 1d8:	6d69745f 	cfstrdvs	mvd7, [r9, #-380]!	; 0xfffffe84
 1dc:	465f7265 	ldrbmi	r7, [pc], -r5, ror #4
 1e0:	52656572 	rsbpl	r6, r5, #478150656	; 0x1c800000
 1e4:	696e6e75 	stmdbvs	lr!, {r0, r2, r4, r5, r6, r9, sl, fp, sp, lr}^
 1e8:	6f43676e 	svcvs	0x0043676e
 1ec:	65746e75 	ldrbvs	r6, [r4, #-3701]!	; 0xfffff18b
 1f0:	5f5f0072 	svcpl	0x005f0072
 1f4:	65646f63 	strbvs	r6, [r4, #-3939]!	; 0xfffff09d
 1f8:	646e655f 	strbtvs	r6, [lr], #-1375	; 0xfffffaa1
 1fc:	64005f5f 	strvs	r5, [r0], #-3935	; 0xfffff0a1
 200:	625f7665 	subsvs	r7, pc, #105906176	; 0x6500000
 204:	69727261 	ldmdbvs	r2!, {r0, r5, r6, r9, ip, sp, lr}^
 208:	6c007265 	sfmvs	f7, 4, [r0], {101}	; 0x65
 20c:	5f747361 	svcpl	0x00747361
 210:	006b6c63 	rsbeq	r6, fp, r3, ror #24
 214:	6f727067 	svcvs	0x00727067
 218:	00632e66 	rsbeq	r2, r3, r6, ror #28
 21c:	61736944 	cmnvs	r3, r4, asr #18
 220:	5f656c62 	svcpl	0x00656c62
 224:	73515249 	cmpvc	r1, #-1879048188	; 0x90000004
 228:	4500315f 	strmi	r3, [r0, #-351]	; 0xfffffea1
 22c:	6c62616e 	stfvse	f6, [r2], #-440	; 0xfffffe48
 230:	61425f65 	cmpvs	r2, r5, ror #30
 234:	5f636973 	svcpl	0x00636973
 238:	73515249 	cmpvc	r1, #-1879048188	; 0x90000004
 23c:	6d756400 	cfldrdvs	mvd6, [r5, #-0]
 240:	6e755270 	mrcvs	2, 3, r5, cr5, cr0, {3}
 244:	676e696e 	strbvs	r6, [lr, -lr, ror #18]!
 248:	6e696d00 	cdpvs	13, 6, cr6, cr9, cr0, {0}
 24c:	6c61765f 	stclvs	6, cr7, [r1], #-380	; 0xfffffe84
 250:	756f6300 	strbvc	r6, [pc, #-768]!	; ffffff58 <__bss_end__+0xffff5f58>
 254:	4700746e 	strmi	r7, [r0, -lr, ror #8]
 258:	4320554e 			; <UNDEFINED> instruction: 0x4320554e
 25c:	39203939 	stmdbcc	r0!, {r0, r3, r4, r5, r8, fp, ip, sp}
 260:	312e322e 			; <UNDEFINED> instruction: 0x312e322e
 264:	31303220 	teqcc	r0, r0, lsr #4
 268:	32303139 	eorscc	r3, r0, #1073741838	; 0x4000000e
 26c:	72282035 	eorvc	r2, r8, #53, 0	; 0x35
 270:	61656c65 	cmnvs	r5, r5, ror #24
 274:	20296573 	eorcs	r6, r9, r3, ror r5
 278:	4d52415b 	ldfmie	f4, [r2, #-364]	; 0xfffffe94
 27c:	6d72612f 	ldfvse	f6, [r2, #-188]!	; 0xffffff44
 280:	622d392d 	eorvs	r3, sp, #737280	; 0xb4000
 284:	636e6172 	cmnvs	lr, #-2147483620	; 0x8000001c
 288:	65722068 	ldrbvs	r2, [r2, #-104]!	; 0xffffff98
 28c:	69736976 	ldmdbvs	r3!, {r1, r2, r4, r5, r6, r8, fp, sp, lr}^
 290:	32206e6f 	eorcc	r6, r0, #1776	; 0x6f0
 294:	39353737 	ldmdbcc	r5!, {r0, r1, r2, r4, r5, r8, r9, sl, ip, sp}
 298:	2d205d39 	stccs	13, cr5, [r0, #-228]!	; 0xffffff1c
 29c:	7570636d 	ldrbvc	r6, [r0, #-877]!	; 0xfffffc93
 2a0:	6d72613d 	ldfvse	f6, [r2, #-244]!	; 0xffffff0c
 2a4:	36373131 			; <UNDEFINED> instruction: 0x36373131
 2a8:	2d667a6a 	vstmdbcs	r6!, {s15-s120}
 2ac:	6d2d2073 	stcvs	0, cr2, [sp, #-460]!	; 0xfffffe34
 2b0:	656e7574 	strbvs	r7, [lr, #-1396]!	; 0xfffffa8c
 2b4:	6d72613d 	ldfvse	f6, [r2, #-244]!	; 0xffffff0c
 2b8:	36373131 			; <UNDEFINED> instruction: 0x36373131
 2bc:	2d667a6a 	vstmdbcs	r6!, {s15-s120}
 2c0:	6d2d2073 	stcvs	0, cr2, [sp, #-460]!	; 0xfffffe34
 2c4:	616f6c66 	cmnvs	pc, r6, ror #24
 2c8:	62612d74 	rsbvs	r2, r1, #116, 26	; 0x1d00
 2cc:	6f733d69 	svcvs	0x00733d69
 2d0:	2d207466 	cfstrscs	mvf7, [r0, #-408]!	; 0xfffffe68
 2d4:	6d72616d 	ldfvse	f6, [r2, #-436]!	; 0xfffffe4c
 2d8:	616d2d20 	cmnvs	sp, r0, lsr #26
 2dc:	3d686372 	stclcc	3, cr6, [r8, #-456]!	; 0xfffffe38
 2e0:	766d7261 	strbtvc	r7, [sp], -r1, ror #4
 2e4:	207a6b36 	rsbscs	r6, sl, r6, lsr fp
 2e8:	6467672d 	strbtvs	r6, [r7], #-1837	; 0xfffff8d3
 2ec:	4f2d2062 	svcmi	0x002d2062
 2f0:	732d2033 			; <UNDEFINED> instruction: 0x732d2033
 2f4:	673d6474 			; <UNDEFINED> instruction: 0x673d6474
 2f8:	3939756e 	ldmdbcc	r9!, {r1, r2, r3, r5, r6, r8, sl, ip, sp, lr}
 2fc:	66662d20 	strbtvs	r2, [r6], -r0, lsr #26
 300:	73656572 	cmnvc	r5, #478150656	; 0x1c800000
 304:	646e6174 	strbtvs	r6, [lr], #-372	; 0xfffffe8c
 308:	00676e69 	rsbeq	r6, r7, r9, ror #28
 30c:	6c616d6b 	stclvs	13, cr6, [r1], #-428	; 0xfffffe54
 310:	00636f6c 	rsbeq	r6, r3, ip, ror #30
 314:	5f6d7261 	svcpl	0x006d7261
 318:	656d6974 	strbvs	r6, [sp, #-2420]!	; 0xfffff68c
 31c:	41525f72 	cmpmi	r2, r2, ror pc
 320:	51524957 	cmppl	r2, r7, asr r9
 324:	6d726100 	ldfvse	f6, [r2, #-0]
 328:	6d69745f 	cfstrdvs	mvd7, [r9, #-380]!	; 0xfffffe84
 32c:	505f7265 	subspl	r7, pc, r5, ror #4
 330:	69446572 	stmdbvs	r4, {r1, r4, r5, r6, r8, sl, sp, lr}^
 334:	65646976 	strbvs	r6, [r4, #-2422]!	; 0xfffff68a
 338:	70670072 	rsbvc	r0, r7, r2, ror r0
 33c:	5f666f72 	svcpl	0x00666f72
 340:	00636e69 	rsbeq	r6, r3, r9, ror #28
 344:	6c616d6b 	stclvs	13, cr6, [r1], #-428	; 0xfffffe54
 348:	5f636f6c 	svcpl	0x00636f6c
 34c:	74696e69 	strbtvc	r6, [r9], #-3689	; 0xfffff197
 350:	51524900 	cmppl	r2, r0, lsl #18
 354:	6e65705f 	mcrvs	0, 3, r7, cr5, cr15, {2}
 358:	676e6964 	strbvs	r6, [lr, -r4, ror #18]!
 35c:	4900315f 	stmdbmi	r0, {r0, r1, r2, r3, r4, r6, r8, ip, sp}
 360:	625f5152 	subsvs	r5, pc, #-2147483628	; 0x80000014
 364:	63697361 	cmnvs	r9, #-2080374783	; 0x84000001
 368:	6e65705f 	mcrvs	0, 3, r7, cr5, cr15, {2}
 36c:	676e6964 	strbvs	r6, [lr, -r4, ror #18]!
 370:	6d697400 	cfstrdvs	mvd7, [r9, #-0]
 374:	675f7265 	ldrbvs	r7, [pc, -r5, ror #4]
 378:	755f7465 	ldrbvc	r7, [pc, #-1125]	; ffffff1b <__bss_end__+0xffff5f1b>
 37c:	00636573 	rsbeq	r6, r3, r3, ror r5
 380:	5f6d7261 	svcpl	0x006d7261
 384:	656d6974 	strbvs	r6, [sp, #-2420]!	; 0xfffff68c
 388:	614d5f72 	hvcvs	54770	; 0xd5f2
 38c:	64656b73 	strbtvs	r6, [r5], #-2931	; 0xfffff48d
 390:	00515249 	subseq	r5, r1, r9, asr #4
 394:	74737973 	ldrbtvc	r7, [r3], #-2419	; 0xfffff68d
 398:	655f6d65 	ldrbvs	r6, [pc, #-3429]	; fffff63b <__bss_end__+0xffff563b>
 39c:	6c62616e 	stfvse	f6, [r2], #-440	; 0xfffffe48
 3a0:	6e695f65 	cdpvs	15, 6, cr5, cr9, cr5, {3}
 3a4:	72726574 	rsbsvc	r6, r2, #116, 10	; 0x1d000000
 3a8:	73747075 	cmnvc	r4, #117, 0	; 0x75
 3ac:	646e7500 	strbtvs	r7, [lr], #-1280	; 0xfffffb00
 3b0:	6e696665 	cdpvs	6, 6, cr6, cr9, cr5, {3}
 3b4:	695f6465 	ldmdbvs	pc, {r0, r2, r5, r6, sl, sp, lr}^	; <UNPREDICTABLE>
 3b8:	7274736e 	rsbsvc	r7, r4, #-1207959551	; 0xb8000001
 3bc:	69746375 	ldmdbvs	r4!, {r0, r2, r4, r5, r6, r8, r9, sp, lr}^
 3c0:	765f6e6f 	ldrbvc	r6, [pc], -pc, ror #28
 3c4:	6f746365 	svcvs	0x00746365
 3c8:	695f0072 	ldmdbvs	pc, {r1, r4, r5, r6}^	; <UNPREDICTABLE>
 3cc:	7265746e 	rsbvc	r7, r5, #1845493760	; 0x6e000000
 3d0:	74707572 	ldrbtvc	r7, [r0], #-1394	; 0xfffffa8e
 3d4:	6261745f 	rsbvs	r7, r1, #1593835520	; 0x5f000000
 3d8:	5f00656c 	svcpl	0x0000656c
 3dc:	65746e69 	ldrbvs	r6, [r4, #-3689]!	; 0xfffff197
 3e0:	70757272 	rsbsvc	r7, r5, r2, ror r2
 3e4:	61745f74 	cmnvs	r4, r4, ror pc
 3e8:	5f656c62 	svcpl	0x00656c62
 3ec:	00646e65 	rsbeq	r6, r4, r5, ror #28
 3f0:	55465f5f 	strbpl	r5, [r6, #-3935]	; 0xfffff0a1
 3f4:	4954434e 	ldmdbmi	r4, {r1, r2, r3, r6, r8, r9, lr}^
 3f8:	5f5f4e4f 	svcpl	0x005f4e4f
 3fc:	74616400 	strbtvc	r6, [r1], #-1024	; 0xfffffc00
 400:	62615f61 	rsbvs	r5, r1, #388	; 0x184
 404:	5f74726f 	svcpl	0x0074726f
 408:	74636576 	strbtvc	r6, [r3], #-1398	; 0xfffffa8a
 40c:	7000726f 	andvc	r7, r0, pc, ror #4
 410:	65666572 	strbvs	r6, [r6, #-1394]!	; 0xfffffa8e
 414:	5f686374 	svcpl	0x00686374
 418:	726f6261 	rsbvc	r6, pc, #268435462	; 0x10000006
 41c:	65765f74 	ldrbvs	r5, [r6, #-3956]!	; 0xfffff08c
 420:	726f7463 	rsbvc	r7, pc, #1660944384	; 0x63000000
 424:	746e6900 	strbtvc	r6, [lr], #-2304	; 0xfffff700
 428:	75727265 	ldrbvc	r7, [r2, #-613]!	; 0xfffffd9b
 42c:	2d737470 	cfldrdcs	mvd7, [r3, #-448]!	; 0xfffffe40
 430:	00632e63 	rsbeq	r2, r3, r3, ror #28
 434:	65736572 	ldrbvs	r6, [r3, #-1394]!	; 0xfffffa8e
 438:	65765f74 	ldrbvs	r5, [r6, #-3956]!	; 0xfffff08c
 43c:	726f7463 	rsbvc	r7, pc, #1660944384	; 0x63000000
 440:	666f7300 	strbtvs	r7, [pc], -r0, lsl #6
 444:	72617774 	rsbvc	r7, r1, #116, 14	; 0x1d00000
 448:	6e695f65 	cdpvs	15, 6, cr5, cr9, cr5, {3}
 44c:	72726574 	rsbsvc	r6, r2, #116, 10	; 0x1d000000
 450:	5f747075 	svcpl	0x00747075
 454:	74636576 	strbtvc	r6, [r3], #-1398	; 0xfffffa8a
 458:	6600726f 	strvs	r7, [r0], -pc, ror #4
 45c:	5f747361 	svcpl	0x00747361
 460:	65746e69 	ldrbvs	r6, [r4, #-3689]!	; 0xfffff197
 464:	70757272 	rsbsvc	r7, r5, r2, ror r2
 468:	65765f74 	ldrbvs	r5, [r6, #-3956]!	; 0xfffff08c
 46c:	726f7463 	rsbvc	r7, pc, #1660944384	; 0x63000000
 470:	74657300 	strbtvc	r7, [r5], #-768	; 0xfffffd00
 474:	6c6c615f 	stfvse	f6, [ip], #-380	; 0xfffffe84
 478:	756f6300 	strbvc	r6, [pc, #-768]!	; 180 <__code_start__-0x7e80>
 47c:	7265746e 	rsbvc	r7, r5, #1845493760	; 0x6e000000
 480:	6572705f 	ldrbvs	r7, [r2, #-95]!	; 0xffffffa1
 484:	6c616373 	stclvs	3, cr6, [r1], #-460	; 0xfffffe34
 488:	63007265 	movwvs	r7, #613	; 0x265
 48c:	746e756f 	strbtvc	r7, [lr], #-1391	; 0xfffffa91
 490:	655f7265 	ldrbvs	r7, [pc, #-613]	; 233 <__code_start__-0x7dcd>
 494:	6c62616e 	stfvse	f6, [r2], #-440	; 0xfffffe48
 498:	73006465 	movwvc	r6, #1125	; 0x465
 49c:	74666968 	strbtvc	r6, [r6], #-2408	; 0xfffff698
 4a0:	65737500 	ldrbvs	r7, [r3, #-1280]!	; 0xfffffb00
 4a4:	6232335f 	eorsvs	r3, r2, #2080374785	; 0x7c000001
 4a8:	635f7469 	cmpvs	pc, #1761607680	; 0x69000000
 4ac:	746e756f 	strbtvc	r7, [lr], #-1391	; 0xfffffa91
 4b0:	6e007265 	cdpvs	2, 0, cr7, cr0, cr5, {3}
 4b4:	6c637963 			; <UNDEFINED> instruction: 0x6c637963
 4b8:	74007365 	strvc	r7, [r0], #-869	; 0xfffffc9b
 4bc:	72656d69 	rsbvc	r6, r5, #6720	; 0x1a40
 4c0:	746e692d 	strbtvc	r6, [lr], #-2349	; 0xfffff6d3
 4c4:	75727265 	ldrbvc	r7, [r2, #-613]!	; 0xfffffd9b
 4c8:	632e7470 			; <UNDEFINED> instruction: 0x632e7470
 4cc:	6e697500 	cdpvs	5, 6, cr7, cr9, cr0, {0}
 4d0:	5f323374 	svcpl	0x00323374
 4d4:	70720074 	rsbsvc	r0, r2, r4, ror r0
 4d8:	72615f69 	rsbvc	r5, r1, #420	; 0x1a4
 4dc:	69745f6d 	ldmdbvs	r4!, {r0, r2, r3, r5, r6, r8, r9, sl, fp, ip, lr}^
 4e0:	5f72656d 	svcpl	0x0072656d
 4e4:	6c727463 	cfldrdvs	mvd7, [r2], #-396	; 0xfffffe74
 4e8:	7400745f 	strvc	r7, [r0], #-1119	; 0xfffffba1
 4ec:	72656d69 	rsbvc	r6, r5, #6720	; 0x1a40
 4f0:	616e655f 	cmnvs	lr, pc, asr r5
 4f4:	64656c62 	strbtvs	r6, [r5], #-3170	; 0xfffff39e
 4f8:	6d697400 	cfstrdvs	mvd7, [r9, #-0]
 4fc:	635f7265 	cmpvs	pc, #1342177286	; 0x50000006
 500:	6b636568 	blvs	18d9aa8 <__bss_end__+0x18cfaa8>
 504:	66666f5f 	uqsaxvs	r6, r6, pc	; <UNPREDICTABLE>
 508:	73746573 	cmnvc	r4, #482344960	; 0x1cc00000
 50c:	746e6900 	strbtvc	r6, [lr], #-2304	; 0xfffff700
 510:	616e655f 	cmnvs	lr, pc, asr r5
 514:	64656c62 	strbtvs	r6, [r5], #-3170	; 0xfffff39e
 518:	5f736900 	svcpl	0x00736900
 51c:	67696c61 	strbvs	r6, [r9, -r1, ror #24]!
 520:	0064656e 	rsbeq	r6, r4, lr, ror #10
 524:	6c616d6b 	stclvs	13, cr6, [r1], #-428	; 0xfffffe54
 528:	5f636f6c 	svcpl	0x00636f6c
 52c:	74696e69 	strbtvc	r6, [r9], #-3689	; 0xfffff197
 530:	7465735f 	strbtvc	r7, [r5], #-863	; 0xfffffca1
 534:	6174735f 	cmnvs	r4, pc, asr r3
 538:	2e007472 	mcrcs	4, 0, r7, cr0, cr2, {3}
 53c:	6372732f 	cmnvs	r2, #-1140850688	; 0xbc000000
 540:	616d6b2f 	cmnvs	sp, pc, lsr #22
 544:	636f6c6c 	cmnvs	pc, #108, 24	; 0x6c00
 548:	6b00632e 	blvs	19208 <__bss_end__+0xf208>
 54c:	65657266 	strbvs	r7, [r5, #-614]!	; 0xfffffd9a
 550:	6c6c615f 	stfvse	f6, [ip], #-380	; 0xfffffe84
 554:	5f736900 	svcpl	0x00736900
 558:	32776f70 	rsbscc	r6, r7, #112, 30	; 0x1c0
 55c:	696c6100 	stmdbvs	ip!, {r8, sp, lr}^
 560:	656d6e67 	strbvs	r6, [sp, #-3687]!	; 0xfffff199
 564:	7200746e 	andvc	r7, r0, #1845493760	; 0x6e000000
 568:	725f6970 	subsvc	r6, pc, #112, 18	; 0x1c0000
 56c:	74657365 	strbtvc	r7, [r5], #-869	; 0xfffffc9b
 570:	7475705f 	ldrbtvc	r7, [r5], #-95	; 0xffffffa1
 574:	6f720063 	svcvs	0x00720063
 578:	75646e75 	strbvc	r6, [r4, #-3701]!	; 0xfffff18b
 57c:	6f640070 	svcvs	0x00640070
 580:	656c6275 	strbvs	r6, [ip, #-629]!	; 0xfffffd8b
 584:	61656800 	cmnvs	r5, r0, lsl #16
 588:	6e690070 	mcrvs	0, 3, r0, cr9, cr0, {3}
 58c:	705f7469 	subsvc	r7, pc, r9, ror #8
 590:	616d6b00 	cmnvs	sp, r0, lsl #22
 594:	636f6c6c 	cmnvs	pc, #108, 24	; 0x6c00
 598:	696c615f 	stmdbvs	ip!, {r0, r1, r2, r3, r4, r6, r8, sp, lr}^
 59c:	64656e67 	strbtvs	r6, [r5], #-3687	; 0xfffff199
 5a0:	73552f00 	cmpvc	r5, #0, 30
 5a4:	2f737265 	svccs	0x00737265
 5a8:	696d6461 	stmdbvs	sp!, {r0, r5, r6, sl, sp, lr}^
 5ac:	53432f6e 	movtpl	r2, #16238	; 0x3f6e
 5b0:	4e39342d 	cdpmi	4, 3, cr3, cr9, cr13, {1}
 5b4:	3473632f 	ldrbtcc	r6, [r3], #-815	; 0xfffffcd1
 5b8:	322d6e39 	eorcc	r6, sp, #912	; 0x390
 5bc:	74756131 	ldrbtvc	r6, [r5], #-305	; 0xfffffecf
 5c0:	62696c2f 	rsbvs	r6, r9, #12032	; 0x2f00
 5c4:	6b006970 	blvs	1ab8c <__bss_end__+0x10b8c>
 5c8:	6c6c616d 	stfvse	f6, [ip], #-436	; 0xfffffe4c
 5cc:	685f636f 	ldmdavs	pc, {r0, r1, r2, r3, r5, r6, r8, r9, sp, lr}^	; <UNPREDICTABLE>
 5d0:	5f706165 	svcpl	0x00706165
 5d4:	00727470 	rsbseq	r7, r2, r0, ror r4
 5d8:	65685f5f 	strbvs	r5, [r8, #-3935]!	; 0xfffff0a1
 5dc:	735f7061 	cmpvc	pc, #97, 0	; 0x61
 5e0:	74726174 	ldrbtvc	r6, [r2], #-372	; 0xfffffe8c
 5e4:	47005f5f 	smlsdmi	r0, pc, pc, r5	; <UNPREDICTABLE>
 5e8:	4320554e 			; <UNDEFINED> instruction: 0x4320554e
 5ec:	39203939 	stmdbcc	r0!, {r0, r3, r4, r5, r8, fp, ip, sp}
 5f0:	312e322e 			; <UNDEFINED> instruction: 0x312e322e
 5f4:	31303220 	teqcc	r0, r0, lsr #4
 5f8:	32303139 	eorscc	r3, r0, #1073741838	; 0x4000000e
 5fc:	72282035 	eorvc	r2, r8, #53, 0	; 0x35
 600:	61656c65 	cmnvs	r5, r5, ror #24
 604:	20296573 	eorcs	r6, r9, r3, ror r5
 608:	4d52415b 	ldfmie	f4, [r2, #-364]	; 0xfffffe94
 60c:	6d72612f 	ldfvse	f6, [r2, #-188]!	; 0xffffff44
 610:	622d392d 	eorvs	r3, sp, #737280	; 0xb4000
 614:	636e6172 	cmnvs	lr, #-2147483620	; 0x8000001c
 618:	65722068 	ldrbvs	r2, [r2, #-104]!	; 0xffffff98
 61c:	69736976 	ldmdbvs	r3!, {r1, r2, r4, r5, r6, r8, fp, sp, lr}^
 620:	32206e6f 	eorcc	r6, r0, #1776	; 0x6f0
 624:	39353737 	ldmdbcc	r5!, {r0, r1, r2, r4, r5, r8, r9, sl, ip, sp}
 628:	2d205d39 	stccs	13, cr5, [r0, #-228]!	; 0xffffff1c
 62c:	7570636d 	ldrbvc	r6, [r0, #-877]!	; 0xfffffc93
 630:	6d72613d 	ldfvse	f6, [r2, #-244]!	; 0xffffff0c
 634:	36373131 			; <UNDEFINED> instruction: 0x36373131
 638:	2d667a6a 	vstmdbcs	r6!, {s15-s120}
 63c:	6d2d2073 	stcvs	0, cr2, [sp, #-460]!	; 0xfffffe34
 640:	656e7574 	strbvs	r7, [lr, #-1396]!	; 0xfffffa8c
 644:	6d72613d 	ldfvse	f6, [r2, #-244]!	; 0xffffff0c
 648:	36373131 			; <UNDEFINED> instruction: 0x36373131
 64c:	2d667a6a 	vstmdbcs	r6!, {s15-s120}
 650:	6d2d2073 	stcvs	0, cr2, [sp, #-460]!	; 0xfffffe34
 654:	616f6c66 	cmnvs	pc, r6, ror #24
 658:	62612d74 	rsbvs	r2, r1, #116, 26	; 0x1d00
 65c:	6f733d69 	svcvs	0x00733d69
 660:	2d207466 	cfstrscs	mvf7, [r0, #-408]!	; 0xfffffe68
 664:	6d72616d 	ldfvse	f6, [r2, #-436]!	; 0xfffffe4c
 668:	616d2d20 	cmnvs	sp, r0, lsr #26
 66c:	3d686372 	stclcc	3, cr6, [r8, #-456]!	; 0xfffffe38
 670:	766d7261 	strbtvc	r7, [sp], -r1, ror #4
 674:	207a6b36 	rsbscs	r6, sl, r6, lsr fp
 678:	6467672d 	strbtvs	r6, [r7], #-1837	; 0xfffff8d3
 67c:	4f2d2062 	svcmi	0x002d2062
 680:	732d2067 			; <UNDEFINED> instruction: 0x732d2067
 684:	673d6474 			; <UNDEFINED> instruction: 0x673d6474
 688:	3939756e 	ldmdbcc	r9!, {r1, r2, r3, r5, r6, r8, sl, ip, sp, lr}
 68c:	66662d20 	strbtvs	r2, [r6], -r0, lsr #26
 690:	73656572 	cmnvc	r5, #478150656	; 0x1c800000
 694:	646e6174 	strbtvs	r6, [lr], #-372	; 0xfffffe8c
 698:	00676e69 	rsbeq	r6, r7, r9, ror #28
 69c:	7479626e 	ldrbtvc	r6, [r9], #-622	; 0xfffffd92
 6a0:	5f007365 	svcpl	0x00007365
 6a4:	72646461 	rsbvc	r6, r4, #1627389952	; 0x61000000
 6a8:	67726100 	ldrbvs	r6, [r2, -r0, lsl #2]!
 6ac:	61760073 	cmnvs	r6, r3, ror r0
 6b0:	6972705f 	ldmdbvs	r2!, {r0, r1, r2, r3, r4, r6, ip, sp, lr}^
 6b4:	006b746e 	rsbeq	r7, fp, lr, ror #8
 6b8:	6e675f5f 	mcrvs	15, 3, r5, cr7, cr15, {2}
 6bc:	765f6375 			; <UNDEFINED> instruction: 0x765f6375
 6c0:	696c5f61 	stmdbvs	ip!, {r0, r5, r6, r8, r9, sl, fp, ip, lr}^
 6c4:	5f007473 	svcpl	0x00007473
 6c8:	0070615f 	rsbseq	r6, r0, pc, asr r1
 6cc:	696c2f2e 	stmdbvs	ip!, {r1, r2, r3, r5, r8, r9, sl, fp, sp}^
 6d0:	702f6362 	eorvc	r6, pc, r2, ror #6
 6d4:	746e6972 	strbtvc	r6, [lr], #-2418	; 0xfffff68e
 6d8:	00632e6b 	rsbeq	r2, r3, fp, ror #28
 6dc:	61765f5f 	cmnvs	r6, pc, asr pc
 6e0:	73696c5f 	cmnvc	r9, #24320	; 0x5f00
 6e4:	6e690074 	mcrvs	0, 3, r0, cr9, cr4, {3}
 6e8:	6e726574 	mrcvs	5, 3, r6, cr2, cr4, {3}
 6ec:	705f6c61 	subsvc	r6, pc, r1, ror #24
 6f0:	68637475 	stmdavs	r3!, {r0, r2, r4, r5, r6, sl, ip, sp, lr}^
 6f4:	72007261 	andvc	r7, r0, #268435462	; 0x10000006
 6f8:	735f6970 	cmpvc	pc, #112, 18	; 0x1c0000
 6fc:	705f7465 	subsvc	r7, pc, r5, ror #8
 700:	00637475 	rsbeq	r7, r3, r5, ror r4
 704:	696c2f2e 	stmdbvs	ip!, {r1, r2, r3, r5, r8, r9, sl, fp, sp}^
 708:	702f6362 	eorvc	r6, pc, r2, ror #6
 70c:	68637475 	stmdavs	r3!, {r0, r2, r4, r5, r6, sl, ip, sp, lr}^
 710:	632e7261 			; <UNDEFINED> instruction: 0x632e7261
 714:	72617500 	rsbvc	r7, r1, #0, 10
 718:	75705f74 	ldrbvc	r5, [r0, #-3956]!	; 0xfffff08c
 71c:	69006374 	stmdbvs	r0, {r2, r4, r5, r6, r8, r9, sp, lr}
 720:	7265746e 	rsbvc	r7, r5, #1845493760	; 0x6e000000
 724:	5f6c616e 	svcpl	0x006c616e
 728:	6b747570 	blvs	1d1dcf0 <__bss_end__+0x1d13cf0>
 72c:	6c2f2e00 	stcvs	14, cr2, [pc], #-0	; 734 <__code_start__-0x78cc>
 730:	2f636269 	svccs	0x00636269
 734:	6b747570 	blvs	1d1dcfc <__bss_end__+0x1d13cfc>
 738:	6900632e 	stmdbvs	r0, {r1, r2, r3, r5, r8, r9, sp, lr}
 73c:	67696473 			; <UNDEFINED> instruction: 0x67696473
 740:	75007469 	strvc	r7, [r0, #-1129]	; 0xfffffb97
 744:	36746e69 	ldrbtcc	r6, [r4], -r9, ror #28
 748:	00745f34 	rsbseq	r5, r4, r4, lsr pc
 74c:	696c2f2e 	stmdbvs	ip!, {r1, r2, r3, r5, r8, r9, sl, fp, sp}^
 750:	762f6362 	strtvc	r6, [pc], -r2, ror #6
 754:	72702d61 	rsbsvc	r2, r0, #6208	; 0x1840
 758:	6b746e69 	blvs	1d1c104 <__bss_end__+0x1d12104>
 75c:	5f00632e 	svcpl	0x0000632e
 760:	7373625f 	cmnvc	r3, #-268435451	; 0xf0000005
 764:	6174735f 	cmnvs	r4, pc, asr r3
 768:	5f5f7472 	svcpl	0x005f7472
 76c:	64697700 	strbtvs	r7, [r9], #-1792	; 0xfffff900
 770:	5f006874 	svcpl	0x00006874
 774:	7461645f 	strbtvc	r6, [r1], #-1119	; 0xfffffba1
 778:	6e655f61 	cdpvs	15, 6, cr5, cr5, cr1, {3}
 77c:	005f5f64 	subseq	r5, pc, r4, ror #30
 780:	63747570 	cmnvs	r4, #112, 10	; 0x1c000000
 784:	0070665f 	rsbseq	r6, r0, pc, asr r6
 788:	73625f5f 	cmnvc	r2, #380	; 0x17c
 78c:	6e655f73 	mcrvs	15, 3, r5, cr5, cr3, {3}
 790:	005f5f64 	subseq	r5, pc, r4, ror #30
 794:	5f697072 	svcpl	0x00697072
 798:	5f746573 	svcpl	0x00746573
 79c:	7074756f 	rsbsvc	r7, r4, pc, ror #10
 7a0:	66007475 			; <UNDEFINED> instruction: 0x66007475
 7a4:	735f746d 	cmpvc	pc, #1828716544	; 0x6d000000
 7a8:	74726174 	ldrbtvc	r6, [r2], #-372	; 0xfffffe8c
 7ac:	72747300 	rsbsvc	r7, r4, #0, 6
 7b0:	00746163 	rsbseq	r6, r4, r3, ror #2
 7b4:	63727473 	cmnvs	r2, #1929379840	; 0x73000000
 7b8:	6e007970 			; <UNDEFINED> instruction: 0x6e007970
 7bc:	705f6765 	subsvc	r6, pc, r5, ror #14
 7c0:	696d6500 	stmdbvs	sp!, {r8, sl, sp, lr}^
 7c4:	75700074 	ldrbvc	r0, [r0, #-116]!	; 0xffffff8c
 7c8:	665f7374 			; <UNDEFINED> instruction: 0x665f7374
 7cc:	65720070 	ldrbvs	r0, [r2, #-112]!	; 0xffffff90
 7d0:	73726576 	cmnvc	r2, #494927872	; 0x1d800000
 7d4:	74730065 	ldrbtvc	r0, [r3], #-101	; 0xffffff9b
 7d8:	706d6372 	rsbvc	r6, sp, r2, ror r3
 7dc:	645f5f00 	ldrbvs	r5, [pc], #-3840	; 7e4 <__code_start__-0x781c>
 7e0:	5f617461 	svcpl	0x00617461
 7e4:	72617473 	rsbvc	r7, r1, #1929379840	; 0x73000000
 7e8:	005f5f74 	subseq	r5, pc, r4, ror pc	; <UNPREDICTABLE>
 7ec:	72705f5f 	rsbsvc	r5, r0, #380	; 0x17c
 7f0:	655f676f 	ldrbvs	r6, [pc, #-1903]	; 89 <__code_start__-0x7f77>
 7f4:	5f5f646e 	svcpl	0x005f646e
 7f8:	6d756e00 	ldclvs	14, cr6, [r5, #-0]
 7fc:	74730031 	ldrbtvc	r0, [r3], #-49	; 0xffffffcf
 800:	6d636e72 	stclvs	14, cr6, [r3, #-456]!	; 0xfffffe38
 804:	61620070 	smcvs	8192	; 0x2000
 808:	73006573 	movwvc	r6, #1395	; 0x573
 80c:	656e6769 	strbvs	r6, [lr, #-1897]!	; 0xfffff897
 810:	00705f64 	rsbseq	r5, r0, r4, ror #30
 814:	5f697072 	svcpl	0x00697072
 818:	6f626572 	svcvs	0x00626572
 81c:	6400746f 	strvs	r7, [r0], #-1135	; 0xfffffb91
 820:	79616c65 	stmdbvc	r1!, {r0, r2, r5, r6, sl, fp, sp, lr}^
 824:	00736d5f 	rsbseq	r6, r3, pc, asr sp
 828:	74732f2e 	ldrbtvc	r2, [r3], #-3886	; 0xfffff0d2
 82c:	2d666661 	stclcs	6, cr6, [r6, #-388]!	; 0xfffffe7c
 830:	2f637273 	svccs	0x00637273
 834:	61656c63 	cmnvs	r5, r3, ror #24
 838:	65722d6e 	ldrbvs	r2, [r2, #-3438]!	; 0xfffff292
 83c:	746f6f62 	strbtvc	r6, [pc], #-3938	; 844 <__code_start__-0x77bc>
 840:	7500632e 	strvc	r6, [r0, #-814]	; 0xfffffcd2
 844:	5f747261 	svcpl	0x00747261
 848:	73756c66 	cmnvc	r5, #26112	; 0x6600
 84c:	78745f68 	ldmdavc	r4!, {r3, r5, r6, r8, r9, sl, fp, ip, lr}^
 850:	73635f00 	cmnvc	r3, #0, 30
 854:	74726174 	ldrbtvc	r6, [r2], #-372	; 0xfffffe8c
 858:	73736200 	cmnvc	r3, #0, 4
 85c:	646e655f 	strbtvs	r6, [lr], #-1375	; 0xfffffaa1
 860:	732f2e00 			; <UNDEFINED> instruction: 0x732f2e00
 864:	66666174 			; <UNDEFINED> instruction: 0x66666174
 868:	6372732d 	cmnvs	r2, #-1275068416	; 0xb4000000
 86c:	7473632f 	ldrbtvc	r6, [r3], #-815	; 0xfffffcd1
 870:	2e747261 	cdpcs	2, 7, cr7, cr4, cr1, {3}
 874:	4d500063 	ldclmi	0, cr0, [r0, #-396]	; 0xfffffe74
 878:	4f44575f 	svcmi	0x0044575f
 87c:	65730047 	ldrbvs	r0, [r3, #-71]!	; 0xffffffb9
 880:	73755f74 	cmnvc	r5, #116, 30	; 0x1d0
 884:	6c5f7265 	lfmvs	f7, 2, [pc], {101}	; 0x65
 888:	6c657665 	stclvs	6, cr7, [r5], #-404	; 0xfffffe6c
 88c:	732f2e00 			; <UNDEFINED> instruction: 0x732f2e00
 890:	66666174 			; <UNDEFINED> instruction: 0x66666174
 894:	6372732d 	cmnvs	r2, #-1275068416	; 0xb4000000
 898:	6265722f 	rsbvs	r7, r5, #-268435454	; 0xf0000002
 89c:	2e746f6f 	cdpcs	15, 7, cr6, cr4, cr15, {3}
 8a0:	4d500063 	ldclmi	0, cr0, [r0, #-396]	; 0xfffffe74
 8a4:	5341505f 	movtpl	r5, #4191	; 0x105f
 8a8:	524f5753 	subpl	r5, pc, #21757952	; 0x14c0000
 8ac:	74610044 	strbtvc	r0, [r1], #-68	; 0xffffffbc
 8b0:	6573755f 	ldrbvs	r7, [r3, #-1375]!	; 0xfffffaa1
 8b4:	656c5f72 	strbvs	r5, [ip, #-3954]!	; 0xfffff08e
 8b8:	006c6576 	rsbeq	r6, ip, r6, ror r5
 8bc:	525f4d50 	subspl	r4, pc, #80, 26	; 0x1400
 8c0:	5f435453 	svcpl	0x00435453
 8c4:	46435257 			; <UNDEFINED> instruction: 0x46435257
 8c8:	55465f47 	strbpl	r5, [r6, #-3911]	; 0xfffff0b9
 8cc:	525f4c4c 	subspl	r4, pc, #76, 24	; 0x4c00
 8d0:	54455345 	strbpl	r5, [r5], #-837	; 0xfffffcbb
 8d4:	5f4d5000 	svcpl	0x004d5000
 8d8:	43545352 	cmpmi	r4, #1207959553	; 0x48000001
 8dc:	73706300 	cmnvc	r0, #0, 6
 8e0:	65640072 	strbvs	r0, [r4, #-114]!	; 0xffffff8e
 8e4:	5f79616c 	svcpl	0x0079616c
 8e8:	00636573 	rsbeq	r6, r3, r3, ror r5
 8ec:	74732f2e 	ldrbtvc	r2, [r3], #-3886	; 0xfffff0d2
 8f0:	2d666661 	stclcs	6, cr6, [r6, #-388]!	; 0xfffffe7c
 8f4:	2f637273 	svccs	0x00637273
 8f8:	656d6974 	strbvs	r6, [sp, #-2420]!	; 0xfffff68c
 8fc:	00632e72 	rsbeq	r2, r3, r2, ror lr
 900:	616c6564 	cmnvs	ip, r4, ror #10
 904:	73755f79 	cmnvc	r5, #484	; 0x1e4
 908:	6d697400 	cfstrdvs	mvd7, [r9, #-0]
 90c:	675f7265 	ldrbvs	r7, [pc, -r5, ror #4]
 910:	755f7465 	ldrbvc	r7, [pc, #-1125]	; 4b3 <__code_start__-0x7b4d>
 914:	5f636573 	svcpl	0x00636573
 918:	00776172 	rsbseq	r6, r7, r2, ror r1
 91c:	74617473 	strbtvc	r7, [r1], #-1139	; 0xfffffb8d
 920:	72617500 	rsbvc	r7, r1, #0, 10
 924:	61635f74 	smcvs	13812	; 0x35f4
 928:	65675f6e 	strbvs	r5, [r7, #-3950]!	; 0xfffff092
 92c:	47006374 	smlsdxmi	r0, r4, r3, r6
 930:	5f4f4950 	svcpl	0x004f4950
 934:	434e5546 	movtmi	r5, #58694	; 0xe546
 938:	54554f5f 	ldrbpl	r4, [r5], #-3935	; 0xfffff0a1
 93c:	00545550 	subseq	r5, r4, r0, asr r5
 940:	5f787561 	svcpl	0x00787561
 944:	69726570 	ldmdbvs	r2!, {r4, r5, r6, r8, sl, sp, lr}^
 948:	00736870 	rsbseq	r6, r3, r0, ror r8
 94c:	74726175 	ldrbtvc	r6, [r2], #-373	; 0xfffffe8b
 950:	7500632e 	strvc	r6, [r0, #-814]	; 0xfffffcd2
 954:	5f747261 	svcpl	0x00747261
 958:	5f6e6163 	svcpl	0x006e6163
 95c:	63747570 	cmnvs	r4, #112, 10	; 0x1c000000
 960:	6f682f00 	svcvs	0x00682f00
 964:	652f656d 	strvs	r6, [pc, #-1389]!	; 3ff <__code_start__-0x7c01>
 968:	656c676e 	strbvs	r6, [ip, #-1902]!	; 0xfffff892
 96c:	6c632f72 	stclvs	15, cr2, [r3], #-456	; 0xfffffe38
 970:	2f737361 	svccs	0x00737361
 974:	34317363 	ldrtcc	r7, [r1], #-867	; 0xfffffc9d
 978:	322d6530 	eorcc	r6, sp, #48, 10	; 0xc000000
 97c:	72707331 	rsbsvc	r7, r0, #-1006632960	; 0xc4000000
 980:	62696c2f 	rsbvs	r6, r9, #12032	; 0x2f00
 984:	732f6970 			; <UNDEFINED> instruction: 0x732f6970
 988:	66666174 			; <UNDEFINED> instruction: 0x66666174
 98c:	6972702d 	ldmdbvs	r2!, {r0, r2, r3, r5, ip, sp, lr}^
 990:	65746176 	ldrbvs	r6, [r4, #-374]!	; 0xfffffe8a
 994:	49504700 	ldmdbmi	r0, {r8, r9, sl, lr}^
 998:	55465f4f 	strbpl	r5, [r6, #-3919]	; 0xfffff0b1
 99c:	415f434e 	cmpmi	pc, lr, asr #6
 9a0:	0030544c 	eorseq	r5, r0, ip, asr #8
 9a4:	4f495047 	svcmi	0x00495047
 9a8:	4e55465f 	mrcmi	6, 2, r4, cr5, cr15, {2}
 9ac:	4c415f43 	mcrrmi	15, 4, r5, r1, cr3
 9b0:	47003154 	smlsdmi	r0, r4, r1, r3
 9b4:	5f4f4950 	svcpl	0x004f4950
 9b8:	434e5546 	movtmi	r5, #58694	; 0xe546
 9bc:	544c415f 	strbpl	r4, [ip], #-351	; 0xfffffea1
 9c0:	50470032 	subpl	r0, r7, r2, lsr r0
 9c4:	465f4f49 	ldrbmi	r4, [pc], -r9, asr #30
 9c8:	5f434e55 	svcpl	0x00434e55
 9cc:	33544c41 	cmpcc	r4, #16640	; 0x4100
 9d0:	49504700 	ldmdbmi	r0, {r8, r9, sl, lr}^
 9d4:	55465f4f 	strbpl	r5, [r6, #-3919]	; 0xfffff0b1
 9d8:	415f434e 	cmpmi	pc, lr, asr #6
 9dc:	0035544c 	eorseq	r5, r5, ip, asr #8
 9e0:	33747570 	cmncc	r4, #112, 10	; 0x1c000000
 9e4:	61620032 	cmnvs	r2, r2, lsr r0
 9e8:	61006475 	tstvs	r0, r5, ror r4
 9ec:	655f7875 	ldrbvs	r7, [pc, #-2165]	; 17f <__code_start__-0x7e81>
 9f0:	6c62616e 	stfvse	f6, [r2], #-440	; 0xfffffe48
 9f4:	75007365 	strvc	r7, [r0, #-869]	; 0xfffffc9b
 9f8:	5f747261 	svcpl	0x00747261
 9fc:	63746567 	cmnvs	r4, #432013312	; 0x19c00000
 a00:	72617500 	rsbvc	r7, r1, #0, 10
 a04:	78745f74 	ldmdavc	r4!, {r2, r4, r5, r6, r8, r9, sl, fp, ip, lr}^
 a08:	5f73695f 	svcpl	0x0073695f
 a0c:	74706d65 	ldrbtvc	r6, [r0], #-3429	; 0xfffff29b
 a10:	61620079 	smcvs	8201	; 0x2009
 a14:	765f6475 			; <UNDEFINED> instruction: 0x765f6475
 a18:	63006c61 	movwvs	r6, #3169	; 0xc61
 a1c:	006c746e 	rsbeq	r7, ip, lr, ror #8
 a20:	74726175 	ldrbtvc	r6, [r2], #-373	; 0xfffffe8b
 a24:	7361685f 	cmnvc	r1, #6225920	; 0x5f0000
 a28:	7461645f 	strbtvc	r6, [r1], #-1119	; 0xfffffba1
 a2c:	50470061 	subpl	r0, r7, r1, rrx
 a30:	465f4f49 	ldrbmi	r4, [pc], -r9, asr #30
 a34:	5f434e55 	svcpl	0x00434e55
 a38:	34544c41 	ldrbcc	r4, [r4], #-3137	; 0xfffff3bf
 a3c:	5f726f00 	svcpl	0x00726f00
 a40:	32336e69 	eorscc	r6, r3, #1680	; 0x690
 a44:	72637300 	rsbvc	r7, r3, #0, 6
 a48:	68637461 	stmdavs	r3!, {r0, r5, r6, sl, ip, sp, lr}^
 a4c:	72617500 	rsbvc	r7, r1, #0, 10
 a50:	50470074 	subpl	r0, r7, r4, ror r0
 a54:	465f4f49 	ldrbmi	r4, [pc], -r9, asr #30
 a58:	5f434e55 	svcpl	0x00434e55
 a5c:	55504e49 	ldrbpl	r4, [r0, #-3657]	; 0xfffff1b7
 a60:	70670054 	rsbvc	r0, r7, r4, asr r0
 a64:	735f6f69 	cmpvc	pc, #420	; 0x1a4
 a68:	665f7465 	ldrbvs	r7, [pc], -r5, ror #8
 a6c:	74636e75 	strbtvc	r6, [r3], #-3701	; 0xfffff18b
 a70:	006e6f69 	rsbeq	r6, lr, r9, ror #30
 a74:	33746567 	cmncc	r4, #432013312	; 0x19c00000
 a78:	70670032 	rsbvc	r0, r7, r2, lsr r0
 a7c:	635f6f69 	cmpvs	pc, #420	; 0x1a4
 a80:	0030726c 	eorseq	r7, r0, ip, ror #4
 a84:	6f697067 	svcvs	0x00697067
 a88:	7465735f 	strbtvc	r7, [r5], #-863	; 0xfffffca1
 a8c:	70670030 	rsbvc	r0, r7, r0, lsr r0
 a90:	775f6f69 	ldrbvc	r6, [pc, -r9, ror #30]
 a94:	65746972 	ldrbvs	r6, [r4, #-2418]!	; 0xfffff68e
 a98:	69706700 	ldmdbvs	r0!, {r8, r9, sl, sp, lr}^
 a9c:	73665f6f 	cmnvc	r6, #444	; 0x1bc
 aa0:	00306c65 	eorseq	r6, r0, r5, ror #24
 aa4:	73726966 	cmnvc	r2, #1671168	; 0x198000
 aa8:	69625f74 	stmdbvs	r2!, {r2, r4, r5, r6, r8, r9, sl, fp, ip, lr}^
 aac:	6f6c5f74 	svcvs	0x006c5f74
 ab0:	69746163 	ldmdbvs	r4!, {r0, r1, r5, r6, r8, sp, lr}^
 ab4:	62006e6f 	andvs	r6, r0, #1776	; 0x6f0
 ab8:	5f737469 	svcpl	0x00737469
 abc:	775f6f74 			; <UNDEFINED> instruction: 0x775f6f74
 ac0:	65746972 	ldrbvs	r6, [r4, #-2418]!	; 0xfffff68e
 ac4:	73616d00 	cmnvc	r1, #0, 26
 ac8:	5f64656b 	svcpl	0x0064656b
 acc:	756c6176 	strbvc	r6, [ip, #-374]!	; 0xfffffe8a
 ad0:	70670065 	rsbvc	r0, r7, r5, rrx
 ad4:	725f6f69 	subsvc	r6, pc, #420	; 0x1a4
 ad8:	00646165 	rsbeq	r6, r4, r5, ror #2
 adc:	72732f2e 	rsbsvc	r2, r3, #184	; 0xb8
 ae0:	70672f63 	rsbvc	r2, r7, r3, ror #30
 ae4:	632e6f69 			; <UNDEFINED> instruction: 0x632e6f69
 ae8:	69706700 	ldmdbvs	r0!, {r8, r9, sl, sp, lr}^
 aec:	65735f6f 	ldrbvs	r5, [r3, #-3951]!	; 0xfffff091
 af0:	6e695f74 	mcrvs	15, 3, r5, cr9, cr4, {3}
 af4:	00747570 	rsbseq	r7, r4, r0, ror r5
 af8:	6f697067 	svcvs	0x00697067
 afc:	7465735f 	strbtvc	r7, [r5], #-863	; 0xfffffca1
 b00:	66666f5f 	uqsaxvs	r6, r6, pc	; <UNPREDICTABLE>
 b04:	69706700 	ldmdbvs	r0!, {r8, r9, sl, sp, lr}^
 b08:	65735f6f 	ldrbvs	r5, [r3, #-3951]!	; 0xfffff091
 b0c:	756f5f74 	strbvc	r5, [pc, #-3956]!	; fffffba0 <__bss_end__+0xffff5ba0>
 b10:	74757074 	ldrbtvc	r7, [r5], #-116	; 0xffffff8c
 b14:	69706700 	ldmdbvs	r0!, {r8, r9, sl, sp, lr}^
 b18:	75665f6f 	strbvc	r5, [r6, #-3951]!	; 0xfffff091
 b1c:	745f636e 	ldrbvc	r6, [pc], #-878	; b24 <__code_start__-0x74dc>
 b20:	74696200 	strbtvc	r6, [r9], #-512	; 0xfffffe00
 b24:	69620073 	stmdbvs	r2!, {r0, r1, r4, r5, r6}^
 b28:	73616d74 	cmnvc	r1, #116, 26	; 0x1d00
 b2c:	7067006b 	rsbvc	r0, r7, fp, rrx
 b30:	735f6f69 	cmpvc	pc, #420	; 0x1a4
 b34:	6f5f7465 	svcvs	0x005f7465
 b38:	6564006e 	strbvs	r0, [r4, #-110]!	; 0xffffff92
 b3c:	2e007473 	mcrcs	4, 0, r7, cr0, cr3, {3}
 b40:	62696c2f 	rsbvs	r6, r9, #12032	; 0x2f00
 b44:	74732f63 	ldrbtvc	r2, [r3], #-3939	; 0xfffff09d
 b48:	74616372 	strbtvc	r6, [r1], #-882	; 0xfffffc8e
 b4c:	2e00632e 	cdpcs	3, 0, cr6, cr0, cr14, {1}
 b50:	62696c2f 	rsbvs	r6, r9, #12032	; 0x2f00
 b54:	74732f63 	ldrbtvc	r2, [r3], #-3939	; 0xfffff09d
 b58:	706d6372 	rsbvc	r6, sp, r2, ror r3
 b5c:	2e00632e 	cdpcs	3, 0, cr6, cr0, cr14, {1}
 b60:	62696c2f 	rsbvs	r6, r9, #12032	; 0x2f00
 b64:	74732f63 	ldrbtvc	r2, [r3], #-3939	; 0xfffff09d
 b68:	79706372 	ldmdbvc	r0!, {r1, r4, r5, r6, r8, r9, sp, lr}^
 b6c:	7300632e 	movwvc	r6, #814	; 0x32e
 b70:	5f657a69 	svcpl	0x00657a69
 b74:	2f2e0074 	svccs	0x002e0074
 b78:	6362696c 	cmnvs	r2, #108, 18	; 0x1b0000
 b7c:	7274732f 	rsbsvc	r7, r4, #-1140850688	; 0xbc000000
 b80:	706d636e 	rsbvc	r6, sp, lr, ror #6
 b84:	Address 0x0000000000000b84 is out of bounds.


Disassembly of section .debug_frame:

00000000 <.debug_frame>:
   0:	0000000c 	andeq	r0, r0, ip
   4:	ffffffff 			; <UNDEFINED> instruction: 0xffffffff
   8:	7c020001 	stcvc	0, cr0, [r2], {1}
   c:	000d0c0e 	andeq	r0, sp, lr, lsl #24
  10:	00000018 	andeq	r0, r0, r8, lsl r0
  14:	00000000 	andeq	r0, r0, r0
  18:	00008020 	andeq	r8, r0, r0, lsr #32
  1c:	00000094 	muleq	r0, r4, r0
  20:	84100e42 	ldrhi	r0, [r0], #-3650	; 0xfffff1be
  24:	86038504 	strhi	r8, [r3], -r4, lsl #10
  28:	00018e02 	andeq	r8, r1, r2, lsl #28
  2c:	00000024 	andeq	r0, r0, r4, lsr #32
  30:	00000000 	andeq	r0, r0, r0
  34:	000080b4 	strheq	r8, [r0], -r4
  38:	000001c4 	andeq	r0, r0, r4, asr #3
  3c:	84240e42 	strthi	r0, [r4], #-3650	; 0xfffff1be
  40:	86088509 	strhi	r8, [r8], -r9, lsl #10
  44:	88068707 	stmdahi	r6, {r0, r1, r2, r8, r9, sl, pc}
  48:	8a048905 	bhi	122464 <__bss_end__+0x118464>
  4c:	8e028b03 	vmlahi.f64	d8, d2, d3
  50:	380e4201 	stmdacc	lr, {r0, r9, lr}
  54:	0000000c 	andeq	r0, r0, ip
  58:	ffffffff 			; <UNDEFINED> instruction: 0xffffffff
  5c:	7c020001 	stcvc	0, cr0, [r2], {1}
  60:	000d0c0e 	andeq	r0, sp, lr, lsl #24
  64:	00000014 	andeq	r0, r0, r4, lsl r0
  68:	00000054 	andeq	r0, r0, r4, asr r0
  6c:	00008348 	andeq	r8, r0, r8, asr #6
  70:	00000060 	andeq	r0, r0, r0, rrx
  74:	84080e42 	strhi	r0, [r8], #-3650	; 0xfffff1be
  78:	00018e02 	andeq	r8, r1, r2, lsl #28
  7c:	00000014 	andeq	r0, r0, r4, lsl r0
  80:	00000054 	andeq	r0, r0, r4, asr r0
  84:	000083a8 	andeq	r8, r0, r8, lsr #7
  88:	0000003c 	andeq	r0, r0, ip, lsr r0
  8c:	8e040e42 	cdphi	14, 0, cr0, cr4, cr2, {2}
  90:	100e4401 	andne	r4, lr, r1, lsl #8
  94:	00000014 	andeq	r0, r0, r4, lsl r0
  98:	00000054 	andeq	r0, r0, r4, asr r0
  9c:	000083e4 	andeq	r8, r0, r4, ror #7
  a0:	0000003c 	andeq	r0, r0, ip, lsr r0
  a4:	8e040e42 	cdphi	14, 0, cr0, cr4, cr2, {2}
  a8:	100e4401 	andne	r4, lr, r1, lsl #8
  ac:	00000014 	andeq	r0, r0, r4, lsl r0
  b0:	00000054 	andeq	r0, r0, r4, asr r0
  b4:	00008420 	andeq	r8, r0, r0, lsr #8
  b8:	0000003c 	andeq	r0, r0, ip, lsr r0
  bc:	8e040e42 	cdphi	14, 0, cr0, cr4, cr2, {2}
  c0:	100e4401 	andne	r4, lr, r1, lsl #8
  c4:	00000014 	andeq	r0, r0, r4, lsl r0
  c8:	00000054 	andeq	r0, r0, r4, asr r0
  cc:	0000845c 	andeq	r8, r0, ip, asr r4
  d0:	0000003c 	andeq	r0, r0, ip, lsr r0
  d4:	8e040e42 	cdphi	14, 0, cr0, cr4, cr2, {2}
  d8:	100e4401 	andne	r4, lr, r1, lsl #8
  dc:	00000014 	andeq	r0, r0, r4, lsl r0
  e0:	00000054 	andeq	r0, r0, r4, asr r0
  e4:	00008498 	muleq	r0, r8, r4
  e8:	0000003c 	andeq	r0, r0, ip, lsr r0
  ec:	8e040e42 	cdphi	14, 0, cr0, cr4, cr2, {2}
  f0:	100e4401 	andne	r4, lr, r1, lsl #8
  f4:	00000014 	andeq	r0, r0, r4, lsl r0
  f8:	00000054 	andeq	r0, r0, r4, asr r0
  fc:	000084d4 	ldrdeq	r8, [r0], -r4
 100:	0000003c 	andeq	r0, r0, ip, lsr r0
 104:	8e040e42 	cdphi	14, 0, cr0, cr4, cr2, {2}
 108:	100e4401 	andne	r4, lr, r1, lsl #8
 10c:	0000000c 	andeq	r0, r0, ip
 110:	ffffffff 			; <UNDEFINED> instruction: 0xffffffff
 114:	7c020001 	stcvc	0, cr0, [r2], {1}
 118:	000d0c0e 	andeq	r0, sp, lr, lsl #24
 11c:	00000020 	andeq	r0, r0, r0, lsr #32
 120:	0000010c 	andeq	r0, r0, ip, lsl #2
 124:	00008510 	andeq	r8, r0, r0, lsl r5
 128:	00000050 	andeq	r0, r0, r0, asr r0
 12c:	84080e42 	strhi	r0, [r8], #-3650	; 0xfffff1be
 130:	44018e02 	strmi	r8, [r1], #-3586	; 0xfffff1fe
 134:	0e56200e 	cdpeq	0, 5, cr2, cr6, cr14, {0}
 138:	c4ce4208 	strbgt	r4, [lr], #520	; 0x208
 13c:	0000000e 	andeq	r0, r0, lr
 140:	0000000c 	andeq	r0, r0, ip
 144:	ffffffff 			; <UNDEFINED> instruction: 0xffffffff
 148:	7c020001 	stcvc	0, cr0, [r2], {1}
 14c:	000d0c0e 	andeq	r0, sp, lr, lsl #24
 150:	0000001c 	andeq	r0, r0, ip, lsl r0
 154:	00000140 	andeq	r0, r0, r0, asr #2
 158:	00008560 	andeq	r8, r0, r0, ror #10
 15c:	000000d0 	ldrdeq	r0, [r0], -r0	; <UNPREDICTABLE>
 160:	8e040e42 	cdphi	14, 0, cr0, cr4, cr2, {2}
 164:	100e4201 	andne	r4, lr, r1, lsl #4
 168:	040e0a5e 	streq	r0, [lr], #-2654	; 0xfffff5a2
 16c:	00000b42 	andeq	r0, r0, r2, asr #22
 170:	0000001c 	andeq	r0, r0, ip, lsl r0
 174:	00000140 	andeq	r0, r0, r0, asr #2
 178:	00008630 	andeq	r8, r0, r0, lsr r6
 17c:	0000010c 	andeq	r0, r0, ip, lsl #2
 180:	8e040e42 	cdphi	14, 0, cr0, cr4, cr2, {2}
 184:	100e4201 	andne	r4, lr, r1, lsl #4
 188:	040e0a62 	streq	r0, [lr], #-2658	; 0xfffff59e
 18c:	00000b42 	andeq	r0, r0, r2, asr #22
 190:	00000014 	andeq	r0, r0, r4, lsl r0
 194:	00000140 	andeq	r0, r0, r0, asr #2
 198:	0000873c 	andeq	r8, r0, ip, lsr r7
 19c:	0000004c 	andeq	r0, r0, ip, asr #32
 1a0:	84080e4a 	strhi	r0, [r8], #-3658	; 0xfffff1b6
 1a4:	00018e02 	andeq	r8, r1, r2, lsl #28
 1a8:	0000001c 	andeq	r0, r0, ip, lsl r0
 1ac:	00000140 	andeq	r0, r0, r0, asr #2
 1b0:	00008788 	andeq	r8, r0, r8, lsl #15
 1b4:	00000084 	andeq	r0, r0, r4, lsl #1
 1b8:	8e040e42 	cdphi	14, 0, cr0, cr4, cr2, {2}
 1bc:	100e4201 	andne	r4, lr, r1, lsl #4
 1c0:	040e0a5c 	streq	r0, [lr], #-2652	; 0xfffff5a4
 1c4:	00000b42 	andeq	r0, r0, r2, asr #22
 1c8:	00000014 	andeq	r0, r0, r4, lsl r0
 1cc:	00000140 	andeq	r0, r0, r0, asr #2
 1d0:	0000880c 	andeq	r8, r0, ip, lsl #16
 1d4:	00000028 	andeq	r0, r0, r8, lsr #32
 1d8:	84080e42 	strhi	r0, [r8], #-3650	; 0xfffff1be
 1dc:	00018e02 	andeq	r8, r1, r2, lsl #28
 1e0:	00000014 	andeq	r0, r0, r4, lsl r0
 1e4:	00000140 	andeq	r0, r0, r0, asr #2
 1e8:	00008834 	andeq	r8, r0, r4, lsr r8
 1ec:	00000028 	andeq	r0, r0, r8, lsr #32
 1f0:	84080e42 	strhi	r0, [r8], #-3650	; 0xfffff1be
 1f4:	00018e02 	andeq	r8, r1, r2, lsl #28
 1f8:	0000000c 	andeq	r0, r0, ip
 1fc:	ffffffff 			; <UNDEFINED> instruction: 0xffffffff
 200:	7c020001 	stcvc	0, cr0, [r2], {1}
 204:	000d0c0e 	andeq	r0, sp, lr, lsl #24
 208:	00000034 	andeq	r0, r0, r4, lsr r0
 20c:	000001f8 	strdeq	r0, [r0], -r8
 210:	0000885c 	andeq	r8, r0, ip, asr r8
 214:	00000058 	andeq	r0, r0, r8, asr r0
 218:	80100e42 	andshi	r0, r0, r2, asr #28
 21c:	82038104 	andhi	r8, r3, #1
 220:	42018302 	andmi	r8, r1, #134217728	; 0x8000000
 224:	07841c0e 	streq	r1, [r4, lr, lsl #24]
 228:	058e0685 	streq	r0, [lr, #1669]	; 0x685
 22c:	5c280e42 	stcpl	14, cr0, [r8], #-264	; 0xfffffef8
 230:	ce421c0e 	cdpgt	12, 4, cr1, cr2, cr14, {0}
 234:	100ec4c5 	andne	ip, lr, r5, asr #9
 238:	c1c2c342 	bicgt	ip, r2, r2, asr #6
 23c:	00000ec0 	andeq	r0, r0, r0, asr #29
 240:	0000000c 	andeq	r0, r0, ip
 244:	ffffffff 			; <UNDEFINED> instruction: 0xffffffff
 248:	7c020001 	stcvc	0, cr0, [r2], {1}
 24c:	000d0c0e 	andeq	r0, sp, lr, lsl #24
 250:	00000014 	andeq	r0, r0, r4, lsl r0
 254:	00000240 	andeq	r0, r0, r0, asr #4
 258:	000088b4 			; <UNDEFINED> instruction: 0x000088b4
 25c:	00000014 	andeq	r0, r0, r4, lsl r0
 260:	84080e42 	strhi	r0, [r8], #-3650	; 0xfffff1be
 264:	00018e02 	andeq	r8, r1, r2, lsl #28
 268:	0000000c 	andeq	r0, r0, ip
 26c:	00000240 	andeq	r0, r0, r0, asr #4
 270:	000088c8 	andeq	r8, r0, r8, asr #17
 274:	00000018 	andeq	r0, r0, r8, lsl r0
 278:	0000000c 	andeq	r0, r0, ip
 27c:	00000240 	andeq	r0, r0, r0, asr #4
 280:	000088e0 	andeq	r8, r0, r0, ror #17
 284:	00000010 	andeq	r0, r0, r0, lsl r0
 288:	0000000c 	andeq	r0, r0, ip
 28c:	ffffffff 			; <UNDEFINED> instruction: 0xffffffff
 290:	7c020001 	stcvc	0, cr0, [r2], {1}
 294:	000d0c0e 	andeq	r0, sp, lr, lsl #24
 298:	00000014 	andeq	r0, r0, r4, lsl r0
 29c:	00000288 	andeq	r0, r0, r8, lsl #5
 2a0:	000088f0 	strdeq	r8, [r0], -r0
 2a4:	00000034 	andeq	r0, r0, r4, lsr r0
 2a8:	84080e42 	strhi	r0, [r8], #-3650	; 0xfffff1be
 2ac:	00018e02 	andeq	r8, r1, r2, lsl #28
 2b0:	0000000c 	andeq	r0, r0, ip
 2b4:	ffffffff 			; <UNDEFINED> instruction: 0xffffffff
 2b8:	7c020001 	stcvc	0, cr0, [r2], {1}
 2bc:	000d0c0e 	andeq	r0, sp, lr, lsl #24
 2c0:	0000000c 	andeq	r0, r0, ip
 2c4:	000002b0 			; <UNDEFINED> instruction: 0x000002b0
 2c8:	00008924 	andeq	r8, r0, r4, lsr #18
 2cc:	00000014 	andeq	r0, r0, r4, lsl r0
 2d0:	0000000c 	andeq	r0, r0, ip
 2d4:	000002b0 			; <UNDEFINED> instruction: 0x000002b0
 2d8:	00008938 	andeq	r8, r0, r8, lsr r9
 2dc:	00000024 	andeq	r0, r0, r4, lsr #32
 2e0:	0000000c 	andeq	r0, r0, ip
 2e4:	000002b0 			; <UNDEFINED> instruction: 0x000002b0
 2e8:	0000895c 	andeq	r8, r0, ip, asr r9
 2ec:	00000038 	andeq	r0, r0, r8, lsr r0
 2f0:	00000024 	andeq	r0, r0, r4, lsr #32
 2f4:	000002b0 			; <UNDEFINED> instruction: 0x000002b0
 2f8:	00008994 	muleq	r0, r4, r9
 2fc:	000001b4 			; <UNDEFINED> instruction: 0x000001b4
 300:	84140e42 	ldrhi	r0, [r4], #-3650	; 0xfffff1be
 304:	86048505 	strhi	r8, [r4], -r5, lsl #10
 308:	8e028703 	cdphi	7, 0, cr8, cr2, cr3, {0}
 30c:	600e4201 	andvs	r4, lr, r1, lsl #4
 310:	0e0a9a02 	vmlaeq.f32	s18, s20, s4
 314:	000b4214 	andeq	r4, fp, r4, lsl r2
 318:	00000014 	andeq	r0, r0, r4, lsl r0
 31c:	000002b0 			; <UNDEFINED> instruction: 0x000002b0
 320:	00008b48 	andeq	r8, r0, r8, asr #22
 324:	00000064 	andeq	r0, r0, r4, rrx
 328:	8e040e54 	mcrhi	14, 0, r0, cr4, cr4, {2}
 32c:	100e4201 	andne	r4, lr, r1, lsl #4
 330:	0000002c 	andeq	r0, r0, ip, lsr #32
 334:	000002b0 			; <UNDEFINED> instruction: 0x000002b0
 338:	00008bac 	andeq	r8, r0, ip, lsr #23
 33c:	00000498 	muleq	r0, r8, r4
 340:	84240e42 	strthi	r0, [r4], #-3650	; 0xfffff1be
 344:	86088509 	strhi	r8, [r8], -r9, lsl #10
 348:	88068707 	stmdahi	r6, {r0, r1, r2, r8, r9, sl, pc}
 34c:	8a048905 	bhi	122768 <__bss_end__+0x118768>
 350:	8e028b03 	vmlahi.f64	d8, d2, d3
 354:	b80e4201 	stmdalt	lr, {r0, r9, lr}
 358:	022c0302 	eoreq	r0, ip, #134217728	; 0x8000000
 35c:	0000240e 	andeq	r2, r0, lr, lsl #8
 360:	0000000c 	andeq	r0, r0, ip
 364:	ffffffff 			; <UNDEFINED> instruction: 0xffffffff
 368:	7c020001 	stcvc	0, cr0, [r2], {1}
 36c:	000d0c0e 	andeq	r0, sp, lr, lsl #24
 370:	00000014 	andeq	r0, r0, r4, lsl r0
 374:	00000360 	andeq	r0, r0, r0, ror #6
 378:	00009044 	andeq	r9, r0, r4, asr #32
 37c:	0000002c 	andeq	r0, r0, ip, lsr #32
 380:	84080e42 	strhi	r0, [r8], #-3650	; 0xfffff1be
 384:	00018e02 	andeq	r8, r1, r2, lsl #28
 388:	0000000c 	andeq	r0, r0, ip
 38c:	ffffffff 			; <UNDEFINED> instruction: 0xffffffff
 390:	7c020001 	stcvc	0, cr0, [r2], {1}
 394:	000d0c0e 	andeq	r0, sp, lr, lsl #24
 398:	00000014 	andeq	r0, r0, r4, lsl r0
 39c:	00000388 	andeq	r0, r0, r8, lsl #7
 3a0:	00009070 	andeq	r9, r0, r0, ror r0
 3a4:	0000002c 	andeq	r0, r0, ip, lsr #32
 3a8:	84080e42 	strhi	r0, [r8], #-3650	; 0xfffff1be
 3ac:	00018e02 	andeq	r8, r1, r2, lsl #28
 3b0:	0000000c 	andeq	r0, r0, ip
 3b4:	ffffffff 			; <UNDEFINED> instruction: 0xffffffff
 3b8:	7c020001 	stcvc	0, cr0, [r2], {1}
 3bc:	000d0c0e 	andeq	r0, sp, lr, lsl #24
 3c0:	0000000c 	andeq	r0, r0, ip
 3c4:	000003b0 			; <UNDEFINED> instruction: 0x000003b0
 3c8:	000090b4 	strheq	r9, [r0], -r4
 3cc:	00000018 	andeq	r0, r0, r8, lsl r0
 3d0:	0000000c 	andeq	r0, r0, ip
 3d4:	000003b0 			; <UNDEFINED> instruction: 0x000003b0
 3d8:	000090cc 	andeq	r9, r0, ip, asr #1
 3dc:	00000014 	andeq	r0, r0, r4, lsl r0
 3e0:	00000014 	andeq	r0, r0, r4, lsl r0
 3e4:	000003b0 			; <UNDEFINED> instruction: 0x000003b0
 3e8:	000090e0 	andeq	r9, r0, r0, ror #1
 3ec:	00000050 	andeq	r0, r0, r0, asr r0
 3f0:	84080e42 	strhi	r0, [r8], #-3650	; 0xfffff1be
 3f4:	00018e02 	andeq	r8, r1, r2, lsl #28
 3f8:	0000000c 	andeq	r0, r0, ip
 3fc:	ffffffff 			; <UNDEFINED> instruction: 0xffffffff
 400:	7c020001 	stcvc	0, cr0, [r2], {1}
 404:	000d0c0e 	andeq	r0, sp, lr, lsl #24
 408:	00000014 	andeq	r0, r0, r4, lsl r0
 40c:	000003f8 	strdeq	r0, [r0], -r8
 410:	00009130 	andeq	r9, r0, r0, lsr r1
 414:	00000014 	andeq	r0, r0, r4, lsl r0
 418:	84080e42 	strhi	r0, [r8], #-3650	; 0xfffff1be
 41c:	00018e02 	andeq	r8, r1, r2, lsl #28
 420:	00000014 	andeq	r0, r0, r4, lsl r0
 424:	000003f8 	strdeq	r0, [r0], -r8
 428:	00009144 	andeq	r9, r0, r4, asr #2
 42c:	0000001c 	andeq	r0, r0, ip, lsl r0
 430:	84080e42 	strhi	r0, [r8], #-3650	; 0xfffff1be
 434:	00018e02 	andeq	r8, r1, r2, lsl #28
 438:	00000018 	andeq	r0, r0, r8, lsl r0
 43c:	000003f8 	strdeq	r0, [r0], -r8
 440:	00009160 	andeq	r9, r0, r0, ror #2
 444:	00000024 	andeq	r0, r0, r4, lsr #32
 448:	84100e42 	ldrhi	r0, [r0], #-3650	; 0xfffff1be
 44c:	86038504 	strhi	r8, [r3], -r4, lsl #10
 450:	00018e02 	andeq	r8, r1, r2, lsl #28
 454:	00000014 	andeq	r0, r0, r4, lsl r0
 458:	000003f8 	strdeq	r0, [r0], -r8
 45c:	00009184 	andeq	r9, r0, r4, lsl #3
 460:	00000018 	andeq	r0, r0, r8, lsl r0
 464:	84080e42 	strhi	r0, [r8], #-3650	; 0xfffff1be
 468:	00018e02 	andeq	r8, r1, r2, lsl #28
 46c:	00000014 	andeq	r0, r0, r4, lsl r0
 470:	000003f8 	strdeq	r0, [r0], -r8
 474:	0000919c 	muleq	r0, ip, r1
 478:	00000018 	andeq	r0, r0, r8, lsl r0
 47c:	84080e42 	strhi	r0, [r8], #-3650	; 0xfffff1be
 480:	00018e02 	andeq	r8, r1, r2, lsl #28
 484:	0000000c 	andeq	r0, r0, ip
 488:	ffffffff 			; <UNDEFINED> instruction: 0xffffffff
 48c:	7c020001 	stcvc	0, cr0, [r2], {1}
 490:	000d0c0e 	andeq	r0, sp, lr, lsl #24
 494:	00000018 	andeq	r0, r0, r8, lsl r0
 498:	00000484 	andeq	r0, r0, r4, lsl #9
 49c:	000091b4 			; <UNDEFINED> instruction: 0x000091b4
 4a0:	00000020 	andeq	r0, r0, r0, lsr #32
 4a4:	84100e42 	ldrhi	r0, [r0], #-3650	; 0xfffff1be
 4a8:	86038504 	strhi	r8, [r3], -r4, lsl #10
 4ac:	00018e02 	andeq	r8, r1, r2, lsl #28
 4b0:	00000014 	andeq	r0, r0, r4, lsl r0
 4b4:	00000484 	andeq	r0, r0, r4, lsl #9
 4b8:	000091d4 	ldrdeq	r9, [r0], -r4
 4bc:	000000b0 	strheq	r0, [r0], -r0	; <UNPREDICTABLE>
 4c0:	84080e42 	strhi	r0, [r8], #-3650	; 0xfffff1be
 4c4:	00018e02 	andeq	r8, r1, r2, lsl #28
 4c8:	00000014 	andeq	r0, r0, r4, lsl r0
 4cc:	00000484 	andeq	r0, r0, r4, lsl #9
 4d0:	00009284 	andeq	r9, r0, r4, lsl #5
 4d4:	00000018 	andeq	r0, r0, r8, lsl r0
 4d8:	84080e42 	strhi	r0, [r8], #-3650	; 0xfffff1be
 4dc:	00018e02 	andeq	r8, r1, r2, lsl #28
 4e0:	00000014 	andeq	r0, r0, r4, lsl r0
 4e4:	00000484 	andeq	r0, r0, r4, lsl #9
 4e8:	0000929c 	muleq	r0, ip, r2
 4ec:	00000020 	andeq	r0, r0, r0, lsr #32
 4f0:	84080e42 	strhi	r0, [r8], #-3650	; 0xfffff1be
 4f4:	00018e02 	andeq	r8, r1, r2, lsl #28
 4f8:	00000014 	andeq	r0, r0, r4, lsl r0
 4fc:	00000484 	andeq	r0, r0, r4, lsl #9
 500:	000092bc 			; <UNDEFINED> instruction: 0x000092bc
 504:	00000030 	andeq	r0, r0, r0, lsr r0
 508:	84080e42 	strhi	r0, [r8], #-3650	; 0xfffff1be
 50c:	00018e02 	andeq	r8, r1, r2, lsl #28
 510:	00000014 	andeq	r0, r0, r4, lsl r0
 514:	00000484 	andeq	r0, r0, r4, lsl #9
 518:	000092ec 	andeq	r9, r0, ip, ror #5
 51c:	00000030 	andeq	r0, r0, r0, lsr r0
 520:	84080e42 	strhi	r0, [r8], #-3650	; 0xfffff1be
 524:	00018e02 	andeq	r8, r1, r2, lsl #28
 528:	00000014 	andeq	r0, r0, r4, lsl r0
 52c:	00000484 	andeq	r0, r0, r4, lsl #9
 530:	0000931c 	andeq	r9, r0, ip, lsl r3
 534:	00000010 	andeq	r0, r0, r0, lsl r0
 538:	84080e42 	strhi	r0, [r8], #-3650	; 0xfffff1be
 53c:	00018e02 	andeq	r8, r1, r2, lsl #28
 540:	00000014 	andeq	r0, r0, r4, lsl r0
 544:	00000484 	andeq	r0, r0, r4, lsl #9
 548:	0000932c 	andeq	r9, r0, ip, lsr #6
 54c:	00000020 	andeq	r0, r0, r0, lsr #32
 550:	84080e42 	strhi	r0, [r8], #-3650	; 0xfffff1be
 554:	00018e02 	andeq	r8, r1, r2, lsl #28
 558:	00000014 	andeq	r0, r0, r4, lsl r0
 55c:	00000484 	andeq	r0, r0, r4, lsl #9
 560:	0000934c 	andeq	r9, r0, ip, asr #6
 564:	00000014 	andeq	r0, r0, r4, lsl r0
 568:	84080e42 	strhi	r0, [r8], #-3650	; 0xfffff1be
 56c:	00018e02 	andeq	r8, r1, r2, lsl #28
 570:	0000000c 	andeq	r0, r0, ip
 574:	ffffffff 			; <UNDEFINED> instruction: 0xffffffff
 578:	7c020001 	stcvc	0, cr0, [r2], {1}
 57c:	000d0c0e 	andeq	r0, sp, lr, lsl #24
 580:	0000001c 	andeq	r0, r0, ip, lsl r0
 584:	00000570 	andeq	r0, r0, r0, ror r5
 588:	00009360 	andeq	r9, r0, r0, ror #6
 58c:	0000005c 	andeq	r0, r0, ip, asr r0
 590:	84180e46 	ldrhi	r0, [r8], #-3654	; 0xfffff1ba
 594:	86058506 	strhi	r8, [r5], -r6, lsl #10
 598:	88038704 	stmdahi	r3, {r2, r8, r9, sl, pc}
 59c:	00018e02 	andeq	r8, r1, r2, lsl #28
 5a0:	00000014 	andeq	r0, r0, r4, lsl r0
 5a4:	00000570 	andeq	r0, r0, r0, ror r5
 5a8:	000093bc 			; <UNDEFINED> instruction: 0x000093bc
 5ac:	00000024 	andeq	r0, r0, r4, lsr #32
 5b0:	84080e46 	strhi	r0, [r8], #-3654	; 0xfffff1ba
 5b4:	00018e02 	andeq	r8, r1, r2, lsl #28
 5b8:	00000014 	andeq	r0, r0, r4, lsl r0
 5bc:	00000570 	andeq	r0, r0, r0, ror r5
 5c0:	000093e0 	andeq	r9, r0, r0, ror #7
 5c4:	00000024 	andeq	r0, r0, r4, lsr #32
 5c8:	84080e46 	strhi	r0, [r8], #-3654	; 0xfffff1ba
 5cc:	00018e02 	andeq	r8, r1, r2, lsl #28
 5d0:	00000014 	andeq	r0, r0, r4, lsl r0
 5d4:	00000570 	andeq	r0, r0, r0, ror r5
 5d8:	00009404 	andeq	r9, r0, r4, lsl #8
 5dc:	0000001c 	andeq	r0, r0, ip, lsl r0
 5e0:	84080e42 	strhi	r0, [r8], #-3650	; 0xfffff1be
 5e4:	00018e02 	andeq	r8, r1, r2, lsl #28
 5e8:	0000001c 	andeq	r0, r0, ip, lsl r0
 5ec:	00000570 	andeq	r0, r0, r0, ror r5
 5f0:	00009420 	andeq	r9, r0, r0, lsr #8
 5f4:	00000054 	andeq	r0, r0, r4, asr r0
 5f8:	84180e46 	ldrhi	r0, [r8], #-3654	; 0xfffff1ba
 5fc:	86058506 	strhi	r8, [r5], -r6, lsl #10
 600:	88038704 	stmdahi	r3, {r2, r8, r9, sl, pc}
 604:	00018e02 	andeq	r8, r1, r2, lsl #28
 608:	00000014 	andeq	r0, r0, r4, lsl r0
 60c:	00000570 	andeq	r0, r0, r0, ror r5
 610:	00009474 	andeq	r9, r0, r4, ror r4
 614:	00000038 	andeq	r0, r0, r8, lsr r0
 618:	84080e4a 	strhi	r0, [r8], #-3658	; 0xfffff1b6
 61c:	00018e02 	andeq	r8, r1, r2, lsl #28
 620:	0000001c 	andeq	r0, r0, ip, lsl r0
 624:	00000570 	andeq	r0, r0, r0, ror r5
 628:	000094ac 	andeq	r9, r0, ip, lsr #9
 62c:	00000060 	andeq	r0, r0, r0, rrx
 630:	84180e48 	ldrhi	r0, [r8], #-3656	; 0xfffff1b8
 634:	86058506 	strhi	r8, [r5], -r6, lsl #10
 638:	88038704 	stmdahi	r3, {r2, r8, r9, sl, pc}
 63c:	00018e02 	andeq	r8, r1, r2, lsl #28
 640:	0000000c 	andeq	r0, r0, ip
 644:	ffffffff 			; <UNDEFINED> instruction: 0xffffffff
 648:	7c020001 	stcvc	0, cr0, [r2], {1}
 64c:	000d0c0e 	andeq	r0, sp, lr, lsl #24
 650:	0000000c 	andeq	r0, r0, ip
 654:	00000640 	andeq	r0, r0, r0, asr #12
 658:	0000950c 	andeq	r9, r0, ip, lsl #10
 65c:	00000034 	andeq	r0, r0, r4, lsr r0
 660:	0000000c 	andeq	r0, r0, ip
 664:	ffffffff 			; <UNDEFINED> instruction: 0xffffffff
 668:	7c020001 	stcvc	0, cr0, [r2], {1}
 66c:	000d0c0e 	andeq	r0, sp, lr, lsl #24
 670:	0000000c 	andeq	r0, r0, ip
 674:	00000660 	andeq	r0, r0, r0, ror #12
 678:	00009540 	andeq	r9, r0, r0, asr #10
 67c:	0000002c 	andeq	r0, r0, ip, lsr #32
 680:	0000000c 	andeq	r0, r0, ip
 684:	ffffffff 			; <UNDEFINED> instruction: 0xffffffff
 688:	7c020001 	stcvc	0, cr0, [r2], {1}
 68c:	000d0c0e 	andeq	r0, sp, lr, lsl #24
 690:	0000000c 	andeq	r0, r0, ip
 694:	00000680 	andeq	r0, r0, r0, lsl #13
 698:	0000956c 	andeq	r9, r0, ip, ror #10
 69c:	00000020 	andeq	r0, r0, r0, lsr #32
 6a0:	0000000c 	andeq	r0, r0, ip
 6a4:	ffffffff 			; <UNDEFINED> instruction: 0xffffffff
 6a8:	7c020001 	stcvc	0, cr0, [r2], {1}
 6ac:	000d0c0e 	andeq	r0, sp, lr, lsl #24
 6b0:	0000000c 	andeq	r0, r0, ip
 6b4:	000006a0 	andeq	r0, r0, r0, lsr #13
 6b8:	0000958c 	andeq	r9, r0, ip, lsl #11
 6bc:	0000002c 	andeq	r0, r0, ip, lsr #32
