
1-sonar.elf:     file format elf32-littlearm


Disassembly of section .text:

00008000 <__code_start__>:
    8000:	e3a0d302 	mov	sp, #134217728	; 0x8000000
    8004:	e3a0b000 	mov	fp, #0, 0
    8008:	eb00026e 	bl	89c8 <_cstart>
    800c:	eb000283 	bl	8a20 <rpi_reboot>

00008010 <PUT32>:
    8010:	e5801000 	str	r1, [r0]
    8014:	e12fff1e 	bx	lr

00008018 <GET32>:
    8018:	e5900000 	ldr	r0, [r0]
    801c:	e12fff1e 	bx	lr

00008020 <notmain>:
    8020:	e92d4010 	push	{r4, lr}
    8024:	e24dd008 	sub	sp, sp, #8, 0
    8028:	e3a02015 	mov	r2, #21, 0
    802c:	e3a01014 	mov	r1, #20, 0
    8030:	e59f0068 	ldr	r0, [pc, #104]	; 80a0 <notmain+0x80>
    8034:	eb00006d 	bl	81f0 <printk>
    8038:	e3a02015 	mov	r2, #21, 0
    803c:	e3a01014 	mov	r1, #20, 0
    8040:	e1a0000d 	mov	r0, sp
    8044:	eb00002d 	bl	8100 <hc_sr04_init>
    8048:	e59f0054 	ldr	r0, [pc, #84]	; 80a4 <notmain+0x84>
    804c:	eb000067 	bl	81f0 <printk>
    8050:	e3a04000 	mov	r4, #0, 0
    8054:	ea00000c 	b	808c <notmain+0x6c>
    8058:	e59f0048 	ldr	r0, [pc, #72]	; 80a8 <notmain+0x88>
    805c:	eb000063 	bl	81f0 <printk>
    8060:	e59f2044 	ldr	r2, [pc, #68]	; 80ac <notmain+0x8c>
    8064:	e28d3008 	add	r3, sp, #8, 0
    8068:	e9130003 	ldmdb	r3, {r0, r1}
    806c:	eb000030 	bl	8134 <hc_sr04_get_distance>
    8070:	e2501000 	subs	r1, r0, #0, 0
    8074:	bafffff7 	blt	8058 <notmain+0x38>
    8078:	e59f0030 	ldr	r0, [pc, #48]	; 80b0 <notmain+0x90>
    807c:	eb00005b 	bl	81f0 <printk>
    8080:	e3a00ffa 	mov	r0, #1000	; 0x3e8
    8084:	eb00028e 	bl	8ac4 <delay_ms>
    8088:	e2844001 	add	r4, r4, #1, 0
    808c:	e3540009 	cmp	r4, #9, 0
    8090:	dafffff2 	ble	8060 <notmain+0x40>
    8094:	e59f0018 	ldr	r0, [pc, #24]	; 80b4 <notmain+0x94>
    8098:	eb000054 	bl	81f0 <printk>
    809c:	eb00023e 	bl	899c <clean_reboot>
    80a0:	00009098 	muleq	r0, r8, r0
    80a4:	000090c0 	andeq	r9, r0, r0, asr #1
    80a8:	000090d0 	ldrdeq	r9, [r0], -r0
    80ac:	0000d6d8 	ldrdeq	sp, [r0], -r8
    80b0:	000090dc 	ldrdeq	r9, [r0], -ip
    80b4:	000090f4 	strdeq	r9, [r0], -r4

000080b8 <read_while_eq>:
    80b8:	e92d41f0 	push	{r4, r5, r6, r7, r8, lr}
    80bc:	e1a05000 	mov	r5, r0
    80c0:	e1a04001 	mov	r4, r1
    80c4:	e1a07002 	mov	r7, r2
    80c8:	eb00026d 	bl	8a84 <timer_get_usec>
    80cc:	e1a06000 	mov	r6, r0
    80d0:	e1a00005 	mov	r0, r5
    80d4:	eb000388 	bl	8efc <gpio_read>
    80d8:	e1500004 	cmp	r0, r4
    80dc:	1a000005 	bne	80f8 <read_while_eq+0x40>
    80e0:	eb000267 	bl	8a84 <timer_get_usec>
    80e4:	e0400006 	sub	r0, r0, r6
    80e8:	e1500007 	cmp	r0, r7
    80ec:	3afffff7 	bcc	80d0 <read_while_eq+0x18>
    80f0:	e3a00000 	mov	r0, #0, 0
    80f4:	e8bd81f0 	pop	{r4, r5, r6, r7, r8, pc}
    80f8:	e3a00001 	mov	r0, #1, 0
    80fc:	e8bd81f0 	pop	{r4, r5, r6, r7, r8, pc}

00008100 <hc_sr04_init>:
    8100:	e92d4070 	push	{r4, r5, r6, lr}
    8104:	e1a04000 	mov	r4, r0
    8108:	e1a00001 	mov	r0, r1
    810c:	e1a05002 	mov	r5, r2
    8110:	e5841000 	str	r1, [r4]
    8114:	e5842004 	str	r2, [r4, #4]
    8118:	eb000332 	bl	8de8 <gpio_set_output>
    811c:	e1a00005 	mov	r0, r5
    8120:	eb000360 	bl	8ea8 <gpio_set_input>
    8124:	e1a00005 	mov	r0, r5
    8128:	eb000320 	bl	8db0 <gpio_set_pulldown>
    812c:	e1a00004 	mov	r0, r4
    8130:	e8bd8070 	pop	{r4, r5, r6, pc}

00008134 <hc_sr04_get_distance>:
    8134:	e92d40f0 	push	{r4, r5, r6, r7, lr}
    8138:	e24dd00c 	sub	sp, sp, #12, 0
    813c:	e28d3008 	add	r3, sp, #8, 0
    8140:	e9030003 	stmdb	r3, {r0, r1}
    8144:	e1a05002 	mov	r5, r2
    8148:	e59d4000 	ldr	r4, [sp]
    814c:	e59d7004 	ldr	r7, [sp, #4]
    8150:	e1a00004 	mov	r0, r4
    8154:	eb00033a 	bl	8e44 <gpio_set_on>
    8158:	e3a0000f 	mov	r0, #15, 0
    815c:	eb00024f 	bl	8aa0 <delay_us>
    8160:	e1a00004 	mov	r0, r4
    8164:	eb00033f 	bl	8e68 <gpio_set_off>
    8168:	e1a02005 	mov	r2, r5
    816c:	e3a01000 	mov	r1, #0, 0
    8170:	e1a00007 	mov	r0, r7
    8174:	ebffffcf 	bl	80b8 <read_while_eq>
    8178:	e3500000 	cmp	r0, #0, 0
    817c:	0a000012 	beq	81cc <hc_sr04_get_distance+0x98>
    8180:	eb00023f 	bl	8a84 <timer_get_usec>
    8184:	e1a06000 	mov	r6, r0
    8188:	e1a02005 	mov	r2, r5
    818c:	e3a01001 	mov	r1, #1, 0
    8190:	e1a00007 	mov	r0, r7
    8194:	ebffffc7 	bl	80b8 <read_while_eq>
    8198:	e3500000 	cmp	r0, #0, 0
    819c:	0a00000e 	beq	81dc <hc_sr04_get_distance+0xa8>
    81a0:	eb000237 	bl	8a84 <timer_get_usec>
    81a4:	e1a04000 	mov	r4, r0
    81a8:	e3a0000f 	mov	r0, #15, 0
    81ac:	eb00023b 	bl	8aa0 <delay_us>
    81b0:	e0440006 	sub	r0, r4, r6
    81b4:	e1a00120 	lsr	r0, r0, #2
    81b8:	e59f402c 	ldr	r4, [pc, #44]	; 81ec <hc_sr04_get_distance+0xb8>
    81bc:	e0803094 	umull	r3, r0, r4, r0
    81c0:	e1a00120 	lsr	r0, r0, #2
    81c4:	e28dd00c 	add	sp, sp, #12, 0
    81c8:	e8bd80f0 	pop	{r4, r5, r6, r7, pc}
    81cc:	e3a0000f 	mov	r0, #15, 0
    81d0:	eb000232 	bl	8aa0 <delay_us>
    81d4:	e3e00000 	mvn	r0, #0, 0
    81d8:	eafffff9 	b	81c4 <hc_sr04_get_distance+0x90>
    81dc:	e3a0000f 	mov	r0, #15, 0
    81e0:	eb00022e 	bl	8aa0 <delay_us>
    81e4:	e3e00000 	mvn	r0, #0, 0
    81e8:	eafffff5 	b	81c4 <hc_sr04_get_distance+0x90>
    81ec:	1bacf915 	blne	feb46648 <__bss_end__+0xfeb3cf38>

000081f0 <printk>:
    81f0:	e92d000f 	push	{r0, r1, r2, r3}
    81f4:	e92d4030 	push	{r4, r5, lr}
    81f8:	e24dd00c 	sub	sp, sp, #12, 0
    81fc:	e28d301c 	add	r3, sp, #28, 0
    8200:	e58d3004 	str	r3, [sp, #4]
    8204:	e59f5034 	ldr	r5, [pc, #52]	; 8240 <printk+0x50>
    8208:	e59d2018 	ldr	r2, [sp, #24]
    820c:	e3a01b01 	mov	r1, #1024	; 0x400
    8210:	e1a00005 	mov	r0, r5
    8214:	eb0000ba 	bl	8504 <va_printk>
    8218:	e1a04000 	mov	r4, r0
    821c:	e59f3020 	ldr	r3, [pc, #32]	; 8244 <printk+0x54>
    8220:	e5933000 	ldr	r3, [r3]
    8224:	e1a00005 	mov	r0, r5
    8228:	e12fff33 	blx	r3
    822c:	e1a00004 	mov	r0, r4
    8230:	e28dd00c 	add	sp, sp, #12, 0
    8234:	e8bd4030 	pop	{r4, r5, lr}
    8238:	e28dd010 	add	sp, sp, #16, 0
    823c:	e12fff1e 	bx	lr
    8240:	00009310 	andeq	r9, r0, r0, lsl r3
    8244:	00009308 	andeq	r9, r0, r8, lsl #6

00008248 <internal_putk>:
    8248:	e92d4010 	push	{r4, lr}
    824c:	e1a04000 	mov	r4, r0
    8250:	e5d40000 	ldrb	r0, [r4]
    8254:	e3500000 	cmp	r0, #0, 0
    8258:	0a000004 	beq	8270 <internal_putk+0x28>
    825c:	e59f3014 	ldr	r3, [pc, #20]	; 8278 <internal_putk+0x30>
    8260:	e5933000 	ldr	r3, [r3]
    8264:	e12fff33 	blx	r3
    8268:	e2844001 	add	r4, r4, #1, 0
    826c:	eafffff7 	b	8250 <internal_putk+0x8>
    8270:	e3a00001 	mov	r0, #1, 0
    8274:	e8bd8010 	pop	{r4, pc}
    8278:	0000930c 	andeq	r9, r0, ip, lsl #6

0000827c <isdigit>:
    827c:	e2400030 	sub	r0, r0, #48, 0	; 0x30
    8280:	e3500009 	cmp	r0, #9, 0
    8284:	83a00000 	movhi	r0, #0, 0
    8288:	93a00001 	movls	r0, #1, 0
    828c:	e12fff1e 	bx	lr

00008290 <pad>:
    8290:	e0401001 	sub	r1, r0, r1
    8294:	e1510002 	cmp	r1, r2
    8298:	b3a03020 	movlt	r3, #32, 0
    829c:	b4c03001 	strblt	r3, [r0], #1
    82a0:	b2811001 	addlt	r1, r1, #1, 0
    82a4:	bafffffa 	blt	8294 <pad+0x4>
    82a8:	e3a03000 	mov	r3, #0, 0
    82ac:	e5c03000 	strb	r3, [r0]
    82b0:	e12fff1e 	bx	lr

000082b4 <reverse>:
    82b4:	e042c003 	sub	ip, r2, r3
    82b8:	e28cc001 	add	ip, ip, #1, 0
    82bc:	e15c0001 	cmp	ip, r1
    82c0:	c04cc001 	subgt	ip, ip, r1
    82c4:	c083300c 	addgt	r3, r3, ip
    82c8:	e2421001 	sub	r1, r2, #1, 0
    82cc:	e1a02000 	mov	r2, r0
    82d0:	e1510003 	cmp	r1, r3
    82d4:	2451c001 	ldrbcs	ip, [r1], #-1
    82d8:	24c2c001 	strbcs	ip, [r2], #1
    82dc:	2afffffb 	bcs	82d0 <reverse+0x1c>
    82e0:	e3a03000 	mov	r3, #0, 0
    82e4:	e5c23000 	strb	r3, [r2]
    82e8:	e12fff1e 	bx	lr

000082ec <emit>:
    82ec:	e92d40f0 	push	{r4, r5, r6, r7, lr}
    82f0:	e24dd04c 	sub	sp, sp, #76, 0	; 0x4c
    82f4:	e1a05001 	mov	r5, r1
    82f8:	e1a04002 	mov	r4, r2
    82fc:	e59d2060 	ldr	r2, [sp, #96]	; 0x60
    8300:	e1520004 	cmp	r2, r4
    8304:	c2442001 	subgt	r2, r4, #1, 0
    8308:	e1a0c003 	mov	ip, r3
    830c:	e2400002 	sub	r0, r0, #2, 0
    8310:	e350000e 	cmp	r0, #14, 0
    8314:	979ff100 	ldrls	pc, [pc, r0, lsl #2]
    8318:	ea000050 	b	8460 <emit+0x174>
    831c:	00008438 	andeq	r8, r0, r8, lsr r4
    8320:	00008460 	andeq	r8, r0, r0, ror #8
    8324:	00008460 	andeq	r8, r0, r0, ror #8
    8328:	00008460 	andeq	r8, r0, r0, ror #8
    832c:	00008460 	andeq	r8, r0, r0, ror #8
    8330:	00008460 	andeq	r8, r0, r0, ror #8
    8334:	0000842c 	andeq	r8, r0, ip, lsr #8
    8338:	00008460 	andeq	r8, r0, r0, ror #8
    833c:	00008358 	andeq	r8, r0, r8, asr r3
    8340:	00008460 	andeq	r8, r0, r0, ror #8
    8344:	00008460 	andeq	r8, r0, r0, ror #8
    8348:	00008460 	andeq	r8, r0, r0, ror #8
    834c:	00008460 	andeq	r8, r0, r0, ror #8
    8350:	00008460 	andeq	r8, r0, r0, ror #8
    8354:	000083d0 	ldrdeq	r8, [r0], -r0
    8358:	e59d1064 	ldr	r1, [sp, #100]	; 0x64
    835c:	e2511000 	subs	r1, r1, #0, 0
    8360:	13a01001 	movne	r1, #1, 0
    8364:	e0111fa3 	ands	r1, r1, r3, lsr #31
    8368:	0a000016 	beq	83c8 <emit+0xdc>
    836c:	e263c000 	rsb	ip, r3, #0, 0
    8370:	e3a06001 	mov	r6, #1, 0
    8374:	e28d0008 	add	r0, sp, #8, 0
    8378:	e59f3100 	ldr	r3, [pc, #256]	; 8480 <emit+0x194>
    837c:	e0831c93 	umull	r1, r3, r3, ip
    8380:	e1a031a3 	lsr	r3, r3, #3
    8384:	e1a0e003 	mov	lr, r3
    8388:	e0833103 	add	r3, r3, r3, lsl #2
    838c:	e04c3083 	sub	r3, ip, r3, lsl #1
    8390:	e1a01000 	mov	r1, r0
    8394:	e2800001 	add	r0, r0, #1, 0
    8398:	e59f70e4 	ldr	r7, [pc, #228]	; 8484 <emit+0x198>
    839c:	e7d73003 	ldrb	r3, [r7, r3]
    83a0:	e5c13000 	strb	r3, [r1]
    83a4:	e1a0300c 	mov	r3, ip
    83a8:	e1a0c00e 	mov	ip, lr
    83ac:	e3530009 	cmp	r3, #9, 0
    83b0:	8afffff0 	bhi	8378 <emit+0x8c>
    83b4:	e3560000 	cmp	r6, #0, 0
    83b8:	13a0302d 	movne	r3, #45, 0	; 0x2d
    83bc:	15c03000 	strbne	r3, [r0]
    83c0:	12810002 	addne	r0, r1, #2, 0
    83c4:	ea00000f 	b	8408 <emit+0x11c>
    83c8:	e3a06000 	mov	r6, #0, 0
    83cc:	eaffffe8 	b	8374 <emit+0x88>
    83d0:	e28d1008 	add	r1, sp, #8, 0
    83d4:	e20c000f 	and	r0, ip, #15, 0
    83d8:	e59fe0a8 	ldr	lr, [pc, #168]	; 8488 <emit+0x19c>
    83dc:	e7de0000 	ldrb	r0, [lr, r0]
    83e0:	e5c10000 	strb	r0, [r1]
    83e4:	e2811001 	add	r1, r1, #1, 0
    83e8:	e35c000f 	cmp	ip, #15, 0
    83ec:	e1a0c22c 	lsr	ip, ip, #4
    83f0:	8afffff7 	bhi	83d4 <emit+0xe8>
    83f4:	e1a00001 	mov	r0, r1
    83f8:	e3a03078 	mov	r3, #120, 0	; 0x78
    83fc:	e4c03002 	strb	r3, [r0], #2
    8400:	e3a03030 	mov	r3, #48, 0	; 0x30
    8404:	e5c13001 	strb	r3, [r1, #1]
    8408:	e28d1008 	add	r1, sp, #8, 0
    840c:	ebffff9f 	bl	8290 <pad>
    8410:	e1a02000 	mov	r2, r0
    8414:	e28d3008 	add	r3, sp, #8, 0
    8418:	e1a01004 	mov	r1, r4
    841c:	e1a00005 	mov	r0, r5
    8420:	ebffffa3 	bl	82b4 <reverse>
    8424:	e28dd04c 	add	sp, sp, #76, 0	; 0x4c
    8428:	e8bd80f0 	pop	{r4, r5, r6, r7, pc}
    842c:	e5cd3008 	strb	r3, [sp, #8]
    8430:	e28d0009 	add	r0, sp, #9, 0
    8434:	eafffff3 	b	8408 <emit+0x11c>
    8438:	e28d0008 	add	r0, sp, #8, 0
    843c:	e20c1001 	and	r1, ip, #1, 0
    8440:	e59fe044 	ldr	lr, [pc, #68]	; 848c <emit+0x1a0>
    8444:	e7de1001 	ldrb	r1, [lr, r1]
    8448:	e5c01000 	strb	r1, [r0]
    844c:	e2800001 	add	r0, r0, #1, 0
    8450:	e35c0001 	cmp	ip, #1, 0
    8454:	e1a0c0ac 	lsr	ip, ip, #1
    8458:	8afffff7 	bhi	843c <emit+0x150>
    845c:	eaffffe9 	b	8408 <emit+0x11c>
    8460:	e59f3028 	ldr	r3, [pc, #40]	; 8490 <emit+0x1a4>
    8464:	e58d3000 	str	r3, [sp]
    8468:	e3a03079 	mov	r3, #121, 0	; 0x79
    846c:	e59f2020 	ldr	r2, [pc, #32]	; 8494 <emit+0x1a8>
    8470:	e59f1020 	ldr	r1, [pc, #32]	; 8498 <emit+0x1ac>
    8474:	e59f0020 	ldr	r0, [pc, #32]	; 849c <emit+0x1b0>
    8478:	ebffff5c 	bl	81f0 <printk>
    847c:	eb000146 	bl	899c <clean_reboot>
    8480:	cccccccd 	stclgt	12, cr12, [ip], {205}	; 0xcd
    8484:	00009134 	andeq	r9, r0, r4, lsr r1
    8488:	00009140 	andeq	r9, r0, r0, asr #2
    848c:	00009154 	andeq	r9, r0, r4, asr r1
    8490:	00009130 	andeq	r9, r0, r0, lsr r1
    8494:	00009250 	andeq	r9, r0, r0, asr r2
    8498:	00009108 	andeq	r9, r0, r8, lsl #2
    849c:	0000911c 	andeq	r9, r0, ip, lsl r1

000084a0 <rpi_set_output>:
    84a0:	e3500000 	cmp	r0, #0, 0
    84a4:	0a000006 	beq	84c4 <rpi_set_output+0x24>
    84a8:	e59f303c 	ldr	r3, [pc, #60]	; 84ec <rpi_set_output+0x4c>
    84ac:	e5830000 	str	r0, [r3]
    84b0:	e3510000 	cmp	r1, #0, 0
    84b4:	012fff1e 	bxeq	lr
    84b8:	e59f3030 	ldr	r3, [pc, #48]	; 84f0 <rpi_set_output+0x50>
    84bc:	e5831000 	str	r1, [r3]
    84c0:	e12fff1e 	bx	lr
    84c4:	e52de004 	push	{lr}		; (str lr, [sp, #-4]!)
    84c8:	e24dd00c 	sub	sp, sp, #12, 0
    84cc:	e59f3020 	ldr	r3, [pc, #32]	; 84f4 <rpi_set_output+0x54>
    84d0:	e58d3000 	str	r3, [sp]
    84d4:	e3a03020 	mov	r3, #32, 0
    84d8:	e59f2018 	ldr	r2, [pc, #24]	; 84f8 <rpi_set_output+0x58>
    84dc:	e59f1018 	ldr	r1, [pc, #24]	; 84fc <rpi_set_output+0x5c>
    84e0:	e59f0018 	ldr	r0, [pc, #24]	; 8500 <rpi_set_output+0x60>
    84e4:	ebffff41 	bl	81f0 <printk>
    84e8:	eb00012b 	bl	899c <clean_reboot>
    84ec:	0000930c 	andeq	r9, r0, ip, lsl #6
    84f0:	00009308 	andeq	r9, r0, r8, lsl #6
    84f4:	00009158 	andeq	r9, r0, r8, asr r1
    84f8:	00009258 	andeq	r9, r0, r8, asr r2
    84fc:	00009108 	andeq	r9, r0, r8, lsl #2
    8500:	0000911c 	andeq	r9, r0, ip, lsl r1

00008504 <va_printk>:
    8504:	e92d4ff0 	push	{r4, r5, r6, r7, r8, r9, sl, fp, lr}
    8508:	e24ddf45 	sub	sp, sp, #276	; 0x114
    850c:	e1a09000 	mov	r9, r0
    8510:	e58d2008 	str	r2, [sp, #8]
    8514:	e58d300c 	str	r3, [sp, #12]
    8518:	e2411001 	sub	r1, r1, #1, 0
    851c:	e0808001 	add	r8, r0, r1
    8520:	e3a03000 	mov	r3, #0, 0
    8524:	e5c03000 	strb	r3, [r0]
    8528:	e1a04000 	mov	r4, r0
    852c:	e1a06002 	mov	r6, r2
    8530:	ea000001 	b	853c <va_printk+0x38>
    8534:	e2866001 	add	r6, r6, #1, 0
    8538:	e4c43001 	strb	r3, [r4], #1
    853c:	e5d63000 	ldrb	r3, [r6]
    8540:	e3530000 	cmp	r3, #0, 0
    8544:	0a000102 	beq	8954 <va_printk+0x450>
    8548:	e1540008 	cmp	r4, r8
    854c:	2a000100 	bcs	8954 <va_printk+0x450>
    8550:	e3530025 	cmp	r3, #37, 0	; 0x25
    8554:	1afffff6 	bne	8534 <va_printk+0x30>
    8558:	e5d62001 	ldrb	r2, [r6, #1]
    855c:	e3520025 	cmp	r2, #37, 0	; 0x25
    8560:	04c43001 	strbeq	r3, [r4], #1
    8564:	02866002 	addeq	r6, r6, #2, 0
    8568:	0afffff3 	beq	853c <va_printk+0x38>
    856c:	e2866001 	add	r6, r6, #1, 0
    8570:	e3a05000 	mov	r5, #0, 0
    8574:	e5d67000 	ldrb	r7, [r6]
    8578:	e1a0a007 	mov	sl, r7
    857c:	e1a00007 	mov	r0, r7
    8580:	ebffff3d 	bl	827c <isdigit>
    8584:	e3500000 	cmp	r0, #0, 0
    8588:	0a000004 	beq	85a0 <va_printk+0x9c>
    858c:	e0855105 	add	r5, r5, r5, lsl #2
    8590:	e0875085 	add	r5, r7, r5, lsl #1
    8594:	e2455030 	sub	r5, r5, #48, 0	; 0x30
    8598:	e2866001 	add	r6, r6, #1, 0
    859c:	eafffff4 	b	8574 <va_printk+0x70>
    85a0:	e355001f 	cmp	r5, #31, 0
    85a4:	8a00001a 	bhi	8614 <va_printk+0x110>
    85a8:	e2477062 	sub	r7, r7, #98, 0	; 0x62
    85ac:	e3570016 	cmp	r7, #22, 0
    85b0:	979ff107 	ldrls	pc, [pc, r7, lsl #2]
    85b4:	ea0000ce 	b	88f4 <va_printk+0x3f0>
    85b8:	00008878 	andeq	r8, r0, r8, ror r8
    85bc:	000088c0 	andeq	r8, r0, r0, asr #17
    85c0:	000087d8 	ldrdeq	r8, [r0], -r8	; <UNPREDICTABLE>
    85c4:	000088f4 	strdeq	r8, [r0], -r4
    85c8:	000087c0 	andeq	r8, r0, r0, asr #15
    85cc:	000088f4 	strdeq	r8, [r0], -r4
    85d0:	000088f4 	strdeq	r8, [r0], -r4
    85d4:	000088f4 	strdeq	r8, [r0], -r4
    85d8:	000088f4 	strdeq	r8, [r0], -r4
    85dc:	000088f4 	strdeq	r8, [r0], -r4
    85e0:	00008634 	andeq	r8, r0, r4, lsr r6
    85e4:	000088f4 	strdeq	r8, [r0], -r4
    85e8:	000088f4 	strdeq	r8, [r0], -r4
    85ec:	000088f4 	strdeq	r8, [r0], -r4
    85f0:	00008844 	andeq	r8, r0, r4, asr #16
    85f4:	000088f4 	strdeq	r8, [r0], -r4
    85f8:	000088f4 	strdeq	r8, [r0], -r4
    85fc:	000088ac 	andeq	r8, r0, ip, lsr #17
    8600:	000088f4 	strdeq	r8, [r0], -r4
    8604:	00008810 	andeq	r8, r0, r0, lsl r8
    8608:	000088f4 	strdeq	r8, [r0], -r4
    860c:	000088f4 	strdeq	r8, [r0], -r4
    8610:	00008844 	andeq	r8, r0, r4, asr #16
    8614:	e59f334c 	ldr	r3, [pc, #844]	; 8968 <va_printk+0x464>
    8618:	e58d3000 	str	r3, [sp]
    861c:	e3a03098 	mov	r3, #152, 0	; 0x98
    8620:	e59f2344 	ldr	r2, [pc, #836]	; 896c <va_printk+0x468>
    8624:	e59f1344 	ldr	r1, [pc, #836]	; 8970 <va_printk+0x46c>
    8628:	e59f0344 	ldr	r0, [pc, #836]	; 8974 <va_printk+0x470>
    862c:	ebfffeef 	bl	81f0 <printk>
    8630:	eb0000d9 	bl	899c <clean_reboot>
    8634:	e3a02003 	mov	r2, #3, 0
    8638:	e59f1338 	ldr	r1, [pc, #824]	; 8978 <va_printk+0x474>
    863c:	e1a00006 	mov	r0, r6
    8640:	eb000282 	bl	9050 <strncmp>
    8644:	e3500000 	cmp	r0, #0, 0
    8648:	0a000005 	beq	8664 <va_printk+0x160>
    864c:	e3a02003 	mov	r2, #3, 0
    8650:	e59f1324 	ldr	r1, [pc, #804]	; 897c <va_printk+0x478>
    8654:	e1a00006 	mov	r0, r6
    8658:	eb00027c 	bl	9050 <strncmp>
    865c:	e3500000 	cmp	r0, #0, 0
    8660:	1a00002d 	bne	871c <va_printk+0x218>
    8664:	e286b002 	add	fp, r6, #2, 0
    8668:	e59d300c 	ldr	r3, [sp, #12]
    866c:	e2833007 	add	r3, r3, #7, 0
    8670:	e3c33007 	bic	r3, r3, #7, 0
    8674:	e2832008 	add	r2, r3, #8, 0
    8678:	e58d200c 	str	r2, [sp, #12]
    867c:	e593a000 	ldr	sl, [r3]
    8680:	e5937004 	ldr	r7, [r3, #4]
    8684:	e3a02003 	mov	r2, #3, 0
    8688:	e59f12e8 	ldr	r1, [pc, #744]	; 8978 <va_printk+0x474>
    868c:	e1a00006 	mov	r0, r6
    8690:	eb00026e 	bl	9050 <strncmp>
    8694:	e3500000 	cmp	r0, #0, 0
    8698:	0a000027 	beq	873c <va_printk+0x238>
    869c:	e3a02003 	mov	r2, #3, 0
    86a0:	e59f12d4 	ldr	r1, [pc, #724]	; 897c <va_printk+0x478>
    86a4:	e1a00006 	mov	r0, r6
    86a8:	eb000268 	bl	9050 <strncmp>
    86ac:	e3500000 	cmp	r0, #0, 0
    86b0:	1a00003b 	bne	87a4 <va_printk+0x2a0>
    86b4:	e3a06000 	mov	r6, #0, 0
    86b8:	e58d6004 	str	r6, [sp, #4]
    86bc:	e58d5000 	str	r5, [sp]
    86c0:	e1a03007 	mov	r3, r7
    86c4:	e3a02080 	mov	r2, #128, 0	; 0x80
    86c8:	e28d1010 	add	r1, sp, #16, 0
    86cc:	e3a0000a 	mov	r0, #10, 0
    86d0:	ebffff05 	bl	82ec <emit>
    86d4:	e1a07000 	mov	r7, r0
    86d8:	e58d6004 	str	r6, [sp, #4]
    86dc:	e58d5000 	str	r5, [sp]
    86e0:	e1a0300a 	mov	r3, sl
    86e4:	e3a02080 	mov	r2, #128, 0	; 0x80
    86e8:	e28d1090 	add	r1, sp, #144, 0	; 0x90
    86ec:	e3a0000a 	mov	r0, #10, 0
    86f0:	ebfffefd 	bl	82ec <emit>
    86f4:	e59f1284 	ldr	r1, [pc, #644]	; 8980 <va_printk+0x47c>
    86f8:	e28d0010 	add	r0, sp, #16, 0
    86fc:	eb000240 	bl	9004 <strcmp>
    8700:	e1500006 	cmp	r0, r6
    8704:	1a000021 	bne	8790 <va_printk+0x28c>
    8708:	e28d1090 	add	r1, sp, #144, 0	; 0x90
    870c:	e28d0010 	add	r0, sp, #16, 0
    8710:	eb000246 	bl	9030 <strcpy>
    8714:	e1a0600b 	mov	r6, fp
    8718:	ea00003a 	b	8808 <va_printk+0x304>
    871c:	e59f3260 	ldr	r3, [pc, #608]	; 8984 <va_printk+0x480>
    8720:	e58d3000 	str	r3, [sp]
    8724:	e3a0309f 	mov	r3, #159, 0	; 0x9f
    8728:	e59f223c 	ldr	r2, [pc, #572]	; 896c <va_printk+0x468>
    872c:	e59f123c 	ldr	r1, [pc, #572]	; 8970 <va_printk+0x46c>
    8730:	e59f023c 	ldr	r0, [pc, #572]	; 8974 <va_printk+0x470>
    8734:	ebfffead 	bl	81f0 <printk>
    8738:	eb000097 	bl	899c <clean_reboot>
    873c:	e3a06000 	mov	r6, #0, 0
    8740:	e58d6004 	str	r6, [sp, #4]
    8744:	e58d5000 	str	r5, [sp]
    8748:	e1a03007 	mov	r3, r7
    874c:	e3a02080 	mov	r2, #128, 0	; 0x80
    8750:	e28d1010 	add	r1, sp, #16, 0
    8754:	e3a00010 	mov	r0, #16, 0
    8758:	ebfffee3 	bl	82ec <emit>
    875c:	e1a07000 	mov	r7, r0
    8760:	e58d6004 	str	r6, [sp, #4]
    8764:	e58d5000 	str	r5, [sp]
    8768:	e1a0300a 	mov	r3, sl
    876c:	e3a02080 	mov	r2, #128, 0	; 0x80
    8770:	e28d1090 	add	r1, sp, #144, 0	; 0x90
    8774:	e3a00010 	mov	r0, #16, 0
    8778:	ebfffedb 	bl	82ec <emit>
    877c:	e28d1092 	add	r1, sp, #146, 0	; 0x92
    8780:	e28d0010 	add	r0, sp, #16, 0
    8784:	eb000211 	bl	8fd0 <strcat>
    8788:	e1a0600b 	mov	r6, fp
    878c:	ea00001d 	b	8808 <va_printk+0x304>
    8790:	e28d1090 	add	r1, sp, #144, 0	; 0x90
    8794:	e28d0010 	add	r0, sp, #16, 0
    8798:	eb00020c 	bl	8fd0 <strcat>
    879c:	e1a0600b 	mov	r6, fp
    87a0:	ea000018 	b	8808 <va_printk+0x304>
    87a4:	e58d6000 	str	r6, [sp]
    87a8:	e3a030b6 	mov	r3, #182, 0	; 0xb6
    87ac:	e59f21b8 	ldr	r2, [pc, #440]	; 896c <va_printk+0x468>
    87b0:	e59f11b8 	ldr	r1, [pc, #440]	; 8970 <va_printk+0x46c>
    87b4:	e59f01cc 	ldr	r0, [pc, #460]	; 8988 <va_printk+0x484>
    87b8:	ebfffe8c 	bl	81f0 <printk>
    87bc:	eb000076 	bl	899c <clean_reboot>
    87c0:	e3a030be 	mov	r3, #190, 0	; 0xbe
    87c4:	e59f21a0 	ldr	r2, [pc, #416]	; 896c <va_printk+0x468>
    87c8:	e59f11a0 	ldr	r1, [pc, #416]	; 8970 <va_printk+0x46c>
    87cc:	e59f01b8 	ldr	r0, [pc, #440]	; 898c <va_printk+0x488>
    87d0:	ebfffe86 	bl	81f0 <printk>
    87d4:	eb000070 	bl	899c <clean_reboot>
    87d8:	e59d300c 	ldr	r3, [sp, #12]
    87dc:	e2832004 	add	r2, r3, #4, 0
    87e0:	e58d200c 	str	r2, [sp, #12]
    87e4:	e5933000 	ldr	r3, [r3]
    87e8:	e3a02001 	mov	r2, #1, 0
    87ec:	e58d2004 	str	r2, [sp, #4]
    87f0:	e58d5000 	str	r5, [sp]
    87f4:	e3a02080 	mov	r2, #128, 0	; 0x80
    87f8:	e28d1010 	add	r1, sp, #16, 0
    87fc:	e3a0000a 	mov	r0, #10, 0
    8800:	ebfffeb9 	bl	82ec <emit>
    8804:	e1a07000 	mov	r7, r0
    8808:	e2866001 	add	r6, r6, #1, 0
    880c:	ea00004a 	b	893c <va_printk+0x438>
    8810:	e59d300c 	ldr	r3, [sp, #12]
    8814:	e2832004 	add	r2, r3, #4, 0
    8818:	e58d200c 	str	r2, [sp, #12]
    881c:	e5933000 	ldr	r3, [r3]
    8820:	e3a02000 	mov	r2, #0, 0
    8824:	e58d2004 	str	r2, [sp, #4]
    8828:	e58d5000 	str	r5, [sp]
    882c:	e3a02080 	mov	r2, #128, 0	; 0x80
    8830:	e28d1010 	add	r1, sp, #16, 0
    8834:	e3a0000a 	mov	r0, #10, 0
    8838:	ebfffeab 	bl	82ec <emit>
    883c:	e1a07000 	mov	r7, r0
    8840:	eafffff0 	b	8808 <va_printk+0x304>
    8844:	e59d300c 	ldr	r3, [sp, #12]
    8848:	e2832004 	add	r2, r3, #4, 0
    884c:	e58d200c 	str	r2, [sp, #12]
    8850:	e5933000 	ldr	r3, [r3]
    8854:	e3a02000 	mov	r2, #0, 0
    8858:	e58d2004 	str	r2, [sp, #4]
    885c:	e58d5000 	str	r5, [sp]
    8860:	e3a02080 	mov	r2, #128, 0	; 0x80
    8864:	e28d1010 	add	r1, sp, #16, 0
    8868:	e3a00010 	mov	r0, #16, 0
    886c:	ebfffe9e 	bl	82ec <emit>
    8870:	e1a07000 	mov	r7, r0
    8874:	eaffffe3 	b	8808 <va_printk+0x304>
    8878:	e59d300c 	ldr	r3, [sp, #12]
    887c:	e2832004 	add	r2, r3, #4, 0
    8880:	e58d200c 	str	r2, [sp, #12]
    8884:	e5933000 	ldr	r3, [r3]
    8888:	e3a02000 	mov	r2, #0, 0
    888c:	e58d2004 	str	r2, [sp, #4]
    8890:	e58d5000 	str	r5, [sp]
    8894:	e3a02080 	mov	r2, #128, 0	; 0x80
    8898:	e28d1010 	add	r1, sp, #16, 0
    889c:	e3a00002 	mov	r0, #2, 0
    88a0:	ebfffe91 	bl	82ec <emit>
    88a4:	e1a07000 	mov	r7, r0
    88a8:	eaffffd6 	b	8808 <va_printk+0x304>
    88ac:	e59d300c 	ldr	r3, [sp, #12]
    88b0:	e2832004 	add	r2, r3, #4, 0
    88b4:	e58d200c 	str	r2, [sp, #12]
    88b8:	e5937000 	ldr	r7, [r3]
    88bc:	eaffffd1 	b	8808 <va_printk+0x304>
    88c0:	e59d300c 	ldr	r3, [sp, #12]
    88c4:	e2832004 	add	r2, r3, #4, 0
    88c8:	e58d200c 	str	r2, [sp, #12]
    88cc:	e5933000 	ldr	r3, [r3]
    88d0:	e3a02000 	mov	r2, #0, 0
    88d4:	e58d2004 	str	r2, [sp, #4]
    88d8:	e58d5000 	str	r5, [sp]
    88dc:	e3a02080 	mov	r2, #128, 0	; 0x80
    88e0:	e28d1010 	add	r1, sp, #16, 0
    88e4:	e3a00008 	mov	r0, #8, 0
    88e8:	ebfffe7f 	bl	82ec <emit>
    88ec:	e1a07000 	mov	r7, r0
    88f0:	eaffffc4 	b	8808 <va_printk+0x304>
    88f4:	e3a03000 	mov	r3, #0, 0
    88f8:	e5c63001 	strb	r3, [r6, #1]
    88fc:	e1a0200a 	mov	r2, sl
    8900:	e1a0100a 	mov	r1, sl
    8904:	e59f0084 	ldr	r0, [pc, #132]	; 8990 <va_printk+0x48c>
    8908:	ebfffe38 	bl	81f0 <printk>
    890c:	e59f3080 	ldr	r3, [pc, #128]	; 8994 <va_printk+0x490>
    8910:	e5933000 	ldr	r3, [r3]
    8914:	e59d0008 	ldr	r0, [sp, #8]
    8918:	e12fff33 	blx	r3
    891c:	e3a030e2 	mov	r3, #226, 0	; 0xe2
    8920:	e59f2044 	ldr	r2, [pc, #68]	; 896c <va_printk+0x468>
    8924:	e59f1044 	ldr	r1, [pc, #68]	; 8970 <va_printk+0x46c>
    8928:	e59f0068 	ldr	r0, [pc, #104]	; 8998 <va_printk+0x494>
    892c:	ebfffe2f 	bl	81f0 <printk>
    8930:	eb000019 	bl	899c <clean_reboot>
    8934:	e2877001 	add	r7, r7, #1, 0
    8938:	e4c43001 	strb	r3, [r4], #1
    893c:	e1540008 	cmp	r4, r8
    8940:	2afffefd 	bcs	853c <va_printk+0x38>
    8944:	e5d73000 	ldrb	r3, [r7]
    8948:	e3530000 	cmp	r3, #0, 0
    894c:	1afffff8 	bne	8934 <va_printk+0x430>
    8950:	eafffef9 	b	853c <va_printk+0x38>
    8954:	e3a03000 	mov	r3, #0, 0
    8958:	e4c43001 	strb	r3, [r4], #1
    895c:	e0440009 	sub	r0, r4, r9
    8960:	e28ddf45 	add	sp, sp, #276	; 0x114
    8964:	e8bd8ff0 	pop	{r4, r5, r6, r7, r8, r9, sl, fp, pc}
    8968:	00009160 	andeq	r9, r0, r0, ror #2
    896c:	00009268 	andeq	r9, r0, r8, ror #4
    8970:	00009108 	andeq	r9, r0, r8, lsl #2
    8974:	0000911c 	andeq	r9, r0, ip, lsl r1
    8978:	0000916c 	andeq	r9, r0, ip, ror #2
    897c:	00009170 	andeq	r9, r0, r0, ror r1
    8980:	00009130 	andeq	r9, r0, r0, lsr r1
    8984:	00009174 	andeq	r9, r0, r4, ror r1
    8988:	000091b0 			; <UNDEFINED> instruction: 0x000091b0
    898c:	000091d8 	ldrdeq	r9, [r0], -r8
    8990:	00009200 	andeq	r9, r0, r0, lsl #4
    8994:	00009308 	andeq	r9, r0, r8, lsl #6
    8998:	00009230 	andeq	r9, r0, r0, lsr r2

0000899c <clean_reboot>:
    899c:	e92d4010 	push	{r4, lr}
    89a0:	e59f3018 	ldr	r3, [pc, #24]	; 89c0 <clean_reboot+0x24>
    89a4:	e5933000 	ldr	r3, [r3]
    89a8:	e59f0014 	ldr	r0, [pc, #20]	; 89c4 <clean_reboot+0x28>
    89ac:	e12fff33 	blx	r3
    89b0:	eb0000b5 	bl	8c8c <uart_flush_tx>
    89b4:	e3a0000a 	mov	r0, #10, 0
    89b8:	eb000041 	bl	8ac4 <delay_ms>
    89bc:	eb000017 	bl	8a20 <rpi_reboot>
    89c0:	00009308 	andeq	r9, r0, r8, lsl #6
    89c4:	00009274 	andeq	r9, r0, r4, ror r2

000089c8 <_cstart>:
    89c8:	e92d4010 	push	{r4, lr}
    89cc:	e59f3018 	ldr	r3, [pc, #24]	; 89ec <_cstart+0x24>
    89d0:	e59f2018 	ldr	r2, [pc, #24]	; 89f0 <_cstart+0x28>
    89d4:	e1530002 	cmp	r3, r2
    89d8:	33a02000 	movcc	r2, #0, 0
    89dc:	34832004 	strcc	r2, [r3], #4
    89e0:	3afffffa 	bcc	89d0 <_cstart+0x8>
    89e4:	ebfffd8d 	bl	8020 <notmain>
    89e8:	ebffffeb 	bl	899c <clean_reboot>
    89ec:	00009310 	andeq	r9, r0, r0, lsl r3
    89f0:	00009710 	andeq	r9, r0, r0, lsl r7

000089f4 <at_user_level>:
    89f4:	e10f0000 	mrs	r0, CPSR
    89f8:	e200001f 	and	r0, r0, #31, 0
    89fc:	e3500010 	cmp	r0, #16, 0
    8a00:	13a00000 	movne	r0, #0, 0
    8a04:	03a00001 	moveq	r0, #1, 0
    8a08:	e12fff1e 	bx	lr

00008a0c <set_user_level>:
    8a0c:	e10f3000 	mrs	r3, CPSR
    8a10:	e3c3301f 	bic	r3, r3, #31, 0
    8a14:	e3833010 	orr	r3, r3, #16, 0
    8a18:	e129f003 	msr	CPSR_fc, r3
    8a1c:	e12fff1e 	bx	lr

00008a20 <rpi_reboot>:
    8a20:	e92d4010 	push	{r4, lr}
    8a24:	ebfffff2 	bl	89f4 <at_user_level>
    8a28:	e3500000 	cmp	r0, #0, 0
    8a2c:	1a000009 	bne	8a58 <rpi_reboot+0x38>
    8a30:	eb000095 	bl	8c8c <uart_flush_tx>
    8a34:	e3a0000a 	mov	r0, #10, 0
    8a38:	eb000021 	bl	8ac4 <delay_ms>
    8a3c:	e59f101c 	ldr	r1, [pc, #28]	; 8a60 <rpi_reboot+0x40>
    8a40:	e59f001c 	ldr	r0, [pc, #28]	; 8a64 <rpi_reboot+0x44>
    8a44:	ebfffd71 	bl	8010 <PUT32>
    8a48:	e59f1018 	ldr	r1, [pc, #24]	; 8a68 <rpi_reboot+0x48>
    8a4c:	e59f0018 	ldr	r0, [pc, #24]	; 8a6c <rpi_reboot+0x4c>
    8a50:	ebfffd6e 	bl	8010 <PUT32>
    8a54:	eafffffe 	b	8a54 <rpi_reboot+0x34>
    8a58:	ebffffeb 	bl	8a0c <set_user_level>
    8a5c:	eafffff3 	b	8a30 <rpi_reboot+0x10>
    8a60:	5a000001 	bpl	8a6c <rpi_reboot+0x4c>
    8a64:	20100024 	andscs	r0, r0, r4, lsr #32
    8a68:	5a000020 	bpl	8af0 <delay_sec+0x14>
    8a6c:	2010001c 	andscs	r0, r0, ip, lsl r0

00008a70 <timer_get_usec_raw>:
    8a70:	e92d4010 	push	{r4, lr}
    8a74:	e59f0004 	ldr	r0, [pc, #4]	; 8a80 <timer_get_usec_raw+0x10>
    8a78:	ebfffd66 	bl	8018 <GET32>
    8a7c:	e8bd8010 	pop	{r4, pc}
    8a80:	20003004 	andcs	r3, r0, r4

00008a84 <timer_get_usec>:
    8a84:	e92d4010 	push	{r4, lr}
    8a88:	eb00017b 	bl	907c <dev_barrier>
    8a8c:	ebfffff7 	bl	8a70 <timer_get_usec_raw>
    8a90:	e1a04000 	mov	r4, r0
    8a94:	eb000178 	bl	907c <dev_barrier>
    8a98:	e1a00004 	mov	r0, r4
    8a9c:	e8bd8010 	pop	{r4, pc}

00008aa0 <delay_us>:
    8aa0:	e92d4070 	push	{r4, r5, r6, lr}
    8aa4:	e1a05000 	mov	r5, r0
    8aa8:	ebfffff5 	bl	8a84 <timer_get_usec>
    8aac:	e1a04000 	mov	r4, r0
    8ab0:	ebfffff3 	bl	8a84 <timer_get_usec>
    8ab4:	e0400004 	sub	r0, r0, r4
    8ab8:	e1500005 	cmp	r0, r5
    8abc:	3afffffb 	bcc	8ab0 <delay_us+0x10>
    8ac0:	e8bd8070 	pop	{r4, r5, r6, pc}

00008ac4 <delay_ms>:
    8ac4:	e92d4010 	push	{r4, lr}
    8ac8:	e0603280 	rsb	r3, r0, r0, lsl #5
    8acc:	e0800103 	add	r0, r0, r3, lsl #2
    8ad0:	e1a00180 	lsl	r0, r0, #3
    8ad4:	ebfffff1 	bl	8aa0 <delay_us>
    8ad8:	e8bd8010 	pop	{r4, pc}

00008adc <delay_sec>:
    8adc:	e92d4010 	push	{r4, lr}
    8ae0:	e0603280 	rsb	r3, r0, r0, lsl #5
    8ae4:	e0800103 	add	r0, r0, r3, lsl #2
    8ae8:	e1a00180 	lsl	r0, r0, #3
    8aec:	ebfffff4 	bl	8ac4 <delay_ms>
    8af0:	e8bd8010 	pop	{r4, pc}

00008af4 <or_in32>:
    8af4:	e92d4070 	push	{r4, r5, r6, lr}
    8af8:	e1a04000 	mov	r4, r0
    8afc:	e1a05001 	mov	r5, r1
    8b00:	ebfffd44 	bl	8018 <GET32>
    8b04:	e1801005 	orr	r1, r0, r5
    8b08:	e1a00004 	mov	r0, r4
    8b0c:	ebfffd3f 	bl	8010 <PUT32>
    8b10:	e8bd8070 	pop	{r4, r5, r6, pc}

00008b14 <uart_init>:
    8b14:	e92d4010 	push	{r4, lr}
    8b18:	e3a01002 	mov	r1, #2, 0
    8b1c:	e3a0000e 	mov	r0, #14, 0
    8b20:	eb000103 	bl	8f34 <gpio_set_function>
    8b24:	e3a01002 	mov	r1, #2, 0
    8b28:	e3a0000f 	mov	r0, #15, 0
    8b2c:	eb000100 	bl	8f34 <gpio_set_function>
    8b30:	eb000151 	bl	907c <dev_barrier>
    8b34:	e3a01001 	mov	r1, #1, 0
    8b38:	e59f0064 	ldr	r0, [pc, #100]	; 8ba4 <uart_init+0x90>
    8b3c:	ebffffec 	bl	8af4 <or_in32>
    8b40:	eb00014d 	bl	907c <dev_barrier>
    8b44:	e59f405c 	ldr	r4, [pc, #92]	; 8ba8 <uart_init+0x94>
    8b48:	e3a01000 	mov	r1, #0, 0
    8b4c:	e1a00004 	mov	r0, r4
    8b50:	ebfffd2e 	bl	8010 <PUT32>
    8b54:	e3a01000 	mov	r1, #0, 0
    8b58:	e59f004c 	ldr	r0, [pc, #76]	; 8bac <uart_init+0x98>
    8b5c:	ebfffd2b 	bl	8010 <PUT32>
    8b60:	e3a01003 	mov	r1, #3, 0
    8b64:	e59f0044 	ldr	r0, [pc, #68]	; 8bb0 <uart_init+0x9c>
    8b68:	ebfffd28 	bl	8010 <PUT32>
    8b6c:	e3a01000 	mov	r1, #0, 0
    8b70:	e59f003c 	ldr	r0, [pc, #60]	; 8bb4 <uart_init+0xa0>
    8b74:	ebfffd25 	bl	8010 <PUT32>
    8b78:	e3a010c7 	mov	r1, #199, 0	; 0xc7
    8b7c:	e59f0034 	ldr	r0, [pc, #52]	; 8bb8 <uart_init+0xa4>
    8b80:	ebfffd22 	bl	8010 <PUT32>
    8b84:	e59f1030 	ldr	r1, [pc, #48]	; 8bbc <uart_init+0xa8>
    8b88:	e59f0030 	ldr	r0, [pc, #48]	; 8bc0 <uart_init+0xac>
    8b8c:	ebfffd1f 	bl	8010 <PUT32>
    8b90:	e3a01003 	mov	r1, #3, 0
    8b94:	e1a00004 	mov	r0, r4
    8b98:	ebfffd1c 	bl	8010 <PUT32>
    8b9c:	eb000136 	bl	907c <dev_barrier>
    8ba0:	e8bd8010 	pop	{r4, pc}
    8ba4:	20215004 	eorcs	r5, r1, r4
    8ba8:	20215060 	eorcs	r5, r1, r0, rrx
    8bac:	20215044 	eorcs	r5, r1, r4, asr #32
    8bb0:	2021504c 	eorcs	r5, r1, ip, asr #32
    8bb4:	20215050 	eorcs	r5, r1, r0, asr r0
    8bb8:	20215048 	eorcs	r5, r1, r8, asr #32
    8bbc:	0000010e 	andeq	r0, r0, lr, lsl #2
    8bc0:	20215068 	eorcs	r5, r1, r8, rrx

00008bc4 <uart_can_getc>:
    8bc4:	e92d4010 	push	{r4, lr}
    8bc8:	e59f0008 	ldr	r0, [pc, #8]	; 8bd8 <uart_can_getc+0x14>
    8bcc:	ebfffd11 	bl	8018 <GET32>
    8bd0:	e2000001 	and	r0, r0, #1, 0
    8bd4:	e8bd8010 	pop	{r4, pc}
    8bd8:	20215064 	eorcs	r5, r1, r4, rrx

00008bdc <uart_can_putc>:
    8bdc:	e92d4010 	push	{r4, lr}
    8be0:	e59f0010 	ldr	r0, [pc, #16]	; 8bf8 <uart_can_putc+0x1c>
    8be4:	ebfffd0b 	bl	8018 <GET32>
    8be8:	e3100002 	tst	r0, #2, 0
    8bec:	13a00001 	movne	r0, #1, 0
    8bf0:	03a00000 	moveq	r0, #0, 0
    8bf4:	e8bd8010 	pop	{r4, pc}
    8bf8:	20215064 	eorcs	r5, r1, r4, rrx

00008bfc <uart_getc>:
    8bfc:	e92d4010 	push	{r4, lr}
    8c00:	eb00011d 	bl	907c <dev_barrier>
    8c04:	ebffffee 	bl	8bc4 <uart_can_getc>
    8c08:	e3500000 	cmp	r0, #0, 0
    8c0c:	0afffffc 	beq	8c04 <uart_getc+0x8>
    8c10:	e59f0010 	ldr	r0, [pc, #16]	; 8c28 <uart_getc+0x2c>
    8c14:	ebfffcff 	bl	8018 <GET32>
    8c18:	e6ef4070 	uxtb	r4, r0
    8c1c:	eb000116 	bl	907c <dev_barrier>
    8c20:	e1a00004 	mov	r0, r4
    8c24:	e8bd8010 	pop	{r4, pc}
    8c28:	20215040 	eorcs	r5, r1, r0, asr #32

00008c2c <uart_putc>:
    8c2c:	e92d4010 	push	{r4, lr}
    8c30:	e1a04000 	mov	r4, r0
    8c34:	eb000110 	bl	907c <dev_barrier>
    8c38:	ebffffe7 	bl	8bdc <uart_can_putc>
    8c3c:	e3500000 	cmp	r0, #0, 0
    8c40:	0afffffc 	beq	8c38 <uart_putc+0xc>
    8c44:	e6ef1074 	uxtb	r1, r4
    8c48:	e59f0008 	ldr	r0, [pc, #8]	; 8c58 <uart_putc+0x2c>
    8c4c:	ebfffcef 	bl	8010 <PUT32>
    8c50:	eb000109 	bl	907c <dev_barrier>
    8c54:	e8bd8010 	pop	{r4, pc}
    8c58:	20215040 	eorcs	r5, r1, r0, asr #32

00008c5c <uart_has_data>:
    8c5c:	e92d4010 	push	{r4, lr}
    8c60:	eb000105 	bl	907c <dev_barrier>
    8c64:	ebffffd6 	bl	8bc4 <uart_can_getc>
    8c68:	e8bd8010 	pop	{r4, pc}

00008c6c <uart_tx_is_empty>:
    8c6c:	e92d4010 	push	{r4, lr}
    8c70:	eb000101 	bl	907c <dev_barrier>
    8c74:	e59f000c 	ldr	r0, [pc, #12]	; 8c88 <uart_tx_is_empty+0x1c>
    8c78:	ebfffce6 	bl	8018 <GET32>
    8c7c:	e1a004a0 	lsr	r0, r0, #9
    8c80:	e2000001 	and	r0, r0, #1, 0
    8c84:	e8bd8010 	pop	{r4, pc}
    8c88:	20215064 	eorcs	r5, r1, r4, rrx

00008c8c <uart_flush_tx>:
    8c8c:	e92d4010 	push	{r4, lr}
    8c90:	ebfffff5 	bl	8c6c <uart_tx_is_empty>
    8c94:	e3500000 	cmp	r0, #0, 0
    8c98:	0afffffc 	beq	8c90 <uart_flush_tx+0x4>
    8c9c:	e8bd8010 	pop	{r4, pc}

00008ca0 <gpio_set_pud>:
    8ca0:	e92d4070 	push	{r4, r5, r6, lr}
    8ca4:	e24dd008 	sub	sp, sp, #8, 0
    8ca8:	e350001f 	cmp	r0, #31, 0
    8cac:	8a000007 	bhi	8cd0 <gpio_set_pud+0x30>
    8cb0:	e1a05000 	mov	r5, r0
    8cb4:	e1a04001 	mov	r4, r1
    8cb8:	e3510003 	cmp	r1, #3, 0
    8cbc:	8a00000c 	bhi	8cf4 <gpio_set_pud+0x54>
    8cc0:	e3510002 	cmp	r1, #2, 0
    8cc4:	9a000013 	bls	8d18 <gpio_set_pud+0x78>
    8cc8:	e28dd008 	add	sp, sp, #8, 0
    8ccc:	e8bd8070 	pop	{r4, r5, r6, pc}
    8cd0:	eb0000b4 	bl	8fa8 <rpi_reset_putc>
    8cd4:	e59f30a4 	ldr	r3, [pc, #164]	; 8d80 <gpio_set_pud+0xe0>
    8cd8:	e58d3000 	str	r3, [sp]
    8cdc:	e3a03012 	mov	r3, #18, 0
    8ce0:	e59f209c 	ldr	r2, [pc, #156]	; 8d84 <gpio_set_pud+0xe4>
    8ce4:	e59f109c 	ldr	r1, [pc, #156]	; 8d88 <gpio_set_pud+0xe8>
    8ce8:	e59f009c 	ldr	r0, [pc, #156]	; 8d8c <gpio_set_pud+0xec>
    8cec:	ebfffd3f 	bl	81f0 <printk>
    8cf0:	ebffff29 	bl	899c <clean_reboot>
    8cf4:	eb0000ab 	bl	8fa8 <rpi_reset_putc>
    8cf8:	e59f3090 	ldr	r3, [pc, #144]	; 8d90 <gpio_set_pud+0xf0>
    8cfc:	e58d3000 	str	r3, [sp]
    8d00:	e3a03013 	mov	r3, #19, 0
    8d04:	e59f2078 	ldr	r2, [pc, #120]	; 8d84 <gpio_set_pud+0xe4>
    8d08:	e59f1078 	ldr	r1, [pc, #120]	; 8d88 <gpio_set_pud+0xe8>
    8d0c:	e59f0080 	ldr	r0, [pc, #128]	; 8d94 <gpio_set_pud+0xf4>
    8d10:	ebfffd36 	bl	81f0 <printk>
    8d14:	ebffff20 	bl	899c <clean_reboot>
    8d18:	eb0000d7 	bl	907c <dev_barrier>
    8d1c:	e59f6074 	ldr	r6, [pc, #116]	; 8d98 <gpio_set_pud+0xf8>
    8d20:	e1a01004 	mov	r1, r4
    8d24:	e1a00006 	mov	r0, r6
    8d28:	ebfffcb8 	bl	8010 <PUT32>
    8d2c:	e3a00096 	mov	r0, #150, 0	; 0x96
    8d30:	ebffff5a 	bl	8aa0 <delay_us>
    8d34:	e59f4060 	ldr	r4, [pc, #96]	; 8d9c <gpio_set_pud+0xfc>
    8d38:	e3a01001 	mov	r1, #1, 0
    8d3c:	e1a01511 	lsl	r1, r1, r5
    8d40:	e1a00004 	mov	r0, r4
    8d44:	ebfffcb1 	bl	8010 <PUT32>
    8d48:	e3a00096 	mov	r0, #150, 0	; 0x96
    8d4c:	ebffff53 	bl	8aa0 <delay_us>
    8d50:	e3a01000 	mov	r1, #0, 0
    8d54:	e1a00006 	mov	r0, r6
    8d58:	ebfffcac 	bl	8010 <PUT32>
    8d5c:	e3a00096 	mov	r0, #150, 0	; 0x96
    8d60:	ebffff4e 	bl	8aa0 <delay_us>
    8d64:	e3a01000 	mov	r1, #0, 0
    8d68:	e1a00004 	mov	r0, r4
    8d6c:	ebfffca7 	bl	8010 <PUT32>
    8d70:	e3a00096 	mov	r0, #150, 0	; 0x96
    8d74:	ebffff49 	bl	8aa0 <delay_us>
    8d78:	eb0000bf 	bl	907c <dev_barrier>
    8d7c:	eaffffd1 	b	8cc8 <gpio_set_pud+0x28>
    8d80:	000092b8 			; <UNDEFINED> instruction: 0x000092b8
    8d84:	000092f8 	strdeq	r9, [r0], -r8
    8d88:	00009280 	andeq	r9, r0, r0, lsl #5
    8d8c:	0000928c 	andeq	r9, r0, ip, lsl #5
    8d90:	000092f0 	strdeq	r9, [r0], -r0
    8d94:	000092c4 	andeq	r9, r0, r4, asr #5
    8d98:	20200094 	mlacs	r0, r4, r0, r0
    8d9c:	20200098 	mlacs	r0, r8, r0, r0

00008da0 <gpio_set_pullup>:
    8da0:	e92d4010 	push	{r4, lr}
    8da4:	e3a01002 	mov	r1, #2, 0
    8da8:	ebffffbc 	bl	8ca0 <gpio_set_pud>
    8dac:	e8bd8010 	pop	{r4, pc}

00008db0 <gpio_set_pulldown>:
    8db0:	e92d4010 	push	{r4, lr}
    8db4:	e3a01001 	mov	r1, #1, 0
    8db8:	ebffffb8 	bl	8ca0 <gpio_set_pud>
    8dbc:	e8bd8010 	pop	{r4, pc}

00008dc0 <gpio_pud_off>:
    8dc0:	e92d4010 	push	{r4, lr}
    8dc4:	e3a01000 	mov	r1, #0, 0
    8dc8:	ebffffb4 	bl	8ca0 <gpio_set_pud>
    8dcc:	e8bd8010 	pop	{r4, pc}

00008dd0 <gpio_get_pud>:
    8dd0:	e92d4010 	push	{r4, lr}
    8dd4:	e59f0008 	ldr	r0, [pc, #8]	; 8de4 <gpio_get_pud+0x14>
    8dd8:	ebfffc8e 	bl	8018 <GET32>
    8ddc:	e2000003 	and	r0, r0, #3, 0
    8de0:	e8bd8010 	pop	{r4, pc}
    8de4:	20200094 	mlacs	r0, r4, r0, r0

00008de8 <gpio_set_output>:
    8de8:	e350001f 	cmp	r0, #31, 0
    8dec:	812fff1e 	bxhi	lr
    8df0:	e92d41f0 	push	{r4, r5, r6, r7, r8, lr}
    8df4:	e1a04000 	mov	r4, r0
    8df8:	e59f5040 	ldr	r5, [pc, #64]	; 8e40 <gpio_set_output+0x58>
    8dfc:	e0853095 	umull	r3, r5, r5, r0
    8e00:	e1a051a5 	lsr	r5, r5, #3
    8e04:	e1a07105 	lsl	r7, r5, #2
    8e08:	e2876202 	add	r6, r7, #536870912	; 0x20000000
    8e0c:	e2866602 	add	r6, r6, #2097152	; 0x200000
    8e10:	e1a00006 	mov	r0, r6
    8e14:	ebfffc7f 	bl	8018 <GET32>
    8e18:	e0875005 	add	r5, r7, r5
    8e1c:	e0444085 	sub	r4, r4, r5, lsl #1
    8e20:	e0844084 	add	r4, r4, r4, lsl #1
    8e24:	e3a01007 	mov	r1, #7, 0
    8e28:	e1c00411 	bic	r0, r0, r1, lsl r4
    8e2c:	e3a01001 	mov	r1, #1, 0
    8e30:	e1801411 	orr	r1, r0, r1, lsl r4
    8e34:	e1a00006 	mov	r0, r6
    8e38:	ebfffc74 	bl	8010 <PUT32>
    8e3c:	e8bd81f0 	pop	{r4, r5, r6, r7, r8, pc}
    8e40:	cccccccd 	stclgt	12, cr12, [ip], {205}	; 0xcd

00008e44 <gpio_set_on>:
    8e44:	e350001f 	cmp	r0, #31, 0
    8e48:	812fff1e 	bxhi	lr
    8e4c:	e92d4010 	push	{r4, lr}
    8e50:	e3a01001 	mov	r1, #1, 0
    8e54:	e1a01011 	lsl	r1, r1, r0
    8e58:	e59f0004 	ldr	r0, [pc, #4]	; 8e64 <gpio_set_on+0x20>
    8e5c:	ebfffc6b 	bl	8010 <PUT32>
    8e60:	e8bd8010 	pop	{r4, pc}
    8e64:	2020001c 	eorcs	r0, r0, ip, lsl r0

00008e68 <gpio_set_off>:
    8e68:	e350001f 	cmp	r0, #31, 0
    8e6c:	812fff1e 	bxhi	lr
    8e70:	e92d4010 	push	{r4, lr}
    8e74:	e3a01001 	mov	r1, #1, 0
    8e78:	e1a01011 	lsl	r1, r1, r0
    8e7c:	e59f0004 	ldr	r0, [pc, #4]	; 8e88 <gpio_set_off+0x20>
    8e80:	ebfffc62 	bl	8010 <PUT32>
    8e84:	e8bd8010 	pop	{r4, pc}
    8e88:	20200028 	eorcs	r0, r0, r8, lsr #32

00008e8c <gpio_write>:
    8e8c:	e92d4010 	push	{r4, lr}
    8e90:	e3510000 	cmp	r1, #0, 0
    8e94:	0a000001 	beq	8ea0 <gpio_write+0x14>
    8e98:	ebffffe9 	bl	8e44 <gpio_set_on>
    8e9c:	e8bd8010 	pop	{r4, pc}
    8ea0:	ebfffff0 	bl	8e68 <gpio_set_off>
    8ea4:	e8bd8010 	pop	{r4, pc}

00008ea8 <gpio_set_input>:
    8ea8:	e350001f 	cmp	r0, #31, 0
    8eac:	812fff1e 	bxhi	lr
    8eb0:	e92d41f0 	push	{r4, r5, r6, r7, r8, lr}
    8eb4:	e1a04000 	mov	r4, r0
    8eb8:	e59f5038 	ldr	r5, [pc, #56]	; 8ef8 <gpio_set_input+0x50>
    8ebc:	e0853095 	umull	r3, r5, r5, r0
    8ec0:	e1a051a5 	lsr	r5, r5, #3
    8ec4:	e1a07105 	lsl	r7, r5, #2
    8ec8:	e2876202 	add	r6, r7, #536870912	; 0x20000000
    8ecc:	e2866602 	add	r6, r6, #2097152	; 0x200000
    8ed0:	e1a00006 	mov	r0, r6
    8ed4:	ebfffc4f 	bl	8018 <GET32>
    8ed8:	e0875005 	add	r5, r7, r5
    8edc:	e0444085 	sub	r4, r4, r5, lsl #1
    8ee0:	e0844084 	add	r4, r4, r4, lsl #1
    8ee4:	e3a01007 	mov	r1, #7, 0
    8ee8:	e1c01411 	bic	r1, r0, r1, lsl r4
    8eec:	e1a00006 	mov	r0, r6
    8ef0:	ebfffc46 	bl	8010 <PUT32>
    8ef4:	e8bd81f0 	pop	{r4, r5, r6, r7, r8, pc}
    8ef8:	cccccccd 	stclgt	12, cr12, [ip], {205}	; 0xcd

00008efc <gpio_read>:
    8efc:	e350001f 	cmp	r0, #31, 0
    8f00:	9a000001 	bls	8f0c <gpio_read+0x10>
    8f04:	e3e00000 	mvn	r0, #0, 0
    8f08:	e12fff1e 	bx	lr
    8f0c:	e92d4010 	push	{r4, lr}
    8f10:	e1a04000 	mov	r4, r0
    8f14:	e59f0014 	ldr	r0, [pc, #20]	; 8f30 <gpio_read+0x34>
    8f18:	ebfffc3e 	bl	8018 <GET32>
    8f1c:	e3a03001 	mov	r3, #1, 0
    8f20:	e0103413 	ands	r3, r0, r3, lsl r4
    8f24:	13a00001 	movne	r0, #1, 0
    8f28:	03a00000 	moveq	r0, #0, 0
    8f2c:	e8bd8010 	pop	{r4, pc}
    8f30:	20200034 	eorcs	r0, r0, r4, lsr r0

00008f34 <gpio_set_function>:
    8f34:	e3510007 	cmp	r1, #7, 0
    8f38:	9350001f 	cmpls	r0, #31, 0
    8f3c:	812fff1e 	bxhi	lr
    8f40:	e92d41f0 	push	{r4, r5, r6, r7, r8, lr}
    8f44:	e1a04000 	mov	r4, r0
    8f48:	e1a05001 	mov	r5, r1
    8f4c:	e59f603c 	ldr	r6, [pc, #60]	; 8f90 <gpio_set_function+0x5c>
    8f50:	e0863096 	umull	r3, r6, r6, r0
    8f54:	e1a061a6 	lsr	r6, r6, #3
    8f58:	e1a08106 	lsl	r8, r6, #2
    8f5c:	e2887202 	add	r7, r8, #536870912	; 0x20000000
    8f60:	e2877602 	add	r7, r7, #2097152	; 0x200000
    8f64:	e1a00007 	mov	r0, r7
    8f68:	ebfffc2a 	bl	8018 <GET32>
    8f6c:	e0886006 	add	r6, r8, r6
    8f70:	e0444086 	sub	r4, r4, r6, lsl #1
    8f74:	e0844084 	add	r4, r4, r4, lsl #1
    8f78:	e3a01007 	mov	r1, #7, 0
    8f7c:	e1c01411 	bic	r1, r0, r1, lsl r4
    8f80:	e1811415 	orr	r1, r1, r5, lsl r4
    8f84:	e1a00007 	mov	r0, r7
    8f88:	ebfffc20 	bl	8010 <PUT32>
    8f8c:	e8bd81f0 	pop	{r4, r5, r6, r7, r8, pc}
    8f90:	cccccccd 	stclgt	12, cr12, [ip], {205}	; 0xcd

00008f94 <internal_putchar>:
    8f94:	e92d4010 	push	{r4, lr}
    8f98:	e1a04000 	mov	r4, r0
    8f9c:	ebffff22 	bl	8c2c <uart_putc>
    8fa0:	e1a00004 	mov	r0, r4
    8fa4:	e8bd8010 	pop	{r4, pc}

00008fa8 <rpi_reset_putc>:
    8fa8:	e59f3008 	ldr	r3, [pc, #8]	; 8fb8 <rpi_reset_putc+0x10>
    8fac:	e59f2008 	ldr	r2, [pc, #8]	; 8fbc <rpi_reset_putc+0x14>
    8fb0:	e5832000 	str	r2, [r3]
    8fb4:	e12fff1e 	bx	lr
    8fb8:	0000930c 	andeq	r9, r0, ip, lsl #6
    8fbc:	00008f94 	muleq	r0, r4, pc	; <UNPREDICTABLE>

00008fc0 <rpi_set_putc>:
    8fc0:	e59f3004 	ldr	r3, [pc, #4]	; 8fcc <rpi_set_putc+0xc>
    8fc4:	e5830000 	str	r0, [r3]
    8fc8:	e12fff1e 	bx	lr
    8fcc:	0000930c 	andeq	r9, r0, ip, lsl #6

00008fd0 <strcat>:
    8fd0:	e1a02000 	mov	r2, r0
    8fd4:	e1a03002 	mov	r3, r2
    8fd8:	e2822001 	add	r2, r2, #1, 0
    8fdc:	e5d3c000 	ldrb	ip, [r3]
    8fe0:	e35c0000 	cmp	ip, #0, 0
    8fe4:	1afffffa 	bne	8fd4 <strcat+0x4>
    8fe8:	e2433001 	sub	r3, r3, #1, 0
    8fec:	e5d12000 	ldrb	r2, [r1]
    8ff0:	e2811001 	add	r1, r1, #1, 0
    8ff4:	e5e32001 	strb	r2, [r3, #1]!
    8ff8:	e3520000 	cmp	r2, #0, 0
    8ffc:	1afffffa 	bne	8fec <strcat+0x1c>
    9000:	e12fff1e 	bx	lr

00009004 <strcmp>:
    9004:	e5d03000 	ldrb	r3, [r0]
    9008:	e3530000 	cmp	r3, #0, 0
    900c:	0a000004 	beq	9024 <strcmp+0x20>
    9010:	e5d12000 	ldrb	r2, [r1]
    9014:	e1530002 	cmp	r3, r2
    9018:	02800001 	addeq	r0, r0, #1, 0
    901c:	02811001 	addeq	r1, r1, #1, 0
    9020:	0afffff7 	beq	9004 <strcmp>
    9024:	e5d10000 	ldrb	r0, [r1]
    9028:	e0430000 	sub	r0, r3, r0
    902c:	e12fff1e 	bx	lr

00009030 <strcpy>:
    9030:	e1a0c000 	mov	ip, r0
    9034:	e5d12000 	ldrb	r2, [r1]
    9038:	e2811001 	add	r1, r1, #1, 0
    903c:	e5cc2000 	strb	r2, [ip]
    9040:	e28cc001 	add	ip, ip, #1, 0
    9044:	e3520000 	cmp	r2, #0, 0
    9048:	1afffff9 	bne	9034 <strcpy+0x4>
    904c:	e12fff1e 	bx	lr

00009050 <strncmp>:
    9050:	e3520000 	cmp	r2, #0, 0
    9054:	e2422001 	sub	r2, r2, #1, 0
    9058:	0a000005 	beq	9074 <strncmp+0x24>
    905c:	e4d03001 	ldrb	r3, [r0], #1
    9060:	e4d1c001 	ldrb	ip, [r1], #1
    9064:	e153000c 	cmp	r3, ip
    9068:	0afffff8 	beq	9050 <strncmp>
    906c:	e043000c 	sub	r0, r3, ip
    9070:	e12fff1e 	bx	lr
    9074:	e3a00000 	mov	r0, #0, 0
    9078:	e12fff1e 	bx	lr

0000907c <dev_barrier>:
    907c:	ea000002 	b	908c <dsb>

00009080 <dmb>:
    9080:	e3a00000 	mov	r0, #0, 0
    9084:	ee070fba 	mcr	15, 0, r0, cr7, cr10, {5}
    9088:	e12fff1e 	bx	lr

0000908c <dsb>:
    908c:	ee070f9a 	mcr	15, 0, r0, cr7, cr10, {4}
    9090:	e12fff1e 	bx	lr

00009094 <__code_end__>:
    9094:	00000000 	andeq	r0, r0, r0

Disassembly of section .rodata:

00009098 <__FUNCTION__.3988-0x1b8>:
    9098:	72617473 	rsbvc	r7, r1, #1929379840	; 0x73000000
    909c:	676e6974 			; <UNDEFINED> instruction: 0x676e6974
    90a0:	6e6f7320 	cdpvs	3, 6, cr7, cr15, cr0, {1}
    90a4:	203a7261 	eorscs	r7, sl, r1, ror #4
    90a8:	67697274 			; <UNDEFINED> instruction: 0x67697274
    90ac:	3d726567 	cfldr64cc	mvdx6, [r2, #-412]!	; 0xfffffe64
    90b0:	202c6425 	eorcs	r6, ip, r5, lsr #8
    90b4:	6f686365 	svcvs	0x00686365
    90b8:	2164253d 	cmncs	r4, sp, lsr r5
    90bc:	0000000a 	andeq	r0, r0, sl
    90c0:	616e6f73 	smcvs	59123	; 0xe6f3
    90c4:	65722072 	ldrbvs	r2, [r2, #-114]!	; 0xffffff8e
    90c8:	21796461 	cmncs	r9, r1, ror #8
    90cc:	0000000a 	andeq	r0, r0, sl
    90d0:	656d6974 	strbvs	r6, [sp, #-2420]!	; 0xfffff68c
    90d4:	2174756f 	cmncs	r4, pc, ror #10
    90d8:	0000000a 	andeq	r0, r0, sl
    90dc:	74736964 	ldrbtvc	r6, [r3], #-2404	; 0xfffff69c
    90e0:	65636e61 	strbvs	r6, [r3, #-3681]!	; 0xfffff19f
    90e4:	25203d20 	strcs	r3, [r0, #-3360]!	; 0xfffff2e0
    90e8:	6e692064 	cdpvs	0, 6, cr2, cr9, cr4, {3}
    90ec:	73656863 	cmnvc	r5, #6488064	; 0x630000
    90f0:	0000000a 	andeq	r0, r0, sl
    90f4:	706f7473 	rsbvc	r7, pc, r3, ror r4	; <UNPREDICTABLE>
    90f8:	676e6970 			; <UNDEFINED> instruction: 0x676e6970
    90fc:	6e6f7320 	cdpvs	3, 6, cr7, cr15, cr0, {1}
    9100:	21207261 			; <UNDEFINED> instruction: 0x21207261
    9104:	0000000a 	andeq	r0, r0, sl
    9108:	696c2f2e 	stmdbvs	ip!, {r1, r2, r3, r5, r8, r9, sl, fp, sp}^
    910c:	762f6362 	strtvc	r6, [pc], -r2, ror #6
    9110:	72702d61 	rsbsvc	r2, r0, #6208	; 0x1840
    9114:	6b746e69 	blvs	1d24ac0 <__bss_end__+0x1d1b3b0>
    9118:	0000632e 	andeq	r6, r0, lr, lsr #6
    911c:	494e4150 	stmdbmi	lr, {r4, r6, r8, lr}^
    9120:	73253a43 			; <UNDEFINED> instruction: 0x73253a43
    9124:	3a73253a 	bcc	1cd2614 <__bss_end__+0x1cc8f04>
    9128:	253a6425 	ldrcs	r6, [sl, #-1061]!	; 0xfffffbdb
    912c:	00000a73 	andeq	r0, r0, r3, ror sl
    9130:	00000030 	andeq	r0, r0, r0, lsr r0
    9134:	33323130 	teqcc	r2, #12
    9138:	37363534 			; <UNDEFINED> instruction: 0x37363534
    913c:	00003938 	andeq	r3, r0, r8, lsr r9
    9140:	33323130 	teqcc	r2, #12
    9144:	37363534 			; <UNDEFINED> instruction: 0x37363534
    9148:	62613938 	rsbvs	r3, r1, #56, 18	; 0xe0000
    914c:	66656463 	strbtvs	r6, [r5], -r3, ror #8
    9150:	00000000 	andeq	r0, r0, r0
    9154:	00003130 	andeq	r3, r0, r0, lsr r1
    9158:	63747570 	cmnvs	r4, #112, 10	; 0x1c000000
    915c:	0070665f 	rsbseq	r6, r0, pc, asr r6
    9160:	74646977 	strbtvc	r6, [r4], #-2423	; 0xfffff689
    9164:	203c2068 	eorscs	r2, ip, r8, rrx
    9168:	00003233 	andeq	r3, r0, r3, lsr r2
    916c:	00786c6c 	rsbseq	r6, r8, ip, ror #24
    9170:	00646c6c 	rsbeq	r6, r4, ip, ror #24
    9174:	6e727473 	mrcvs	4, 3, r7, cr2, cr3, {3}
    9178:	28706d63 	ldmdacs	r0!, {r0, r1, r5, r6, r8, sl, fp, sp, lr}^
    917c:	202c7974 	eorcs	r7, ip, r4, ror r9
    9180:	786c6c22 	stmdavc	ip!, {r1, r5, sl, fp, sp, lr}^
    9184:	33202c22 			; <UNDEFINED> instruction: 0x33202c22
    9188:	3d3d2029 	ldccc	0, cr2, [sp, #-164]!	; 0xffffff5c
    918c:	7c203020 	stcvc	0, cr3, [r0], #-128	; 0xffffff80
    9190:	7473207c 	ldrbtvc	r2, [r3], #-124	; 0xffffff84
    9194:	6d636e72 	stclvs	14, cr6, [r3, #-456]!	; 0xfffffe38
    9198:	79742870 	ldmdbvc	r4!, {r4, r5, r6, fp, sp}^
    919c:	6c22202c 	stcvs	0, cr2, [r2], #-176	; 0xffffff50
    91a0:	2c22646c 	cfstrscs	mvf6, [r2], #-432	; 0xfffffe50
    91a4:	20293320 	eorcs	r3, r9, r0, lsr #6
    91a8:	30203d3d 	eorcc	r3, r0, sp, lsr sp
    91ac:	00000000 	andeq	r0, r0, r0
    91b0:	494e4150 	stmdbmi	lr, {r4, r6, r8, lr}^
    91b4:	73253a43 			; <UNDEFINED> instruction: 0x73253a43
    91b8:	3a73253a 	bcc	1cd26a8 <__bss_end__+0x1cc8f98>
    91bc:	693a6425 	ldmdbvs	sl!, {r0, r2, r5, sl, sp, lr}
    91c0:	736f706d 	cmnvc	pc, #109, 0	; 0x6d
    91c4:	6c626973 			; <UNDEFINED> instruction: 0x6c626973
    91c8:	66203a65 	strtvs	r3, [r0], -r5, ror #20
    91cc:	3c3d746d 	cfldrscc	mvf7, [sp], #-436	; 0xfffffe4c
    91d0:	0a3e7325 	beq	fa5e6c <__bss_end__+0xf9c75c>
    91d4:	0000000a 	andeq	r0, r0, sl
    91d8:	494e4150 	stmdbmi	lr, {r4, r6, r8, lr}^
    91dc:	73253a43 			; <UNDEFINED> instruction: 0x73253a43
    91e0:	3a73253a 	bcc	1cd26d0 <__bss_end__+0x1cc8fc0>
    91e4:	663a6425 	ldrtvs	r6, [sl], -r5, lsr #8
    91e8:	74616f6c 	strbtvc	r6, [r1], #-3948	; 0xfffff094
    91ec:	746f6e20 	strbtvc	r6, [pc], #-3616	; 91f4 <__code_end__+0x160>
    91f0:	616e6520 	cmnvs	lr, r0, lsr #10
    91f4:	64656c62 	strbtvs	r6, [r5], #-3170	; 0xfffff39e
    91f8:	0a212121 	beq	851684 <__bss_end__+0x847f74>
    91fc:	00000000 	andeq	r0, r0, r0
    9200:	6e697270 	mcrvs	2, 3, r7, cr9, cr0, {3}
    9204:	203a6b74 	eorscs	r6, sl, r4, ror fp
    9208:	20746f6e 	rsbscs	r6, r4, lr, ror #30
    920c:	646e6168 	strbtvs	r6, [lr], #-360	; 0xfffffe98
    9210:	676e696c 	strbvs	r6, [lr, -ip, ror #18]!
    9214:	65707320 	ldrbvs	r7, [r0, #-800]!	; 0xfffffce0
    9218:	69666963 	stmdbvs	r6!, {r0, r1, r5, r6, r8, fp, sp, lr}^
    921c:	27207265 	strcs	r7, [r0, -r5, ror #4]!
    9220:	20276325 	eorcs	r6, r7, r5, lsr #6
    9224:	63736128 	cmnvs	r3, #10
    9228:	253d6969 	ldrcs	r6, [sp, #-2409]!	; 0xfffff697
    922c:	000a2964 	andeq	r2, sl, r4, ror #18
    9230:	494e4150 	stmdbmi	lr, {r4, r6, r8, lr}^
    9234:	73253a43 			; <UNDEFINED> instruction: 0x73253a43
    9238:	3a73253a 	bcc	1cd2728 <__bss_end__+0x1cc9018>
    923c:	703a6425 	eorsvc	r6, sl, r5, lsr #8
    9240:	746e6972 	strbtvc	r6, [lr], #-2418	; 0xfffff68e
    9244:	7265206b 	rsbvc	r2, r5, #107, 0	; 0x6b
    9248:	0a726f72 	beq	1ca5018 <__bss_end__+0x1c9b908>
    924c:	0000000a 	andeq	r0, r0, sl

00009250 <__FUNCTION__.3988>:
    9250:	74696d65 	strbtvc	r6, [r9], #-3429	; 0xfffff29b
    9254:	00000000 	andeq	r0, r0, r0

00009258 <__FUNCTION__.3936>:
    9258:	5f697072 	svcpl	0x00697072
    925c:	5f746573 	svcpl	0x00746573
    9260:	7074756f 	rsbsvc	r7, r4, pc, ror #10
    9264:	00007475 	andeq	r7, r0, r5, ror r4

00009268 <__FUNCTION__.4014>:
    9268:	705f6176 	subsvc	r6, pc, r6, ror r1	; <UNPREDICTABLE>
    926c:	746e6972 	strbtvc	r6, [lr], #-2418	; 0xfffff68e
    9270:	0000006b 	andeq	r0, r0, fp, rrx
    9274:	454e4f44 	strbmi	r4, [lr, #-3908]	; 0xfffff0bc
    9278:	0a212121 	beq	851704 <__bss_end__+0x847ff4>
    927c:	00000000 	andeq	r0, r0, r0
    9280:	6f697067 	svcvs	0x00697067
    9284:	6475702d 	ldrbtvs	r7, [r5], #-45	; 0xffffffd3
    9288:	0000632e 	andeq	r6, r0, lr, lsr #6
    928c:	4f525245 	svcmi	0x00525245
    9290:	73253a52 			; <UNDEFINED> instruction: 0x73253a52
    9294:	3a73253a 	bcc	1cd2784 <__bss_end__+0x1cc9074>
    9298:	203a6425 	eorscs	r6, sl, r5, lsr #8
    929c:	534c4146 	movtpl	r4, #49478	; 0xc146
    92a0:	253c2845 	ldrcs	r2, [ip, #-2117]!	; 0xfffff7bb
    92a4:	3a293e73 	bcc	a58c78 <__bss_end__+0xa4f568>
    92a8:	6e697020 	cdpvs	0, 6, cr7, cr9, cr0, {1}
    92ac:	6f6f7420 	svcvs	0x006f7420
    92b0:	72616c20 	rsbvc	r6, r1, #32, 24	; 0x2000
    92b4:	000a6567 	andeq	r6, sl, r7, ror #10
    92b8:	206e6970 	rsbcs	r6, lr, r0, ror r9
    92bc:	3233203c 	eorscc	r2, r3, #60, 0	; 0x3c
    92c0:	00000000 	andeq	r0, r0, r0
    92c4:	4f525245 	svcmi	0x00525245
    92c8:	73253a52 			; <UNDEFINED> instruction: 0x73253a52
    92cc:	3a73253a 	bcc	1cd27bc <__bss_end__+0x1cc90ac>
    92d0:	203a6425 	eorscs	r6, sl, r5, lsr #8
    92d4:	534c4146 	movtpl	r4, #49478	; 0xc146
    92d8:	253c2845 	ldrcs	r2, [ip, #-2117]!	; 0xfffff7bb
    92dc:	3a293e73 	bcc	a58cb0 <__bss_end__+0xa4f5a0>
    92e0:	64757020 	ldrbtvs	r7, [r5], #-32	; 0xffffffe0
    92e4:	6f6f7420 	svcvs	0x006f7420
    92e8:	72616c20 	rsbvc	r6, r1, #32, 24	; 0x2000
    92ec:	000a6567 	andeq	r6, sl, r7, ror #10
    92f0:	20647570 	rsbcs	r7, r4, r0, ror r5
    92f4:	0034203c 	eorseq	r2, r4, ip, lsr r0

000092f8 <__FUNCTION__.3924>:
    92f8:	6f697067 	svcvs	0x00697067
    92fc:	7465735f 	strbtvc	r7, [r5], #-863	; 0xfffffca1
    9300:	6475705f 	ldrbtvs	r7, [r5], #-95	; 0xffffffa1
	...

Disassembly of section .data:

00009308 <putk>:
    9308:	00008248 	andeq	r8, r0, r8, asr #4

0000930c <rpi_putchar>:
    930c:	00008f94 	muleq	r0, r4, pc	; <UNPREDICTABLE>

Disassembly of section .bss:

00009310 <__bss_start__>:
	...

Disassembly of section .ARM.attributes:

00000000 <.ARM.attributes>:
   0:	00002a41 	andeq	r2, r0, r1, asr #20
   4:	61656100 	cmnvs	r5, r0, lsl #2
   8:	01006962 	tsteq	r0, r2, ror #18
   c:	00000020 	andeq	r0, r0, r0, lsr #32
  10:	4b5a3605 	blmi	168d82c <__bss_end__+0x168411c>
  14:	08070600 	stmdaeq	r7, {r9, sl}
  18:	12010901 	andne	r0, r1, #16384	; 0x4000
  1c:	15011404 	strne	r1, [r1, #-1028]	; 0xfffffbfc
  20:	18031701 	stmdane	r3, {r0, r8, r9, sl, ip}
  24:	22011a01 	andcs	r1, r1, #4096	; 0x1000
  28:	Address 0x0000000000000028 is out of bounds.


Disassembly of section .comment:

00000000 <.comment>:
   0:	3a434347 	bcc	10d0d24 <__bss_end__+0x10c7614>
   4:	4e472820 	cdpmi	8, 4, cr2, cr7, cr0, {1}
   8:	6f542055 	svcvs	0x00542055
   c:	20736c6f 	rsbscs	r6, r3, pc, ror #24
  10:	20726f66 	rsbscs	r6, r2, r6, ror #30
  14:	206d7241 	rsbcs	r7, sp, r1, asr #4
  18:	65626d45 	strbvs	r6, [r2, #-3397]!	; 0xfffff2bb
  1c:	64656464 	strbtvs	r6, [r5], #-1124	; 0xfffffb9c
  20:	6f725020 	svcvs	0x00725020
  24:	73736563 	cmnvc	r3, #415236096	; 0x18c00000
  28:	2073726f 	rsbscs	r7, r3, pc, ror #4
  2c:	30322d39 	eorscc	r2, r2, r9, lsr sp
  30:	712d3931 			; <UNDEFINED> instruction: 0x712d3931
  34:	616d2d34 	cmnvs	sp, r4, lsr sp
  38:	29726f6a 	ldmdbcs	r2!, {r1, r3, r5, r6, r8, r9, sl, fp, sp, lr}^
  3c:	322e3920 	eorcc	r3, lr, #32, 18	; 0x80000
  40:	3220312e 	eorcc	r3, r0, #-2147483637	; 0x8000000b
  44:	31393130 	teqcc	r9, r0, lsr r1
  48:	20353230 	eorscs	r3, r5, r0, lsr r2
  4c:	6c657228 	sfmvs	f7, 2, [r5], #-160	; 0xffffff60
  50:	65736165 	ldrbvs	r6, [r3, #-357]!	; 0xfffffe9b
  54:	415b2029 	cmpmi	fp, r9, lsr #32
  58:	612f4d52 			; <UNDEFINED> instruction: 0x612f4d52
  5c:	392d6d72 	pushcc	{r1, r4, r5, r6, r8, sl, fp, sp, lr}
  60:	6172622d 	cmnvs	r2, sp, lsr #4
  64:	2068636e 	rsbcs	r6, r8, lr, ror #6
  68:	69766572 	ldmdbvs	r6!, {r1, r4, r5, r6, r8, sl, sp, lr}^
  6c:	6e6f6973 			; <UNDEFINED> instruction: 0x6e6f6973
  70:	37373220 	ldrcc	r3, [r7, -r0, lsr #4]!
  74:	5d393935 			; <UNDEFINED> instruction: 0x5d393935
  78:	43434700 	movtmi	r4, #14080	; 0x3700
  7c:	3128203a 			; <UNDEFINED> instruction: 0x3128203a
  80:	2d393a35 	vldmdbcs	r9!, {s6-s58}
  84:	39313032 	ldmdbcc	r1!, {r1, r4, r5, ip, sp}
  88:	2d34712d 	ldfcss	f7, [r4, #-180]!	; 0xffffff4c
  8c:	75627530 	strbvc	r7, [r2, #-1328]!	; 0xfffffad0
  90:	3175746e 	cmncc	r5, lr, ror #8
  94:	2e392029 	cdpcs	0, 3, cr2, cr9, cr9, {1}
  98:	20312e32 	eorscs	r2, r1, r2, lsr lr
  9c:	39313032 	ldmdbcc	r1!, {r1, r4, r5, ip, sp}
  a0:	35323031 	ldrcc	r3, [r2, #-49]!	; 0xffffffcf
  a4:	65722820 	ldrbvs	r2, [r2, #-2080]!	; 0xfffff7e0
  a8:	7361656c 	cmnvc	r1, #108, 10	; 0x1b000000
  ac:	5b202965 	blpl	80a648 <__bss_end__+0x800f38>
  b0:	2f4d5241 	svccs	0x004d5241
  b4:	2d6d7261 	sfmcs	f7, 2, [sp, #-388]!	; 0xfffffe7c
  b8:	72622d39 	rsbvc	r2, r2, #3648	; 0xe40
  bc:	68636e61 	stmdavs	r3!, {r0, r5, r6, r9, sl, fp, sp, lr}^
  c0:	76657220 	strbtvc	r7, [r5], -r0, lsr #4
  c4:	6f697369 	svcvs	0x00697369
  c8:	3732206e 	ldrcc	r2, [r2, -lr, rrx]!
  cc:	39393537 	ldmdbcc	r9!, {r0, r1, r2, r4, r5, r8, sl, ip, sp}
  d0:	Address 0x00000000000000d0 is out of bounds.


Disassembly of section .debug_info:

00000000 <.debug_info>:
       0:	0000028f 	andeq	r0, r0, pc, lsl #5
       4:	00000004 	andeq	r0, r0, r4
       8:	01040000 	mrseq	r0, (UNDEF: 4)
       c:	00000101 	andeq	r0, r0, r1, lsl #2
      10:	00007d0c 	andeq	r7, r0, ip, lsl #26
      14:	00008700 	andeq	r8, r0, r0, lsl #14
      18:	00802000 	addeq	r2, r0, r0
      1c:	00009800 	andeq	r9, r0, r0, lsl #16
      20:	00000000 	andeq	r0, r0, r0
      24:	05040200 	streq	r0, [r4, #-512]	; 0xfffffe00
      28:	00746e69 	rsbseq	r6, r4, r9, ror #28
      2c:	c3070403 	movwgt	r0, #29699	; 0x7403
      30:	03000000 	movweq	r0, #0
      34:	00320601 	eorseq	r0, r2, r1, lsl #12
      38:	02030000 	andeq	r0, r3, #0, 0
      3c:	0000f705 	andeq	pc, r0, r5, lsl #14
      40:	05040300 	streq	r0, [r4, #-768]	; 0xfffffd00
      44:	000000da 	ldrdeq	r0, [r0], -sl
      48:	d5050803 	strle	r0, [r5, #-2051]	; 0xfffff7fd
      4c:	03000000 	movweq	r0, #0
      50:	00300801 	eorseq	r0, r0, r1, lsl #16
      54:	02030000 	andeq	r0, r3, #0, 0
      58:	00006107 	andeq	r6, r0, r7, lsl #2
      5c:	07040300 	streq	r0, [r4, -r0, lsl #6]
      60:	000000be 	strheq	r0, [r0], -lr
      64:	b9070803 	stmdblt	r7, {r0, r1, fp}
      68:	04000000 	streq	r0, [r0], #-0
      6c:	00000025 	andeq	r0, r0, r5, lsr #32
      70:	0000007a 	andeq	r0, r0, sl, ror r0
      74:	00002505 	andeq	r2, r0, r5, lsl #10
      78:	e3060000 	movw	r0, #24576	; 0x6000
      7c:	02000000 	andeq	r0, r0, #0, 0
      80:	00860e1c 	addeq	r0, r6, ip, lsl lr
      84:	04070000 	streq	r0, [r7], #-0
      88:	0000006b 	andeq	r0, r0, fp, rrx
      8c:	00002504 	andeq	r2, r0, r4, lsl #10
      90:	00009b00 	andeq	r9, r0, r0, lsl #22
      94:	009b0500 	addseq	r0, fp, r0, lsl #10
      98:	07000000 	streq	r0, [r0, -r0]
      9c:	0000a804 	andeq	sl, r0, r4, lsl #16
      a0:	08010300 	stmdaeq	r1, {r8, r9}
      a4:	00000039 	andeq	r0, r0, r9, lsr r0
      a8:	0000a108 	andeq	sl, r0, r8, lsl #2
      ac:	02dd0600 	sbcseq	r0, sp, #0, 12
      b0:	21020000 	mrscs	r0, (UNDEF: 2)
      b4:	0000b90e 	andeq	fp, r0, lr, lsl #18
      b8:	8c040700 	stchi	7, cr0, [r4], {-0}
      bc:	09000000 	stmdbeq	r0, {}	; <UNPREDICTABLE>
      c0:	09090308 	stmdbeq	r9, {r3, r8, r9}
      c4:	000000e3 	andeq	r0, r0, r3, ror #1
      c8:	0000ef0a 	andeq	lr, r0, sl, lsl #30
      cc:	0e0a0300 	cdpeq	3, 0, cr0, cr10, cr0, {0}
      d0:	0000002c 	andeq	r0, r0, ip, lsr #32
      d4:	01c20a00 	biceq	r0, r2, r0, lsl #20
      d8:	0a030000 	beq	c00e0 <__bss_end__+0xb69d0>
      dc:	00002c17 	andeq	r2, r0, r7, lsl ip
      e0:	0b000400 	bleq	10e8 <__code_start__-0x6f18>
      e4:	00000000 	andeq	r0, r0, r0
      e8:	bf030b03 	svclt	0x00030b03
      ec:	0c000000 	stceq	0, cr0, [r0], {-0}
      f0:	00560207 	subseq	r0, r6, r7, lsl #4
      f4:	06010000 	streq	r0, [r1], -r0
      f8:	00011106 	andeq	r1, r1, r6, lsl #2
      fc:	00280d00 	eoreq	r0, r8, r0, lsl #26
     100:	d6d80000 	ldrble	r0, [r8], r0
     104:	0000740e 	andeq	r7, r0, lr, lsl #8
     108:	b60e1500 	strlt	r1, [lr], -r0, lsl #10
     10c:	14000001 	strne	r0, [r0], #-1
     110:	000a0f00 	andeq	r0, sl, r0, lsl #30
     114:	08010000 	stmdaeq	r1, {}	; <UNPREDICTABLE>
     118:	00802006 	addeq	r2, r0, r6
     11c:	00009800 	andeq	r9, r0, r0, lsl #16
     120:	569c0100 	ldrpl	r0, [ip], r0, lsl #2
     124:	10000002 	andne	r0, r0, r2
     128:	0b010068 	bleq	402d0 <__bss_end__+0x36bc0>
     12c:	0000e30f 	andeq	lr, r0, pc, lsl #6
     130:	70910200 	addsvc	r0, r1, r0, lsl #4
     134:	00805011 	addeq	r5, r0, r1, lsl r0
     138:	00004400 	andeq	r4, r0, r0, lsl #8
     13c:	0001df00 	andeq	sp, r1, r0, lsl #30
     140:	00d01200 	sbcseq	r1, r0, r0, lsl #4
     144:	0e010000 	cdpeq	0, 0, cr0, cr1, cr0, {0}
     148:	0000250d 	andeq	r2, r0, sp, lsl #10
     14c:	00271300 	eoreq	r1, r7, r0, lsl #6
     150:	0e010000 	cdpeq	0, 0, cr0, cr1, cr0, {0}
     154:	00002513 	andeq	r2, r0, r3, lsl r5
     158:	69140000 	ldmdbvs	r4, {}	; <UNPREDICTABLE>
     15c:	210e0100 	mrscs	r0, (UNDEF: 30)
     160:	00000025 	andeq	r0, r0, r5, lsr #32
     164:	00000004 	andeq	r0, r0, r4
     168:	00000000 	andeq	r0, r0, r0
     16c:	00805815 	addeq	r5, r0, r5, lsl r8
     170:	00003000 	andeq	r3, r0, r0
     174:	00d01600 	sbcseq	r1, r0, r0, lsl #12
     178:	0f010000 	svceq	0x00010000
     17c:	0000250d 	andeq	r2, r0, sp, lsl #10
     180:	00002b00 	andeq	r2, r0, r0, lsl #22
     184:	00002300 	andeq	r2, r0, r0, lsl #6
     188:	80601700 	rsbhi	r1, r0, r0, lsl #14
     18c:	02560000 	subseq	r0, r6, #0, 0
     190:	01a00000 	moveq	r0, r0
     194:	01180000 	tsteq	r8, r0
     198:	d0030550 	andle	r0, r3, r0, asr r5
     19c:	00000090 	muleq	r0, r0, r0
     1a0:	00807017 	addeq	r7, r0, r7, lsl r0
     1a4:	00026200 	andeq	r6, r2, r0, lsl #4
     1a8:	0001b500 	andeq	fp, r1, r0, lsl #10
     1ac:	52011800 	andpl	r1, r1, #0, 16
     1b0:	d6d80a03 	ldrble	r0, [r8], r3, lsl #20
     1b4:	80801700 	addhi	r1, r0, r0, lsl #14
     1b8:	02560000 	subseq	r0, r6, #0, 0
     1bc:	01cc0000 	biceq	r0, ip, r0
     1c0:	01180000 	tsteq	r8, r0
     1c4:	dc030550 	cfstr32le	mvfx0, [r3], {80}	; 0x50
     1c8:	00000090 	muleq	r0, r0, r0
     1cc:	00808819 	addeq	r8, r0, r9, lsl r8
     1d0:	00026e00 	andeq	r6, r2, r0, lsl #28
     1d4:	50011800 	andpl	r1, r1, r0, lsl #16
     1d8:	03e80a03 	mvneq	r0, #12288	; 0x3000
     1dc:	17000000 	strne	r0, [r0, -r0]
     1e0:	00008038 	andeq	r8, r0, r8, lsr r0
     1e4:	00000256 	andeq	r0, r0, r6, asr r2
     1e8:	00000200 	andeq	r0, r0, r0, lsl #4
     1ec:	05500118 	ldrbeq	r0, [r0, #-280]	; 0xfffffee8
     1f0:	00909803 	addseq	r9, r0, r3, lsl #16
     1f4:	51011800 	tstpl	r1, r0, lsl #16
     1f8:	01184401 	tsteq	r8, r1, lsl #8
     1fc:	00450152 	subeq	r0, r5, r2, asr r1
     200:	00804817 	addeq	r4, r0, r7, lsl r8
     204:	00027a00 	andeq	r7, r2, r0, lsl #20
     208:	00021e00 	andeq	r1, r2, r0, lsl #28
     20c:	50011800 	andpl	r1, r1, r0, lsl #16
     210:	18007d02 	stmdane	r0, {r1, r8, sl, fp, ip, sp, lr}
     214:	44015101 	strmi	r5, [r1], #-257	; 0xfffffeff
     218:	01520118 	cmpeq	r2, r8, lsl r1
     21c:	50170045 	andspl	r0, r7, r5, asr #32
     220:	56000080 	strpl	r0, [r0], -r0, lsl #1
     224:	35000002 	strcc	r0, [r0, #-2]
     228:	18000002 	stmdane	r0, {r1}
     22c:	03055001 	movweq	r5, #20481	; 0x5001
     230:	000090c0 	andeq	r9, r0, r0, asr #1
     234:	809c1700 	addshi	r1, ip, r0, lsl #14
     238:	02560000 	subseq	r0, r6, #0, 0
     23c:	024c0000 	subeq	r0, ip, #0, 0
     240:	01180000 	tsteq	r8, r0
     244:	f4030550 	vst3.16	{d0,d2,d4}, [r3 :64], r0
     248:	00000090 	muleq	r0, r0, r0
     24c:	0080a01a 	addeq	sl, r0, sl, lsl r0
     250:	00028600 	andeq	r8, r2, r0, lsl #12
     254:	9f1b0000 	svcls	0x001b0000
     258:	9f000002 	svcls	0x00000002
     25c:	02000002 	andeq	r0, r0, #2, 0
     260:	121b0628 	andsne	r0, fp, #40, 12	; 0x2800000
     264:	12000000 	andne	r0, r0, #0, 0
     268:	03000000 	movweq	r0, #0
     26c:	3e1b0513 	mrccc	5, 0, r0, cr11, cr3, {0}
     270:	3e000000 	cdpcc	0, 0, cr0, cr0, cr0, {0}
     274:	02000000 	andeq	r0, r0, #0, 0
     278:	541b0651 	ldrpl	r0, [fp], #-1617	; 0xfffff9af
     27c:	54000000 	strpl	r0, [r0], #-0
     280:	03000000 	movweq	r0, #0
     284:	471b0b10 			; <UNDEFINED> instruction: 0x471b0b10
     288:	47000000 	strmi	r0, [r0, -r0]
     28c:	02000000 	andeq	r0, r0, #0, 0
     290:	bf000667 	svclt	0x00000667
     294:	04000003 	streq	r0, [r0], #-3
     298:	00017e00 	andeq	r7, r1, r0, lsl #28
     29c:	01010400 	tsteq	r1, r0, lsl #8
     2a0:	0c000001 	stceq	0, cr0, [r0], {1}
     2a4:	00000242 	andeq	r0, r0, r2, asr #4
     2a8:	00000265 	andeq	r0, r0, r5, ror #4
     2ac:	000080b8 	strheq	r8, [r0], -r8	; <UNPREDICTABLE>
     2b0:	00000138 	andeq	r0, r0, r8, lsr r1
     2b4:	000000e8 	andeq	r0, r0, r8, ror #1
     2b8:	69050402 	stmdbvs	r5, {r1, sl}
     2bc:	0300746e 	movweq	r7, #1134	; 0x46e
     2c0:	00c30704 	sbceq	r0, r3, r4, lsl #14
     2c4:	01030000 	mrseq	r0, (UNDEF: 3)
     2c8:	00003206 	andeq	r3, r0, r6, lsl #4
     2cc:	05020300 	streq	r0, [r2, #-768]	; 0xfffffd00
     2d0:	000000f7 	strdeq	r0, [r0], -r7
     2d4:	da050403 	ble	1412e8 <__bss_end__+0x137bd8>
     2d8:	03000000 	movweq	r0, #0
     2dc:	00d50508 	sbcseq	r0, r5, r8, lsl #10
     2e0:	01030000 	mrseq	r0, (UNDEF: 3)
     2e4:	00003008 	andeq	r3, r0, r8
     2e8:	07020300 	streq	r0, [r2, -r0, lsl #6]
     2ec:	00000061 	andeq	r0, r0, r1, rrx
     2f0:	be070403 	cdplt	4, 0, cr0, cr7, cr3, {0}
     2f4:	03000000 	movweq	r0, #0
     2f8:	00b90708 	adcseq	r0, r9, r8, lsl #14
     2fc:	25040000 	strcs	r0, [r4, #-0]
     300:	7a000000 	bvc	308 <__code_start__-0x7cf8>
     304:	05000000 	streq	r0, [r0, #-0]
     308:	00000025 	andeq	r0, r0, r5, lsr #32
     30c:	00e30600 	rsceq	r0, r3, r0, lsl #12
     310:	1c020000 	stcne	0, cr0, [r2], {-0}
     314:	0000860e 	andeq	r8, r0, lr, lsl #12
     318:	6b040700 	blvs	101f20 <__bss_end__+0xf8810>
     31c:	04000000 	streq	r0, [r0], #-0
     320:	00000025 	andeq	r0, r0, r5, lsr #32
     324:	0000009b 	muleq	r0, fp, r0
     328:	00009b05 	andeq	r9, r0, r5, lsl #22
     32c:	04070000 	streq	r0, [r7], #-0
     330:	000000a8 	andeq	r0, r0, r8, lsr #1
     334:	39080103 	stmdbcc	r8, {r0, r1, r8}
     338:	08000000 	stmdaeq	r0, {}	; <UNPREDICTABLE>
     33c:	000000a1 	andeq	r0, r0, r1, lsr #1
     340:	0002dd06 	andeq	sp, r2, r6, lsl #26
     344:	0e210200 	cdpeq	2, 2, cr0, cr1, cr0, {0}
     348:	000000b9 	strheq	r0, [r0], -r9
     34c:	008c0407 	addeq	r0, ip, r7, lsl #8
     350:	08090000 	stmdaeq	r9, {}	; <UNPREDICTABLE>
     354:	e3090903 	movw	r0, #39171	; 0x9903
     358:	0a000000 	beq	360 <__code_start__-0x7ca0>
     35c:	000000ef 	andeq	r0, r0, pc, ror #1
     360:	2c0e0a03 			; <UNDEFINED> instruction: 0x2c0e0a03
     364:	00000000 	andeq	r0, r0, r0
     368:	0001c20a 	andeq	ip, r1, sl, lsl #4
     36c:	170a0300 	strne	r0, [sl, -r0, lsl #6]
     370:	0000002c 	andeq	r0, r0, ip, lsr #32
     374:	000b0004 	andeq	r0, fp, r4
     378:	03000000 	movweq	r0, #0
     37c:	00bf030b 	adcseq	r0, pc, fp, lsl #6
     380:	120c0000 	andne	r0, ip, #0, 0
     384:	01000000 	mrseq	r0, (UNDEF: 0)
     388:	0025053d 	eoreq	r0, r5, sp, lsr r5
     38c:	81340000 	teqhi	r4, r0
     390:	00bc0000 	adcseq	r0, ip, r0
     394:	9c010000 	stcls	0, cr0, [r1], {-0}
     398:	00000245 	andeq	r0, r0, r5, asr #4
     39c:	0100680d 	tsteq	r0, sp, lsl #16
     3a0:	00e3243d 	rsceq	r2, r3, sp, lsr r4
     3a4:	91020000 	mrsls	r0, (UNDEF: 2)
     3a8:	01c70e60 	biceq	r0, r7, r0, ror #28
     3ac:	3d010000 	stccc	0, cr0, [r1, #-0]
     3b0:	00002c30 	andeq	r2, r0, r0, lsr ip
     3b4:	00006300 	andeq	r6, r0, r0, lsl #6
     3b8:	00005f00 	andeq	r5, r0, r0, lsl #30
     3bc:	00ef0f00 	rsceq	r0, pc, r0, lsl #30
     3c0:	3e010000 	cdpcc	0, 0, cr0, cr1, cr0, {0}
     3c4:	00002c0e 	andeq	r2, r0, lr, lsl #24
     3c8:	00008900 	andeq	r8, r0, r0, lsl #18
     3cc:	00008100 	andeq	r8, r0, r0, lsl #2
     3d0:	01c20f00 	biceq	r0, r2, r0, lsl #30
     3d4:	3f010000 	svccc	0x00010000
     3d8:	00002c0e 	andeq	r2, r0, lr, lsl #24
     3dc:	0000c100 	andeq	ip, r0, r0, lsl #2
     3e0:	0000bf00 	andeq	fp, r0, r0, lsl #30
     3e4:	025b0f00 	subseq	r0, fp, #0, 30
     3e8:	47010000 	strmi	r0, [r1, -r0]
     3ec:	00002c0e 	andeq	r2, r0, lr, lsl #24
     3f0:	0000da00 	andeq	sp, r0, r0, lsl #20
     3f4:	0000d400 	andeq	sp, r0, r0, lsl #8
     3f8:	81a01000 	movhi	r1, r0
     3fc:	00240000 	eoreq	r0, r4, r0
     400:	01a00000 	moveq	r0, r0
     404:	520f0000 	andpl	r0, pc, #0, 0
     408:	01000002 	tsteq	r0, r2
     40c:	002c1249 	eoreq	r1, ip, r9, asr #4
     410:	01070000 	mrseq	r0, (UNDEF: 7)
     414:	01030000 	mrseq	r0, (UNDEF: 3)
     418:	a4110000 	ldrge	r0, [r1], #-0
     41c:	62000081 	andvs	r0, r0, #129, 0	; 0x81
     420:	12000003 	andne	r0, r0, #3, 0
     424:	000081b0 			; <UNDEFINED> instruction: 0x000081b0
     428:	0000036e 	andeq	r0, r0, lr, ror #6
     42c:	01500113 	cmpeq	r0, r3, lsl r1
     430:	1400003f 	strne	r0, [r0], #-63	; 0xffffffc1
     434:	00008158 	andeq	r8, r0, r8, asr r1
     438:	0000037a 	andeq	r0, r0, sl, ror r3
     43c:	000001b4 			; <UNDEFINED> instruction: 0x000001b4
     440:	02500113 	subseq	r0, r0, #-1073741820	; 0xc0000004
     444:	14000074 	strne	r0, [r0], #-116	; 0xffffff8c
     448:	00008160 	andeq	r8, r0, r0, ror #2
     44c:	0000036e 	andeq	r0, r0, lr, ror #6
     450:	000001c7 	andeq	r0, r0, r7, asr #3
     454:	01500113 	cmpeq	r0, r3, lsl r1
     458:	6814003f 	ldmdavs	r4, {r0, r1, r2, r3, r4, r5}
     45c:	86000081 	strhi	r0, [r0], -r1, lsl #1
     460:	db000003 	blle	474 <__code_start__-0x7b8c>
     464:	13000001 	movwne	r0, #1
     468:	74025001 	strvc	r5, [r2], #-1
     46c:	78140000 	ldmdavc	r4, {}	; <UNPREDICTABLE>
     470:	d3000081 	movwle	r0, #129	; 0x81
     474:	fa000002 	blx	484 <__code_start__-0x7b7c>
     478:	13000001 	movwne	r0, #1
     47c:	77025001 	strvc	r5, [r2, -r1]
     480:	51011300 	mrspl	r1, SP_irq
     484:	01133001 	tsteq	r3, r1
     488:	00750252 	rsbseq	r0, r5, r2, asr r2
     48c:	81841100 	orrhi	r1, r4, r0, lsl #2
     490:	03620000 	cmneq	r2, #0, 0
     494:	98140000 	ldmdals	r4, {}	; <UNPREDICTABLE>
     498:	d3000081 	movwle	r0, #129	; 0x81
     49c:	22000002 	andcs	r0, r0, #2, 0
     4a0:	13000002 	movwne	r0, #2
     4a4:	77025001 	strvc	r5, [r2, -r1]
     4a8:	51011300 	mrspl	r1, SP_irq
     4ac:	01133101 	tsteq	r3, r1, lsl #2
     4b0:	00750252 	rsbseq	r0, r5, r2, asr r2
     4b4:	81d41400 	bicshi	r1, r4, r0, lsl #8
     4b8:	036e0000 	cmneq	lr, #0, 0
     4bc:	02350000 	eorseq	r0, r5, #0, 0
     4c0:	01130000 	tsteq	r3, r0
     4c4:	003f0150 	eorseq	r0, pc, r0, asr r1	; <UNPREDICTABLE>
     4c8:	0081e412 	addeq	lr, r1, r2, lsl r4
     4cc:	00036e00 	andeq	r6, r3, r0, lsl #28
     4d0:	50011300 	andpl	r1, r1, r0, lsl #6
     4d4:	00003f01 	andeq	r3, r0, r1, lsl #30
     4d8:	0000540c 	andeq	r5, r0, ip, lsl #8
     4dc:	0b210100 	bleq	8408e4 <__bss_end__+0x8371d4>
     4e0:	000000e3 	andeq	r0, r0, r3, ror #1
     4e4:	00008100 	andeq	r8, r0, r0, lsl #2
     4e8:	00000034 	andeq	r0, r0, r4, lsr r0
     4ec:	02d39c01 	sbcseq	r9, r3, #256	; 0x100
     4f0:	ef0e0000 	svc	0x000e0000
     4f4:	01000000 	mrseq	r0, (UNDEF: 0)
     4f8:	002c2121 	eoreq	r2, ip, r1, lsr #2
     4fc:	01290000 			; <UNDEFINED> instruction: 0x01290000
     500:	01250000 			; <UNDEFINED> instruction: 0x01250000
     504:	c20e0000 	andgt	r0, lr, #0, 0
     508:	01000001 	tsteq	r0, r1
     50c:	002c3321 	eoreq	r3, ip, r1, lsr #6
     510:	014c0000 	mrseq	r0, (UNDEF: 76)
     514:	01480000 	mrseq	r0, (UNDEF: 72)
     518:	68150000 	ldmdavs	r5, {}	; <UNPREDICTABLE>
     51c:	0f220100 	svceq	0x00220100
     520:	000000e3 	andeq	r0, r0, r3, ror #1
     524:	0000016e 	andeq	r0, r0, lr, ror #2
     528:	0000016a 	andeq	r0, r0, sl, ror #2
     52c:	00811c14 	addeq	r1, r1, r4, lsl ip
     530:	00039200 	andeq	r9, r3, r0, lsl #4
     534:	0002ae00 	andeq	sl, r2, r0, lsl #28
     538:	50011300 	andpl	r1, r1, r0, lsl #6
     53c:	06007403 	streq	r7, [r0], -r3, lsl #8
     540:	81241400 			; <UNDEFINED> instruction: 0x81241400
     544:	039e0000 	orrseq	r0, lr, #0, 0
     548:	02c20000 	sbceq	r0, r2, #0, 0
     54c:	01130000 	tsteq	r3, r0
     550:	00750250 	rsbseq	r0, r5, r0, asr r2
     554:	812c1200 			; <UNDEFINED> instruction: 0x812c1200
     558:	03aa0000 			; <UNDEFINED> instruction: 0x03aa0000
     55c:	01130000 	tsteq	r3, r0
     560:	00750250 	rsbseq	r0, r5, r0, asr r2
     564:	220c0000 	andcs	r0, ip, #0, 0
     568:	01000002 	tsteq	r0, r2
     56c:	00250507 	eoreq	r0, r5, r7, lsl #10
     570:	80b80000 	adcshi	r0, r8, r0
     574:	00480000 	subeq	r0, r8, r0
     578:	9c010000 	stcls	0, cr0, [r1], {-0}
     57c:	00000362 	andeq	r0, r0, r2, ror #6
     580:	6e697016 	mcrvs	0, 3, r7, cr9, cr6, {0}
     584:	17070100 	strne	r0, [r7, -r0, lsl #2]
     588:	00000025 	andeq	r0, r0, r5, lsr #32
     58c:	00000192 	muleq	r0, r2, r1
     590:	0000018e 	andeq	r0, r0, lr, lsl #3
     594:	01007616 	tsteq	r0, r6, lsl r6
     598:	00252007 	eoreq	r2, r5, r7
     59c:	01b40000 			; <UNDEFINED> instruction: 0x01b40000
     5a0:	01b00000 	movseq	r0, r0
     5a4:	280e0000 	stmdacs	lr, {}	; <UNPREDICTABLE>
     5a8:	01000000 	mrseq	r0, (UNDEF: 0)
     5ac:	002c2c07 	eoreq	r2, ip, r7, lsl #24
     5b0:	01d60000 	bicseq	r0, r6, r0
     5b4:	01d20000 	bicseq	r0, r2, r0
     5b8:	5b0f0000 	blpl	3c05c0 <__bss_end__+0x3b6eb0>
     5bc:	01000002 	tsteq	r0, r2
     5c0:	002c0e08 	eoreq	r0, ip, r8, lsl #28
     5c4:	01f60000 	mvnseq	r0, r0
     5c8:	01f40000 	mvnseq	r0, r0
     5cc:	cc110000 	ldcgt	0, cr0, [r1], {-0}
     5d0:	62000080 	andvs	r0, r0, #128, 0	; 0x80
     5d4:	14000003 	strne	r0, [r0], #-3
     5d8:	000080d8 	ldrdeq	r8, [r0], -r8	; <UNPREDICTABLE>
     5dc:	000003b6 			; <UNDEFINED> instruction: 0x000003b6
     5e0:	00000358 	andeq	r0, r0, r8, asr r3
     5e4:	02500113 	subseq	r0, r0, #-1073741820	; 0xc0000004
     5e8:	11000075 	tstne	r0, r5, ror r0
     5ec:	000080e4 	andeq	r8, r0, r4, ror #1
     5f0:	00000362 	andeq	r0, r0, r2, ror #6
     5f4:	02131700 	andseq	r1, r3, #0, 14
     5f8:	02130000 	andseq	r0, r3, #0, 0
     5fc:	56020000 	strpl	r0, [r2], -r0
     600:	01fd170a 	mvnseq	r1, sl, lsl #14
     604:	01fd0000 	mvnseq	r0, r0
     608:	4f020000 	svcmi	0x00020000
     60c:	028b1706 	addeq	r1, fp, #1572864	; 0x180000
     610:	028b0000 	addeq	r0, fp, #0, 0
     614:	27040000 	strcs	r0, [r4, -r0]
     618:	02061706 	andeq	r1, r6, #1572864	; 0x180000
     61c:	02060000 	andeq	r0, r6, #0, 0
     620:	2a040000 	bcs	100628 <__bss_end__+0xf6f18>
     624:	01de1706 	bicseq	r1, lr, r6, lsl #14
     628:	01de0000 	bicseq	r0, lr, r0
     62c:	1d040000 	stcne	0, cr0, [r4, #-0]
     630:	01ee1706 	mvneq	r1, r6, lsl #14
     634:	01ee0000 	mvneq	r0, r0
     638:	1c040000 	stcne	0, cr0, [r4], {-0}
     63c:	02301706 	eorseq	r1, r0, #1572864	; 0x180000
     640:	02300000 	eorseq	r0, r0, #0, 0
     644:	32040000 	andcc	r0, r4, #0, 0
     648:	01d41706 	bicseq	r1, r4, r6, lsl #14
     64c:	01d40000 	bicseq	r0, r4, r0
     650:	24040000 	strcs	r0, [r4], #-0
     654:	019d0005 	orrseq	r0, sp, r5
     658:	00040000 	andeq	r0, r4, r0
     65c:	000002d8 	ldrdeq	r0, [r0], -r8
     660:	01010104 	tsteq	r1, r4, lsl #2
     664:	ba0c0000 	blt	30066c <__bss_end__+0x2f6f5c>
     668:	65000002 	strvs	r0, [r0, #-2]
     66c:	f0000002 			; <UNDEFINED> instruction: 0xf0000002
     670:	58000081 	stmdapl	r0, {r0, r7}
     674:	2d000000 	stccs	0, cr0, [r0, #-0]
     678:	02000002 	andeq	r0, r0, #2, 0
     67c:	000002a6 	andeq	r0, r0, r6, lsr #5
     680:	311b2802 	tstcc	fp, r2, lsl #16
     684:	03000000 	movweq	r0, #0
     688:	000002ca 	andeq	r0, r0, sl, asr #5
     68c:	48000404 	stmdami	r0, {r2, sl}
     690:	04000000 	streq	r0, [r0], #-0
     694:	000002b5 			; <UNDEFINED> instruction: 0x000002b5
     698:	00000048 	andeq	r0, r0, r8, asr #32
     69c:	04050000 	streq	r0, [r5], #-0
     6a0:	0002cc02 	andeq	ip, r2, r2, lsl #24
     6a4:	18630200 	stmdane	r3!, {r9}^
     6a8:	00000025 	andeq	r0, r0, r5, lsr #32
     6ac:	69050406 	stmdbvs	r5, {r1, r2, sl}
     6b0:	0700746e 	streq	r7, [r0, -lr, ror #8]
     6b4:	00c30704 	sbceq	r0, r3, r4, lsl #14
     6b8:	01070000 	mrseq	r0, (UNDEF: 7)
     6bc:	00003206 	andeq	r3, r0, r6, lsl #4
     6c0:	05020700 	streq	r0, [r2, #-1792]	; 0xfffff900
     6c4:	000000f7 	strdeq	r0, [r0], -r7
     6c8:	da050407 	ble	1416ec <__bss_end__+0x137fdc>
     6cc:	07000000 	streq	r0, [r0, -r0]
     6d0:	00d50508 	sbcseq	r0, r5, r8, lsl #10
     6d4:	01070000 	mrseq	r0, (UNDEF: 7)
     6d8:	00003008 	andeq	r3, r0, r8
     6dc:	07020700 	streq	r0, [r2, -r0, lsl #14]
     6e0:	00000061 	andeq	r0, r0, r1, rrx
     6e4:	be070407 	cdplt	4, 0, cr0, cr7, cr7, {0}
     6e8:	07000000 	streq	r0, [r0, -r0]
     6ec:	00b90708 	adcseq	r0, r9, r8, lsl #14
     6f0:	56080000 	strpl	r0, [r8], -r0
     6f4:	ab000000 	blge	6fc <__code_start__-0x7904>
     6f8:	09000000 	stmdbeq	r0, {}	; <UNPREDICTABLE>
     6fc:	00000056 	andeq	r0, r0, r6, asr r0
     700:	00e30a00 	rsceq	r0, r3, r0, lsl #20
     704:	1c030000 	stcne	0, cr0, [r3], {-0}
     708:	0000b70e 	andeq	fp, r0, lr, lsl #14
     70c:	9c040b00 			; <UNDEFINED> instruction: 0x9c040b00
     710:	08000000 	stmdaeq	r0, {}	; <UNPREDICTABLE>
     714:	00000056 	andeq	r0, r0, r6, asr r0
     718:	000000cc 	andeq	r0, r0, ip, asr #1
     71c:	0000cc09 	andeq	ip, r0, r9, lsl #24
     720:	040b0000 	streq	r0, [fp], #-0
     724:	000000d9 	ldrdeq	r0, [r0], -r9
     728:	39080107 	stmdbcc	r8, {r0, r1, r2, r8}
     72c:	0c000000 	stceq	0, cr0, [r0], {-0}
     730:	000000d2 	ldrdeq	r0, [r0], -r2
     734:	0002dd0a 	andeq	sp, r2, sl, lsl #26
     738:	0e210300 	cdpeq	3, 2, cr0, cr1, cr0, {0}
     73c:	000000ea 	andeq	r0, r0, sl, ror #1
     740:	00bd040b 	adcseq	r0, sp, fp, lsl #8
     744:	9f0d0000 	svcls	0x000d0000
     748:	01000002 	tsteq	r0, r2
     74c:	00560506 	subseq	r0, r6, r6, lsl #10
     750:	81f00000 	mvnshi	r0, r0
     754:	00580000 	subseq	r0, r8, r0
     758:	9c010000 	stcls	0, cr0, [r1], {-0}
     75c:	00000183 	andeq	r0, r0, r3, lsl #3
     760:	746d660e 	strbtvc	r6, [sp], #-1550	; 0xfffff9f2
     764:	18060100 	stmdane	r6, {r8}
     768:	000000cc 	andeq	r0, r0, ip, asr #1
     76c:	0f709102 	svceq	0x00709102
     770:	66756210 			; <UNDEFINED> instruction: 0x66756210
     774:	11080100 	mrsne	r0, (UNDEF: 24)
     778:	00000183 	andeq	r0, r0, r3, lsl #3
     77c:	93100305 	tstls	r0, #335544320	; 0x14000000
     780:	97110000 	ldrls	r0, [r1, -r0]
     784:	01000002 	tsteq	r0, r2
     788:	004a0d09 	subeq	r0, sl, r9, lsl #26
     78c:	91020000 	mrsls	r0, (UNDEF: 2)
     790:	7a73125c 	bvc	1cc5108 <__bss_end__+0x1cbb9f8>
     794:	0d0c0100 	stfeqs	f0, [ip, #-0]
     798:	00000056 	andeq	r0, r0, r6, asr r0
     79c:	0000020f 	andeq	r0, r0, pc, lsl #4
     7a0:	00000209 	andeq	r0, r0, r9, lsl #4
     7a4:	00821813 	addeq	r1, r2, r3, lsl r8
     7a8:	00019400 	andeq	r9, r1, r0, lsl #8
     7ac:	00017600 	andeq	r7, r1, r0, lsl #12
     7b0:	50011400 	andpl	r1, r1, r0, lsl #8
     7b4:	14007502 	strne	r7, [r0], #-1282	; 0xfffffafe
     7b8:	0a035101 	beq	d4bc4 <__bss_end__+0xcb4b4>
     7bc:	01140400 	tsteq	r4, r0, lsl #8
     7c0:	48910352 	ldmmi	r1, {r1, r4, r6, r8, r9}
     7c4:	53011406 	movwpl	r1, #5126	; 0x1406
     7c8:	004c9102 	subeq	r9, ip, r2, lsl #2
     7cc:	00822c15 	addeq	r2, r2, r5, lsl ip
     7d0:	50011400 	andpl	r1, r1, r0, lsl #8
     7d4:	00007502 	andeq	r7, r0, r2, lsl #10
     7d8:	00d21600 	sbcseq	r1, r2, r0, lsl #12
     7dc:	01940000 	orrseq	r0, r4, r0
     7e0:	5d170000 	ldcpl	0, cr0, [r7, #-0]
     7e4:	ff000000 			; <UNDEFINED> instruction: 0xff000000
     7e8:	9c180003 	ldcls	0, cr0, [r8], {3}
     7ec:	9c000002 	stcls	0, cr0, [r0], {2}
     7f0:	05000002 	streq	r0, [r0, #-2]
     7f4:	f3000502 	vrshl.u8	d0, d2, d0
     7f8:	04000000 	streq	r0, [r0], #-0
     7fc:	00041a00 	andeq	r1, r4, r0, lsl #20
     800:	01010400 	tsteq	r1, r0, lsl #8
     804:	0c000001 	stceq	0, cr0, [r0], {1}
     808:	000002e2 	andeq	r0, r0, r2, ror #5
     80c:	00000265 	andeq	r0, r0, r5, ror #4
     810:	00008248 	andeq	r8, r0, r8, asr #4
     814:	00000034 	andeq	r0, r0, r4, lsr r0
     818:	00000346 	andeq	r0, r0, r6, asr #6
     81c:	69050402 	stmdbvs	r5, {r1, sl}
     820:	0300746e 	movweq	r7, #1134	; 0x46e
     824:	00c30704 	sbceq	r0, r3, r4, lsl #14
     828:	01030000 	mrseq	r0, (UNDEF: 3)
     82c:	00003206 	andeq	r3, r0, r6, lsl #4
     830:	05020300 	streq	r0, [r2, #-768]	; 0xfffffd00
     834:	000000f7 	strdeq	r0, [r0], -r7
     838:	da050403 	ble	14184c <__bss_end__+0x13813c>
     83c:	03000000 	movweq	r0, #0
     840:	00d50508 	sbcseq	r0, r5, r8, lsl #10
     844:	01030000 	mrseq	r0, (UNDEF: 3)
     848:	00003008 	andeq	r3, r0, r8
     84c:	07020300 	streq	r0, [r2, -r0, lsl #6]
     850:	00000061 	andeq	r0, r0, r1, rrx
     854:	be070403 	cdplt	4, 0, cr0, cr7, cr3, {0}
     858:	03000000 	movweq	r0, #0
     85c:	00b90708 	adcseq	r0, r9, r8, lsl #14
     860:	25040000 	strcs	r0, [r4, #-0]
     864:	7a000000 	bvc	86c <__code_start__-0x7794>
     868:	05000000 	streq	r0, [r0, #-0]
     86c:	00000025 	andeq	r0, r0, r5, lsr #32
     870:	00e30600 	rsceq	r0, r3, r0, lsl #12
     874:	1c020000 	stcne	0, cr0, [r2], {-0}
     878:	0000860e 	andeq	r8, r0, lr, lsl #12
     87c:	6b040700 	blvs	102484 <__bss_end__+0xf8d74>
     880:	04000000 	streq	r0, [r0], #-0
     884:	00000025 	andeq	r0, r0, r5, lsr #32
     888:	0000009b 	muleq	r0, fp, r0
     88c:	00009b05 	andeq	r9, r0, r5, lsl #22
     890:	04070000 	streq	r0, [r7], #-0
     894:	000000a8 	andeq	r0, r0, r8, lsr #1
     898:	39080103 	stmdbcc	r8, {r0, r1, r8}
     89c:	08000000 	stmdaeq	r0, {}	; <UNPREDICTABLE>
     8a0:	000000a1 	andeq	r0, r0, r1, lsr #1
     8a4:	0002dd06 	andeq	sp, r2, r6, lsl #26
     8a8:	0e210200 	cdpeq	2, 2, cr0, cr1, cr0, {0}
     8ac:	000000b9 	strheq	r0, [r0], -r9
     8b0:	008c0407 	addeq	r0, ip, r7, lsl #8
     8b4:	ad090000 	stcge	0, cr0, [r9, #-0]
     8b8:	01000000 	mrseq	r0, (UNDEF: 0)
     8bc:	0305070c 	movweq	r0, #22284	; 0x570c
     8c0:	00009308 	andeq	r9, r0, r8, lsl #6
     8c4:	0002d40a 	andeq	sp, r2, sl, lsl #8
     8c8:	05040100 	streq	r0, [r4, #-256]	; 0xffffff00
     8cc:	00000025 	andeq	r0, r0, r5, lsr #32
     8d0:	00008248 	andeq	r8, r0, r8, asr #4
     8d4:	00000034 	andeq	r0, r0, r4, lsr r0
     8d8:	700b9c01 	andvc	r9, fp, r1, lsl #24
     8dc:	1f040100 	svcne	0x00040100
     8e0:	0000009b 	muleq	r0, fp, r0
     8e4:	0000023c 	andeq	r0, r0, ip, lsr r2
     8e8:	00000238 	andeq	r0, r0, r8, lsr r2
     8ec:	0a950000 	beq	fe5408f4 <__bss_end__+0xfe5371e4>
     8f0:	00040000 	andeq	r0, r4, r0
     8f4:	000004b8 			; <UNDEFINED> instruction: 0x000004b8
     8f8:	01010104 	tsteq	r1, r4, lsl #2
     8fc:	010c0000 	mrseq	r0, (UNDEF: 12)
     900:	65000003 	strvs	r0, [r0, #-3]
     904:	7c000002 	stcvc	0, cr0, [r0], {2}
     908:	20000082 	andcs	r0, r0, r2, lsl #1
     90c:	f4000007 	vst4.8	{d0-d3}, [r0], r7
     910:	02000003 	andeq	r0, r0, #3, 0
     914:	6e690504 	cdpvs	5, 6, cr0, cr9, cr4, {0}
     918:	04030074 	streq	r0, [r3], #-116	; 0xffffff8c
     91c:	0000c307 	andeq	ip, r0, r7, lsl #6
     920:	06010300 	streq	r0, [r1], -r0, lsl #6
     924:	00000032 	andeq	r0, r0, r2, lsr r0
     928:	f7050203 			; <UNDEFINED> instruction: 0xf7050203
     92c:	03000000 	movweq	r0, #0
     930:	00da0504 	sbcseq	r0, sl, r4, lsl #10
     934:	08030000 	stmdaeq	r3, {}	; <UNPREDICTABLE>
     938:	0000d505 	andeq	sp, r0, r5, lsl #10
     93c:	08010300 	stmdaeq	r1, {r8, r9}
     940:	00000030 	andeq	r0, r0, r0, lsr r0
     944:	61070203 	tstvs	r7, r3, lsl #4
     948:	04000000 	streq	r0, [r0], #-0
     94c:	00000374 	andeq	r0, r0, r4, ror r3
     950:	69193402 	ldmdbvs	r9, {r1, sl, ip, sp}
     954:	03000000 	movweq	r0, #0
     958:	00be0704 	adcseq	r0, lr, r4, lsl #14
     95c:	f8040000 			; <UNDEFINED> instruction: 0xf8040000
     960:	02000002 	andeq	r0, r0, #2, 0
     964:	007c1937 	rsbseq	r1, ip, r7, lsr r9
     968:	08030000 	stmdaeq	r3, {}	; <UNPREDICTABLE>
     96c:	0000b907 	andeq	fp, r0, r7, lsl #18
     970:	00250500 	eoreq	r0, r5, r0, lsl #10
     974:	00920000 	addseq	r0, r2, r0
     978:	25060000 	strcs	r0, [r6, #-0]
     97c:	00000000 	andeq	r0, r0, r0
     980:	0000e307 	andeq	lr, r0, r7, lsl #6
     984:	0e1c0300 	cdpeq	3, 1, cr0, cr12, cr0, {0}
     988:	0000009e 	muleq	r0, lr, r0
     98c:	00830408 	addeq	r0, r3, r8, lsl #8
     990:	25050000 	strcs	r0, [r5, #-0]
     994:	b3000000 	movwlt	r0, #0
     998:	06000000 	streq	r0, [r0], -r0
     99c:	000000b3 	strheq	r0, [r0], -r3
     9a0:	c0040800 	andgt	r0, r4, r0, lsl #16
     9a4:	03000000 	movweq	r0, #0
     9a8:	00390801 	eorseq	r0, r9, r1, lsl #16
     9ac:	b9090000 	stmdblt	r9, {}	; <UNPREDICTABLE>
     9b0:	07000000 	streq	r0, [r0, -r0]
     9b4:	000002dd 	ldrdeq	r0, [r0], -sp
     9b8:	d10e2103 	tstle	lr, r3, lsl #2
     9bc:	08000000 	stmdaeq	r0, {}	; <UNPREDICTABLE>
     9c0:	0000a404 	andeq	sl, r0, r4, lsl #8
     9c4:	03140700 	tsteq	r4, #0, 14
     9c8:	0b040000 	bleq	1009d0 <__bss_end__+0xf72c0>
     9cc:	0000b90d 	andeq	fp, r0, sp, lsl #18
     9d0:	03aa0700 			; <UNDEFINED> instruction: 0x03aa0700
     9d4:	0c040000 	stceq	0, cr0, [r4], {-0}
     9d8:	0000b90d 	andeq	fp, r0, sp, lsl #18
     9dc:	03230700 			; <UNDEFINED> instruction: 0x03230700
     9e0:	0d040000 	stceq	0, cr0, [r4, #-0]
     9e4:	0000b90d 	andeq	fp, r0, sp, lsl #18
     9e8:	03590700 	cmpeq	r9, #0, 14
     9ec:	0e040000 	cdpeq	0, 0, cr0, cr4, cr0, {0}
     9f0:	0000b90d 	andeq	fp, r0, sp, lsl #18
     9f4:	03d30700 	bicseq	r0, r3, #0, 14
     9f8:	0f040000 	svceq	0x00040000
     9fc:	0000b90d 	andeq	fp, r0, sp, lsl #18
     a00:	03440700 	movteq	r0, #18176	; 0x4700
     a04:	10040000 	andne	r0, r4, r0
     a08:	0000b90d 	andeq	fp, r0, sp, lsl #18
     a0c:	03e20700 	mvneq	r0, #0, 14
     a10:	11040000 	mrsne	r0, (UNDEF: 4)
     a14:	0000b90d 	andeq	fp, r0, sp, lsl #18
     a18:	03650700 	cmneq	r5, #0, 14
     a1c:	12040000 	andne	r0, r4, #0, 0
     a20:	0000b90d 	andeq	fp, r0, sp, lsl #18
     a24:	02a60400 	adceq	r0, r6, #0, 8
     a28:	28050000 	stmdacs	r5, {}	; <UNPREDICTABLE>
     a2c:	0001431b 	andeq	r4, r1, fp, lsl r3
     a30:	02ca0a00 	sbceq	r0, sl, #0, 20
     a34:	06040000 	streq	r0, [r4], -r0
     a38:	00015a00 	andeq	r5, r1, r0, lsl #20
     a3c:	02b50b00 	adcseq	r0, r5, #0, 22
     a40:	015a0000 	cmpeq	sl, r0
     a44:	00000000 	andeq	r0, r0, r0
     a48:	cc04040c 	cfstrsgt	mvf0, [r4], {12}
     a4c:	05000002 	streq	r0, [r0, #-2]
     a50:	01371863 	teqeq	r7, r3, ror #16
     a54:	9c0d0000 	stcls	0, cr0, [sp], {-0}
     a58:	01000002 	tsteq	r0, r2
     a5c:	00250581 	eoreq	r0, r5, r1, lsl #11
     a60:	85040000 	strhi	r0, [r4, #-0]
     a64:	04980000 	ldreq	r0, [r8], #0
     a68:	9c010000 	stcls	0, cr0, [r1], {-0}
     a6c:	000006d5 	ldrdeq	r0, [r0], -r5
     a70:	6675620e 	ldrbtvs	r6, [r5], -lr, lsl #4
     a74:	15810100 	strne	r0, [r1, #256]	; 0x100
     a78:	000006d5 	ldrdeq	r0, [r0], -r5
     a7c:	00000260 	andeq	r0, r0, r0, ror #4
     a80:	0000025a 	andeq	r0, r0, sl, asr r2
     a84:	01006e0e 	tsteq	r0, lr, lsl #28
     a88:	00251e81 	eoreq	r1, r5, r1, lsl #29
     a8c:	02920000 	addseq	r0, r2, #0, 0
     a90:	028c0000 	addeq	r0, ip, #0, 0
     a94:	660e0000 	strvs	r0, [lr], -r0
     a98:	0100746d 	tsteq	r0, sp, ror #8
     a9c:	00b32d81 	adcseq	r2, r3, r1, lsl #27
     aa0:	02cc0000 	sbceq	r0, ip, #0, 0
     aa4:	02c00000 	sbceq	r0, r0, #0, 0
     aa8:	970f0000 	strls	r0, [pc, -r0]
     aac:	01000002 	tsteq	r0, r2
     ab0:	015c3a81 	cmpeq	ip, r1, lsl #21
     ab4:	91030000 	mrsls	r0, (UNDEF: 3)
     ab8:	70107dd4 			; <UNDEFINED> instruction: 0x70107dd4
     abc:	08820100 	stmeq	r2, {r8}
     ac0:	000006d5 	ldrdeq	r0, [r0], -r5
     ac4:	0000032a 	andeq	r0, r0, sl, lsr #6
     ac8:	00000316 	andeq	r0, r0, r6, lsl r3
     acc:	01006510 	tsteq	r0, r0, lsl r5
     ad0:	06d51282 	ldrbeq	r1, [r5], r2, lsl #5
     ad4:	03ac0000 			; <UNDEFINED> instruction: 0x03ac0000
     ad8:	03a80000 			; <UNDEFINED> instruction: 0x03a80000
     adc:	78100000 	ldmdavc	r0, {}	; <UNPREDICTABLE>
     ae0:	83010030 	movwhi	r0, #4144	; 0x1030
     ae4:	00005d0e 	andeq	r5, r0, lr, lsl #26
     ae8:	0003d900 	andeq	sp, r3, r0, lsl #18
     aec:	0003d300 	andeq	sp, r3, r0, lsl #6
     af0:	31781100 	cmncc	r8, r0, lsl #2
     af4:	11830100 	orrne	r0, r3, r0, lsl #2
     af8:	0000005d 	andeq	r0, r0, sp, asr r0
     afc:	00038c12 	andeq	r8, r3, r2, lsl ip
     b00:	11860100 	orrne	r0, r6, r0, lsl #2
     b04:	000000b3 	strheq	r0, [r0], -r3
     b08:	00000406 	andeq	r0, r0, r6, lsl #8
     b0c:	00000402 	andeq	r0, r0, r2, lsl #8
     b10:	00033713 	andeq	r3, r3, r3, lsl r7
     b14:	0006eb00 	andeq	lr, r6, r0, lsl #22
     b18:	68030500 	stmdavs	r3, {r8, sl}
     b1c:	14000092 	strne	r0, [r0], #-146	; 0xffffff6e
     b20:	0000856c 	andeq	r8, r0, ip, ror #10
     b24:	000003e8 	andeq	r0, r0, r8, ror #7
     b28:	01007310 	tsteq	r0, r0, lsl r3
     b2c:	06d50a91 			; <UNDEFINED> instruction: 0x06d50a91
     b30:	043c0000 	ldrteq	r0, [ip], #-0
     b34:	04260000 	strteq	r0, [r6], #-0
     b38:	6e150000 	cdpvs	0, 1, cr0, cr5, cr0, {0}
     b3c:	01006d75 	tsteq	r0, r5, ror sp
     b40:	06f00d91 	usateq	r0, #16, r1, lsl #27
     b44:	91030000 	mrsls	r0, (UNDEF: 3)
     b48:	ef167dd8 	svc	0x00167dd8
     b4c:	01000003 	tsteq	r0, r3
     b50:	06f01791 	usateq	r1, #16, r1, lsl #15
     b54:	91030000 	mrsls	r0, (UNDEF: 3)
     b58:	31127ed8 			; <UNDEFINED> instruction: 0x31127ed8
     b5c:	01000003 	tsteq	r0, r3
     b60:	002c0d92 	mlaeq	ip, r2, sp, r0
     b64:	04c30000 	strbeq	r0, [r3], #0
     b68:	04bd0000 	ldrteq	r0, [sp], #0
     b6c:	34170000 	ldrcc	r0, [r7], #-0
     b70:	8c000086 	stchi	0, cr0, [r0], {134}	; 0x86
     b74:	f7000001 			; <UNDEFINED> instruction: 0xf7000001
     b78:	10000004 	andne	r0, r0, r4
     b7c:	01007974 	tsteq	r0, r4, ror r9
     b80:	00b31d9e 	umlalseq	r1, r3, lr, sp
     b84:	04f70000 	ldrbteq	r0, [r7], #0
     b88:	04ed0000 	strbteq	r0, [sp], #0
     b8c:	78110000 	ldmdavc	r1, {}	; <UNPREDICTABLE>
     b90:	a2010078 	andge	r0, r1, #120, 0	; 0x78
     b94:	0000701a 	andeq	r7, r0, sl, lsl r0
     b98:	86441800 	strbhi	r1, [r4], -r0, lsl #16
     b9c:	0a500000 	beq	1400ba4 <__bss_end__+0x13f7494>
     ba0:	02cd0000 	sbceq	r0, sp, #0, 0
     ba4:	01190000 	tsteq	r9, r0
     ba8:	00760250 	rsbseq	r0, r6, r0, asr r2
     bac:	05510119 	ldrbeq	r0, [r1, #-281]	; 0xfffffee7
     bb0:	00916c03 	addseq	r6, r1, r3, lsl #24
     bb4:	52011900 	andpl	r1, r1, #0, 18
     bb8:	18003301 	stmdane	r0, {r0, r8, r9, ip, sp}
     bbc:	0000865c 	andeq	r8, r0, ip, asr r6
     bc0:	00000a50 	andeq	r0, r0, r0, asr sl
     bc4:	000002ef 	andeq	r0, r0, pc, ror #5
     bc8:	02500119 	subseq	r0, r0, #1073741830	; 0x40000006
     bcc:	01190076 	tsteq	r9, r6, ror r0
     bd0:	70030551 	andvc	r0, r3, r1, asr r5
     bd4:	19000091 	stmdbne	r0, {r0, r4, r7}
     bd8:	33015201 	movwcc	r5, #4609	; 0x1201
     bdc:	86941800 	ldrhi	r1, [r4], r0, lsl #16
     be0:	0a500000 	beq	1400be8 <__bss_end__+0x13f74d8>
     be4:	03110000 	tsteq	r1, #0, 0
     be8:	01190000 	tsteq	r9, r0
     bec:	00760250 	rsbseq	r0, r6, r0, asr r2
     bf0:	05510119 	ldrbeq	r0, [r1, #-281]	; 0xfffffee7
     bf4:	00916c03 	addseq	r6, r1, r3, lsl #24
     bf8:	52011900 	andpl	r1, r1, #0, 18
     bfc:	18003301 	stmdane	r0, {r0, r8, r9, ip, sp}
     c00:	000086ac 	andeq	r8, r0, ip, lsr #13
     c04:	00000a50 	andeq	r0, r0, r0, asr sl
     c08:	00000333 	andeq	r0, r0, r3, lsr r3
     c0c:	02500119 	subseq	r0, r0, #1073741830	; 0x40000006
     c10:	01190076 	tsteq	r9, r6, ror r0
     c14:	70030551 	andvc	r0, r3, r1, asr r5
     c18:	19000091 	stmdbne	r0, {r0, r4, r7}
     c1c:	33015201 	movwcc	r5, #4609	; 0x1201
     c20:	86d41800 	ldrbhi	r1, [r4], r0, lsl #16
     c24:	07000000 	streq	r0, [r0, -r0]
     c28:	03670000 	cmneq	r7, #0, 0
     c2c:	01190000 	tsteq	r9, r0
     c30:	193a0150 	ldmdbne	sl!, {r4, r6, r8}
     c34:	91035101 	tstls	r3, r1, lsl #2
     c38:	01197dd0 			; <UNDEFINED> instruction: 0x01197dd0
     c3c:	80080252 	andhi	r0, r8, r2, asr r2
     c40:	02530119 	subseq	r0, r3, #1073741830	; 0x40000006
     c44:	02190077 	andseq	r0, r9, #119, 0	; 0x77
     c48:	7502007d 	strvc	r0, [r2, #-125]	; 0xffffff83
     c4c:	7d021900 	vstrvc.16	s2, [r2, #-0]	; <UNPREDICTABLE>
     c50:	00760204 	rsbseq	r0, r6, r4, lsl #4
     c54:	86f41800 	ldrbthi	r1, [r4], r0, lsl #16
     c58:	07000000 	streq	r0, [r0, -r0]
     c5c:	039b0000 	orrseq	r0, fp, #0, 0
     c60:	01190000 	tsteq	r9, r0
     c64:	193a0150 	ldmdbne	sl!, {r4, r6, r8}
     c68:	91035101 	tstls	r3, r1, lsl #2
     c6c:	01197ed0 			; <UNDEFINED> instruction: 0x01197ed0
     c70:	80080252 	andhi	r0, r8, r2, asr r2
     c74:	02530119 	subseq	r0, r3, #1073741830	; 0x40000006
     c78:	0219007a 	andseq	r0, r9, #122, 0	; 0x7a
     c7c:	7502007d 	strvc	r0, [r2, #-125]	; 0xffffff83
     c80:	7d021900 	vstrvc.16	s2, [r2, #-0]	; <UNPREDICTABLE>
     c84:	00760204 	rsbseq	r0, r6, r4, lsl #4
     c88:	87001800 	strhi	r1, [r0, -r0, lsl #16]
     c8c:	0a5c0000 	beq	1700c94 <__bss_end__+0x16f7584>
     c90:	03b90000 			; <UNDEFINED> instruction: 0x03b90000
     c94:	01190000 	tsteq	r9, r0
     c98:	d0910350 	addsle	r0, r1, r0, asr r3
     c9c:	5101197d 	tstpl	r1, sp, ror r9
     ca0:	91300305 	teqls	r0, r5, lsl #6
     ca4:	18000000 	stmdane	r0, {}	; <UNPREDICTABLE>
     ca8:	00008714 	andeq	r8, r0, r4, lsl r7
     cac:	00000a68 	andeq	r0, r0, r8, ror #20
     cb0:	000003d5 	ldrdeq	r0, [r0], -r5
     cb4:	03500119 	cmpeq	r0, #1073741830	; 0x40000006
     cb8:	197dd091 	ldmdbne	sp!, {r0, r4, r7, ip, lr, pc}^
     cbc:	91035101 	tstls	r3, r1, lsl #2
     cc0:	18007ed0 	stmdane	r0, {r4, r6, r7, r9, sl, fp, ip, sp, lr}
     cc4:	00008738 	andeq	r8, r0, r8, lsr r7
     cc8:	00000a74 	andeq	r0, r0, r4, ror sl
     ccc:	0000040e 	andeq	r0, r0, lr, lsl #8
     cd0:	05500119 	ldrbeq	r0, [r0, #-281]	; 0xfffffee7
     cd4:	00911c03 	addseq	r1, r1, r3, lsl #24
     cd8:	51011900 	tstpl	r1, r0, lsl #18
     cdc:	91080305 	tstls	r8, r5, lsl #6
     ce0:	01190000 	tsteq	r9, r0
     ce4:	68030552 	stmdavs	r3, {r1, r4, r6, r8, sl}
     ce8:	19000092 	stmdbne	r0, {r1, r4, r7}
     cec:	08025301 	stmdaeq	r2, {r0, r8, r9, ip, lr}
     cf0:	7d02199f 	vstrvc.16	s2, [r2, #-318]	; 0xfffffec2	; <UNPREDICTABLE>
     cf4:	74030500 	strvc	r0, [r3], #-1280	; 0xfffffb00
     cf8:	00000091 	muleq	r0, r1, r0
     cfc:	00873c1a 	addeq	r3, r7, sl, lsl ip
     d00:	000a8000 	andeq	r8, sl, r0
     d04:	875c1800 	ldrbhi	r1, [ip, -r0, lsl #16]
     d08:	07000000 	streq	r0, [r0, -r0]
     d0c:	044b0000 	strbeq	r0, [fp], #-0
     d10:	01190000 	tsteq	r9, r0
     d14:	19400150 	stmdbne	r0, {r4, r6, r8}^
     d18:	91035101 	tstls	r3, r1, lsl #2
     d1c:	01197dd0 			; <UNDEFINED> instruction: 0x01197dd0
     d20:	80080252 	andhi	r0, r8, r2, asr r2
     d24:	02530119 	subseq	r0, r3, #1073741830	; 0x40000006
     d28:	02190077 	andseq	r0, r9, #119, 0	; 0x77
     d2c:	7502007d 	strvc	r0, [r2, #-125]	; 0xffffff83
     d30:	7d021900 	vstrvc.16	s2, [r2, #-0]	; <UNPREDICTABLE>
     d34:	00760204 	rsbseq	r0, r6, r4, lsl #4
     d38:	877c1800 	ldrbhi	r1, [ip, -r0, lsl #16]!
     d3c:	07000000 	streq	r0, [r0, -r0]
     d40:	047f0000 	ldrbteq	r0, [pc], #-0	; d48 <__code_start__-0x72b8>
     d44:	01190000 	tsteq	r9, r0
     d48:	19400150 	stmdbne	r0, {r4, r6, r8}^
     d4c:	91035101 	tstls	r3, r1, lsl #2
     d50:	01197ed0 			; <UNDEFINED> instruction: 0x01197ed0
     d54:	80080252 	andhi	r0, r8, r2, asr r2
     d58:	02530119 	subseq	r0, r3, #1073741830	; 0x40000006
     d5c:	0219007a 	andseq	r0, r9, #122, 0	; 0x7a
     d60:	7502007d 	strvc	r0, [r2, #-125]	; 0xffffff83
     d64:	7d021900 	vstrvc.16	s2, [r2, #-0]	; <UNPREDICTABLE>
     d68:	00760204 	rsbseq	r0, r6, r4, lsl #4
     d6c:	87881800 	strhi	r1, [r8, r0, lsl #16]
     d70:	0a8c0000 	beq	fe300d78 <__bss_end__+0xfe2f7668>
     d74:	049b0000 	ldreq	r0, [fp], #0
     d78:	01190000 	tsteq	r9, r0
     d7c:	d0910350 	addsle	r0, r1, r0, asr r3
     d80:	5101197d 	tstpl	r1, sp, ror r9
     d84:	7ed29103 	atnvcs	f1, f3
     d88:	879c1800 	ldrhi	r1, [ip, r0, lsl #16]
     d8c:	0a8c0000 	beq	fe300d94 <__bss_end__+0xfe2f7684>
     d90:	04b70000 	ldrteq	r0, [r7], #0
     d94:	01190000 	tsteq	r9, r0
     d98:	d0910350 	addsle	r0, r1, r0, asr r3
     d9c:	5101197d 	tstpl	r1, sp, ror r9
     da0:	7ed09103 	atnvcs	f1, f3
     da4:	87bc1800 	ldrhi	r1, [ip, r0, lsl #16]!
     da8:	0a740000 	beq	1d00db0 <__bss_end__+0x1cf76a0>
     dac:	04ed0000 	strbteq	r0, [sp], #0
     db0:	01190000 	tsteq	r9, r0
     db4:	b0030550 	andlt	r0, r3, r0, asr r5
     db8:	19000091 	stmdbne	r0, {r0, r4, r7}
     dbc:	03055101 	movweq	r5, #20737	; 0x5101
     dc0:	00009108 	andeq	r9, r0, r8, lsl #2
     dc4:	05520119 	ldrbeq	r0, [r2, #-281]	; 0xfffffee7
     dc8:	00926803 	addseq	r6, r2, r3, lsl #16
     dcc:	53011900 	movwpl	r1, #6400	; 0x1900
     dd0:	19b60802 	ldmibne	r6!, {r1, fp}
     dd4:	02007d02 	andeq	r7, r0, #128	; 0x80
     dd8:	1a000076 	bne	fb8 <__code_start__-0x7048>
     ddc:	000087c0 	andeq	r8, r0, r0, asr #15
     de0:	00000a80 	andeq	r0, r0, r0, lsl #21
     de4:	85841800 	strhi	r1, [r4, #2048]	; 0x800
     de8:	097e0000 	ldmdbeq	lr!, {}^	; <UNPREDICTABLE>
     dec:	050b0000 	streq	r0, [fp, #-0]
     df0:	01190000 	tsteq	r9, r0
     df4:	00770250 	rsbseq	r0, r7, r0, asr r2
     df8:	86301800 	ldrthi	r1, [r0], -r0, lsl #16
     dfc:	0a740000 	beq	1d00e04 <__bss_end__+0x1cf76f4>
     e00:	05440000 	strbeq	r0, [r4, #-0]
     e04:	01190000 	tsteq	r9, r0
     e08:	1c030550 	cfstr32ne	mvfx0, [r3], {80}	; 0x50
     e0c:	19000091 	stmdbne	r0, {r0, r4, r7}
     e10:	03055101 	movweq	r5, #20737	; 0x5101
     e14:	00009108 	andeq	r9, r0, r8, lsl #2
     e18:	05520119 	ldrbeq	r0, [r2, #-281]	; 0xfffffee7
     e1c:	00926803 	addseq	r6, r2, r3, lsl #16
     e20:	53011900 	movwpl	r1, #6400	; 0x1900
     e24:	19980802 	ldmibne	r8, {r1, fp}
     e28:	05007d02 	streq	r7, [r0, #-3330]	; 0xfffff2fe
     e2c:	00916003 	addseq	r6, r1, r3
     e30:	341a0000 	ldrcc	r0, [sl], #-0
     e34:	80000086 	andhi	r0, r0, r6, lsl #1
     e38:	1800000a 	stmdane	r0, {r1, r3}
     e3c:	000087d4 	ldrdeq	r8, [r0], -r4
     e40:	00000a74 	andeq	r0, r0, r4, ror sl
     e44:	0000057c 	andeq	r0, r0, ip, ror r5
     e48:	05500119 	ldrbeq	r0, [r0, #-281]	; 0xfffffee7
     e4c:	0091d803 	addseq	sp, r1, r3, lsl #16
     e50:	51011900 	tstpl	r1, r0, lsl #18
     e54:	91080305 	tstls	r8, r5, lsl #6
     e58:	01190000 	tsteq	r9, r0
     e5c:	68030552 	stmdavs	r3, {r1, r4, r6, r8, sl}
     e60:	19000092 	stmdbne	r0, {r1, r4, r7}
     e64:	08025301 	stmdaeq	r2, {r0, r8, r9, ip, lr}
     e68:	d81a00be 	ldmdale	sl, {r1, r2, r3, r4, r5, r7}
     e6c:	80000087 	andhi	r0, r0, r7, lsl #1
     e70:	1800000a 	stmdane	r0, {r1, r3}
     e74:	00008804 	andeq	r8, r0, r4, lsl #16
     e78:	00000700 	andeq	r0, r0, r0, lsl #14
     e7c:	000005b2 			; <UNDEFINED> instruction: 0x000005b2
     e80:	01500119 	cmpeq	r0, r9, lsl r1
     e84:	5101193a 	tstpl	r1, sl, lsr r9
     e88:	7dd09103 	ldfvcp	f1, [r0, #12]
     e8c:	02520119 	subseq	r0, r2, #1073741830	; 0x40000006
     e90:	02198008 	andseq	r8, r9, #8, 0
     e94:	7502007d 	strvc	r0, [r2, #-125]	; 0xffffff83
     e98:	7d021900 	vstrvc.16	s2, [r2, #-0]	; <UNPREDICTABLE>
     e9c:	00310104 	eorseq	r0, r1, r4, lsl #2
     ea0:	00883c18 	addeq	r3, r8, r8, lsl ip
     ea4:	00070000 	andeq	r0, r7, r0
     ea8:	0005df00 	andeq	sp, r5, r0, lsl #30
     eac:	50011900 	andpl	r1, r1, r0, lsl #18
     eb0:	01193a01 	tsteq	r9, r1, lsl #20
     eb4:	d0910351 	addsle	r0, r1, r1, asr r3
     eb8:	5201197d 	andpl	r1, r1, #2048000	; 0x1f4000
     ebc:	19800802 	stmibne	r0, {r1, fp}
     ec0:	02007d02 	andeq	r7, r0, #128	; 0x80
     ec4:	02190075 	andseq	r0, r9, #117, 0	; 0x75
     ec8:	3001047d 	andcc	r0, r1, sp, ror r4
     ecc:	88701800 	ldmdahi	r0!, {fp, ip}^
     ed0:	07000000 	streq	r0, [r0, -r0]
     ed4:	060c0000 	streq	r0, [ip], -r0
     ed8:	01190000 	tsteq	r9, r0
     edc:	19400150 	stmdbne	r0, {r4, r6, r8}^
     ee0:	91035101 	tstls	r3, r1, lsl #2
     ee4:	01197dd0 			; <UNDEFINED> instruction: 0x01197dd0
     ee8:	80080252 	andhi	r0, r8, r2, asr r2
     eec:	007d0219 	rsbseq	r0, sp, r9, lsl r2
     ef0:	19007502 	stmdbne	r0, {r1, r8, sl, ip, sp, lr}
     ef4:	01047d02 	tsteq	r4, r2, lsl #26
     ef8:	a4180030 	ldrge	r0, [r8], #-48	; 0xffffffd0
     efc:	00000088 	andeq	r0, r0, r8, lsl #1
     f00:	39000007 	stmdbcc	r0, {r0, r1, r2}
     f04:	19000006 	stmdbne	r0, {r1, r2}
     f08:	32015001 	andcc	r5, r1, #1, 0
     f0c:	03510119 	cmpeq	r1, #1073741830	; 0x40000006
     f10:	197dd091 	ldmdbne	sp!, {r0, r4, r7, ip, lr, pc}^
     f14:	08025201 	stmdaeq	r2, {r0, r9, ip, lr}
     f18:	7d021980 	vstrvc.16	s2, [r2, #-256]	; 0xffffff00	; <UNPREDICTABLE>
     f1c:	00750200 	rsbseq	r0, r5, r0, lsl #4
     f20:	047d0219 	ldrbteq	r0, [sp], #-537	; 0xfffffde7
     f24:	18003001 	stmdane	r0, {r0, ip, sp}
     f28:	000088ec 	andeq	r8, r0, ip, ror #17
     f2c:	00000700 	andeq	r0, r0, r0, lsl #14
     f30:	00000666 	andeq	r0, r0, r6, ror #12
     f34:	01500119 	cmpeq	r0, r9, lsl r1
     f38:	51011938 	tstpl	r1, r8, lsr r9
     f3c:	7dd09103 	ldfvcp	f1, [r0, #12]
     f40:	02520119 	subseq	r0, r2, #1073741830	; 0x40000006
     f44:	02198008 	andseq	r8, r9, #8, 0
     f48:	7502007d 	strvc	r0, [r2, #-125]	; 0xffffff83
     f4c:	7d021900 	vstrvc.16	s2, [r2, #-0]	; <UNPREDICTABLE>
     f50:	00300104 	eorseq	r0, r0, r4, lsl #2
     f54:	00890c18 	addeq	r0, r9, r8, lsl ip
     f58:	000a7400 	andeq	r7, sl, r0, lsl #8
     f5c:	00068900 	andeq	r8, r6, r0, lsl #18
     f60:	50011900 	andpl	r1, r1, r0, lsl #18
     f64:	92000305 	andls	r0, r0, #335544320	; 0x14000000
     f68:	01190000 	tsteq	r9, r0
     f6c:	007a0251 	rsbseq	r0, sl, r1, asr r2
     f70:	02520119 	subseq	r0, r2, #1073741830	; 0x40000006
     f74:	1b00007a 	blne	1164 <__code_start__-0x6e9c>
     f78:	0000891c 	andeq	r8, r0, ip, lsl r9
     f7c:	0000069b 	muleq	r0, fp, r6
     f80:	04500119 	ldrbeq	r0, [r0], #-281	; 0xfffffee7
     f84:	067dc891 			; <UNDEFINED> instruction: 0x067dc891
     f88:	89301800 	ldmdbhi	r0!, {fp, ip}
     f8c:	0a740000 	beq	1d00f94 <__bss_end__+0x1cf7884>
     f90:	06ca0000 	strbeq	r0, [sl], r0
     f94:	01190000 	tsteq	r9, r0
     f98:	30030550 	andcc	r0, r3, r0, asr r5
     f9c:	19000092 	stmdbne	r0, {r1, r4, r7}
     fa0:	03055101 	movweq	r5, #20737	; 0x5101
     fa4:	00009108 	andeq	r9, r0, r8, lsl #2
     fa8:	05520119 	ldrbeq	r0, [r2, #-281]	; 0xfffffee7
     fac:	00926803 	addseq	r6, r2, r3, lsl #16
     fb0:	53011900 	movwpl	r1, #6400	; 0x1900
     fb4:	00e20802 	rsceq	r0, r2, r2, lsl #16
     fb8:	0089341a 	addeq	r3, r9, sl, lsl r4
     fbc:	000a8000 	andeq	r8, sl, r0
     fc0:	08000000 	stmdaeq	r0, {}	; <UNPREDICTABLE>
     fc4:	0000b904 	andeq	fp, r0, r4, lsl #18
     fc8:	00c01c00 	sbceq	r1, r0, r0, lsl #24
     fcc:	06eb0000 	strbteq	r0, [fp], r0
     fd0:	2c1d0000 	ldccs	0, cr0, [sp], {-0}
     fd4:	09000000 	stmdbeq	r0, {}	; <UNPREDICTABLE>
     fd8:	06db0900 	ldrbeq	r0, [fp], r0, lsl #18
     fdc:	b91c0000 	ldmdblt	ip, {}	; <UNPREDICTABLE>
     fe0:	00000000 	andeq	r0, r0, r0
     fe4:	1d000007 	stcne	0, cr0, [r0, #-28]	; 0xffffffe4
     fe8:	0000002c 	andeq	r0, r0, ip, lsr #32
     fec:	b71e007f 			; <UNDEFINED> instruction: 0xb71e007f
     ff0:	01000003 	tsteq	r0, r3
     ff4:	06d50149 	ldrbeq	r0, [r5], r9, asr #2
     ff8:	82ec0000 	rschi	r0, ip, #0, 0
     ffc:	01b40000 			; <UNDEFINED> instruction: 0x01b40000
    1000:	9c010000 	stcls	0, cr0, [r1], {-0}
    1004:	00000869 	andeq	r0, r0, r9, ror #16
    1008:	0003fc1f 	andeq	pc, r3, pc, lsl ip	; <UNPREDICTABLE>
    100c:	0f490100 	svceq	0x00490100
    1010:	0000002c 	andeq	r0, r0, ip, lsr #32
    1014:	00000540 	andeq	r0, r0, r0, asr #10
    1018:	0000053a 	andeq	r0, r0, sl, lsr r5
    101c:	7473640e 	ldrbtvc	r6, [r3], #-1038	; 0xfffffbf2
    1020:	1b490100 	blne	1241428 <__bss_end__+0x1237d18>
    1024:	000006d5 	ldrdeq	r0, [r0], -r5
    1028:	0000057e 	andeq	r0, r0, lr, ror r5
    102c:	0000056e 	andeq	r0, r0, lr, ror #10
    1030:	01006e0e 	tsteq	r0, lr, lsl #28
    1034:	00252449 	eoreq	r2, r5, r9, asr #8
    1038:	05e20000 	strbeq	r0, [r2, #0]!
    103c:	05de0000 	ldrbeq	r0, [lr]
    1040:	760e0000 	strvc	r0, [lr], -r0
    1044:	01006c61 	tsteq	r0, r1, ror #24
    1048:	00252b49 	eoreq	r2, r5, r9, asr #22
    104c:	060c0000 	streq	r0, [ip], -r0
    1050:	06000000 	streq	r0, [r0], -r0
    1054:	311f0000 	tstcc	pc, r0
    1058:	01000003 	tsteq	r0, r3
    105c:	00253449 	eoreq	r3, r5, r9, asr #8
    1060:	06620000 	strbteq	r0, [r2], -r0
    1064:	065c0000 	ldrbeq	r0, [ip], -r0
    1068:	010f0000 	mrseq	r0, CPSR
    106c:	01000004 	tsteq	r0, r4
    1070:	00253f49 	eoreq	r3, r5, r9, asr #30
    1074:	91020000 	mrsls	r0, (UNDEF: 2)
    1078:	75621504 	strbvc	r1, [r2, #-1284]!	; 0xfffffafc
    107c:	4e010066 	cdpmi	0, 0, cr0, cr1, cr6, {3}
    1080:	00086907 	andeq	r6, r8, r7, lsl #18
    1084:	a8910300 	ldmge	r1, {r8, r9}
    1088:	0070107f 	rsbseq	r1, r0, pc, ror r0
    108c:	d5114e01 	ldrle	r4, [r1, #-3585]	; 0xfffff1ff
    1090:	ac000006 	stcge	0, cr0, [r0], {6}
    1094:	8c000006 	stchi	0, cr0, [r0], {6}
    1098:	10000006 	andne	r0, r0, r6
    109c:	4f010075 	svcmi	0x00010075
    10a0:	00002c0b 	andeq	r2, r0, fp, lsl #24
    10a4:	00079200 	andeq	r9, r7, r0, lsl #4
    10a8:	00077e00 	andeq	r7, r7, r0, lsl #28
    10ac:	03371300 	teqeq	r7, #0, 6
    10b0:	08890000 	stmeq	r9, {}	; <UNPREDICTABLE>
    10b4:	03050000 	movweq	r0, #20480	; 0x5000
    10b8:	00009250 	andeq	r9, r0, r0, asr r2
    10bc:	00835817 	addeq	r5, r3, r7, lsl r8
    10c0:	00007800 	andeq	r7, r0, r0, lsl #16
    10c4:	0007f000 	andeq	pc, r7, r0
    10c8:	03a41200 			; <UNDEFINED> instruction: 0x03a41200
    10cc:	54010000 	strpl	r0, [r1], #-0
    10d0:	00002c0d 	andeq	r2, r0, sp, lsl #24
    10d4:	00081300 	andeq	r1, r8, r0, lsl #6
    10d8:	00080b00 	andeq	r0, r8, r0, lsl #22
    10dc:	10180000 	andsne	r0, r8, r0
    10e0:	1b000084 	blne	12f8 <__code_start__-0x6d08>
    10e4:	05000009 	streq	r0, [r0, #-9]
    10e8:	19000008 	stmdbne	r0, {r3}
    10ec:	91035101 	tstls	r3, r1, lsl #2
    10f0:	18007fa0 	stmdane	r0, {r5, r7, r8, r9, sl, fp, ip, sp, lr}
    10f4:	00008424 	andeq	r8, r0, r4, lsr #8
    10f8:	0000088e 	andeq	r0, r0, lr, lsl #17
    10fc:	00000826 	andeq	r0, r0, r6, lsr #16
    1100:	02500119 	subseq	r0, r0, #1073741830	; 0x40000006
    1104:	01190075 	tsteq	r9, r5, ror r0
    1108:	00740251 	rsbseq	r0, r4, r1, asr r2
    110c:	03530119 	cmpeq	r3, #1073741830	; 0x40000006
    1110:	007fa091 			; <UNDEFINED> instruction: 0x007fa091
    1114:	00847c18 	addeq	r7, r4, r8, lsl ip
    1118:	000a7400 	andeq	r7, sl, r0, lsl #8
    111c:	00085f00 	andeq	r5, r8, r0, lsl #30
    1120:	50011900 	andpl	r1, r1, r0, lsl #18
    1124:	911c0305 	tstls	ip, r5, lsl #6
    1128:	01190000 	tsteq	r9, r0
    112c:	08030551 	stmdaeq	r3, {r0, r4, r6, r8, sl}
    1130:	19000091 	stmdbne	r0, {r0, r4, r7}
    1134:	03055201 	movweq	r5, #20993	; 0x5201
    1138:	00009250 	andeq	r9, r0, r0, asr r2
    113c:	02530119 	subseq	r0, r3, #1073741830	; 0x40000006
    1140:	02197908 	andseq	r7, r9, #8, 18	; 0x20000
    1144:	0305007d 	movweq	r0, #20605	; 0x507d
    1148:	00009130 	andeq	r9, r0, r0, lsr r1
    114c:	84801a00 	strhi	r1, [r0], #2560	; 0xa00
    1150:	0a800000 	beq	fe001158 <__bss_end__+0xfdff7a48>
    1154:	1c000000 	stcne	0, cr0, [r0], {-0}
    1158:	000000b9 	strheq	r0, [r0], -r9
    115c:	00000879 	andeq	r0, r0, r9, ror r8
    1160:	00002c1d 	andeq	r2, r0, sp, lsl ip
    1164:	1c003f00 	stcne	15, cr3, [r0], {-0}
    1168:	000000c0 	andeq	r0, r0, r0, asr #1
    116c:	00000889 	andeq	r0, r0, r9, lsl #17
    1170:	00002c1d 	andeq	r2, r0, sp, lsl ip
    1174:	09000400 	stmdbeq	r0, {sl}
    1178:	00000879 	andeq	r0, r0, r9, ror r8
    117c:	0003c41e 	andeq	ip, r3, lr, lsl r4
    1180:	0e380100 	rsfeqe	f0, f0, f0
    1184:	000006d5 	ldrdeq	r0, [r0], -r5
    1188:	000082b4 			; <UNDEFINED> instruction: 0x000082b4
    118c:	00000038 	andeq	r0, r0, r8, lsr r0
    1190:	091b9c01 	ldmdbeq	fp, {r0, sl, fp, ip, pc}
    1194:	640e0000 	strvs	r0, [lr], #-0
    1198:	01007473 	tsteq	r0, r3, ror r4
    119c:	06d51c38 			; <UNDEFINED> instruction: 0x06d51c38
    11a0:	08540000 	ldmdaeq	r4, {}^	; <UNPREDICTABLE>
    11a4:	084a0000 	stmdaeq	sl, {}^	; <UNPREDICTABLE>
    11a8:	6e0e0000 	cdpvs	0, 0, cr0, cr14, cr0, {0}
    11ac:	25380100 	ldrcs	r0, [r8, #-256]!	; 0xffffff00
    11b0:	00000025 	andeq	r0, r0, r5, lsr #32
    11b4:	0000089b 	muleq	r0, fp, r8
    11b8:	00000897 	muleq	r0, r7, r8
    11bc:	0100700e 	tsteq	r0, lr
    11c0:	06d52e38 			; <UNDEFINED> instruction: 0x06d52e38
    11c4:	08c40000 	stmiaeq	r4, {}^	; <UNPREDICTABLE>
    11c8:	08bc0000 	ldmeq	ip!, {}	; <UNPREDICTABLE>
    11cc:	901f0000 	andsls	r0, pc, r0
    11d0:	01000003 	tsteq	r0, r3
    11d4:	06d53738 			; <UNDEFINED> instruction: 0x06d53738
    11d8:	08fe0000 	ldmeq	lr!, {}^	; <UNPREDICTABLE>
    11dc:	08fa0000 	ldmeq	sl!, {}^	; <UNPREDICTABLE>
    11e0:	6c100000 	ldcvs	0, cr0, [r0], {-0}
    11e4:	01006e65 	tsteq	r0, r5, ror #28
    11e8:	0025063a 	eoreq	r0, r5, sl, lsr r6
    11ec:	09240000 	stmdbeq	r4!, {}	; <UNPREDICTABLE>
    11f0:	091c0000 	ldmdbeq	ip, {}	; <UNPREDICTABLE>
    11f4:	73100000 	tstvc	r0, #0, 0
    11f8:	083e0100 	ldmdaeq	lr!, {r8}
    11fc:	000006d5 	ldrdeq	r0, [r0], -r5
    1200:	00000972 	andeq	r0, r0, r2, ror r9
    1204:	00000970 	andeq	r0, r0, r0, ror r9
    1208:	61702000 	cmnvs	r0, r0
    120c:	2e010064 	cdpcs	0, 0, cr0, cr1, cr4, {3}
    1210:	0006d50e 	andeq	sp, r6, lr, lsl #10
    1214:	00829000 	addeq	r9, r2, r0
    1218:	00002400 	andeq	r2, r0, r0, lsl #8
    121c:	7e9c0100 	fmlvce	f0, f4, f0
    1220:	0e000009 	cdpeq	0, 0, cr0, cr0, cr9, {0}
    1224:	2e010070 	mcrcs	0, 0, r0, cr1, cr0, {3}
    1228:	0006d518 	andeq	sp, r6, r8, lsl r5
    122c:	00098b00 	andeq	r8, r9, r0, lsl #22
    1230:	00098500 	andeq	r8, r9, r0, lsl #10
    1234:	03fc1f00 	mvnseq	r1, #0, 30
    1238:	2e010000 	cdpcs	0, 0, cr0, cr1, cr0, {0}
    123c:	0006d522 	andeq	sp, r6, r2, lsr #10
    1240:	0009ba00 	andeq	fp, r9, r0, lsl #20
    1244:	0009b600 	andeq	fp, r9, r0, lsl #12
    1248:	03310f00 	teqeq	r1, #0, 30
    124c:	2e010000 	cdpcs	0, 0, cr0, cr1, cr0, {0}
    1250:	0000252c 	andeq	r2, r0, ip, lsr #10
    1254:	10520100 	subsne	r0, r2, r0, lsl #2
    1258:	006e656c 	rsbeq	r6, lr, ip, ror #10
    125c:	25062f01 	strcs	r2, [r6, #-3841]	; 0xfffff0ff
    1260:	dd000000 	stcle	0, cr0, [r0, #-0]
    1264:	db000009 	blle	1290 <__code_start__-0x6d70>
    1268:	00000009 	andeq	r0, r0, r9
    126c:	0002f01e 	andeq	pc, r2, lr, lsl r0	; <UNPREDICTABLE>
    1270:	0c270100 	stfeqs	f0, [r7], #-0
    1274:	00000025 	andeq	r0, r0, r5, lsr #32
    1278:	0000827c 	andeq	r8, r0, ip, ror r2
    127c:	00000014 	andeq	r0, r0, r4, lsl r0
    1280:	09ab9c01 	stmibeq	fp!, {r0, sl, fp, ip, pc}
    1284:	630e0000 	movwvs	r0, #57344	; 0xe000
    1288:	18270100 	stmdane	r7!, {r8}
    128c:	00000025 	andeq	r0, r0, r5, lsr #32
    1290:	000009f6 	strdeq	r0, [r0], -r6
    1294:	000009f0 	strdeq	r0, [r0], -r0	; <UNPREDICTABLE>
    1298:	037d2100 	cmneq	sp, #0
    129c:	1f010000 	svcne	0x00010000
    12a0:	0084a006 	addeq	sl, r4, r6
    12a4:	00006400 	andeq	r6, r0, r0, lsl #8
    12a8:	3b9c0100 	blcc	fe7016b0 <__bss_end__+0xfe6f7fa0>
    12ac:	1f00000a 	svcne	0x0000000a
    12b0:	00000351 	andeq	r0, r0, r1, asr r3
    12b4:	9e1b1f01 	cdpls	15, 1, cr1, cr11, cr1, {0}
    12b8:	28000000 	stmdacs	r0, {}	; <UNPREDICTABLE>
    12bc:	2400000a 	strcs	r0, [r0], #-10
    12c0:	1f00000a 	svcne	0x0000000a
    12c4:	000003bc 			; <UNDEFINED> instruction: 0x000003bc
    12c8:	d1301f01 	teqle	r0, r1, lsl #30
    12cc:	4d000000 	stcmi	0, cr0, [r0, #-0]
    12d0:	4900000a 	stmdbmi	r0, {r1, r3}
    12d4:	1300000a 	movwne	r0, #10
    12d8:	00000337 	andeq	r0, r0, r7, lsr r3
    12dc:	00000a4b 	andeq	r0, r0, fp, asr #20
    12e0:	92580305 	subsls	r0, r8, #335544320	; 0x14000000
    12e4:	e8180000 	ldmda	r8, {}	; <UNPREDICTABLE>
    12e8:	74000084 	strvc	r0, [r0], #-132	; 0xffffff7c
    12ec:	3100000a 	tstcc	r0, sl
    12f0:	1900000a 	stmdbne	r0, {r1, r3}
    12f4:	03055001 	movweq	r5, #20481	; 0x5001
    12f8:	0000911c 	andeq	r9, r0, ip, lsl r1
    12fc:	05510119 	ldrbeq	r0, [r1, #-281]	; 0xfffffee7
    1300:	00910803 	addseq	r0, r1, r3, lsl #16
    1304:	52011900 	andpl	r1, r1, #0, 18
    1308:	92580305 	subsls	r0, r8, #335544320	; 0x14000000
    130c:	01190000 	tsteq	r9, r0
    1310:	20080253 	andcs	r0, r8, r3, asr r2
    1314:	007d0219 	rsbseq	r0, sp, r9, lsl r2
    1318:	91580305 	cmpls	r8, r5, lsl #6
    131c:	1a000000 	bne	1324 <__code_start__-0x6cdc>
    1320:	000084ec 	andeq	r8, r0, ip, ror #9
    1324:	00000a80 	andeq	r0, r0, r0, lsl #21
    1328:	00c01c00 	sbceq	r1, r0, r0, lsl #24
    132c:	0a4b0000 	beq	12c1334 <__bss_end__+0x12b7c24>
    1330:	2c1d0000 	ldccs	0, cr0, [sp], {-0}
    1334:	0e000000 	cdpeq	0, 0, cr0, cr0, cr0, {0}
    1338:	0a3b0900 	beq	ec3740 <__bss_end__+0xeba030>
    133c:	f4220000 	vld4.8	{d0-d3}, [r2], r0
    1340:	f4000003 	vst4.8	{d0-d3}, [r0], r3
    1344:	03000003 	movweq	r0, #3
    1348:	cc2205d9 	cfstr32gt	mvfx0, [r2], #-868	; 0xfffffc9c
    134c:	cc000003 	stcgt	0, cr0, [r0], {3}
    1350:	03000003 	movweq	r0, #3
    1354:	9d2205d8 	cfstr32ls	mvfx0, [r2, #-864]!	; 0xfffffca0
    1358:	9d000003 	stcls	0, cr0, [r0, #-12]
    135c:	03000003 	movweq	r0, #3
    1360:	9f2207db 	svcls	0x002207db
    1364:	9f000002 	svcls	0x00000002
    1368:	03000002 	movweq	r0, #2
    136c:	47220628 	strmi	r0, [r2, -r8, lsr #12]!
    1370:	47000000 	strmi	r0, [r0, -r0]
    1374:	03000000 	movweq	r0, #0
    1378:	96220667 	strtls	r0, [r2], -r7, ror #12
    137c:	96000003 	strls	r0, [r0], -r3
    1380:	03000003 	movweq	r0, #3
    1384:	2f0007dc 	svccs	0x000007dc
    1388:	04000001 	streq	r0, [r0], #-1
    138c:	0006c200 	andeq	ip, r6, r0, lsl #4
    1390:	01010400 	tsteq	r1, r0, lsl #8
    1394:	0c000001 	stceq	0, cr0, [r0], {1}
    1398:	00000415 	andeq	r0, r0, r5, lsl r4
    139c:	00000265 	andeq	r0, r0, r5, ror #4
    13a0:	0000899c 	muleq	r0, ip, r9
    13a4:	0000002c 	andeq	r0, r0, ip, lsr #32
    13a8:	000009ed 	andeq	r0, r0, sp, ror #19
    13ac:	69050402 	stmdbvs	r5, {r1, sl}
    13b0:	0300746e 	movweq	r7, #1134	; 0x46e
    13b4:	00c30704 	sbceq	r0, r3, r4, lsl #14
    13b8:	01030000 	mrseq	r0, (UNDEF: 3)
    13bc:	00003206 	andeq	r3, r0, r6, lsl #4
    13c0:	05020300 	streq	r0, [r2, #-768]	; 0xfffffd00
    13c4:	000000f7 	strdeq	r0, [r0], -r7
    13c8:	da050403 	ble	1423dc <__bss_end__+0x138ccc>
    13cc:	03000000 	movweq	r0, #0
    13d0:	00d50508 	sbcseq	r0, r5, r8, lsl #10
    13d4:	01030000 	mrseq	r0, (UNDEF: 3)
    13d8:	00003008 	andeq	r3, r0, r8
    13dc:	07020300 	streq	r0, [r2, -r0, lsl #6]
    13e0:	00000061 	andeq	r0, r0, r1, rrx
    13e4:	be070403 	cdplt	4, 0, cr0, cr7, cr3, {0}
    13e8:	03000000 	movweq	r0, #0
    13ec:	00b90708 	adcseq	r0, r9, r8, lsl #14
    13f0:	25040000 	strcs	r0, [r4, #-0]
    13f4:	7a000000 	bvc	13fc <__code_start__-0x6c04>
    13f8:	05000000 	streq	r0, [r0, #-0]
    13fc:	00000025 	andeq	r0, r0, r5, lsr #32
    1400:	00e30600 	rsceq	r0, r3, r0, lsl #12
    1404:	1c020000 	stcne	0, cr0, [r2], {-0}
    1408:	0000860e 	andeq	r8, r0, lr, lsl #12
    140c:	6b040700 	blvs	103014 <__bss_end__+0xf9904>
    1410:	04000000 	streq	r0, [r0], #-0
    1414:	00000025 	andeq	r0, r0, r5, lsr #32
    1418:	0000009b 	muleq	r0, fp, r0
    141c:	00009b05 	andeq	r9, r0, r5, lsl #22
    1420:	04070000 	streq	r0, [r7], #-0
    1424:	000000a8 	andeq	r0, r0, r8, lsr #1
    1428:	39080103 	stmdbcc	r8, {r0, r1, r8}
    142c:	08000000 	stmdaeq	r0, {}	; <UNPREDICTABLE>
    1430:	000000a1 	andeq	r0, r0, r1, lsr #1
    1434:	0002dd06 	andeq	sp, r2, r6, lsl #26
    1438:	0e210200 	cdpeq	2, 2, cr0, cr1, cr0, {0}
    143c:	000000b9 	strheq	r0, [r0], -r9
    1440:	008c0407 	addeq	r0, ip, r7, lsl #8
    1444:	47090000 	strmi	r0, [r9, -r0]
    1448:	01000000 	mrseq	r0, (UNDEF: 0)
    144c:	899c0604 	ldmibhi	ip, {r2, r9, sl}
    1450:	002c0000 	eoreq	r0, ip, r0
    1454:	9c010000 	stcls	0, cr0, [r1], {-0}
    1458:	0000010e 	andeq	r0, r0, lr, lsl #2
    145c:	0089b00a 	addeq	fp, r9, sl
    1460:	0000e800 	andeq	lr, r0, r0, lsl #16
    1464:	50010b00 	andpl	r0, r1, r0, lsl #22
    1468:	92740305 	rsbsls	r0, r4, #335544320	; 0x14000000
    146c:	0c000000 	stceq	0, cr0, [r0], {-0}
    1470:	000089b4 			; <UNDEFINED> instruction: 0x000089b4
    1474:	0000010e 	andeq	r0, r0, lr, lsl #2
    1478:	0089bc0d 	addeq	fp, r9, sp, lsl #24
    147c:	00011a00 	andeq	r1, r1, r0, lsl #20
    1480:	00010400 	andeq	r0, r1, r0, lsl #8
    1484:	50010b00 	andpl	r0, r1, r0, lsl #22
    1488:	0c003a01 			; <UNDEFINED> instruction: 0x0c003a01
    148c:	000089c0 	andeq	r8, r0, r0, asr #19
    1490:	00000126 	andeq	r0, r0, r6, lsr #2
    1494:	04300e00 	ldrteq	r0, [r0], #-3584	; 0xfffff200
    1498:	04300000 	ldrteq	r0, [r0], #-0
    149c:	46020000 	strmi	r0, [r2], -r0
    14a0:	003e0e06 	eorseq	r0, lr, r6, lsl #28
    14a4:	003e0000 	eorseq	r0, lr, r0
    14a8:	51020000 	mrspl	r0, (UNDEF: 2)
    14ac:	040a0e06 	streq	r0, [sl], #-3590	; 0xfffff1fa
    14b0:	040a0000 	streq	r0, [sl], #-0
    14b4:	64020000 	strvs	r0, [r2], #-0
    14b8:	01430006 	cmpeq	r3, r6
    14bc:	00040000 	andeq	r0, r4, r0
    14c0:	00000782 	andeq	r0, r0, r2, lsl #15
    14c4:	01010104 	tsteq	r1, r4, lsl #2
    14c8:	4e0c0000 	cdpmi	0, 0, cr0, cr12, cr0, {0}
    14cc:	65000004 	strvs	r0, [r0, #-4]
    14d0:	c8000002 	stmdagt	r0, {r1}
    14d4:	2c000089 	stccs	0, cr0, [r0], {137}	; 0x89
    14d8:	75000000 	strvc	r0, [r0, #-0]
    14dc:	0200000a 	andeq	r0, r0, #10, 0
    14e0:	6e690504 	cdpvs	5, 6, cr0, cr9, cr4, {0}
    14e4:	04030074 	streq	r0, [r3], #-116	; 0xffffff8c
    14e8:	0000c307 	andeq	ip, r0, r7, lsl #6
    14ec:	06010300 	streq	r0, [r1], -r0, lsl #6
    14f0:	00000032 	andeq	r0, r0, r2, lsr r0
    14f4:	f7050203 			; <UNDEFINED> instruction: 0xf7050203
    14f8:	03000000 	movweq	r0, #0
    14fc:	00da0504 	sbcseq	r0, sl, r4, lsl #10
    1500:	08030000 	stmdaeq	r3, {}	; <UNPREDICTABLE>
    1504:	0000d505 	andeq	sp, r0, r5, lsl #10
    1508:	08010300 	stmdaeq	r1, {r8, r9}
    150c:	00000030 	andeq	r0, r0, r0, lsr r0
    1510:	61070203 	tstvs	r7, r3, lsl #4
    1514:	03000000 	movweq	r0, #0
    1518:	00be0704 	adcseq	r0, lr, r4, lsl #14
    151c:	08030000 	stmdaeq	r3, {}	; <UNPREDICTABLE>
    1520:	0000b907 	andeq	fp, r0, r7, lsl #18
    1524:	00250400 	eoreq	r0, r5, r0, lsl #8
    1528:	007a0000 	rsbseq	r0, sl, r0
    152c:	25050000 	strcs	r0, [r5, #-0]
    1530:	00000000 	andeq	r0, r0, r0
    1534:	0000e306 	andeq	lr, r0, r6, lsl #6
    1538:	0e1c0200 	cdpeq	2, 1, cr0, cr12, cr0, {0}
    153c:	00000086 	andeq	r0, r0, r6, lsl #1
    1540:	006b0407 	rsbeq	r0, fp, r7, lsl #8
    1544:	25040000 	strcs	r0, [r4, #-0]
    1548:	9b000000 	blls	1550 <__code_start__-0x6ab0>
    154c:	05000000 	streq	r0, [r0, #-0]
    1550:	0000009b 	muleq	r0, fp, r0
    1554:	a8040700 	stmdage	r4, {r8, r9, sl}
    1558:	03000000 	movweq	r0, #0
    155c:	00390801 	eorseq	r0, r9, r1, lsl #16
    1560:	a1080000 	mrsge	r0, (UNDEF: 8)
    1564:	06000000 	streq	r0, [r0], -r0
    1568:	000002dd 	ldrdeq	r0, [r0], -sp
    156c:	b90e2102 	stmdblt	lr, {r1, r8, sp}
    1570:	07000000 	streq	r0, [r0, -r0]
    1574:	00008c04 	andeq	r8, r0, r4, lsl #24
    1578:	043e0900 	ldrteq	r0, [lr], #-2304	; 0xfffff700
    157c:	03010000 	movweq	r0, #4096	; 0x1000
    1580:	0089c806 	addeq	ip, r9, r6, lsl #16
    1584:	00002c00 	andeq	r2, r0, r0, lsl #24
    1588:	289c0100 	ldmcs	ip, {r8}
    158c:	06000001 	streq	r0, [r0], -r1
    1590:	00000323 	andeq	r0, r0, r3, lsr #6
    1594:	25100401 	ldrcs	r0, [r0, #-1025]	; 0xfffffbff
    1598:	06000000 	streq	r0, [r0], -r0
    159c:	00000359 	andeq	r0, r0, r9, asr r3
    15a0:	251f0401 	ldrcs	r0, [pc, #-1025]	; 11a7 <__code_start__-0x6e59>
    15a4:	0a000000 	beq	15ac <__code_start__-0x6a54>
    15a8:	0000000a 	andeq	r0, r0, sl
    15ac:	0b070501 	bleq	1c29b8 <__bss_end__+0x1b92a8>
    15b0:	00737362 	rsbseq	r7, r3, r2, ror #6
    15b4:	280a0701 	stmdacs	sl, {r0, r8, r9, sl}
    15b8:	74000001 	strvc	r0, [r0], #-1
    15bc:	6e00000a 	cdpvs	0, 0, cr0, cr0, cr10, {0}
    15c0:	0c00000a 	stceq	0, cr0, [r0], {10}
    15c4:	00000446 	andeq	r0, r0, r6, asr #8
    15c8:	280a0801 	stmdacs	sl, {r0, fp}
    15cc:	0d000001 	stceq	0, cr0, [r0, #-4]
    15d0:	000089e8 	andeq	r8, r0, r8, ror #19
    15d4:	0000012e 	andeq	r0, r0, lr, lsr #2
    15d8:	0089ec0d 	addeq	lr, r9, sp, lsl #24
    15dc:	00013a00 	andeq	r3, r1, r0, lsl #20
    15e0:	04070000 	streq	r0, [r7], #-0
    15e4:	00000025 	andeq	r0, r0, r5, lsr #32
    15e8:	00000a0e 	andeq	r0, r0, lr, lsl #20
    15ec:	00000a00 	andeq	r0, r0, r0, lsl #20
    15f0:	06f10200 	ldrbteq	r0, [r1], r0, lsl #4
    15f4:	0000470e 	andeq	r4, r0, lr, lsl #14
    15f8:	00004700 	andeq	r4, r0, r0, lsl #14
    15fc:	06670200 	strbteq	r0, [r7], -r0, lsl #4
    1600:	00022000 	andeq	r2, r2, r0
    1604:	4f000400 	svcmi	0x00000400
    1608:	04000008 	streq	r0, [r0], #-8
    160c:	00010101 	andeq	r0, r1, r1, lsl #2
    1610:	04800c00 	streq	r0, [r0], #3072	; 0xc00
    1614:	02650000 	rsbeq	r0, r5, #0, 0
	...
    1620:	0b110000 	bleq	441628 <__bss_end__+0x437f18>
    1624:	04020000 	streq	r0, [r2], #-0
    1628:	746e6905 	strbtvc	r6, [lr], #-2309	; 0xfffff6fb
    162c:	00250300 	eoreq	r0, r5, r0, lsl #6
    1630:	04040000 	streq	r0, [r4], #-0
    1634:	0000c307 	andeq	ip, r0, r7, lsl #6
    1638:	06010400 	streq	r0, [r1], -r0, lsl #8
    163c:	00000032 	andeq	r0, r0, r2, lsr r0
    1640:	f7050204 			; <UNDEFINED> instruction: 0xf7050204
    1644:	04000000 	streq	r0, [r0], #-0
    1648:	00da0504 	sbcseq	r0, sl, r4, lsl #10
    164c:	08040000 	stmdaeq	r4, {}	; <UNPREDICTABLE>
    1650:	0000d505 	andeq	sp, r0, r5, lsl #10
    1654:	08010400 	stmdaeq	r1, {sl}
    1658:	00000030 	andeq	r0, r0, r0, lsr r0
    165c:	61070204 	tstvs	r7, r4, lsl #4
    1660:	04000000 	streq	r0, [r0], #-0
    1664:	00be0704 	adcseq	r0, lr, r4, lsl #14
    1668:	08040000 	stmdaeq	r4, {}	; <UNPREDICTABLE>
    166c:	0000b907 	andeq	fp, r0, r7, lsl #18
    1670:	00250500 	eoreq	r0, r5, r0, lsl #10
    1674:	007f0000 	rsbseq	r0, pc, r0
    1678:	25060000 	strcs	r0, [r6, #-0]
    167c:	00000000 	andeq	r0, r0, r0
    1680:	0000e307 	andeq	lr, r0, r7, lsl #6
    1684:	0e1c0200 	cdpeq	2, 1, cr0, cr12, cr0, {0}
    1688:	0000008b 	andeq	r0, r0, fp, lsl #1
    168c:	00700408 	rsbseq	r0, r0, r8, lsl #8
    1690:	25050000 	strcs	r0, [r5, #-0]
    1694:	a0000000 	andge	r0, r0, r0
    1698:	06000000 	streq	r0, [r0], -r0
    169c:	000000a0 	andeq	r0, r0, r0, lsr #1
    16a0:	ad040800 	stcge	8, cr0, [r4, #-0]
    16a4:	04000000 	streq	r0, [r0], #-0
    16a8:	00390801 	eorseq	r0, r9, r1, lsl #16
    16ac:	a6030000 	strge	r0, [r3], -r0
    16b0:	07000000 	streq	r0, [r0, -r0]
    16b4:	000002dd 	ldrdeq	r0, [r0], -sp
    16b8:	be0e2102 	adflte	f2, f6, f2
    16bc:	08000000 	stmdaeq	r0, {}	; <UNPREDICTABLE>
    16c0:	00009104 	andeq	r9, r0, r4, lsl #2
    16c4:	04a40900 	strteq	r0, [r4], #2304	; 0x900
    16c8:	0d010000 	stceq	0, cr0, [r1, #-0]
    16cc:	00003111 	andeq	r3, r0, r1, lsl r1
    16d0:	040a0a00 	streq	r0, [sl], #-2560	; 0xfffff600
    16d4:	1f010000 	svcne	0x00010000
    16d8:	008a2006 	addeq	r2, sl, r6
    16dc:	00005000 	andeq	r5, r0, r0
    16e0:	a59c0100 	ldrge	r0, [ip, #256]	; 0x100
    16e4:	0b000001 	bleq	16f0 <__code_start__-0x6910>
    16e8:	000004c8 	andeq	r0, r0, r8, asr #9
    16ec:	2c0f2f01 	stccs	15, cr2, [pc], {1}
    16f0:	a1000000 	mrsge	r0, (UNDEF: 0)
    16f4:	9f00000a 	svcls	0x0000000a
    16f8:	0b00000a 	bleq	1728 <__code_start__-0x68d8>
    16fc:	00000463 	andeq	r0, r0, r3, ror #8
    1700:	2c0f3001 	stccs	0, cr3, [pc], {1}
    1704:	bb000000 	bllt	170c <__code_start__-0x68f4>
    1708:	b900000a 	stmdblt	r0, {r1, r3}
    170c:	0b00000a 	bleq	173c <__code_start__-0x68c4>
    1710:	00000495 	muleq	r0, r5, r4
    1714:	2c0f3101 	stfcss	f3, [pc], {1}
    1718:	d5000000 	strle	r0, [r0, #-0]
    171c:	d300000a 	movwle	r0, #10
    1720:	0b00000a 	bleq	1750 <__code_start__-0x68b0>
    1724:	000004af 	andeq	r0, r0, pc, lsr #9
    1728:	2c0f3201 	sfmcs	f3, 4, [pc], {1}
    172c:	ee000000 	cdp	0, 0, cr0, cr0, cr0, {0}
    1730:	ec00000a 	stc	0, cr0, [r0], {10}
    1734:	0c00000a 	stceq	0, cr0, [r0], {10}
    1738:	00008a28 	andeq	r8, r0, r8, lsr #20
    173c:	000001d0 	ldrdeq	r0, [r0], -r0	; <UNPREDICTABLE>
    1740:	008a340c 	addeq	r3, sl, ip, lsl #8
    1744:	0001ff00 	andeq	pc, r1, r0, lsl #30
    1748:	8a3c0d00 	bhi	f04b50 <__bss_end__+0xefb440>
    174c:	020b0000 	andeq	r0, fp, #0, 0
    1750:	015b0000 	cmpeq	fp, r0
    1754:	010e0000 	mrseq	r0, (UNDEF: 14)
    1758:	003a0150 	eorseq	r0, sl, r0, asr r1
    175c:	008a480d 	addeq	r4, sl, sp, lsl #16
    1760:	00021700 	andeq	r1, r2, r0, lsl #14
    1764:	00017b00 	andeq	r7, r1, r0, lsl #22
    1768:	50010e00 	andpl	r0, r1, r0, lsl #28
    176c:	00240c05 	eoreq	r0, r4, r5, lsl #24
    1770:	010e2010 	tsteq	lr, r0, lsl r0
    1774:	010c0551 	tsteq	ip, r1, asr r5
    1778:	005a0000 	subseq	r0, sl, r0
    177c:	008a540d 	addeq	r5, sl, sp, lsl #8
    1780:	00021700 	andeq	r1, r2, r0, lsl #14
    1784:	00019b00 	andeq	r9, r1, r0, lsl #22
    1788:	50010e00 	andpl	r0, r1, r0, lsl #28
    178c:	001c0c05 	andseq	r0, ip, r5, lsl #24
    1790:	010e2010 	tsteq	lr, r0, lsl r0
    1794:	200c0551 	andcs	r0, ip, r1, asr r5
    1798:	005a0000 	subseq	r0, sl, r0
    179c:	008a5c0c 	addeq	r5, sl, ip, lsl #24
    17a0:	0001a500 	andeq	sl, r1, r0, lsl #10
    17a4:	710f0000 	mrsvc	r0, CPSR
    17a8:	01000004 	tsteq	r0, r4
    17ac:	8a0c0617 	bhi	303010 <__bss_end__+0x2f9900>
    17b0:	00140000 	andseq	r0, r4, r0
    17b4:	9c010000 	stcls	0, cr0, [r1], {-0}
    17b8:	000001d0 	ldrdeq	r0, [r0], -r0	; <UNPREDICTABLE>
    17bc:	0004d00b 	andeq	sp, r4, fp
    17c0:	0e180100 	mufeqe	f0, f0, f0
    17c4:	00000031 	andeq	r0, r0, r1, lsr r0
    17c8:	00000b09 	andeq	r0, r0, r9, lsl #22
    17cc:	00000b03 	andeq	r0, r0, r3, lsl #22
    17d0:	04a11000 	strteq	r1, [r1], #0
    17d4:	0e010000 	cdpeq	0, 0, cr0, cr1, cr0, {0}
    17d8:	00002505 	andeq	r2, r0, r5, lsl #10
    17dc:	0089f400 	addeq	pc, r9, r0, lsl #8
    17e0:	00001800 	andeq	r1, r0, r0, lsl #16
    17e4:	ff9c0100 			; <UNDEFINED> instruction: 0xff9c0100
    17e8:	0b000001 	bleq	17f4 <__code_start__-0x680c>
    17ec:	000004d0 	ldrdeq	r0, [r0], -r0	; <UNPREDICTABLE>
    17f0:	310e0f01 	tstcc	lr, r1, lsl #30
    17f4:	37000000 	strcc	r0, [r0, -r0]
    17f8:	3300000b 	movwcc	r0, #11
    17fc:	0000000b 	andeq	r0, r0, fp
    1800:	00043011 	andeq	r3, r4, r1, lsl r0
    1804:	00043000 	andeq	r3, r4, r0
    1808:	06460200 	strbeq	r0, [r6], -r0, lsl #4
    180c:	00003e11 	andeq	r3, r0, r1, lsl lr
    1810:	00003e00 	andeq	r3, r0, r0, lsl #28
    1814:	06510200 	ldrbeq	r0, [r1], -r0, lsl #4
    1818:	00046b11 	andeq	r6, r4, r1, lsl fp
    181c:	00046b00 	andeq	r6, r4, r0, lsl #22
    1820:	06a40200 	strteq	r0, [r4], r0, lsl #4
    1824:	00024d00 	andeq	r4, r2, r0, lsl #26
    1828:	61000400 	tstvs	r0, r0, lsl #8
    182c:	04000009 	streq	r0, [r0], #-9
    1830:	00010101 	andeq	r0, r1, r1, lsl #2
    1834:	04eb0c00 	strbteq	r0, [fp], #3072	; 0xc00
    1838:	02650000 	rsbeq	r0, r5, #0, 0
    183c:	8a700000 	bhi	1c01844 <__bss_end__+0x1bf8134>
    1840:	00840000 	addeq	r0, r4, r0
    1844:	0be80000 	bleq	ffa0184c <__bss_end__+0xff9f813c>
    1848:	04020000 	streq	r0, [r2], #-0
    184c:	746e6905 	strbtvc	r6, [lr], #-2309	; 0xfffff6fb
    1850:	07040300 	streq	r0, [r4, -r0, lsl #6]
    1854:	000000c3 	andeq	r0, r0, r3, asr #1
    1858:	32060103 	andcc	r0, r6, #-1073741824	; 0xc0000000
    185c:	03000000 	movweq	r0, #0
    1860:	00f70502 	rscseq	r0, r7, r2, lsl #10
    1864:	04030000 	streq	r0, [r3], #-0
    1868:	0000da05 	andeq	sp, r0, r5, lsl #20
    186c:	05080300 	streq	r0, [r8, #-768]	; 0xfffffd00
    1870:	000000d5 	ldrdeq	r0, [r0], -r5
    1874:	30080103 	andcc	r0, r8, r3, lsl #2
    1878:	03000000 	movweq	r0, #0
    187c:	00610702 	rsbeq	r0, r1, r2, lsl #14
    1880:	04030000 	streq	r0, [r3], #-0
    1884:	0000be07 	andeq	fp, r0, r7, lsl #28
    1888:	07080300 	streq	r0, [r8, -r0, lsl #6]
    188c:	000000b9 	strheq	r0, [r0], -r9
    1890:	00002504 	andeq	r2, r0, r4, lsl #10
    1894:	00007a00 	andeq	r7, r0, r0, lsl #20
    1898:	00250500 	eoreq	r0, r5, r0, lsl #10
    189c:	06000000 	streq	r0, [r0], -r0
    18a0:	000000e3 	andeq	r0, r0, r3, ror #1
    18a4:	860e1c02 	strhi	r1, [lr], -r2, lsl #24
    18a8:	07000000 	streq	r0, [r0, -r0]
    18ac:	00006b04 	andeq	r6, r0, r4, lsl #22
    18b0:	00250400 	eoreq	r0, r5, r0, lsl #8
    18b4:	009b0000 	addseq	r0, fp, r0
    18b8:	9b050000 	blls	1418c0 <__bss_end__+0x1381b0>
    18bc:	00000000 	andeq	r0, r0, r0
    18c0:	00a80407 	adceq	r0, r8, r7, lsl #8
    18c4:	01030000 	mrseq	r0, (UNDEF: 3)
    18c8:	00003908 	andeq	r3, r0, r8, lsl #18
    18cc:	00a10800 	adceq	r0, r1, r0, lsl #16
    18d0:	dd060000 	stcle	0, cr0, [r6, #-0]
    18d4:	02000002 	andeq	r0, r0, #2, 0
    18d8:	00b90e21 	adcseq	r0, r9, r1, lsr #28
    18dc:	04070000 	streq	r0, [r7], #-0
    18e0:	0000008c 	andeq	r0, r0, ip, lsl #1
    18e4:	0004e109 	andeq	lr, r4, r9, lsl #2
    18e8:	061e0100 	ldreq	r0, [lr], -r0, lsl #2
    18ec:	00008adc 	ldrdeq	r8, [r0], -ip
    18f0:	00000018 	andeq	r0, r0, r8, lsl r0
    18f4:	01099c01 	tsteq	r9, r1, lsl #24
    18f8:	730a0000 	movwvc	r0, #40960	; 0xa000
    18fc:	01006365 	tsteq	r0, r5, ror #6
    1900:	002c191e 	eoreq	r1, ip, lr, lsl r9
    1904:	0b5a0000 	bleq	168190c <__bss_end__+0x16781fc>
    1908:	0b560000 	bleq	1581910 <__bss_end__+0x1578200>
    190c:	f00b0000 			; <UNDEFINED> instruction: 0xf00b0000
    1910:	0900008a 	stmdbeq	r0, {r1, r3, r7}
    1914:	0c000001 	stceq	0, cr0, [r0], {1}
    1918:	f3115001 	vhadd.u16	d5, d1, d1
    191c:	24355001 	ldrtcs	r5, [r5], #-1
    1920:	1c5001f3 	ldfnee	f0, [r0], {243}	; 0xf3
    1924:	01f32432 	mvnseq	r2, r2, lsr r4
    1928:	24332250 	ldrtcs	r2, [r3], #-592	; 0xfffffdb0
    192c:	3e090000 	cdpcc	0, 0, cr0, cr9, cr0, {0}
    1930:	01000000 	mrseq	r0, (UNDEF: 0)
    1934:	8ac4061b 	bhi	ff1031a8 <__bss_end__+0xff0f9a98>
    1938:	00180000 	andseq	r0, r8, r0
    193c:	9c010000 	stcls	0, cr0, [r1], {-0}
    1940:	00000152 	andeq	r0, r0, r2, asr r1
    1944:	00736d0a 	rsbseq	r6, r3, sl, lsl #26
    1948:	2c181b01 			; <UNDEFINED> instruction: 0x2c181b01
    194c:	7f000000 	svcvc	0x00000000
    1950:	7b00000b 	blvc	1984 <__code_start__-0x667c>
    1954:	0b00000b 	bleq	1988 <__code_start__-0x6678>
    1958:	00008ad8 	ldrdeq	r8, [r0], -r8	; <UNPREDICTABLE>
    195c:	00000152 	andeq	r0, r0, r2, asr r1
    1960:	1150010c 	cmpne	r0, ip, lsl #2
    1964:	355001f3 	ldrbcc	r0, [r0, #-499]	; 0xfffffe0d
    1968:	5001f324 	andpl	pc, r1, r4, lsr #6
    196c:	f324321c 	vqsub.u32	d3, d4, d12
    1970:	33225001 			; <UNDEFINED> instruction: 0x33225001
    1974:	09000024 	stmdbeq	r0, {r2, r5}
    1978:	000001fd 	strdeq	r0, [r0], -sp
    197c:	a0061201 	andge	r1, r6, r1, lsl #4
    1980:	2400008a 	strcs	r0, [r0], #-138	; 0xffffff76
    1984:	01000000 	mrseq	r0, (UNDEF: 0)
    1988:	0001c29c 	muleq	r1, ip, r2
    198c:	73750a00 	cmnvc	r5, #0, 20
    1990:	18120100 	ldmdane	r2, {r8}
    1994:	0000002c 	andeq	r0, r0, ip, lsr #32
    1998:	00000ba4 	andeq	r0, r0, r4, lsr #23
    199c:	00000ba0 	andeq	r0, r0, r0, lsr #23
    19a0:	0062720d 	rsbeq	r7, r2, sp, lsl #4
    19a4:	2c0e1301 	stccs	3, cr1, [lr], {1}
    19a8:	c4000000 	strgt	r0, [r0], #-0
    19ac:	c200000b 	andgt	r0, r0, #11, 0
    19b0:	0e00000b 	cdpeq	0, 0, cr0, cr0, cr11, {0}
    19b4:	00008ab0 			; <UNDEFINED> instruction: 0x00008ab0
    19b8:	00000014 	andeq	r0, r0, r4, lsl r0
    19bc:	000001b8 			; <UNDEFINED> instruction: 0x000001b8
    19c0:	0061720d 	rsbeq	r7, r1, sp, lsl #4
    19c4:	2c121501 	cfldr32cs	mvfx1, [r2], {1}
    19c8:	d9000000 	stmdble	r0, {}	; <UNPREDICTABLE>
    19cc:	d700000b 	strle	r0, [r0, -fp]
    19d0:	0f00000b 	svceq	0x0000000b
    19d4:	00008ab4 			; <UNDEFINED> instruction: 0x00008ab4
    19d8:	000001c2 	andeq	r0, r0, r2, asr #3
    19dc:	8aac0f00 	bhi	feb055e4 <__bss_end__+0xfeafbed4>
    19e0:	01c20000 	biceq	r0, r2, r0
    19e4:	10000000 	andne	r0, r0, r0
    19e8:	00000213 	andeq	r0, r0, r3, lsl r2
    19ec:	2c0a0901 			; <UNDEFINED> instruction: 0x2c0a0901
    19f0:	84000000 	strhi	r0, [r0], #-0
    19f4:	1c00008a 	stcne	0, cr0, [r0], {138}	; 0x8a
    19f8:	01000000 	mrseq	r0, (UNDEF: 0)
    19fc:	00020a9c 	muleq	r2, ip, sl
    1a00:	00750d00 	rsbseq	r0, r5, r0, lsl #26
    1a04:	2c0e0d01 	stccs	13, cr0, [lr], {1}
    1a08:	f0000000 			; <UNDEFINED> instruction: 0xf0000000
    1a0c:	ec00000b 	stc	0, cr0, [r0], {11}
    1a10:	0f00000b 	svceq	0x0000000b
    1a14:	00008a8c 	andeq	r8, r0, ip, lsl #21
    1a18:	00000238 	andeq	r0, r0, r8, lsr r2
    1a1c:	008a900f 	addeq	r9, sl, pc
    1a20:	00020a00 	andeq	r0, r2, r0, lsl #20
    1a24:	8a980f00 	bhi	fe60562c <__bss_end__+0xfe5fbf1c>
    1a28:	02380000 	eorseq	r0, r8, #0, 0
    1a2c:	10000000 	andne	r0, r0, r0
    1a30:	00000505 	andeq	r0, r0, r5, lsl #10
    1a34:	2c0a0401 	cfstrscs	mvf0, [sl], {1}
    1a38:	70000000 	andvc	r0, r0, r0
    1a3c:	1400008a 	strne	r0, [r0], #-138	; 0xffffff76
    1a40:	01000000 	mrseq	r0, (UNDEF: 0)
    1a44:	0002389c 	muleq	r2, ip, r8
    1a48:	8a7c0b00 	bhi	1f04650 <__bss_end__+0x1efaf40>
    1a4c:	02440000 	subeq	r0, r4, #0, 0
    1a50:	010c0000 	mrseq	r0, (UNDEF: 12)
    1a54:	040c0550 	streq	r0, [ip], #-1360	; 0xfffffab0
    1a58:	00200030 	eoreq	r0, r0, r0, lsr r0
    1a5c:	04d51100 	ldrbeq	r1, [r5], #256	; 0x100
    1a60:	04d50000 	ldrbeq	r0, [r5], #0
    1a64:	93020000 	movwls	r0, #8192	; 0x2000
    1a68:	04ff1106 	ldrbteq	r1, [pc], #262	; 1a70 <__code_start__-0x6590>
    1a6c:	04ff0000 	ldrbteq	r0, [pc], #0	; 1a74 <__code_start__-0x658c>
    1a70:	b0020000 	andlt	r0, r2, r0
    1a74:	0568000a 	strbeq	r0, [r8, #-10]!
    1a78:	00040000 	andeq	r0, r4, r0
    1a7c:	00000a62 	andeq	r0, r0, r2, ror #20
    1a80:	01010104 	tsteq	r1, r4, lsl #2
    1a84:	520c0000 	andpl	r0, ip, #0, 0
    1a88:	6c000005 	stcvs	0, cr0, [r0], {5}
    1a8c:	f4000005 	vst4.8	{d0-d3}, [r0], r5
    1a90:	ac00008a 	stcge	0, cr0, [r0], {138}	; 0x8a
    1a94:	c5000001 	strgt	r0, [r0, #-1]
    1a98:	0200000c 	andeq	r0, r0, #12, 0
    1a9c:	6e690504 	cdpvs	5, 6, cr0, cr9, cr4, {0}
    1aa0:	04030074 	streq	r0, [r3], #-116	; 0xffffff8c
    1aa4:	0000c307 	andeq	ip, r0, r7, lsl #6
    1aa8:	002c0400 	eoreq	r0, ip, r0, lsl #8
    1aac:	01030000 	mrseq	r0, (UNDEF: 3)
    1ab0:	00003206 	andeq	r3, r0, r6, lsl #4
    1ab4:	05020300 	streq	r0, [r2, #-768]	; 0xfffffd00
    1ab8:	000000f7 	strdeq	r0, [r0], -r7
    1abc:	da050403 	ble	142ad0 <__bss_end__+0x1393c0>
    1ac0:	03000000 	movweq	r0, #0
    1ac4:	00d50508 	sbcseq	r0, r5, r8, lsl #10
    1ac8:	01030000 	mrseq	r0, (UNDEF: 3)
    1acc:	00003008 	andeq	r3, r0, r8
    1ad0:	07020300 	streq	r0, [r2, -r0, lsl #6]
    1ad4:	00000061 	andeq	r0, r0, r1, rrx
    1ad8:	00037405 	andeq	r7, r3, r5, lsl #8
    1adc:	19340500 	ldmdbne	r4!, {r8, sl}
    1ae0:	0000006e 	andeq	r0, r0, lr, rrx
    1ae4:	be070403 	cdplt	4, 0, cr0, cr7, cr3, {0}
    1ae8:	03000000 	movweq	r0, #0
    1aec:	00b90708 	adcseq	r0, r9, r8, lsl #14
    1af0:	25060000 	strcs	r0, [r6, #-0]
    1af4:	8b000000 	blhi	1afc <__code_start__-0x6504>
    1af8:	07000000 	streq	r0, [r0, -r0]
    1afc:	00000025 	andeq	r0, r0, r5, lsr #32
    1b00:	00e30800 	rsceq	r0, r3, r0, lsl #16
    1b04:	1c020000 	stcne	0, cr0, [r2], {-0}
    1b08:	0000970e 	andeq	r9, r0, lr, lsl #14
    1b0c:	7c040900 			; <UNDEFINED> instruction: 0x7c040900
    1b10:	06000000 	streq	r0, [r0], -r0
    1b14:	00000025 	andeq	r0, r0, r5, lsr #32
    1b18:	000000ac 	andeq	r0, r0, ip, lsr #1
    1b1c:	0000ac07 	andeq	sl, r0, r7, lsl #24
    1b20:	04090000 	streq	r0, [r9], #-0
    1b24:	000000b9 	strheq	r0, [r0], -r9
    1b28:	39080103 	stmdbcc	r8, {r0, r1, r8}
    1b2c:	0a000000 	beq	1b34 <__code_start__-0x64cc>
    1b30:	000000b2 	strheq	r0, [r0], -r2
    1b34:	0002dd08 	andeq	sp, r2, r8, lsl #26
    1b38:	0e210200 	cdpeq	2, 2, cr0, cr1, cr0, {0}
    1b3c:	000000ca 	andeq	r0, r0, sl, asr #1
    1b40:	009d0409 	addseq	r0, sp, r9, lsl #8
    1b44:	070b0000 	streq	r0, [fp, -r0]
    1b48:	00005401 	andeq	r5, r0, r1, lsl #8
    1b4c:	0e0c0400 	cfcpyseq	mvf0, mvf12
    1b50:	0000010f 	andeq	r0, r0, pc, lsl #2
    1b54:	0006670c 	andeq	r6, r6, ip, lsl #14
    1b58:	350c0000 	strcc	r0, [ip, #-0]
    1b5c:	01000005 	tsteq	r0, r5
    1b60:	0005aa0c 	andeq	sl, r5, ip, lsl #20
    1b64:	b90c0400 	stmdblt	ip, {sl}
    1b68:	05000005 	streq	r0, [r0, #-5]
    1b6c:	0005c80c 	andeq	ip, r5, ip, lsl #16
    1b70:	d70c0600 	strle	r0, [ip, -r0, lsl #12]
    1b74:	07000005 	streq	r0, [r0, -r5]
    1b78:	0006430c 	andeq	r4, r6, ip, lsl #6
    1b7c:	e60c0300 	str	r0, [ip], -r0, lsl #6
    1b80:	02000005 	andeq	r0, r0, #5, 0
    1b84:	05460d00 	strbeq	r0, [r6, #-3328]	; 0xfffff300
    1b88:	032c0000 			; <UNDEFINED> instruction: 0x032c0000
    1b8c:	01ab0806 			; <UNDEFINED> instruction: 0x01ab0806
    1b90:	690e0000 	stmdbvs	lr, {}	; <UNPREDICTABLE>
    1b94:	0903006f 	stmdbeq	r3, {r0, r1, r2, r3, r5, r6}
    1b98:	00003309 	andeq	r3, r0, r9, lsl #6
    1b9c:	690e0000 	stmdbvs	lr, {}	; <UNPREDICTABLE>
    1ba0:	03007265 	movweq	r7, #613	; 0x265
    1ba4:	0033090a 	eorseq	r0, r3, sl, lsl #18
    1ba8:	0e040000 	cdpeq	0, 0, cr0, cr4, cr0, {0}
    1bac:	00726969 	rsbseq	r6, r2, r9, ror #18
    1bb0:	33091103 	movwcc	r1, #37123	; 0x9103
    1bb4:	08000000 	stmdaeq	r0, {}	; <UNPREDICTABLE>
    1bb8:	72636c0e 	rsbvc	r6, r3, #3584	; 0xe00
    1bbc:	09130300 	ldmdbeq	r3, {r8, r9}
    1bc0:	00000033 	andeq	r0, r0, r3, lsr r0
    1bc4:	636d0e0c 	cmnvs	sp, #12, 28	; 0xc0
    1bc8:	14030072 	strne	r0, [r3], #-114	; 0xffffff8e
    1bcc:	00003309 	andeq	r3, r0, r9, lsl #6
    1bd0:	6c0e1000 	stcvs	0, cr1, [lr], {-0}
    1bd4:	03007273 	movweq	r7, #627	; 0x273
    1bd8:	00330915 	eorseq	r0, r3, r5, lsl r9
    1bdc:	0e140000 	cdpeq	0, 1, cr0, cr4, cr0, {0}
    1be0:	0072736d 	rsbseq	r7, r2, sp, ror #6
    1be4:	33091603 	movwcc	r1, #38403	; 0x9603
    1be8:	18000000 	stmdane	r0, {}	; <UNPREDICTABLE>
    1bec:	00065a0f 	andeq	r5, r6, pc, lsl #20
    1bf0:	09170300 	ldmdbeq	r7, {r8, r9}
    1bf4:	00000033 	andeq	r0, r0, r3, lsr r0
    1bf8:	06300f1c 	shadd16eq	r0, r0, ip
    1bfc:	1b030000 	blne	c1c04 <__bss_end__+0xb84f4>
    1c00:	00003309 	andeq	r3, r0, r9, lsl #6
    1c04:	220f2000 	andcs	r2, pc, #0, 0
    1c08:	03000005 	movweq	r0, #5
    1c0c:	0033091d 	eorseq	r0, r3, sp, lsl r9
    1c10:	0f240000 	svceq	0x00240000
    1c14:	000005fb 	strdeq	r0, [r0], -fp
    1c18:	33091e03 	movwcc	r1, #40451	; 0x9e03
    1c1c:	28000000 	stmdacs	r0, {}	; <UNPREDICTABLE>
    1c20:	06001000 	streq	r1, [r0], -r0
    1c24:	08010000 	stmdaeq	r1, {}	; <UNPREDICTABLE>
    1c28:	0001c109 	andeq	ip, r1, r9, lsl #2
    1c2c:	21500400 	cmpcs	r0, r0, lsl #8
    1c30:	33040920 	movwcc	r0, #18720	; 0x4920
    1c34:	0a000000 	beq	1c3c <__code_start__-0x63c4>
    1c38:	000001bb 			; <UNDEFINED> instruction: 0x000001bb
    1c3c:	00066210 	andeq	r6, r6, r0, lsl r2
    1c40:	23290100 			; <UNDEFINED> instruction: 0x23290100
    1c44:	000001dc 	ldrdeq	r0, [r0], -ip
    1c48:	20215040 	eorcs	r5, r1, r0, asr #32
    1c4c:	010f0409 	tsteq	pc, r9, lsl #8
    1c50:	d60a0000 	strle	r0, [sl], -r0
    1c54:	11000001 	tstne	r0, r1
    1c58:	00000430 	andeq	r0, r0, r0, lsr r4
    1c5c:	8c06c201 	sfmhi	f4, 1, [r6], {1}
    1c60:	1400008c 	strne	r0, [r0], #-140	; 0xffffff74
    1c64:	01000000 	mrseq	r0, (UNDEF: 0)
    1c68:	0002019c 	muleq	r2, ip, r1
    1c6c:	8c941200 	lfmhi	f1, 4, [r4], {0}
    1c70:	02010000 	andeq	r0, r1, #0, 0
    1c74:	13000000 	movwne	r0, #0
    1c78:	00000616 	andeq	r0, r0, r6, lsl r6
    1c7c:	2505ac01 	strcs	sl, [r5, #-3073]	; 0xfffff3ff
    1c80:	6c000000 	stcvs	0, cr0, [r0], {-0}
    1c84:	2000008c 	andcs	r0, r0, ip, lsl #1
    1c88:	01000000 	mrseq	r0, (UNDEF: 0)
    1c8c:	0002389c 	muleq	r2, ip, r8
    1c90:	8c741200 	lfmhi	f1, 2, [r4], #-0
    1c94:	053b0000 	ldreq	r0, [fp, #-0]!
    1c98:	7c140000 	ldcvc	0, cr0, [r4], {-0}
    1c9c:	4700008c 	strmi	r0, [r0, -ip, lsl #1]
    1ca0:	15000005 	strne	r0, [r0, #-5]
    1ca4:	0c055001 	stceq	0, cr5, [r5], {1}
    1ca8:	20215064 	eorcs	r5, r1, r4, rrx
    1cac:	35130000 	ldrcc	r0, [r3, #-0]
    1cb0:	01000006 	tsteq	r0, r6
    1cb4:	002505a9 	eoreq	r0, r5, r9, lsr #11
    1cb8:	8c5c0000 	mrahi	r0, ip, acc0
    1cbc:	00100000 	andseq	r0, r0, r0
    1cc0:	9c010000 	stcls	0, cr0, [r1], {-0}
    1cc4:	00000265 	andeq	r0, r0, r5, ror #4
    1cc8:	008c6412 	addeq	r6, ip, r2, lsl r4
    1ccc:	00053b00 	andeq	r3, r5, r0, lsl #22
    1cd0:	8c681200 	sfmhi	f1, 2, [r8], #-0
    1cd4:	03560000 	cmpeq	r6, #0, 0
    1cd8:	11000000 	mrsne	r0, (UNDEF: 0)
    1cdc:	00000518 	andeq	r0, r0, r8, lsl r5
    1ce0:	2c06a101 	stfcsd	f2, [r6], {1}
    1ce4:	3000008c 	andcc	r0, r0, ip, lsl #1
    1ce8:	01000000 	mrseq	r0, (UNDEF: 0)
    1cec:	0002c99c 	muleq	r2, ip, r9
    1cf0:	00631600 	rsbeq	r1, r3, r0, lsl #12
    1cf4:	2c19a101 	ldfcsd	f2, [r9], {1}
    1cf8:	12000000 	andne	r0, r0, #0, 0
    1cfc:	0e00000c 	cdpeq	0, 0, cr0, cr0, cr12, {0}
    1d00:	1200000c 	andne	r0, r0, #12, 0
    1d04:	00008c38 	andeq	r8, r0, r8, lsr ip
    1d08:	0000053b 	andeq	r0, r0, fp, lsr r5
    1d0c:	008c3c12 	addeq	r3, ip, r2, lsl ip
    1d10:	00032800 	andeq	r2, r3, r0, lsl #16
    1d14:	8c501700 	mrrchi	7, 0, r1, r0, cr0
    1d18:	05530000 	ldrbeq	r0, [r3, #-0]
    1d1c:	02bf0000 	adcseq	r0, pc, #0, 0
    1d20:	01150000 	tsteq	r5, r0
    1d24:	400c0550 	andmi	r0, ip, r0, asr r5
    1d28:	15202150 	strne	r2, [r0, #-336]!	; 0xfffffeb0
    1d2c:	74055101 	strvc	r5, [r5], #-257	; 0xfffffeff
    1d30:	1aff0800 	bne	fffc3d38 <__bss_end__+0xfffba628>
    1d34:	8c541200 	lfmhi	f1, 2, [r4], {-0}
    1d38:	053b0000 	ldreq	r0, [fp, #-0]!
    1d3c:	13000000 	movwne	r0, #0
    1d40:	0000060c 	andeq	r0, r0, ip, lsl #12
    1d44:	25059901 	strcs	r9, [r5, #-2305]	; 0xfffff6ff
    1d48:	fc000000 	stc2	0, cr0, [r0], {-0}
    1d4c:	3000008b 	andcc	r0, r0, fp, lsl #1
    1d50:	01000000 	mrseq	r0, (UNDEF: 0)
    1d54:	0003289c 	muleq	r3, ip, r8
    1d58:	00631800 	rsbeq	r1, r3, r0, lsl #16
    1d5c:	25099d01 	strcs	r9, [r9, #-3329]	; 0xfffff2ff
    1d60:	32000000 	andcc	r0, r0, #0, 0
    1d64:	3000000c 	andcc	r0, r0, ip
    1d68:	1200000c 	andne	r0, r0, #12, 0
    1d6c:	00008c04 	andeq	r8, r0, r4, lsl #24
    1d70:	0000053b 	andeq	r0, r0, fp, lsr r5
    1d74:	008c0812 	addeq	r0, ip, r2, lsl r8
    1d78:	00035600 	andeq	r5, r3, r0, lsl #12
    1d7c:	8c181700 	ldchi	7, cr1, [r8], {-0}
    1d80:	05470000 	strbeq	r0, [r7, #-0]
    1d84:	031e0000 	tsteq	lr, #0, 0
    1d88:	01150000 	tsteq	r5, r0
    1d8c:	400c0550 	andmi	r0, ip, r0, asr r5
    1d90:	00202150 	eoreq	r2, r0, r0, asr r1
    1d94:	008c2012 	addeq	r2, ip, r2, lsl r0
    1d98:	00053b00 	andeq	r3, r5, r0, lsl #22
    1d9c:	59130000 	ldmdbpl	r3, {}	; <UNPREDICTABLE>
    1da0:	01000005 	tsteq	r0, r5
    1da4:	0025058a 	eoreq	r0, r5, sl, lsl #11
    1da8:	8bdc0000 	blhi	ff701db0 <__bss_end__+0xff6f86a0>
    1dac:	00200000 	eoreq	r0, r0, r0
    1db0:	9c010000 	stcls	0, cr0, [r1], {-0}
    1db4:	00000356 	andeq	r0, r0, r6, asr r3
    1db8:	008be814 	addeq	lr, fp, r4, lsl r8
    1dbc:	00054700 	andeq	r4, r5, r0, lsl #14
    1dc0:	50011500 	andpl	r1, r1, r0, lsl #10
    1dc4:	50640c05 	rsbpl	r0, r4, r5, lsl #24
    1dc8:	00002021 	andeq	r2, r0, r1, lsr #32
    1dcc:	00052713 	andeq	r2, r5, r3, lsl r7
    1dd0:	05810100 	streq	r0, [r1, #256]	; 0x100
    1dd4:	00000025 	andeq	r0, r0, r5, lsr #32
    1dd8:	00008bc4 	andeq	r8, r0, r4, asr #23
    1ddc:	00000018 	andeq	r0, r0, r8, lsl r0
    1de0:	03849c01 	orreq	r9, r4, #256	; 0x100
    1de4:	d0140000 	andsle	r0, r4, r0
    1de8:	4700008b 	strmi	r0, [r0, -fp, lsl #1]
    1dec:	15000005 	strne	r0, [r0, #-5]
    1df0:	0c055001 	stceq	0, cr5, [r5], {1}
    1df4:	20215064 	eorcs	r5, r1, r4, rrx
    1df8:	a0110000 	andsge	r0, r1, r0
    1dfc:	01000005 	tsteq	r0, r5
    1e00:	8b14063b 	blhi	5036f4 <__bss_end__+0x4f9fe4>
    1e04:	00b00000 	adcseq	r0, r0, r0
    1e08:	9c010000 	stcls	0, cr0, [r1], {-0}
    1e0c:	000004d1 	ldrdeq	r0, [r0], -r1
    1e10:	00062719 	andeq	r2, r6, r9, lsl r7
    1e14:	0e740100 	rpweqs	f0, f4, f0
    1e18:	00000062 	andeq	r0, r0, r2, rrx
    1e1c:	2417010e 	ldrcs	r0, [r7], #-270	; 0xfffffef2
    1e20:	5f00008b 	svcpl	0x0000008b
    1e24:	c0000005 	andgt	r0, r0, r5
    1e28:	15000003 	strne	r0, [r0, #-3]
    1e2c:	3e015001 	cdpcc	0, 0, cr5, cr1, cr1, {0}
    1e30:	01510115 	cmpeq	r1, r5, lsl r1
    1e34:	30170032 	andscc	r0, r7, r2, lsr r0
    1e38:	5f00008b 	svcpl	0x0000008b
    1e3c:	d8000005 	stmdale	r0, {r0, r2}
    1e40:	15000003 	strne	r0, [r0, #-3]
    1e44:	3f015001 	svccc	0x00015001
    1e48:	01510115 	cmpeq	r1, r5, lsl r1
    1e4c:	34120032 	ldrcc	r0, [r2], #-50	; 0xffffffce
    1e50:	3b00008b 	blcc	2084 <__code_start__-0x5f7c>
    1e54:	17000005 	strne	r0, [r0, -r5]
    1e58:	00008b40 	andeq	r8, r0, r0, asr #22
    1e5c:	000004d1 	ldrdeq	r0, [r0], -r1
    1e60:	000003fd 	strdeq	r0, [r0], -sp
    1e64:	05500115 	ldrbeq	r0, [r0, #-277]	; 0xfffffeeb
    1e68:	2150040c 	cmpcs	r0, ip, lsl #8
    1e6c:	51011520 	tstpl	r1, r0, lsr #10
    1e70:	12003101 	andne	r3, r0, #1073741824	; 0x40000000
    1e74:	00008b44 	andeq	r8, r0, r4, asr #22
    1e78:	0000053b 	andeq	r0, r0, fp, lsr r5
    1e7c:	008b5417 	addeq	r5, fp, r7, lsl r4
    1e80:	00055300 	andeq	r5, r5, r0, lsl #6
    1e84:	00041f00 	andeq	r1, r4, r0, lsl #30
    1e88:	50011500 	andpl	r1, r1, r0, lsl #10
    1e8c:	15007402 	strne	r7, [r0, #-1026]	; 0xfffffbfe
    1e90:	30015101 	andcc	r5, r1, r1, lsl #2
    1e94:	8b601700 	blhi	1807a9c <__bss_end__+0x17fe38c>
    1e98:	05530000 	ldrbeq	r0, [r3, #-0]
    1e9c:	043b0000 	ldrteq	r0, [fp], #-0
    1ea0:	01150000 	tsteq	r5, r0
    1ea4:	440c0550 	strmi	r0, [ip], #-1360	; 0xfffffab0
    1ea8:	15202150 	strne	r2, [r0, #-336]!	; 0xfffffeb0
    1eac:	30015101 	andcc	r5, r1, r1, lsl #2
    1eb0:	8b6c1700 	blhi	1b07ab8 <__bss_end__+0x1afe3a8>
    1eb4:	05530000 	ldrbeq	r0, [r3, #-0]
    1eb8:	04570000 	ldrbeq	r0, [r7], #-0
    1ebc:	01150000 	tsteq	r5, r0
    1ec0:	4c0c0550 	cfstr32mi	mvfx0, [ip], {80}	; 0x50
    1ec4:	15202150 	strne	r2, [r0, #-336]!	; 0xfffffeb0
    1ec8:	33015101 	movwcc	r5, #4353	; 0x1101
    1ecc:	8b781700 	blhi	1e07ad4 <__bss_end__+0x1dfe3c4>
    1ed0:	05530000 	ldrbeq	r0, [r3, #-0]
    1ed4:	04730000 	ldrbteq	r0, [r3], #-0
    1ed8:	01150000 	tsteq	r5, r0
    1edc:	500c0550 	andpl	r0, ip, r0, asr r5
    1ee0:	15202150 	strne	r2, [r0, #-336]!	; 0xfffffeb0
    1ee4:	30015101 	andcc	r5, r1, r1, lsl #2
    1ee8:	8b841700 	blhi	fe107af0 <__bss_end__+0xfe0fe3e0>
    1eec:	05530000 	ldrbeq	r0, [r3, #-0]
    1ef0:	04900000 	ldreq	r0, [r0], #0
    1ef4:	01150000 	tsteq	r5, r0
    1ef8:	480c0550 	stmdami	ip, {r4, r6, r8, sl}
    1efc:	15202150 	strne	r2, [r0, #-336]!	; 0xfffffeb0
    1f00:	08025101 	stmdaeq	r2, {r0, r8, ip, lr}
    1f04:	901700c7 	andsls	r0, r7, r7, asr #1
    1f08:	5300008b 	movwpl	r0, #139	; 0x8b
    1f0c:	ae000005 	cdpge	0, 0, cr0, cr0, cr5, {0}
    1f10:	15000004 	strne	r0, [r0, #-4]
    1f14:	0c055001 	stceq	0, cr5, [r5], {1}
    1f18:	20215068 	eorcs	r5, r1, r8, rrx
    1f1c:	03510115 	cmpeq	r1, #1073741829	; 0x40000005
    1f20:	00010e0a 	andeq	r0, r1, sl, lsl #28
    1f24:	008b9c17 	addeq	r9, fp, r7, lsl ip
    1f28:	00055300 	andeq	r5, r5, r0, lsl #6
    1f2c:	0004c700 	andeq	ip, r4, r0, lsl #14
    1f30:	50011500 	andpl	r1, r1, r0, lsl #10
    1f34:	15007402 	strne	r7, [r0, #-1026]	; 0xfffffbfe
    1f38:	33015101 	movwcc	r5, #4353	; 0x1101
    1f3c:	8ba01200 	blhi	fe806744 <__bss_end__+0xfe7fd034>
    1f40:	053b0000 	ldreq	r0, [fp, #-0]!
    1f44:	1a000000 	bne	1f4c <__code_start__-0x60b4>
    1f48:	00000652 	andeq	r0, r0, r2, asr r6
    1f4c:	f40d2e01 			; <UNDEFINED> instruction: 0xf40d2e01
    1f50:	2000008a 	andcs	r0, r0, sl, lsl #1
    1f54:	01000000 	mrseq	r0, (UNDEF: 0)
    1f58:	0005349c 	muleq	r5, ip, r4
    1f5c:	05671b00 	strbeq	r1, [r7, #-2816]!	; 0xfffff500
    1f60:	2e010000 	cdpcs	0, 0, cr0, cr1, cr0, {0}
    1f64:	00053424 	andeq	r3, r5, r4, lsr #8
    1f68:	000c4900 	andeq	r4, ip, r0, lsl #18
    1f6c:	000c4500 	andeq	r4, ip, r0, lsl #10
    1f70:	61761600 	cmnvs	r6, r0, lsl #12
    1f74:	2e01006c 	cdpcs	0, 0, cr0, cr1, cr12, {3}
    1f78:	00002c33 	andeq	r2, r0, r3, lsr ip
    1f7c:	000c6b00 	andeq	r6, ip, r0, lsl #22
    1f80:	000c6700 	andeq	r6, ip, r0, lsl #14
    1f84:	8b041700 	blhi	107b8c <__bss_end__+0xfe47c>
    1f88:	05470000 	strbeq	r0, [r7, #-0]
    1f8c:	05230000 	streq	r0, [r3, #-0]!
    1f90:	01150000 	tsteq	r5, r0
    1f94:	00740250 	rsbseq	r0, r4, r0, asr r2
    1f98:	8b101400 	blhi	406fa0 <__bss_end__+0x3fd890>
    1f9c:	05530000 	ldrbeq	r0, [r3, #-0]
    1fa0:	01150000 	tsteq	r5, r0
    1fa4:	00740250 	rsbseq	r0, r4, r0, asr r2
    1fa8:	04090000 	streq	r0, [r9], #-0
    1fac:	0000053a 	andeq	r0, r0, sl, lsr r5
    1fb0:	04d51d1c 	ldrbeq	r1, [r5], #3356	; 0xd1c
    1fb4:	04d50000 	ldrbeq	r0, [r5], #0
    1fb8:	93020000 	movwls	r0, #8192	; 0x2000
    1fbc:	06891d06 	streq	r1, [r9], r6, lsl #26
    1fc0:	06890000 	streq	r0, [r9], r0
    1fc4:	b1020000 	mrslt	r0, (UNDEF: 2)
    1fc8:	05f51d0b 	ldrbeq	r1, [r5, #3339]!	; 0xd0b
    1fcc:	05f50000 	ldrbeq	r0, [r5, #0]!
    1fd0:	a5020000 	strge	r0, [r2, #-0]
    1fd4:	06771d06 	ldrbteq	r1, [r7], -r6, lsl #26
    1fd8:	06770000 	ldrbteq	r0, [r7], -r0
    1fdc:	19040000 	stmdbne	r4, {}	; <UNPREDICTABLE>
    1fe0:	03ee0006 	mvneq	r0, #6, 0
    1fe4:	00040000 	andeq	r0, r4, r0
    1fe8:	00000c1f 	andeq	r0, r0, pc, lsl ip
    1fec:	01010104 	tsteq	r1, r4, lsl #2
    1ff0:	a60c0000 	strge	r0, [ip], -r0
    1ff4:	6c000006 	stcvs	0, cr0, [r0], {6}
    1ff8:	a0000005 	andge	r0, r0, r5
    1ffc:	4800008c 	stmdami	r0, {r2, r3, r7}
    2000:	7e000001 	cdpvc	0, 0, cr0, cr0, cr1, {0}
    2004:	0200000e 	andeq	r0, r0, #14, 0
    2008:	6e690504 	cdpvs	5, 6, cr0, cr9, cr4, {0}
    200c:	04030074 	streq	r0, [r3], #-116	; 0xffffff8c
    2010:	0000c307 	andeq	ip, r0, r7, lsl #6
    2014:	06010300 	streq	r0, [r1], -r0, lsl #6
    2018:	00000032 	andeq	r0, r0, r2, lsr r0
    201c:	f7050203 			; <UNDEFINED> instruction: 0xf7050203
    2020:	03000000 	movweq	r0, #0
    2024:	00da0504 	sbcseq	r0, sl, r4, lsl #10
    2028:	08030000 	stmdaeq	r3, {}	; <UNPREDICTABLE>
    202c:	0000d505 	andeq	sp, r0, r5, lsl #10
    2030:	08010300 	stmdaeq	r1, {r8, r9}
    2034:	00000030 	andeq	r0, r0, r0, lsr r0
    2038:	61070203 	tstvs	r7, r3, lsl #4
    203c:	03000000 	movweq	r0, #0
    2040:	00be0704 	adcseq	r0, lr, r4, lsl #14
    2044:	08030000 	stmdaeq	r3, {}	; <UNPREDICTABLE>
    2048:	0000b907 	andeq	fp, r0, r7, lsl #18
    204c:	00250400 	eoreq	r0, r5, r0, lsl #8
    2050:	007a0000 	rsbseq	r0, sl, r0
    2054:	25050000 	strcs	r0, [r5, #-0]
    2058:	00000000 	andeq	r0, r0, r0
    205c:	0000e306 	andeq	lr, r0, r6, lsl #6
    2060:	0e1c0200 	cdpeq	2, 1, cr0, cr12, cr0, {0}
    2064:	00000086 	andeq	r0, r0, r6, lsl #1
    2068:	006b0407 	rsbeq	r0, fp, r7, lsl #8
    206c:	25040000 	strcs	r0, [r4, #-0]
    2070:	9b000000 	blls	2078 <__code_start__-0x5f88>
    2074:	05000000 	streq	r0, [r0, #-0]
    2078:	0000009b 	muleq	r0, fp, r0
    207c:	a8040700 	stmdage	r4, {r8, r9, sl}
    2080:	03000000 	movweq	r0, #0
    2084:	00390801 	eorseq	r0, r9, r1, lsl #16
    2088:	a1080000 	mrsge	r0, (UNDEF: 8)
    208c:	06000000 	streq	r0, [r0], -r0
    2090:	000002dd 	ldrdeq	r0, [r0], -sp
    2094:	b90e2102 	stmdblt	lr, {r1, r8, sp}
    2098:	07000000 	streq	r0, [r0, -r0]
    209c:	00008c04 	andeq	r8, r0, r4, lsl #24
    20a0:	06cb0900 	strbeq	r0, [fp], r0, lsl #18
    20a4:	05010000 	streq	r0, [r1, #-0]
    20a8:	00002c11 	andeq	r2, r0, r1, lsl ip
    20ac:	069c0900 	ldreq	r0, [ip], r0, lsl #18
    20b0:	06010000 	streq	r0, [r1], -r0
    20b4:	00002c11 	andeq	r2, r0, r1, lsl ip
    20b8:	06b10a00 	ldrteq	r0, [r1], r0, lsl #20
    20bc:	38010000 	stmdacc	r1, {}	; <UNPREDICTABLE>
    20c0:	00002505 	andeq	r2, r0, r5, lsl #10
    20c4:	008dd000 	addeq	sp, sp, r0
    20c8:	00001800 	andeq	r1, r0, r0, lsl #16
    20cc:	199c0100 	ldmibne	ip, {r8}
    20d0:	0b000001 	bleq	20dc <__code_start__-0x5f24>
    20d4:	006e6970 	rsbeq	r6, lr, r0, ror r9
    20d8:	2c1b3801 	ldccs	8, cr3, [fp], {1}
    20dc:	8d000000 	stchi	0, cr0, [r0, #-0]
    20e0:	8900000c 	stmdbhi	r0, {r2, r3}
    20e4:	0c00000c 	stceq	0, cr0, [r0], {12}
    20e8:	00008ddc 	ldrdeq	r8, [r0], -ip
    20ec:	0000039d 	muleq	r0, sp, r3
    20f0:	0550010d 	ldrbeq	r0, [r0, #-269]	; 0xfffffef3
    20f4:	2000940c 	andcs	r9, r0, ip, lsl #8
    20f8:	0e000020 	cdpeq	0, 0, cr0, cr0, cr0, {1}
    20fc:	0000068f 	andeq	r0, r0, pc, lsl #13
    2100:	c0063601 	andgt	r3, r6, r1, lsl #12
    2104:	1000008d 	andne	r0, r0, sp, lsl #1
    2108:	01000000 	mrseq	r0, (UNDEF: 0)
    210c:	00015a9c 	muleq	r1, ip, sl
    2110:	69700b00 	ldmdbvs	r0!, {r8, r9, fp}^
    2114:	3601006e 	strcc	r0, [r1], -lr, rrx
    2118:	00002c1c 	andeq	r2, r0, ip, lsl ip
    211c:	000cb200 	andeq	fp, ip, r0, lsl #4
    2120:	000cae00 	andeq	sl, ip, r0, lsl #28
    2124:	8dcc0c00 	stclhi	12, cr0, [ip]
    2128:	01dc0000 	bicseq	r0, ip, r0
    212c:	010d0000 	mrseq	r0, (UNDEF: 13)
    2130:	01f30350 	mvnseq	r0, r0, asr r3
    2134:	51010d50 	tstpl	r1, r0, asr sp
    2138:	00003001 	andeq	r3, r0, r1
    213c:	0002300e 	andeq	r3, r2, lr
    2140:	06350100 	ldrteq	r0, [r5], -r0, lsl #2
    2144:	00008db0 			; <UNDEFINED> instruction: 0x00008db0
    2148:	00000010 	andeq	r0, r0, r0, lsl r0
    214c:	019b9c01 	orrseq	r9, fp, r1, lsl #24
    2150:	700b0000 	andvc	r0, fp, r0
    2154:	01006e69 	tsteq	r0, r9, ror #28
    2158:	002c2135 	eoreq	r2, ip, r5, lsr r1
    215c:	0cd70000 	ldcleq	0, cr0, [r7], {0}
    2160:	0cd30000 	ldcleq	0, cr0, [r3], {0}
    2164:	bc0c0000 	stclt	0, cr0, [ip], {-0}
    2168:	dc00008d 	stcle	0, cr0, [r0], {141}	; 0x8d
    216c:	0d000001 	stceq	0, cr0, [r0, #-4]
    2170:	f3035001 	vhadd.u8	d5, d3, d1
    2174:	010d5001 	tsteq	sp, r1
    2178:	00310151 	eorseq	r0, r1, r1, asr r1
    217c:	06d40e00 	ldrbeq	r0, [r4], r0, lsl #28
    2180:	34010000 	strcc	r0, [r1], #-0
    2184:	008da006 	addeq	sl, sp, r6
    2188:	00001000 	andeq	r1, r0, r0
    218c:	dc9c0100 	ldfles	f0, [ip], {0}
    2190:	0b000001 	bleq	219c <__code_start__-0x5e64>
    2194:	006e6970 	rsbeq	r6, lr, r0, ror r9
    2198:	2c1f3401 	cfldrscs	mvf3, [pc], {1}
    219c:	fc000000 	stc2	0, cr0, [r0], {-0}
    21a0:	f800000c 			; <UNDEFINED> instruction: 0xf800000c
    21a4:	0c00000c 	stceq	0, cr0, [r0], {12}
    21a8:	00008dac 	andeq	r8, r0, ip, lsr #27
    21ac:	000001dc 	ldrdeq	r0, [r0], -ip
    21b0:	0350010d 	cmpeq	r0, #1073741827	; 0x40000003
    21b4:	0d5001f3 	ldfeqe	f0, [r0, #-972]	; 0xfffffc34
    21b8:	32015101 	andcc	r5, r1, #1073741824	; 0x40000000
    21bc:	be0e0000 	cdplt	0, 0, cr0, cr14, cr0, {0}
    21c0:	01000006 	tsteq	r0, r6
    21c4:	8ca00611 	stchi	6, cr0, [r0], #68	; 0x44
    21c8:	01000000 	mrseq	r0, (UNDEF: 0)
    21cc:	9c010000 	stcls	0, cr0, [r1], {-0}
    21d0:	00000388 	andeq	r0, r0, r8, lsl #7
    21d4:	6e69700b 	cdpvs	0, 6, cr7, cr9, cr11, {0}
    21d8:	1c110100 	ldfnes	f0, [r1], {-0}
    21dc:	0000002c 	andeq	r0, r0, ip, lsr #32
    21e0:	00000d2d 	andeq	r0, r0, sp, lsr #26
    21e4:	00000d1d 	andeq	r0, r0, sp, lsl sp
    21e8:	6475700b 	ldrbtvs	r7, [r5], #-11
    21ec:	2a110100 	bcs	4425f4 <__bss_end__+0x438ee4>
    21f0:	0000002c 	andeq	r0, r0, ip, lsr #32
    21f4:	00000da2 	andeq	r0, r0, r2, lsr #27
    21f8:	00000d90 	muleq	r0, r0, sp
    21fc:	0003370f 	andeq	r3, r3, pc, lsl #14
    2200:	00039800 	andeq	r9, r3, r0, lsl #16
    2204:	f8030500 			; <UNDEFINED> instruction: 0xf8030500
    2208:	10000092 	mulne	r0, r2, r0
    220c:	00008cd4 	ldrdeq	r8, [r0], -r4
    2210:	000003a9 	andeq	r0, r0, r9, lsr #7
    2214:	008cf011 	addeq	pc, ip, r1, lsl r0	; <UNPREDICTABLE>
    2218:	0003b500 	andeq	fp, r3, r0, lsl #10
    221c:	00026a00 	andeq	r6, r2, r0, lsl #20
    2220:	50010d00 	andpl	r0, r1, r0, lsl #26
    2224:	928c0305 	addls	r0, ip, #335544320	; 0x14000000
    2228:	010d0000 	mrseq	r0, (UNDEF: 13)
    222c:	80030551 	andhi	r0, r3, r1, asr r5
    2230:	0d000092 	stceq	0, cr0, [r0, #-584]	; 0xfffffdb8
    2234:	03055201 	movweq	r5, #20993	; 0x5201
    2238:	000092f8 	strdeq	r9, [r0], -r8
    223c:	0153010d 	cmpeq	r3, sp, lsl #2
    2240:	7d020d42 	stcvc	13, cr0, [r2, #-264]	; 0xfffffef8
    2244:	b8030500 	stmdalt	r3, {r8, sl}
    2248:	00000092 	muleq	r0, r2, r0
    224c:	008cf410 	addeq	pc, ip, r0, lsl r4	; <UNPREDICTABLE>
    2250:	0003c100 	andeq	ip, r3, r0, lsl #2
    2254:	8cf81000 	ldclhi	0, cr1, [r8]
    2258:	03a90000 			; <UNDEFINED> instruction: 0x03a90000
    225c:	14110000 	ldrne	r0, [r1], #-0
    2260:	b500008d 	strlt	r0, [r0, #-141]	; 0xffffff73
    2264:	b4000003 	strlt	r0, [r0], #-3
    2268:	0d000002 	stceq	0, cr0, [r0, #-8]
    226c:	03055001 	movweq	r5, #20481	; 0x5001
    2270:	000092c4 	andeq	r9, r0, r4, asr #5
    2274:	0551010d 	ldrbeq	r0, [r1, #-269]	; 0xfffffef3
    2278:	00928003 	addseq	r8, r2, r3
    227c:	52010d00 	andpl	r0, r1, #0, 26
    2280:	92f80305 	rscsls	r0, r8, #335544320	; 0x14000000
    2284:	010d0000 	mrseq	r0, (UNDEF: 13)
    2288:	0d430153 	stfeqe	f0, [r3, #-332]	; 0xfffffeb4
    228c:	05007d02 	streq	r7, [r0, #-3330]	; 0xfffff2fe
    2290:	0092f003 	addseq	pc, r2, r3
    2294:	18100000 	ldmdane	r0, {}	; <UNPREDICTABLE>
    2298:	c100008d 	smlabbgt	r0, sp, r0, r0
    229c:	10000003 	andne	r0, r0, r3
    22a0:	00008d1c 	andeq	r8, r0, ip, lsl sp
    22a4:	000003cd 	andeq	r0, r0, sp, asr #7
    22a8:	008d2c11 	addeq	r2, sp, r1, lsl ip
    22ac:	0003d900 	andeq	sp, r3, r0, lsl #18
    22b0:	0002e000 	andeq	lr, r2, r0
    22b4:	50010d00 	andpl	r0, r1, r0, lsl #26
    22b8:	0d007602 	stceq	6, cr7, [r0, #-8]
    22bc:	74025101 	strvc	r5, [r2], #-257	; 0xfffffeff
    22c0:	34110000 	ldrcc	r0, [r1], #-0
    22c4:	e500008d 	str	r0, [r0, #-141]	; 0xffffff73
    22c8:	f4000003 	vst4.8	{d0-d3}, [r0], r3
    22cc:	0d000002 	stceq	0, cr0, [r0, #-8]
    22d0:	08025001 	stmdaeq	r2, {r0, ip, lr}
    22d4:	48110096 	ldmdami	r1, {r1, r2, r4, r7}
    22d8:	d900008d 	stmdble	r0, {r0, r2, r3, r7}
    22dc:	10000003 	andne	r0, r0, r3
    22e0:	0d000003 	stceq	0, cr0, [r0, #-12]
    22e4:	74025001 	strvc	r5, [r2], #-1
    22e8:	51010d00 	tstpl	r1, r0, lsl #26
    22ec:	00753104 	rsbseq	r3, r5, r4, lsl #2
    22f0:	50110024 	andspl	r0, r1, r4, lsr #32
    22f4:	e500008d 	str	r0, [r0, #-141]	; 0xffffff73
    22f8:	24000003 	strcs	r0, [r0], #-3
    22fc:	0d000003 	stceq	0, cr0, [r0, #-12]
    2300:	08025001 	stmdaeq	r2, {r0, ip, lr}
    2304:	5c110096 	ldcpl	0, cr0, [r1], {150}	; 0x96
    2308:	d900008d 	stmdble	r0, {r0, r2, r3, r7}
    230c:	3d000003 	stccc	0, cr0, [r0, #-12]
    2310:	0d000003 	stceq	0, cr0, [r0, #-12]
    2314:	76025001 	strvc	r5, [r2], -r1
    2318:	51010d00 	tstpl	r1, r0, lsl #26
    231c:	11003001 	tstne	r0, r1
    2320:	00008d64 	andeq	r8, r0, r4, ror #26
    2324:	000003e5 	andeq	r0, r0, r5, ror #7
    2328:	00000351 	andeq	r0, r0, r1, asr r3
    232c:	0250010d 	subseq	r0, r0, #1073741827	; 0x40000003
    2330:	11009608 	tstne	r0, r8, lsl #12
    2334:	00008d70 	andeq	r8, r0, r0, ror sp
    2338:	000003d9 	ldrdeq	r0, [r0], -r9
    233c:	0000036a 	andeq	r0, r0, sl, ror #6
    2340:	0250010d 	subseq	r0, r0, #1073741827	; 0x40000003
    2344:	010d0074 	tsteq	sp, r4, ror r0
    2348:	00300151 	eorseq	r0, r0, r1, asr r1
    234c:	008d7811 	addeq	r7, sp, r1, lsl r8
    2350:	0003e500 	andeq	lr, r3, r0, lsl #10
    2354:	00037e00 	andeq	r7, r3, r0, lsl #28
    2358:	50010d00 	andpl	r0, r1, r0, lsl #26
    235c:	00960802 	addseq	r0, r6, r2, lsl #16
    2360:	008d7c10 	addeq	r7, sp, r0, lsl ip
    2364:	0003cd00 	andeq	ip, r3, r0, lsl #26
    2368:	a8120000 	ldmdage	r2, {}	; <UNPREDICTABLE>
    236c:	98000000 	stmdals	r0, {}	; <UNPREDICTABLE>
    2370:	13000003 	movwne	r0, #3
    2374:	0000002c 	andeq	r0, r0, ip, lsr #32
    2378:	8808000c 	stmdahi	r8, {r2, r3}
    237c:	14000003 	strne	r0, [r0], #-3
    2380:	000004ff 	strdeq	r0, [r0], -pc	; <UNPREDICTABLE>
    2384:	000004ff 	strdeq	r0, [r0], -pc	; <UNPREDICTABLE>
    2388:	140ab002 	strne	fp, [sl], #-2
    238c:	000006e4 	andeq	r0, r0, r4, ror #13
    2390:	000006e4 	andeq	r0, r0, r4, ror #13
    2394:	14061d02 	strne	r1, [r6], #-3330	; 0xfffff2fe
    2398:	0000029f 	muleq	r0, pc, r2	; <UNPREDICTABLE>
    239c:	0000029f 	muleq	r0, pc, r2	; <UNPREDICTABLE>
    23a0:	14062802 	strne	r2, [r6], #-2050	; 0xfffff7fe
    23a4:	00000047 	andeq	r0, r0, r7, asr #32
    23a8:	00000047 	andeq	r0, r0, r7, asr #32
    23ac:	14066702 	strne	r6, [r6], #-1794	; 0xfffff8fe
    23b0:	000004d5 	ldrdeq	r0, [r0], -r5
    23b4:	000004d5 	ldrdeq	r0, [r0], -r5
    23b8:	14069302 	strne	r9, [r6], #-770	; 0xfffffcfe
    23bc:	0000046b 	andeq	r0, r0, fp, ror #8
    23c0:	0000046b 	andeq	r0, r0, fp, ror #8
    23c4:	1406a402 	strne	sl, [r6], #-1026	; 0xfffffbfe
    23c8:	000001fd 	strdeq	r0, [r0], -sp
    23cc:	000001fd 	strdeq	r0, [r0], -sp
    23d0:	00064f02 	andeq	r4, r6, r2, lsl #30
    23d4:	00000524 	andeq	r0, r0, r4, lsr #10
    23d8:	0d3c0004 	ldceq	0, cr0, [ip, #-16]!
    23dc:	01040000 	mrseq	r0, (UNDEF: 4)
    23e0:	00000101 	andeq	r0, r0, r1, lsl #2
    23e4:	00074b0c 	andeq	r4, r7, ip, lsl #22
    23e8:	00026500 	andeq	r6, r2, r0, lsl #10
    23ec:	008de800 	addeq	lr, sp, r0, lsl #16
    23f0:	0001ac00 	andeq	sl, r1, r0, lsl #24
    23f4:	000f8000 	andeq	r8, pc, r0
    23f8:	05040200 	streq	r0, [r4, #-512]	; 0xfffffe00
    23fc:	00746e69 	rsbseq	r6, r4, r9, ror #28
    2400:	c3070403 	movwgt	r0, #29699	; 0x7403
    2404:	04000000 	streq	r0, [r0], #-0
    2408:	0000002c 	andeq	r0, r0, ip, lsr #32
    240c:	32060103 	andcc	r0, r6, #-1073741824	; 0xc0000000
    2410:	03000000 	movweq	r0, #0
    2414:	00f70502 	rscseq	r0, r7, r2, lsl #10
    2418:	04030000 	streq	r0, [r3], #-0
    241c:	0000da05 	andeq	sp, r0, r5, lsl #20
    2420:	05080300 	streq	r0, [r8, #-768]	; 0xfffffd00
    2424:	000000d5 	ldrdeq	r0, [r0], -r5
    2428:	30080103 	andcc	r0, r8, r3, lsl #2
    242c:	03000000 	movweq	r0, #0
    2430:	00610702 	rsbeq	r0, r1, r2, lsl #14
    2434:	04030000 	streq	r0, [r3], #-0
    2438:	0000be07 	andeq	fp, r0, r7, lsl #28
    243c:	07080300 	streq	r0, [r8, -r0, lsl #6]
    2440:	000000b9 	strheq	r0, [r0], -r9
    2444:	00002505 	andeq	r2, r0, r5, lsl #10
    2448:	00007f00 	andeq	r7, r0, r0, lsl #30
    244c:	00250600 	eoreq	r0, r5, r0, lsl #12
    2450:	07000000 	streq	r0, [r0, -r0]
    2454:	000000e3 	andeq	r0, r0, r3, ror #1
    2458:	8b0e1c02 	blhi	389468 <__bss_end__+0x37fd58>
    245c:	08000000 	stmdaeq	r0, {}	; <UNPREDICTABLE>
    2460:	00007004 	andeq	r7, r0, r4
    2464:	00250500 	eoreq	r0, r5, r0, lsl #10
    2468:	00a00000 	adceq	r0, r0, r0
    246c:	a0060000 	andge	r0, r6, r0
    2470:	00000000 	andeq	r0, r0, r0
    2474:	00ad0408 	adceq	r0, sp, r8, lsl #8
    2478:	01030000 	mrseq	r0, (UNDEF: 3)
    247c:	00003908 	andeq	r3, r0, r8, lsl #18
    2480:	00a60900 	adceq	r0, r6, r0, lsl #18
    2484:	dd070000 	stcle	0, cr0, [r7, #-0]
    2488:	02000002 	andeq	r0, r0, #2, 0
    248c:	00be0e21 	adcseq	r0, lr, r1, lsr #28
    2490:	04080000 	streq	r0, [r8], #-0
    2494:	00000091 	muleq	r0, r1, r0
    2498:	5401070a 	strpl	r0, [r1], #-1802	; 0xfffff8f6
    249c:	03000000 	movweq	r0, #0
    24a0:	01030e0c 	tsteq	r3, ip, lsl #28
    24a4:	670b0000 	strvs	r0, [fp, -r0]
    24a8:	00000006 	andeq	r0, r0, r6
    24ac:	0005350b 	andeq	r3, r5, fp, lsl #10
    24b0:	aa0b0100 	bge	2c28b8 <__bss_end__+0x2b91a8>
    24b4:	04000005 	streq	r0, [r0], #-5
    24b8:	0005b90b 	andeq	fp, r5, fp, lsl #18
    24bc:	c80b0500 	stmdagt	fp, {r8, sl}
    24c0:	06000005 	streq	r0, [r0], -r5
    24c4:	0005d70b 	andeq	sp, r5, fp, lsl #14
    24c8:	430b0700 	movwmi	r0, #46848	; 0xb700
    24cc:	03000006 	movweq	r0, #6
    24d0:	0005e60b 	andeq	lr, r5, fp, lsl #12
    24d4:	0c000200 	sfmeq	f0, 4, [r0], {-0}
    24d8:	00000758 	andeq	r0, r0, r8, asr r7
    24dc:	c4031503 	strgt	r1, [r3], #-1283	; 0xfffffafd
    24e0:	0d000000 	stceq	0, cr0, [r0, #-0]
    24e4:	00000712 	andeq	r0, r0, r2, lsl r7
    24e8:	1b1b1101 	blne	6c68f4 <__bss_end__+0x6bd1e4>
    24ec:	08000001 	stmdaeq	r0, {r0}
    24f0:	00003304 	andeq	r3, r0, r4, lsl #6
    24f4:	06fd0d00 	ldrbteq	r0, [sp], r0, lsl #26
    24f8:	12010000 	andne	r0, r1, #0, 0
    24fc:	00011b1b 	andeq	r1, r1, fp, lsl fp
    2500:	06f30d00 	ldrbteq	r0, [r3], r0, lsl #26
    2504:	13010000 	movwne	r0, #4096	; 0x1000
    2508:	00011b1b 	andeq	r1, r1, fp, lsl fp
    250c:	06770e00 	ldrbteq	r0, [r7], -r0, lsl #28
    2510:	68010000 	stmdavs	r1, {}	; <UNPREDICTABLE>
    2514:	008f3406 	addeq	r3, pc, r6, lsl #8
    2518:	00006000 	andeq	r6, r0, r0
    251c:	009c0100 	addseq	r0, ip, r0, lsl #2
    2520:	0f000002 	svceq	0x00000002
    2524:	006e6970 	rsbeq	r6, lr, r0, ror r9
    2528:	2c216801 	stccs	8, cr6, [r1], #-4
    252c:	1c000000 	stcne	0, cr0, [r0], {-0}
    2530:	1600000e 	strne	r0, [r0], -lr
    2534:	1000000e 	andne	r0, r0, lr
    2538:	00000680 	andeq	r0, r0, r0, lsl #13
    253c:	03326801 	teqeq	r2, #65536	; 0x10000
    2540:	4c000001 	stcmi	0, cr0, [r0], {1}
    2544:	4800000e 	stmdami	r0, {r1, r2, r3}
    2548:	1100000e 	tstne	r0, lr
    254c:	00000567 	andeq	r0, r0, r7, ror #10
    2550:	1b186b01 	blne	61d15c <__bss_end__+0x613a4c>
    2554:	6f000001 	svcvs	0x00000001
    2558:	6d00000e 	stcvs	0, cr0, [r0, #-56]	; 0xffffffc8
    255c:	1100000e 	tstne	r0, lr
    2560:	00000745 	andeq	r0, r0, r5, asr #14
    2564:	2c0e6c01 	stccs	12, cr6, [lr], {1}
    2568:	84000000 	strhi	r0, [r0], #-0
    256c:	8200000e 	andhi	r0, r0, #14, 0
    2570:	1100000e 	tstne	r0, lr
    2574:	0000071d 	andeq	r0, r0, sp, lsl r7
    2578:	2c0e6e01 	stccs	14, cr6, [lr], {1}
    257c:	99000000 	stmdbls	r0, {}	; <UNPREDICTABLE>
    2580:	9700000e 	strls	r0, [r0, -lr]
    2584:	1100000e 	tstne	r0, lr
    2588:	00000769 	andeq	r0, r0, r9, ror #14
    258c:	2c0e6f01 	stccs	15, cr6, [lr], {1}
    2590:	ae000000 	cdpge	0, 0, cr0, cr0, cr0, {0}
    2594:	ac00000e 	stcge	0, cr0, [r0], {14}
    2598:	1100000e 	tstne	r0, lr
    259c:	0000073e 	andeq	r0, r0, lr, lsr r7
    25a0:	2c0e7101 	stfcss	f7, [lr], {1}
    25a4:	c9000000 	stmdbgt	r0, {}	; <UNPREDICTABLE>
    25a8:	c500000e 	strgt	r0, [r0, #-14]
    25ac:	1200000e 	andne	r0, r0, #14, 0
    25b0:	00008f6c 	andeq	r8, r0, ip, ror #30
    25b4:	0000050f 	andeq	r0, r0, pc, lsl #10
    25b8:	000001ef 	andeq	r0, r0, pc, ror #3
    25bc:	02500113 	subseq	r0, r0, #-1073741820	; 0xc0000004
    25c0:	14000077 	strne	r0, [r0], #-119	; 0xffffff89
    25c4:	00008f8c 	andeq	r8, r0, ip, lsl #31
    25c8:	0000051b 	andeq	r0, r0, fp, lsl r5
    25cc:	02500113 	subseq	r0, r0, #-1073741820	; 0xc0000004
    25d0:	00000077 	andeq	r0, r0, r7, ror r0
    25d4:	0001d415 	andeq	sp, r1, r5, lsl r4
    25d8:	055d0100 	ldrbeq	r0, [sp, #-256]	; 0xffffff00
    25dc:	00000025 	andeq	r0, r0, r5, lsr #32
    25e0:	00008efc 	strdeq	r8, [r0], -ip
    25e4:	00000038 	andeq	r0, r0, r8, lsr r0
    25e8:	028c9c01 	addeq	r9, ip, #256	; 0x100
    25ec:	700f0000 	andvc	r0, pc, r0
    25f0:	01006e69 	tsteq	r0, r9, ror #28
    25f4:	002c185d 	eoreq	r1, ip, sp, asr r8
    25f8:	0ef70000 	cdpeq	0, 15, cr0, cr7, cr0, {0}
    25fc:	0eef0000 	cdpeq	0, 14, cr0, cr15, cr0, {0}
    2600:	76160000 	ldrvc	r0, [r6], -r0
    2604:	0e600100 	poweqs	f0, f0, f0
    2608:	0000002c 	andeq	r0, r0, ip, lsr #32
    260c:	00000f30 	andeq	r0, r0, r0, lsr pc
    2610:	00000f2e 	andeq	r0, r0, lr, lsr #30
    2614:	00056717 	andeq	r6, r5, r7, lsl r7
    2618:	18610100 	stmdane	r1!, {r8}^
    261c:	0000011b 	andeq	r0, r0, fp, lsl r1
    2620:	20200034 	eorcs	r0, r0, r4, lsr r0
    2624:	00076411 	andeq	r6, r7, r1, lsl r4
    2628:	0e620100 	poweqs	f0, f2, f0
    262c:	0000002c 	andeq	r0, r0, ip, lsr #32
    2630:	00000f46 	andeq	r0, r0, r6, asr #30
    2634:	00000f44 	andeq	r0, r0, r4, asr #30
    2638:	00076911 	andeq	r6, r7, r1, lsl r9
    263c:	0e630100 	poweqs	f0, f3, f0
    2640:	0000002c 	andeq	r0, r0, ip, lsr #32
    2644:	00000f5b 	andeq	r0, r0, fp, asr pc
    2648:	00000f59 	andeq	r0, r0, r9, asr pc
    264c:	008f1c14 	addeq	r1, pc, r4, lsl ip	; <UNPREDICTABLE>
    2650:	00050f00 	andeq	r0, r5, r0, lsl #30
    2654:	50011300 	andpl	r1, r1, r0, lsl #6
    2658:	00340c05 	eorseq	r0, r4, r5, lsl #24
    265c:	00002020 	andeq	r2, r0, r0, lsr #32
    2660:	0001ee0e 	andeq	lr, r1, lr, lsl #28
    2664:	064e0100 	strbeq	r0, [lr], -r0, lsl #2
    2668:	00008ea8 	andeq	r8, r0, r8, lsr #29
    266c:	00000054 	andeq	r0, r0, r4, asr r0
    2670:	033f9c01 	teqeq	pc, #256	; 0x100
    2674:	700f0000 	andvc	r0, pc, r0
    2678:	01006e69 	tsteq	r0, r9, ror #28
    267c:	002c1e4e 	eoreq	r1, ip, lr, asr #28
    2680:	0f780000 	svceq	0x00780000
    2684:	0f720000 	svceq	0x00720000
    2688:	67110000 	ldrvs	r0, [r1, -r0]
    268c:	01000005 	tsteq	r0, r5
    2690:	011b1851 	tsteq	fp, r1, asr r8
    2694:	0fa60000 	svceq	0x00a60000
    2698:	0fa40000 	svceq	0x00a40000
    269c:	45110000 	ldrmi	r0, [r1, #-0]
    26a0:	01000007 	tsteq	r0, r7
    26a4:	002c0e52 	eoreq	r0, ip, r2, asr lr
    26a8:	0fbb0000 	svceq	0x00bb0000
    26ac:	0fb90000 	svceq	0x00b90000
    26b0:	1d110000 	ldcne	0, cr0, [r1, #-0]
    26b4:	01000007 	tsteq	r0, r7
    26b8:	002c0e54 	eoreq	r0, ip, r4, asr lr
    26bc:	0fd00000 	svceq	0x00d00000
    26c0:	0fce0000 	svceq	0x00ce0000
    26c4:	69110000 	ldmdbvs	r1, {}	; <UNPREDICTABLE>
    26c8:	01000007 	tsteq	r0, r7
    26cc:	002c0e55 	eoreq	r0, ip, r5, asr lr
    26d0:	0fe50000 	svceq	0x00e50000
    26d4:	0fe30000 	svceq	0x00e30000
    26d8:	3e110000 	cdpcc	0, 1, cr0, cr1, cr0, {0}
    26dc:	01000007 	tsteq	r0, r7
    26e0:	002c0e57 	eoreq	r0, ip, r7, asr lr
    26e4:	10000000 	andne	r0, r0, r0
    26e8:	0ffc0000 	svceq	0x00fc0000
    26ec:	d8120000 	ldmdale	r2, {}	; <UNPREDICTABLE>
    26f0:	0f00008e 	svceq	0x0000008e
    26f4:	2e000005 	cdpcs	0, 0, cr0, cr0, cr5, {0}
    26f8:	13000003 	movwne	r0, #3
    26fc:	76025001 	strvc	r5, [r2], -r1
    2700:	f4140000 			; <UNDEFINED> instruction: 0xf4140000
    2704:	1b00008e 	blne	2944 <__code_start__-0x56bc>
    2708:	13000005 	movwne	r0, #5
    270c:	76025001 	strvc	r5, [r2], -r1
    2710:	0e000000 	cdpeq	0, 0, cr0, cr0, cr0, {0}
    2714:	00000707 	andeq	r0, r0, r7, lsl #14
    2718:	8c064201 	sfmhi	f4, 4, [r6], {1}
    271c:	1c00008e 	stcne	0, cr0, [r0], {142}	; 0x8e
    2720:	01000000 	mrseq	r0, (UNDEF: 0)
    2724:	00039a9c 	muleq	r3, ip, sl
    2728:	69700f00 	ldmdbvs	r0!, {r8, r9, sl, fp}^
    272c:	4201006e 	andmi	r0, r1, #110, 0	; 0x6e
    2730:	00002c1a 	andeq	r2, r0, sl, lsl ip
    2734:	00102e00 	andseq	r2, r0, r0, lsl #28
    2738:	00102600 	andseq	r2, r0, r0, lsl #12
    273c:	00760f00 	rsbseq	r0, r6, r0, lsl #30
    2740:	2c284201 	sfmcs	f4, 4, [r8], #-4
    2744:	70000000 	andvc	r0, r0, r0
    2748:	68000010 	stmdavs	r0, {r4}
    274c:	12000010 	andne	r0, r0, #16, 0
    2750:	00008e9c 	muleq	r0, ip, lr
    2754:	000003f1 	strdeq	r0, [r0], -r1
    2758:	00000390 	muleq	r0, r0, r3
    275c:	03500113 	cmpeq	r0, #-1073741820	; 0xc0000004
    2760:	005001f3 	ldrsheq	r0, [r0], #-19	; 0xffffffed
    2764:	008ea418 	addeq	sl, lr, r8, lsl r4
    2768:	00039a00 	andeq	r9, r3, r0, lsl #20
    276c:	060e0000 	streq	r0, [lr], -r0
    2770:	01000002 	tsteq	r0, r2
    2774:	8e680639 	mcrhi	6, 3, r0, cr8, cr9, {1}
    2778:	00240000 	eoreq	r0, r4, r0
    277c:	9c010000 	stcls	0, cr0, [r1], {-0}
    2780:	000003f1 	strdeq	r0, [r0], -r1
    2784:	6e69700f 	cdpvs	0, 6, cr7, cr9, cr15, {0}
    2788:	1c390100 	ldfnes	f0, [r9], #-0
    278c:	0000002c 	andeq	r0, r0, ip, lsr #32
    2790:	000010ae 	andeq	r1, r0, lr, lsr #1
    2794:	000010aa 	andeq	r1, r0, sl, lsr #1
    2798:	00056717 	andeq	r6, r5, r7, lsl r7
    279c:	183b0100 	ldmdane	fp!, {r8}
    27a0:	0000011b 	andeq	r0, r0, fp, lsl r1
    27a4:	20200028 	eorcs	r0, r0, r8, lsr #32
    27a8:	008e8414 	addeq	r8, lr, r4, lsl r4
    27ac:	00051b00 	andeq	r1, r5, r0, lsl #22
    27b0:	50011300 	andpl	r1, r1, r0, lsl #6
    27b4:	00280c05 	eoreq	r0, r8, r5, lsl #24
    27b8:	01132020 	tsteq	r3, r0, lsr #32
    27bc:	f3310551 	vqrshl.u64	q0, <illegal reg q0.5>, <illegal reg q0.5>
    27c0:	00245001 	eoreq	r5, r4, r1
    27c4:	028b0e00 	addeq	r0, fp, #0, 28
    27c8:	30010000 	andcc	r0, r1, r0
    27cc:	008e4406 	addeq	r4, lr, r6, lsl #8
    27d0:	00002400 	andeq	r2, r0, r0, lsl #8
    27d4:	489c0100 	ldmmi	ip, {r8}
    27d8:	0f000004 	svceq	0x00000004
    27dc:	006e6970 	rsbeq	r6, lr, r0, ror r9
    27e0:	2c1b3001 	ldccs	0, cr3, [fp], {1}
    27e4:	d3000000 	movwle	r0, #0
    27e8:	cf000010 	svcgt	0x00000010
    27ec:	17000010 	smladne	r0, r0, r0, r0
    27f0:	00000567 	andeq	r0, r0, r7, ror #10
    27f4:	1b183201 	blne	60f000 <__bss_end__+0x6058f0>
    27f8:	1c000001 	stcne	0, cr0, [r0], {1}
    27fc:	14202000 	strtne	r2, [r0], #-0
    2800:	00008e60 	andeq	r8, r0, r0, ror #28
    2804:	0000051b 	andeq	r0, r0, fp, lsl r5
    2808:	05500113 	ldrbeq	r0, [r0, #-275]	; 0xfffffeed
    280c:	20001c0c 	andcs	r1, r0, ip, lsl #24
    2810:	51011320 	tstpl	r1, r0, lsr #6
    2814:	01f33105 	mvnseq	r3, r5, lsl #2
    2818:	00002450 	andeq	r2, r0, r0, asr r4
    281c:	0001de0e 	andeq	sp, r1, lr, lsl #28
    2820:	061e0100 	ldreq	r0, [lr], -r0, lsl #2
    2824:	00008de8 	andeq	r8, r0, r8, ror #27
    2828:	0000005c 	andeq	r0, r0, ip, asr r0
    282c:	050f9c01 	streq	r9, [pc, #-3073]	; 1c33 <__code_start__-0x63cd>
    2830:	700f0000 	andvc	r0, pc, r0
    2834:	01006e69 	tsteq	r0, r9, ror #28
    2838:	002c1f1e 	eoreq	r1, ip, lr, lsl pc
    283c:	10fa0000 	rscsne	r0, sl, r0
    2840:	10f40000 	rscsne	r0, r4, r0
    2844:	67110000 	ldrvs	r0, [r1, -r0]
    2848:	01000005 	tsteq	r0, r5
    284c:	011b1823 	tsteq	fp, r3, lsr #16
    2850:	11280000 			; <UNDEFINED> instruction: 0x11280000
    2854:	11260000 			; <UNDEFINED> instruction: 0x11260000
    2858:	45110000 	ldrmi	r0, [r1, #-0]
    285c:	01000007 	tsteq	r0, r7
    2860:	002c0e24 	eoreq	r0, ip, r4, lsr #28
    2864:	113d0000 	teqne	sp, r0
    2868:	113b0000 	teqne	fp, r0
    286c:	1d110000 	ldcne	0, cr0, [r1, #-0]
    2870:	01000007 	tsteq	r0, r7
    2874:	002c0e26 	eoreq	r0, ip, r6, lsr #28
    2878:	11520000 	cmpne	r2, r0
    287c:	11500000 	cmpne	r0, r0
    2880:	69110000 	ldmdbvs	r1, {}	; <UNPREDICTABLE>
    2884:	01000007 	tsteq	r0, r7
    2888:	002c0e27 	eoreq	r0, ip, r7, lsr #28
    288c:	11670000 	cmnne	r7, r0
    2890:	11650000 	cmnne	r5, r0
    2894:	3e110000 	cdpcc	0, 1, cr0, cr1, cr0, {0}
    2898:	01000007 	tsteq	r0, r7
    289c:	002c0e29 	eoreq	r0, ip, r9, lsr #28
    28a0:	11800000 	orrne	r0, r0, r0
    28a4:	117e0000 	cmnne	lr, r0
    28a8:	30110000 	andscc	r0, r1, r0
    28ac:	01000007 	tsteq	r0, r7
    28b0:	002c0e2a 	eoreq	r0, ip, sl, lsr #28
    28b4:	11950000 	orrsne	r0, r5, r0
    28b8:	11930000 	orrsne	r0, r3, r0
    28bc:	18120000 	ldmdane	r2, {}	; <UNPREDICTABLE>
    28c0:	0f00008e 	svceq	0x0000008e
    28c4:	fe000005 	cdp2	0, 0, cr0, cr0, cr5, {0}
    28c8:	13000004 	movwne	r0, #4
    28cc:	76025001 	strvc	r5, [r2], -r1
    28d0:	3c140000 	ldccc	0, cr0, [r4], {-0}
    28d4:	1b00008e 	blne	2b14 <__code_start__-0x54ec>
    28d8:	13000005 	movwne	r0, #5
    28dc:	76025001 	strvc	r5, [r2], -r1
    28e0:	19000000 	stmdbne	r0, {}	; <UNPREDICTABLE>
    28e4:	00000689 	andeq	r0, r0, r9, lsl #13
    28e8:	00000689 	andeq	r0, r0, r9, lsl #13
    28ec:	190bb102 	stmdbne	fp, {r1, r8, ip, sp, pc}
    28f0:	000005f5 	strdeq	r0, [r0], -r5
    28f4:	000005f5 	strdeq	r0, [r0], -r5
    28f8:	0006a502 	andeq	sl, r6, r2, lsl #10
    28fc:	00000149 	andeq	r0, r0, r9, asr #2
    2900:	0eb90004 	cdpeq	0, 11, cr0, cr9, cr4, {0}
    2904:	01040000 	mrseq	r0, (UNDEF: 4)
    2908:	00000101 	andeq	r0, r0, r1, lsl #2
    290c:	00078f0c 	andeq	r8, r7, ip, lsl #30
    2910:	00026500 	andeq	r6, r2, r0, lsl #10
    2914:	008f9400 	addeq	r9, pc, r0, lsl #8
    2918:	00003c00 	andeq	r3, r0, r0, lsl #24
    291c:	00113b00 	andseq	r3, r1, r0, lsl #22
    2920:	05040200 	streq	r0, [r4, #-512]	; 0xfffffe00
    2924:	00746e69 	rsbseq	r6, r4, r9, ror #28
    2928:	c3070403 	movwgt	r0, #29699	; 0x7403
    292c:	03000000 	movweq	r0, #0
    2930:	00320601 	eorseq	r0, r2, r1, lsl #12
    2934:	02030000 	andeq	r0, r3, #0, 0
    2938:	0000f705 	andeq	pc, r0, r5, lsl #14
    293c:	05040300 	streq	r0, [r4, #-768]	; 0xfffffd00
    2940:	000000da 	ldrdeq	r0, [r0], -sl
    2944:	d5050803 	strle	r0, [r5, #-2051]	; 0xfffff7fd
    2948:	03000000 	movweq	r0, #0
    294c:	00300801 	eorseq	r0, r0, r1, lsl #16
    2950:	02030000 	andeq	r0, r3, #0, 0
    2954:	00006107 	andeq	r6, r0, r7, lsl #2
    2958:	07040300 	streq	r0, [r4, -r0, lsl #6]
    295c:	000000be 	strheq	r0, [r0], -lr
    2960:	b9070803 	stmdblt	r7, {r0, r1, fp}
    2964:	04000000 	streq	r0, [r0], #-0
    2968:	00000025 	andeq	r0, r0, r5, lsr #32
    296c:	0000007a 	andeq	r0, r0, sl, ror r0
    2970:	00002505 	andeq	r2, r0, r5, lsl #10
    2974:	e3060000 	movw	r0, #24576	; 0x6000
    2978:	02000000 	andeq	r0, r0, #0, 0
    297c:	00860e1c 	addeq	r0, r6, ip, lsl lr
    2980:	04070000 	streq	r0, [r7], #-0
    2984:	0000006b 	andeq	r0, r0, fp, rrx
    2988:	00002504 	andeq	r2, r0, r4, lsl #10
    298c:	00009b00 	andeq	r9, r0, r0, lsl #22
    2990:	009b0500 	addseq	r0, fp, r0, lsl #10
    2994:	07000000 	streq	r0, [r0, -r0]
    2998:	0000a804 	andeq	sl, r0, r4, lsl #16
    299c:	08010300 	stmdaeq	r1, {r8, r9}
    29a0:	00000039 	andeq	r0, r0, r9, lsr r0
    29a4:	0000a108 	andeq	sl, r0, r8, lsl #2
    29a8:	02dd0600 	sbcseq	r0, sp, #0, 12
    29ac:	21020000 	mrscs	r0, (UNDEF: 2)
    29b0:	0000b90e 	andeq	fp, r0, lr, lsl #18
    29b4:	8c040700 	stchi	7, cr0, [r4], {-0}
    29b8:	09000000 	stmdbeq	r0, {}	; <UNPREDICTABLE>
    29bc:	0000007a 	andeq	r0, r0, sl, ror r0
    29c0:	05070601 	streq	r0, [r7, #-1537]	; 0xfffff9ff
    29c4:	00930c03 	addseq	r0, r3, r3, lsl #24
    29c8:	07820a00 	streq	r0, [r2, r0, lsl #20]
    29cc:	0b010000 	bleq	429d4 <__bss_end__+0x392c4>
    29d0:	008fc006 	addeq	ip, pc, r6
    29d4:	00001000 	andeq	r1, r0, r0
    29d8:	f19c0100 			; <UNDEFINED> instruction: 0xf19c0100
    29dc:	0b000000 	bleq	29e4 <__code_start__-0x561c>
    29e0:	01007066 	tsteq	r0, r6, rrx
    29e4:	0086190b 	addeq	r1, r6, fp, lsl #18
    29e8:	50010000 	andpl	r0, r1, r0
    29ec:	06e40c00 	strbteq	r0, [r4], r0, lsl #24
    29f0:	08010000 	stmdaeq	r1, {}	; <UNPREDICTABLE>
    29f4:	008fa806 	addeq	sl, pc, r6, lsl #16
    29f8:	00001800 	andeq	r1, r0, r0, lsl #16
    29fc:	0d9c0100 	ldfeqs	f0, [ip]
    2a00:	00000771 	andeq	r0, r0, r1, ror r7
    2a04:	250c0301 	strcs	r0, [ip, #-769]	; 0xfffffcff
    2a08:	94000000 	strls	r0, [r0], #-0
    2a0c:	1400008f 	strne	r0, [r0], #-143	; 0xffffff71
    2a10:	01000000 	mrseq	r0, (UNDEF: 0)
    2a14:	0001409c 	muleq	r1, ip, r0
    2a18:	00630e00 	rsbeq	r0, r3, r0, lsl #28
    2a1c:	25210301 	strcs	r0, [r1, #-769]!	; 0xfffffcff
    2a20:	b0000000 	andlt	r0, r0, r0
    2a24:	ac000011 	stcge	0, cr0, [r0], {17}
    2a28:	0f000011 	svceq	0x00000011
    2a2c:	00008fa0 	andeq	r8, r0, r0, lsr #31
    2a30:	00000140 	andeq	r0, r0, r0, asr #2
    2a34:	02500110 	subseq	r0, r0, #4
    2a38:	00000074 	andeq	r0, r0, r4, ror r0
    2a3c:	00051811 	andeq	r1, r5, r1, lsl r8
    2a40:	00051800 	andeq	r1, r5, r0, lsl #16
    2a44:	063b0200 	ldrteq	r0, [fp], -r0, lsl #4
    2a48:	00013700 	andeq	r3, r1, r0, lsl #14
    2a4c:	c8000400 	stmdagt	r0, {sl}
    2a50:	0400000f 	streq	r0, [r0], #-15
    2a54:	00010101 	andeq	r0, r1, r1, lsl #2
    2a58:	07a50c00 	streq	r0, [r5, r0, lsl #24]!
    2a5c:	02650000 	rsbeq	r0, r5, #0, 0
    2a60:	8fd00000 	svchi	0x00d00000
    2a64:	00340000 	eorseq	r0, r4, r0
    2a68:	11dc0000 	bicsne	r0, ip, r0
    2a6c:	04020000 	streq	r0, [r2], #-0
    2a70:	746e6905 	strbtvc	r6, [lr], #-2309	; 0xfffff6fb
    2a74:	07040300 	streq	r0, [r4, -r0, lsl #6]
    2a78:	000000c3 	andeq	r0, r0, r3, asr #1
    2a7c:	32060103 	andcc	r0, r6, #-1073741824	; 0xc0000000
    2a80:	03000000 	movweq	r0, #0
    2a84:	00f70502 	rscseq	r0, r7, r2, lsl #10
    2a88:	04030000 	streq	r0, [r3], #-0
    2a8c:	0000da05 	andeq	sp, r0, r5, lsl #20
    2a90:	05080300 	streq	r0, [r8, #-768]	; 0xfffffd00
    2a94:	000000d5 	ldrdeq	r0, [r0], -r5
    2a98:	30080103 	andcc	r0, r8, r3, lsl #2
    2a9c:	03000000 	movweq	r0, #0
    2aa0:	00610702 	rsbeq	r0, r1, r2, lsl #14
    2aa4:	04030000 	streq	r0, [r3], #-0
    2aa8:	0000be07 	andeq	fp, r0, r7, lsl #28
    2aac:	07080300 	streq	r0, [r8, -r0, lsl #6]
    2ab0:	000000b9 	strheq	r0, [r0], -r9
    2ab4:	00002504 	andeq	r2, r0, r4, lsl #10
    2ab8:	00007a00 	andeq	r7, r0, r0, lsl #20
    2abc:	00250500 	eoreq	r0, r5, r0, lsl #10
    2ac0:	06000000 	streq	r0, [r0], -r0
    2ac4:	000000e3 	andeq	r0, r0, r3, ror #1
    2ac8:	860e1c02 	strhi	r1, [lr], -r2, lsl #24
    2acc:	07000000 	streq	r0, [r0, -r0]
    2ad0:	00006b04 	andeq	r6, r0, r4, lsl #22
    2ad4:	00250400 	eoreq	r0, r5, r0, lsl #8
    2ad8:	009b0000 	addseq	r0, fp, r0
    2adc:	9b050000 	blls	142ae4 <__bss_end__+0x1393d4>
    2ae0:	00000000 	andeq	r0, r0, r0
    2ae4:	00a80407 	adceq	r0, r8, r7, lsl #8
    2ae8:	01030000 	mrseq	r0, (UNDEF: 3)
    2aec:	00003908 	andeq	r3, r0, r8, lsl #18
    2af0:	00a10800 	adceq	r0, r1, r0, lsl #16
    2af4:	dd060000 	stcle	0, cr0, [r6, #-0]
    2af8:	02000002 	andeq	r0, r0, #2, 0
    2afc:	00b90e21 	adcseq	r0, r9, r1, lsr #28
    2b00:	04070000 	streq	r0, [r7], #-0
    2b04:	0000008c 	andeq	r0, r0, ip, lsl #1
    2b08:	00039609 	andeq	r9, r3, r9, lsl #12
    2b0c:	07040100 	streq	r0, [r4, -r0, lsl #2]
    2b10:	00000134 	andeq	r0, r0, r4, lsr r1
    2b14:	00008fd0 	ldrdeq	r8, [r0], -r0
    2b18:	00000034 	andeq	r0, r0, r4, lsr r0
    2b1c:	01349c01 	teqeq	r4, r1, lsl #24
    2b20:	a00a0000 	andge	r0, sl, r0
    2b24:	01000007 	tsteq	r0, r7
    2b28:	01341504 	teqeq	r4, r4, lsl #10
    2b2c:	50010000 	andpl	r0, r1, r0
    2b30:	6372730b 	cmnvs	r2, #738197504	; 0x2c000000
    2b34:	27040100 	strcs	r0, [r4, -r0, lsl #2]
    2b38:	0000009b 	muleq	r0, fp, r0
    2b3c:	000011d2 	ldrdeq	r1, [r0], -r2
    2b40:	000011ce 	andeq	r1, r0, lr, asr #3
    2b44:	0031730c 	eorseq	r7, r1, ip, lsl #6
    2b48:	340b0501 	strcc	r0, [fp], #-1281	; 0xfffffaff
    2b4c:	fd000001 	stc2	0, cr0, [r0, #-4]
    2b50:	f3000011 	vqadd.u8	d0, d0, d1
    2b54:	0c000011 	stceq	0, cr0, [r0], {17}
    2b58:	01003273 	tsteq	r0, r3, ror r2
    2b5c:	009b1106 	addseq	r1, fp, r6, lsl #2
    2b60:	12420000 	subne	r0, r2, #0, 0
    2b64:	123e0000 	eorsne	r0, lr, #0, 0
    2b68:	630c0000 	movwvs	r0, #49152	; 0xc000
    2b6c:	0a070100 	beq	1c2f74 <__bss_end__+0x1b9864>
    2b70:	000000a1 	andeq	r0, r0, r1, lsr #1
    2b74:	00001266 	andeq	r1, r0, r6, ror #4
    2b78:	00001262 	andeq	r1, r0, r2, ror #4
    2b7c:	a1040700 	tstge	r4, r0, lsl #14
    2b80:	00000000 	andeq	r0, r0, r0
    2b84:	000000f7 	strdeq	r0, [r0], -r7
    2b88:	107e0004 	rsbsne	r0, lr, r4
    2b8c:	01040000 	mrseq	r0, (UNDEF: 4)
    2b90:	00000101 	andeq	r0, r0, r1, lsl #2
    2b94:	0007b50c 	andeq	fp, r7, ip, lsl #10
    2b98:	00026500 	andeq	r6, r2, r0, lsl #10
    2b9c:	00900400 	addseq	r0, r0, r0, lsl #8
    2ba0:	00002c00 	andeq	r2, r0, r0, lsl #24
    2ba4:	0012c900 	andseq	ip, r2, r0, lsl #18
    2ba8:	05040200 	streq	r0, [r4, #-512]	; 0xfffffe00
    2bac:	00746e69 	rsbseq	r6, r4, r9, ror #28
    2bb0:	c3070403 	movwgt	r0, #29699	; 0x7403
    2bb4:	03000000 	movweq	r0, #0
    2bb8:	00320601 	eorseq	r0, r2, r1, lsl #12
    2bbc:	02030000 	andeq	r0, r3, #0, 0
    2bc0:	0000f705 	andeq	pc, r0, r5, lsl #14
    2bc4:	05040300 	streq	r0, [r4, #-768]	; 0xfffffd00
    2bc8:	000000da 	ldrdeq	r0, [r0], -sl
    2bcc:	d5050803 	strle	r0, [r5, #-2051]	; 0xfffff7fd
    2bd0:	03000000 	movweq	r0, #0
    2bd4:	00300801 	eorseq	r0, r0, r1, lsl #16
    2bd8:	02030000 	andeq	r0, r3, #0, 0
    2bdc:	00006107 	andeq	r6, r0, r7, lsl #2
    2be0:	07040300 	streq	r0, [r4, -r0, lsl #6]
    2be4:	000000be 	strheq	r0, [r0], -lr
    2be8:	b9070803 	stmdblt	r7, {r0, r1, fp}
    2bec:	04000000 	streq	r0, [r0], #-0
    2bf0:	00000025 	andeq	r0, r0, r5, lsr #32
    2bf4:	0000007a 	andeq	r0, r0, sl, ror r0
    2bf8:	00002505 	andeq	r2, r0, r5, lsl #10
    2bfc:	e3060000 	movw	r0, #24576	; 0x6000
    2c00:	02000000 	andeq	r0, r0, #0, 0
    2c04:	00860e1c 	addeq	r0, r6, ip, lsl lr
    2c08:	04070000 	streq	r0, [r7], #-0
    2c0c:	0000006b 	andeq	r0, r0, fp, rrx
    2c10:	00002504 	andeq	r2, r0, r4, lsl #10
    2c14:	00009b00 	andeq	r9, r0, r0, lsl #22
    2c18:	009b0500 	addseq	r0, fp, r0, lsl #10
    2c1c:	07000000 	streq	r0, [r0, -r0]
    2c20:	0000a804 	andeq	sl, r0, r4, lsl #16
    2c24:	08010300 	stmdaeq	r1, {r8, r9}
    2c28:	00000039 	andeq	r0, r0, r9, lsr r0
    2c2c:	0000a108 	andeq	sl, r0, r8, lsl #2
    2c30:	02dd0600 	sbcseq	r0, sp, #0, 12
    2c34:	21020000 	mrscs	r0, (UNDEF: 2)
    2c38:	0000b90e 	andeq	fp, r0, lr, lsl #18
    2c3c:	8c040700 	stchi	7, cr0, [r4], {-0}
    2c40:	09000000 	stmdbeq	r0, {}	; <UNPREDICTABLE>
    2c44:	000003cc 	andeq	r0, r0, ip, asr #7
    2c48:	25050301 	strcs	r0, [r5, #-769]	; 0xfffffcff
    2c4c:	04000000 	streq	r0, [r0], #-0
    2c50:	2c000090 	stccs	0, cr0, [r0], {144}	; 0x90
    2c54:	01000000 	mrseq	r0, (UNDEF: 0)
    2c58:	00610a9c 	mlseq	r1, ip, sl, r0
    2c5c:	9b180301 	blls	603868 <__bss_end__+0x5fa158>
    2c60:	88000000 	stmdahi	r0, {}	; <UNPREDICTABLE>
    2c64:	84000012 	strhi	r0, [r0], #-18	; 0xffffffee
    2c68:	0a000012 	beq	2cb8 <__code_start__-0x5348>
    2c6c:	03010062 	movweq	r0, #4194	; 0x1062
    2c70:	00009b27 	andeq	r9, r0, r7, lsr #22
    2c74:	0012aa00 	andseq	sl, r2, r0, lsl #20
    2c78:	0012a600 	andseq	sl, r2, r0, lsl #12
    2c7c:	0f000000 	svceq	0x00000000
    2c80:	04000001 	streq	r0, [r0], #-1
    2c84:	00110d00 	andseq	r0, r1, r0, lsl #26
    2c88:	01010400 	tsteq	r1, r0, lsl #8
    2c8c:	0c000001 	stceq	0, cr0, [r0], {1}
    2c90:	000007c5 	andeq	r0, r0, r5, asr #15
    2c94:	00000265 	andeq	r0, r0, r5, ror #4
    2c98:	00009030 	andeq	r9, r0, r0, lsr r0
    2c9c:	00000020 	andeq	r0, r0, r0, lsr #32
    2ca0:	0000136f 	andeq	r1, r0, pc, ror #6
    2ca4:	69050402 	stmdbvs	r5, {r1, sl}
    2ca8:	0300746e 	movweq	r7, #1134	; 0x46e
    2cac:	00c30704 	sbceq	r0, r3, r4, lsl #14
    2cb0:	01030000 	mrseq	r0, (UNDEF: 3)
    2cb4:	00003206 	andeq	r3, r0, r6, lsl #4
    2cb8:	05020300 	streq	r0, [r2, #-768]	; 0xfffffd00
    2cbc:	000000f7 	strdeq	r0, [r0], -r7
    2cc0:	da050403 	ble	143cd4 <__bss_end__+0x13a5c4>
    2cc4:	03000000 	movweq	r0, #0
    2cc8:	00d50508 	sbcseq	r0, r5, r8, lsl #10
    2ccc:	01030000 	mrseq	r0, (UNDEF: 3)
    2cd0:	00003008 	andeq	r3, r0, r8
    2cd4:	07020300 	streq	r0, [r2, -r0, lsl #6]
    2cd8:	00000061 	andeq	r0, r0, r1, rrx
    2cdc:	be070403 	cdplt	4, 0, cr0, cr7, cr3, {0}
    2ce0:	03000000 	movweq	r0, #0
    2ce4:	00b90708 	adcseq	r0, r9, r8, lsl #14
    2ce8:	25040000 	strcs	r0, [r4, #-0]
    2cec:	7a000000 	bvc	2cf4 <__code_start__-0x530c>
    2cf0:	05000000 	streq	r0, [r0, #-0]
    2cf4:	00000025 	andeq	r0, r0, r5, lsr #32
    2cf8:	00e30600 	rsceq	r0, r3, r0, lsl #12
    2cfc:	1c020000 	stcne	0, cr0, [r2], {-0}
    2d00:	0000860e 	andeq	r8, r0, lr, lsl #12
    2d04:	6b040700 	blvs	10490c <__bss_end__+0xfb1fc>
    2d08:	04000000 	streq	r0, [r0], #-0
    2d0c:	00000025 	andeq	r0, r0, r5, lsr #32
    2d10:	0000009b 	muleq	r0, fp, r0
    2d14:	00009b05 	andeq	r9, r0, r5, lsl #22
    2d18:	04070000 	streq	r0, [r7], #-0
    2d1c:	000000a8 	andeq	r0, r0, r8, lsr #1
    2d20:	39080103 	stmdbcc	r8, {r0, r1, r8}
    2d24:	08000000 	stmdaeq	r0, {}	; <UNPREDICTABLE>
    2d28:	000000a1 	andeq	r0, r0, r1, lsr #1
    2d2c:	0002dd06 	andeq	sp, r2, r6, lsl #26
    2d30:	0e210200 	cdpeq	2, 2, cr0, cr1, cr0, {0}
    2d34:	000000b9 	strheq	r0, [r0], -r9
    2d38:	008c0407 	addeq	r0, ip, r7, lsl #8
    2d3c:	9d090000 	stcls	0, cr0, [r9, #-0]
    2d40:	01000003 	tsteq	r0, r3
    2d44:	010c0703 	tsteq	ip, r3, lsl #14
    2d48:	90300000 	eorsls	r0, r0, r0
    2d4c:	00200000 	eoreq	r0, r0, r0
    2d50:	9c010000 	stcls	0, cr0, [r1], {-0}
    2d54:	0000010c 	andeq	r0, r0, ip, lsl #2
    2d58:	0031730a 	eorseq	r7, r1, sl, lsl #6
    2d5c:	0c150301 	ldceq	3, cr0, [r5], {1}
    2d60:	01000001 	tsteq	r0, r1
    2d64:	32730b50 	rsbscc	r0, r3, #80, 22	; 0x14000
    2d68:	26030100 	strcs	r0, [r3], -r0, lsl #2
    2d6c:	0000009b 	muleq	r0, fp, r0
    2d70:	000012ce 	andeq	r1, r0, lr, asr #5
    2d74:	000012c8 	andeq	r1, r0, r8, asr #5
    2d78:	0100730c 	tsteq	r0, ip, lsl #6
    2d7c:	010c1404 	tsteq	ip, r4, lsl #8
    2d80:	12ff0000 	rscsne	r0, pc, #0, 0
    2d84:	12f90000 	rscsne	r0, r9, #0, 0
    2d88:	07000000 	streq	r0, [r0, -r0]
    2d8c:	0000a104 	andeq	sl, r0, r4, lsl #2
    2d90:	014e0000 	mrseq	r0, (UNDEF: 78)
    2d94:	00040000 	andeq	r0, r4, r0
    2d98:	000011c3 	andeq	r1, r0, r3, asr #3
    2d9c:	01010104 	tsteq	r1, r4, lsl #2
    2da0:	dc0c0000 	stcle	0, cr0, [ip], {-0}
    2da4:	65000007 	strvs	r0, [r0, #-7]
    2da8:	10000002 	andne	r0, r0, r2
    2dac:	00000000 	andeq	r0, r0, r0
    2db0:	13000000 	movwne	r0, #0
    2db4:	02000014 	andeq	r0, r0, #20, 0
    2db8:	6e690504 	cdpvs	5, 6, cr0, cr9, cr4, {0}
    2dbc:	d5030074 	strle	r0, [r3, #-116]	; 0xffffff8c
    2dc0:	03000007 	movweq	r0, #7
    2dc4:	003817d1 	ldrsbteq	r1, [r8], -r1
    2dc8:	04040000 	streq	r0, [r4], #-0
    2dcc:	0000c307 	andeq	ip, r0, r7, lsl #6
    2dd0:	06010400 	streq	r0, [r1], -r0, lsl #8
    2dd4:	00000032 	andeq	r0, r0, r2, lsr r0
    2dd8:	f7050204 			; <UNDEFINED> instruction: 0xf7050204
    2ddc:	04000000 	streq	r0, [r0], #-0
    2de0:	00da0504 	sbcseq	r0, sl, r4, lsl #10
    2de4:	08040000 	stmdaeq	r4, {}	; <UNPREDICTABLE>
    2de8:	0000d505 	andeq	sp, r0, r5, lsl #10
    2dec:	08010400 	stmdaeq	r1, {sl}
    2df0:	00000030 	andeq	r0, r0, r0, lsr r0
    2df4:	00005b05 	andeq	r5, r0, r5, lsl #22
    2df8:	07020400 	streq	r0, [r2, -r0, lsl #8]
    2dfc:	00000061 	andeq	r0, r0, r1, rrx
    2e00:	be070404 	cdplt	4, 0, cr0, cr7, cr4, {0}
    2e04:	04000000 	streq	r0, [r0], #-0
    2e08:	00b90708 	adcseq	r0, r9, r8, lsl #14
    2e0c:	25060000 	strcs	r0, [r6, #-0]
    2e10:	8b000000 	blhi	2e18 <__code_start__-0x51e8>
    2e14:	07000000 	streq	r0, [r0, -r0]
    2e18:	00000025 	andeq	r0, r0, r5, lsr #32
    2e1c:	00e30800 	rsceq	r0, r3, r0, lsl #16
    2e20:	1c020000 	stcne	0, cr0, [r2], {-0}
    2e24:	0000970e 	andeq	r9, r0, lr, lsl #14
    2e28:	7c040900 			; <UNDEFINED> instruction: 0x7c040900
    2e2c:	06000000 	streq	r0, [r0], -r0
    2e30:	00000025 	andeq	r0, r0, r5, lsr #32
    2e34:	000000ac 	andeq	r0, r0, ip, lsr #1
    2e38:	0000ac07 	andeq	sl, r0, r7, lsl #24
    2e3c:	04090000 	streq	r0, [r9], #-0
    2e40:	000000b9 	strheq	r0, [r0], -r9
    2e44:	39080104 	stmdbcc	r8, {r2, r8}
    2e48:	05000000 	streq	r0, [r0, #-0]
    2e4c:	000000b2 	strheq	r0, [r0], -r2
    2e50:	0002dd08 	andeq	sp, r2, r8, lsl #26
    2e54:	0e210200 	cdpeq	2, 2, cr0, cr1, cr0, {0}
    2e58:	000000ca 	andeq	r0, r0, sl, asr #1
    2e5c:	009d0409 	addseq	r0, sp, r9, lsl #8
    2e60:	f40a0000 	vst4.8	{d0-d3}, [sl], r0
    2e64:	01000003 	tsteq	r0, r3
    2e68:	00250504 	eoreq	r0, r5, r4, lsl #10
    2e6c:	90500000 	subsls	r0, r0, r0
    2e70:	002c0000 	eoreq	r0, ip, r0
    2e74:	9c010000 	stcls	0, cr0, [r1], {-0}
    2e78:	0000014b 	andeq	r0, r0, fp, asr #2
    2e7c:	31735f0b 	cmncc	r3, fp, lsl #30
    2e80:	19040100 	stmdbne	r4, {r8}
    2e84:	000000ac 	andeq	r0, r0, ip, lsr #1
    2e88:	0000132e 	andeq	r1, r0, lr, lsr #6
    2e8c:	0000132a 	andeq	r1, r0, sl, lsr #6
    2e90:	32735f0b 	rsbscc	r5, r3, #11, 30	; 0x2c
    2e94:	2a040100 	bcs	10329c <__bss_end__+0xf9b8c>
    2e98:	000000ac 	andeq	r0, r0, ip, lsr #1
    2e9c:	00001353 	andeq	r1, r0, r3, asr r3
    2ea0:	0000134f 	andeq	r1, r0, pc, asr #6
    2ea4:	01006e0b 	tsteq	r0, fp, lsl #28
    2ea8:	002c3604 	eoreq	r3, ip, r4, lsl #12
    2eac:	137a0000 	cmnne	sl, #0, 0
    2eb0:	13740000 	cmnne	r4, #0, 0
    2eb4:	730c0000 	movwvc	r0, #49152	; 0xc000
    2eb8:	05010031 	streq	r0, [r1, #-49]	; 0xffffffcf
    2ebc:	00014b1a 	andeq	r4, r1, sl, lsl fp
    2ec0:	0013ad00 	andseq	sl, r3, r0, lsl #26
    2ec4:	0013a500 	andseq	sl, r3, r0, lsl #10
    2ec8:	32730c00 	rsbscc	r0, r3, #0, 24
    2ecc:	2c050100 	stfcss	f0, [r5], {-0}
    2ed0:	0000014b 	andeq	r0, r0, fp, asr #2
    2ed4:	000013e9 	andeq	r1, r0, r9, ror #7
    2ed8:	000013e3 	andeq	r1, r0, r3, ror #7
    2edc:	62040900 	andvs	r0, r4, #0, 18
    2ee0:	00000000 	andeq	r0, r0, r0

Disassembly of section .debug_abbrev:

00000000 <.debug_abbrev>:
       0:	25011101 	strcs	r1, [r1, #-257]	; 0xfffffeff
       4:	030b130e 	movweq	r1, #45838	; 0xb30e
       8:	110e1b0e 	tstne	lr, lr, lsl #22
       c:	10061201 	andne	r1, r6, r1, lsl #4
      10:	02000017 	andeq	r0, r0, #23, 0
      14:	0b0b0024 	bleq	2c00ac <__bss_end__+0x2b699c>
      18:	08030b3e 	stmdaeq	r3, {r1, r2, r3, r4, r5, r8, r9, fp}
      1c:	24030000 	strcs	r0, [r3], #-0
      20:	3e0b0b00 	vmlacc.f64	d0, d11, d0
      24:	000e030b 	andeq	r0, lr, fp, lsl #6
      28:	01150400 	tsteq	r5, r0, lsl #8
      2c:	13491927 	movtne	r1, #39207	; 0x9927
      30:	00001301 	andeq	r1, r0, r1, lsl #6
      34:	49000505 	stmdbmi	r0, {r0, r2, r8, sl}
      38:	06000013 			; <UNDEFINED> instruction: 0x06000013
      3c:	0e030034 	mcreq	0, 0, r0, cr3, cr4, {1}
      40:	0b3b0b3a 	bleq	ec2d30 <__bss_end__+0xeb9620>
      44:	13490b39 	movtne	r0, #39737	; 0x9b39
      48:	193c193f 	ldmdbne	ip!, {r0, r1, r2, r3, r4, r5, r8, fp, ip}
      4c:	0f070000 	svceq	0x00070000
      50:	490b0b00 	stmdbmi	fp, {r8, r9, fp}
      54:	08000013 	stmdaeq	r0, {r0, r1, r4}
      58:	13490026 	movtne	r0, #36902	; 0x9026
      5c:	13090000 	movwne	r0, #36864	; 0x9000
      60:	3a0b0b01 	bcc	2c2c6c <__bss_end__+0x2b955c>
      64:	390b3b0b 	stmdbcc	fp, {r0, r1, r3, r8, r9, fp, ip, sp}
      68:	0013010b 	andseq	r0, r3, fp, lsl #2
      6c:	000d0a00 	andeq	r0, sp, r0, lsl #20
      70:	0b3a0e03 	bleq	e83884 <__bss_end__+0xe7a174>
      74:	0b390b3b 	bleq	e42d68 <__bss_end__+0xe39658>
      78:	0b381349 	bleq	e04da4 <__bss_end__+0xdfb694>
      7c:	160b0000 	strne	r0, [fp], -r0
      80:	3a0e0300 	bcc	380c88 <__bss_end__+0x377578>
      84:	390b3b0b 	stmdbcc	fp, {r0, r1, r3, r8, r9, fp, ip, sp}
      88:	0013490b 	andseq	r4, r3, fp, lsl #18
      8c:	01040c00 	tsteq	r4, r0, lsl #24
      90:	0b0b0b3e 	bleq	2c2d90 <__bss_end__+0x2b9680>
      94:	0b3a1349 	bleq	e84dc0 <__bss_end__+0xe7b6b0>
      98:	0b390b3b 	bleq	e42d8c <__bss_end__+0xe3967c>
      9c:	00001301 	andeq	r1, r0, r1, lsl #6
      a0:	0300280d 	movweq	r2, #2061	; 0x80d
      a4:	00051c0e 	andeq	r1, r5, lr, lsl #24
      a8:	00280e00 	eoreq	r0, r8, r0, lsl #28
      ac:	0b1c0e03 	bleq	7038c0 <__bss_end__+0x6fa1b0>
      b0:	2e0f0000 	cdpcs	0, 0, cr0, cr15, cr0, {0}
      b4:	03193f01 	tsteq	r9, #1, 30
      b8:	3b0b3a0e 	blcc	2ce8f8 <__bss_end__+0x2c51e8>
      bc:	270b390b 	strcs	r3, [fp, -fp, lsl #18]
      c0:	12011119 	andne	r1, r1, #1073741830	; 0x40000006
      c4:	97184006 	ldrls	r4, [r8, -r6]
      c8:	13011942 	movwne	r1, #6466	; 0x1942
      cc:	34100000 	ldrcc	r0, [r0], #-0
      d0:	3a080300 	bcc	200cd8 <__bss_end__+0x1f75c8>
      d4:	390b3b0b 	stmdbcc	fp, {r0, r1, r3, r8, r9, fp, ip, sp}
      d8:	0213490b 	andseq	r4, r3, #180224	; 0x2c000
      dc:	11000018 	tstne	r0, r8, lsl r0
      e0:	0111010b 	tsteq	r1, fp, lsl #2
      e4:	13010612 	movwne	r0, #5650	; 0x1612
      e8:	34120000 	ldrcc	r0, [r2], #-0
      ec:	3a0e0300 	bcc	380cf4 <__bss_end__+0x3775e4>
      f0:	390b3b0b 	stmdbcc	fp, {r0, r1, r3, r8, r9, fp, ip, sp}
      f4:	0013490b 	andseq	r4, r3, fp, lsl #18
      f8:	00341300 	eorseq	r1, r4, r0, lsl #6
      fc:	0b3a0e03 	bleq	e83910 <__bss_end__+0xe7a200>
     100:	0b390b3b 	bleq	e42df4 <__bss_end__+0xe396e4>
     104:	0b1c1349 	bleq	704e30 <__bss_end__+0x6fb720>
     108:	34140000 	ldrcc	r0, [r4], #-0
     10c:	3a080300 	bcc	200d14 <__bss_end__+0x1f7604>
     110:	390b3b0b 	stmdbcc	fp, {r0, r1, r3, r8, r9, fp, ip, sp}
     114:	0213490b 	andseq	r4, r3, #180224	; 0x2c000
     118:	1742b717 	smlaldne	fp, r2, r7, r7
     11c:	0b150000 	bleq	540124 <__bss_end__+0x536a14>
     120:	12011101 	andne	r1, r1, #1073741824	; 0x40000000
     124:	16000006 	strne	r0, [r0], -r6
     128:	0e030034 	mcreq	0, 0, r0, cr3, cr4, {1}
     12c:	0b3b0b3a 	bleq	ec2e1c <__bss_end__+0xeb970c>
     130:	13490b39 	movtne	r0, #39737	; 0x9b39
     134:	42b71702 	adcsmi	r1, r7, #524288	; 0x80000
     138:	17000017 	smladne	r0, r7, r0, r0
     13c:	01018289 	smlabbeq	r1, r9, r2, r8
     140:	13310111 	teqne	r1, #1073741828	; 0x40000004
     144:	00001301 	andeq	r1, r0, r1, lsl #6
     148:	01828a18 	orreq	r8, r2, r8, lsl sl
     14c:	91180200 	tstls	r8, r0, lsl #4
     150:	00001842 	andeq	r1, r0, r2, asr #16
     154:	01828919 	orreq	r8, r2, r9, lsl r9
     158:	31011101 	tstcc	r1, r1, lsl #2
     15c:	1a000013 	bne	1b0 <__code_start__-0x7e50>
     160:	00018289 	andeq	r8, r1, r9, lsl #5
     164:	13310111 	teqne	r1, #1073741828	; 0x40000004
     168:	2e1b0000 	cdpcs	0, 1, cr0, cr11, cr0, {0}
     16c:	3c193f00 	ldccc	15, cr3, [r9], {-0}
     170:	030e6e19 	movweq	r6, #60953	; 0xee19
     174:	3b0b3a0e 	blcc	2ce9b4 <__bss_end__+0x2c52a4>
     178:	000b390b 	andeq	r3, fp, fp, lsl #18
     17c:	11010000 	mrsne	r0, (UNDEF: 1)
     180:	130e2501 	movwne	r2, #58625	; 0xe501
     184:	1b0e030b 	blne	380db8 <__bss_end__+0x3776a8>
     188:	1201110e 	andne	r1, r1, #-2147483645	; 0x80000003
     18c:	00171006 	andseq	r1, r7, r6
     190:	00240200 	eoreq	r0, r4, r0, lsl #4
     194:	0b3e0b0b 	bleq	f82dc8 <__bss_end__+0xf796b8>
     198:	00000803 	andeq	r0, r0, r3, lsl #16
     19c:	0b002403 	bleq	91b0 <__code_end__+0x11c>
     1a0:	030b3e0b 	movweq	r3, #48651	; 0xbe0b
     1a4:	0400000e 	streq	r0, [r0], #-14
     1a8:	19270115 	stmdbne	r7!, {r0, r2, r4, r8}
     1ac:	13011349 	movwne	r1, #4937	; 0x1349
     1b0:	05050000 	streq	r0, [r5, #-0]
     1b4:	00134900 	andseq	r4, r3, r0, lsl #18
     1b8:	00340600 	eorseq	r0, r4, r0, lsl #12
     1bc:	0b3a0e03 	bleq	e839d0 <__bss_end__+0xe7a2c0>
     1c0:	0b390b3b 	bleq	e42eb4 <__bss_end__+0xe397a4>
     1c4:	193f1349 	ldmdbne	pc!, {r0, r3, r6, r8, r9, ip}	; <UNPREDICTABLE>
     1c8:	0000193c 	andeq	r1, r0, ip, lsr r9
     1cc:	0b000f07 	bleq	3df0 <__code_start__-0x4210>
     1d0:	0013490b 	andseq	r4, r3, fp, lsl #18
     1d4:	00260800 	eoreq	r0, r6, r0, lsl #16
     1d8:	00001349 	andeq	r1, r0, r9, asr #6
     1dc:	0b011309 	bleq	44e08 <__bss_end__+0x3b6f8>
     1e0:	3b0b3a0b 	blcc	2cea14 <__bss_end__+0x2c5304>
     1e4:	010b390b 	tsteq	fp, fp, lsl #18
     1e8:	0a000013 	beq	23c <__code_start__-0x7dc4>
     1ec:	0e03000d 	cdpeq	0, 0, cr0, cr3, cr13, {0}
     1f0:	0b3b0b3a 	bleq	ec2ee0 <__bss_end__+0xeb97d0>
     1f4:	13490b39 	movtne	r0, #39737	; 0x9b39
     1f8:	00000b38 	andeq	r0, r0, r8, lsr fp
     1fc:	0300160b 	movweq	r1, #1547	; 0x60b
     200:	3b0b3a0e 	blcc	2cea40 <__bss_end__+0x2c5330>
     204:	490b390b 	stmdbmi	fp, {r0, r1, r3, r8, fp, ip, sp}
     208:	0c000013 	stceq	0, cr0, [r0], {19}
     20c:	193f012e 	ldmdbne	pc!, {r1, r2, r3, r5, r8}	; <UNPREDICTABLE>
     210:	0b3a0e03 	bleq	e83a24 <__bss_end__+0xe7a314>
     214:	0b390b3b 	bleq	e42f08 <__bss_end__+0xe397f8>
     218:	13491927 	movtne	r1, #39207	; 0x9927
     21c:	06120111 			; <UNDEFINED> instruction: 0x06120111
     220:	42971840 	addsmi	r1, r7, #64, 16	; 0x400000
     224:	00130119 	andseq	r0, r3, r9, lsl r1
     228:	00050d00 	andeq	r0, r5, r0, lsl #26
     22c:	0b3a0803 	bleq	e82240 <__bss_end__+0xe78b30>
     230:	0b390b3b 	bleq	e42f24 <__bss_end__+0xe39814>
     234:	18021349 	stmdane	r2, {r0, r3, r6, r8, r9, ip}
     238:	050e0000 	streq	r0, [lr, #-0]
     23c:	3a0e0300 	bcc	380e44 <__bss_end__+0x377734>
     240:	390b3b0b 	stmdbcc	fp, {r0, r1, r3, r8, r9, fp, ip, sp}
     244:	0213490b 	andseq	r4, r3, #180224	; 0x2c000
     248:	1742b717 	smlaldne	fp, r2, r7, r7
     24c:	340f0000 	strcc	r0, [pc], #-0	; 254 <__code_start__-0x7dac>
     250:	3a0e0300 	bcc	380e58 <__bss_end__+0x377748>
     254:	390b3b0b 	stmdbcc	fp, {r0, r1, r3, r8, r9, fp, ip, sp}
     258:	0213490b 	andseq	r4, r3, #180224	; 0x2c000
     25c:	1742b717 	smlaldne	fp, r2, r7, r7
     260:	0b100000 	bleq	400268 <__bss_end__+0x3f6b58>
     264:	12011101 	andne	r1, r1, #1073741824	; 0x40000000
     268:	00130106 	andseq	r0, r3, r6, lsl #2
     26c:	82891100 	addhi	r1, r9, #0
     270:	01110001 	tsteq	r1, r1
     274:	00001331 	andeq	r1, r0, r1, lsr r3
     278:	01828912 	orreq	r8, r2, r2, lsl r9
     27c:	31011101 	tstcc	r1, r1, lsl #2
     280:	13000013 	movwne	r0, #19
     284:	0001828a 	andeq	r8, r1, sl, lsl #5
     288:	42911802 	addsmi	r1, r1, #131072	; 0x20000
     28c:	14000018 	strne	r0, [r0], #-24	; 0xffffffe8
     290:	01018289 	smlabbeq	r1, r9, r2, r8
     294:	13310111 	teqne	r1, #1073741828	; 0x40000004
     298:	00001301 	andeq	r1, r0, r1, lsl #6
     29c:	03003415 	movweq	r3, #1045	; 0x415
     2a0:	3b0b3a08 	blcc	2ceac8 <__bss_end__+0x2c53b8>
     2a4:	490b390b 	stmdbmi	fp, {r0, r1, r3, r8, fp, ip, sp}
     2a8:	b7170213 			; <UNDEFINED> instruction: 0xb7170213
     2ac:	00001742 	andeq	r1, r0, r2, asr #14
     2b0:	03000516 	movweq	r0, #1302	; 0x516
     2b4:	3b0b3a08 	blcc	2ceadc <__bss_end__+0x2c53cc>
     2b8:	490b390b 	stmdbmi	fp, {r0, r1, r3, r8, fp, ip, sp}
     2bc:	b7170213 			; <UNDEFINED> instruction: 0xb7170213
     2c0:	00001742 	andeq	r1, r0, r2, asr #14
     2c4:	3f002e17 	svccc	0x00002e17
     2c8:	6e193c19 	mrcvs	12, 0, r3, cr9, cr9, {0}
     2cc:	3a0e030e 	bcc	380f0c <__bss_end__+0x3777fc>
     2d0:	390b3b0b 	stmdbcc	fp, {r0, r1, r3, r8, r9, fp, ip, sp}
     2d4:	0000000b 	andeq	r0, r0, fp
     2d8:	25011101 	strcs	r1, [r1, #-257]	; 0xfffffeff
     2dc:	030b130e 	movweq	r1, #45838	; 0xb30e
     2e0:	110e1b0e 	tstne	lr, lr, lsl #22
     2e4:	10061201 	andne	r1, r6, r1, lsl #4
     2e8:	02000017 	andeq	r0, r0, #23, 0
     2ec:	0e030016 	mcreq	0, 0, r0, cr3, cr6, {0}
     2f0:	0b3b0b3a 	bleq	ec2fe0 <__bss_end__+0xeb98d0>
     2f4:	13490b39 	movtne	r0, #39737	; 0x9b39
     2f8:	13030000 	movwne	r0, #12288	; 0x3000
     2fc:	0b0e0301 	bleq	380f08 <__bss_end__+0x3777f8>
     300:	3b0b3a0b 	blcc	2ceb34 <__bss_end__+0x2c5424>
     304:	0013010b 	andseq	r0, r3, fp, lsl #2
     308:	000d0400 	andeq	r0, sp, r0, lsl #8
     30c:	13490e03 	movtne	r0, #40451	; 0x9e03
     310:	19340b38 	ldmdbne	r4!, {r3, r4, r5, r8, r9, fp}
     314:	0f050000 	svceq	0x00050000
     318:	000b0b00 	andeq	r0, fp, r0, lsl #22
     31c:	00240600 	eoreq	r0, r4, r0, lsl #12
     320:	0b3e0b0b 	bleq	f82f54 <__bss_end__+0xf79844>
     324:	00000803 	andeq	r0, r0, r3, lsl #16
     328:	0b002407 	bleq	934c <__data_end__+0x3c>
     32c:	030b3e0b 	movweq	r3, #48651	; 0xbe0b
     330:	0800000e 	stmdaeq	r0, {r1, r2, r3}
     334:	19270115 	stmdbne	r7!, {r0, r2, r4, r8}
     338:	13011349 	movwne	r1, #4937	; 0x1349
     33c:	05090000 	streq	r0, [r9, #-0]
     340:	00134900 	andseq	r4, r3, r0, lsl #18
     344:	00340a00 	eorseq	r0, r4, r0, lsl #20
     348:	0b3a0e03 	bleq	e83b5c <__bss_end__+0xe7a44c>
     34c:	0b390b3b 	bleq	e43040 <__bss_end__+0xe39930>
     350:	193f1349 	ldmdbne	pc!, {r0, r3, r6, r8, r9, ip}	; <UNPREDICTABLE>
     354:	0000193c 	andeq	r1, r0, ip, lsr r9
     358:	0b000f0b 	bleq	3f8c <__code_start__-0x4074>
     35c:	0013490b 	andseq	r4, r3, fp, lsl #18
     360:	00260c00 	eoreq	r0, r6, r0, lsl #24
     364:	00001349 	andeq	r1, r0, r9, asr #6
     368:	3f012e0d 	svccc	0x00012e0d
     36c:	3a0e0319 	bcc	380fd8 <__bss_end__+0x3778c8>
     370:	390b3b0b 	stmdbcc	fp, {r0, r1, r3, r8, r9, fp, ip, sp}
     374:	4919270b 	ldmdbmi	r9, {r0, r1, r3, r8, r9, sl, sp}
     378:	12011113 	andne	r1, r1, #-1073741820	; 0xc0000004
     37c:	97184006 	ldrls	r4, [r8, -r6]
     380:	13011942 	movwne	r1, #6466	; 0x1942
     384:	050e0000 	streq	r0, [lr, #-0]
     388:	3a080300 	bcc	200f90 <__bss_end__+0x1f7880>
     38c:	390b3b0b 	stmdbcc	fp, {r0, r1, r3, r8, r9, fp, ip, sp}
     390:	0213490b 	andseq	r4, r3, #180224	; 0x2c000
     394:	0f000018 	svceq	0x00000018
     398:	00000018 	andeq	r0, r0, r8, lsl r0
     39c:	03003410 	movweq	r3, #1040	; 0x410
     3a0:	3b0b3a08 	blcc	2cebc8 <__bss_end__+0x2c54b8>
     3a4:	490b390b 	stmdbmi	fp, {r0, r1, r3, r8, fp, ip, sp}
     3a8:	00180213 	andseq	r0, r8, r3, lsl r2
     3ac:	00341100 	eorseq	r1, r4, r0, lsl #2
     3b0:	0b3a0e03 	bleq	e83bc4 <__bss_end__+0xe7a4b4>
     3b4:	0b390b3b 	bleq	e430a8 <__bss_end__+0xe39998>
     3b8:	18021349 	stmdane	r2, {r0, r3, r6, r8, r9, ip}
     3bc:	34120000 	ldrcc	r0, [r2], #-0
     3c0:	3a080300 	bcc	200fc8 <__bss_end__+0x1f78b8>
     3c4:	390b3b0b 	stmdbcc	fp, {r0, r1, r3, r8, r9, fp, ip, sp}
     3c8:	0213490b 	andseq	r4, r3, #180224	; 0x2c000
     3cc:	1742b717 	smlaldne	fp, r2, r7, r7
     3d0:	89130000 	ldmdbhi	r3, {}	; <UNPREDICTABLE>
     3d4:	11010182 	smlabbne	r1, r2, r1, r0
     3d8:	01133101 	tsteq	r3, r1, lsl #2
     3dc:	14000013 	strne	r0, [r0], #-19	; 0xffffffed
     3e0:	0001828a 	andeq	r8, r1, sl, lsl #5
     3e4:	42911802 	addsmi	r1, r1, #131072	; 0x20000
     3e8:	15000018 	strne	r0, [r0, #-24]	; 0xffffffe8
     3ec:	01018289 	smlabbeq	r1, r9, r2, r8
     3f0:	00000111 	andeq	r0, r0, r1, lsl r1
     3f4:	49010116 	stmdbmi	r1, {r1, r2, r4, r8}
     3f8:	00130113 	andseq	r0, r3, r3, lsl r1
     3fc:	00211700 	eoreq	r1, r1, r0, lsl #14
     400:	052f1349 	streq	r1, [pc, #-841]!	; bf <__code_start__-0x7f41>
     404:	2e180000 	cdpcs	0, 1, cr0, cr8, cr0, {0}
     408:	3c193f00 	ldccc	15, cr3, [r9], {-0}
     40c:	030e6e19 	movweq	r6, #60953	; 0xee19
     410:	3b0b3a0e 	blcc	2cec50 <__bss_end__+0x2c5540>
     414:	000b390b 	andeq	r3, fp, fp, lsl #18
     418:	11010000 	mrsne	r0, (UNDEF: 1)
     41c:	130e2501 	movwne	r2, #58625	; 0xe501
     420:	1b0e030b 	blne	381054 <__bss_end__+0x377944>
     424:	1201110e 	andne	r1, r1, #-2147483645	; 0x80000003
     428:	00171006 	andseq	r1, r7, r6
     42c:	00240200 	eoreq	r0, r4, r0, lsl #4
     430:	0b3e0b0b 	bleq	f83064 <__bss_end__+0xf79954>
     434:	00000803 	andeq	r0, r0, r3, lsl #16
     438:	0b002403 	bleq	944c <__data_end__+0x13c>
     43c:	030b3e0b 	movweq	r3, #48651	; 0xbe0b
     440:	0400000e 	streq	r0, [r0], #-14
     444:	19270115 	stmdbne	r7!, {r0, r2, r4, r8}
     448:	13011349 	movwne	r1, #4937	; 0x1349
     44c:	05050000 	streq	r0, [r5, #-0]
     450:	00134900 	andseq	r4, r3, r0, lsl #18
     454:	00340600 	eorseq	r0, r4, r0, lsl #12
     458:	0b3a0e03 	bleq	e83c6c <__bss_end__+0xe7a55c>
     45c:	0b390b3b 	bleq	e43150 <__bss_end__+0xe39a40>
     460:	193f1349 	ldmdbne	pc!, {r0, r3, r6, r8, r9, ip}	; <UNPREDICTABLE>
     464:	0000193c 	andeq	r1, r0, ip, lsr r9
     468:	0b000f07 	bleq	408c <__code_start__-0x3f74>
     46c:	0013490b 	andseq	r4, r3, fp, lsl #18
     470:	00260800 	eoreq	r0, r6, r0, lsl #16
     474:	00001349 	andeq	r1, r0, r9, asr #6
     478:	47003409 	strmi	r3, [r0, -r9, lsl #8]
     47c:	3b0b3a13 	blcc	2cecd0 <__bss_end__+0x2c55c0>
     480:	020b390b 	andeq	r3, fp, #180224	; 0x2c000
     484:	0a000018 	beq	4ec <__code_start__-0x7b14>
     488:	193f012e 	ldmdbne	pc!, {r1, r2, r3, r5, r8}	; <UNPREDICTABLE>
     48c:	0b3a0e03 	bleq	e83ca0 <__bss_end__+0xe7a590>
     490:	0b390b3b 	bleq	e43184 <__bss_end__+0xe39a74>
     494:	13491927 	movtne	r1, #39207	; 0x9927
     498:	06120111 			; <UNDEFINED> instruction: 0x06120111
     49c:	42961840 	addsmi	r1, r6, #64, 16	; 0x400000
     4a0:	0b000019 	bleq	50c <__code_start__-0x7af4>
     4a4:	08030005 	stmdaeq	r3, {r0, r2}
     4a8:	0b3b0b3a 	bleq	ec3198 <__bss_end__+0xeb9a88>
     4ac:	13490b39 	movtne	r0, #39737	; 0x9b39
     4b0:	42b71702 	adcsmi	r1, r7, #524288	; 0x80000
     4b4:	00000017 	andeq	r0, r0, r7, lsl r0
     4b8:	25011101 	strcs	r1, [r1, #-257]	; 0xfffffeff
     4bc:	030b130e 	movweq	r1, #45838	; 0xb30e
     4c0:	110e1b0e 	tstne	lr, lr, lsl #22
     4c4:	10061201 	andne	r1, r6, r1, lsl #4
     4c8:	02000017 	andeq	r0, r0, #23, 0
     4cc:	0b0b0024 	bleq	2c0564 <__bss_end__+0x2b6e54>
     4d0:	08030b3e 	stmdaeq	r3, {r1, r2, r3, r4, r5, r8, r9, fp}
     4d4:	24030000 	strcs	r0, [r3], #-0
     4d8:	3e0b0b00 	vmlacc.f64	d0, d11, d0
     4dc:	000e030b 	andeq	r0, lr, fp, lsl #6
     4e0:	00160400 	andseq	r0, r6, r0, lsl #8
     4e4:	0b3a0e03 	bleq	e83cf8 <__bss_end__+0xe7a5e8>
     4e8:	0b390b3b 	bleq	e431dc <__bss_end__+0xe39acc>
     4ec:	00001349 	andeq	r1, r0, r9, asr #6
     4f0:	27011505 	strcs	r1, [r1, -r5, lsl #10]
     4f4:	01134919 	tsteq	r3, r9, lsl r9
     4f8:	06000013 			; <UNDEFINED> instruction: 0x06000013
     4fc:	13490005 	movtne	r0, #36869	; 0x9005
     500:	34070000 	strcc	r0, [r7], #-0
     504:	3a0e0300 	bcc	38110c <__bss_end__+0x3779fc>
     508:	390b3b0b 	stmdbcc	fp, {r0, r1, r3, r8, r9, fp, ip, sp}
     50c:	3f13490b 	svccc	0x0013490b
     510:	00193c19 	andseq	r3, r9, r9, lsl ip
     514:	000f0800 	andeq	r0, pc, r0, lsl #16
     518:	13490b0b 	movtne	r0, #39691	; 0x9b0b
     51c:	26090000 	strcs	r0, [r9], -r0
     520:	00134900 	andseq	r4, r3, r0, lsl #18
     524:	01130a00 	tsteq	r3, r0, lsl #20
     528:	0b0b0e03 	bleq	2c3d3c <__bss_end__+0x2ba62c>
     52c:	0b3b0b3a 	bleq	ec321c <__bss_end__+0xeb9b0c>
     530:	00001301 	andeq	r1, r0, r1, lsl #6
     534:	03000d0b 	movweq	r0, #3339	; 0xd0b
     538:	3813490e 	ldmdacc	r3, {r1, r2, r3, r8, fp, lr}
     53c:	0019340b 	andseq	r3, r9, fp, lsl #8
     540:	000f0c00 	andeq	r0, pc, r0, lsl #24
     544:	00000b0b 	andeq	r0, r0, fp, lsl #22
     548:	3f012e0d 	svccc	0x00012e0d
     54c:	3a0e0319 	bcc	3811b8 <__bss_end__+0x377aa8>
     550:	390b3b0b 	stmdbcc	fp, {r0, r1, r3, r8, r9, fp, ip, sp}
     554:	4919270b 	ldmdbmi	r9, {r0, r1, r3, r8, r9, sl, sp}
     558:	12011113 	andne	r1, r1, #-1073741820	; 0xc0000004
     55c:	97184006 	ldrls	r4, [r8, -r6]
     560:	13011942 	movwne	r1, #6466	; 0x1942
     564:	050e0000 	streq	r0, [lr, #-0]
     568:	3a080300 	bcc	201170 <__bss_end__+0x1f7a60>
     56c:	390b3b0b 	stmdbcc	fp, {r0, r1, r3, r8, r9, fp, ip, sp}
     570:	0213490b 	andseq	r4, r3, #180224	; 0x2c000
     574:	1742b717 	smlaldne	fp, r2, r7, r7
     578:	050f0000 	streq	r0, [pc, #-0]	; 580 <__code_start__-0x7a80>
     57c:	3a0e0300 	bcc	381184 <__bss_end__+0x377a74>
     580:	390b3b0b 	stmdbcc	fp, {r0, r1, r3, r8, r9, fp, ip, sp}
     584:	0213490b 	andseq	r4, r3, #180224	; 0x2c000
     588:	10000018 	andne	r0, r0, r8, lsl r0
     58c:	08030034 	stmdaeq	r3, {r2, r4, r5}
     590:	0b3b0b3a 	bleq	ec3280 <__bss_end__+0xeb9b70>
     594:	13490b39 	movtne	r0, #39737	; 0x9b39
     598:	42b71702 	adcsmi	r1, r7, #524288	; 0x80000
     59c:	11000017 	tstne	r0, r7, lsl r0
     5a0:	08030034 	stmdaeq	r3, {r2, r4, r5}
     5a4:	0b3b0b3a 	bleq	ec3294 <__bss_end__+0xeb9b84>
     5a8:	13490b39 	movtne	r0, #39737	; 0x9b39
     5ac:	34120000 	ldrcc	r0, [r2], #-0
     5b0:	3a0e0300 	bcc	3811b8 <__bss_end__+0x377aa8>
     5b4:	390b3b0b 	stmdbcc	fp, {r0, r1, r3, r8, r9, fp, ip, sp}
     5b8:	0213490b 	andseq	r4, r3, #180224	; 0x2c000
     5bc:	1742b717 	smlaldne	fp, r2, r7, r7
     5c0:	34130000 	ldrcc	r0, [r3], #-0
     5c4:	490e0300 	stmdbmi	lr, {r8, r9}
     5c8:	02193413 	andseq	r3, r9, #318767104	; 0x13000000
     5cc:	14000018 	strne	r0, [r0], #-24	; 0xffffffe8
     5d0:	0111010b 	tsteq	r1, fp, lsl #2
     5d4:	00000612 	andeq	r0, r0, r2, lsl r6
     5d8:	03003415 	movweq	r3, #1045	; 0x415
     5dc:	3b0b3a08 	blcc	2cee04 <__bss_end__+0x2c56f4>
     5e0:	490b390b 	stmdbmi	fp, {r0, r1, r3, r8, fp, ip, sp}
     5e4:	00180213 	andseq	r0, r8, r3, lsl r2
     5e8:	00341600 	eorseq	r1, r4, r0, lsl #12
     5ec:	0b3a0e03 	bleq	e83e00 <__bss_end__+0xe7a6f0>
     5f0:	0b390b3b 	bleq	e432e4 <__bss_end__+0xe39bd4>
     5f4:	18021349 	stmdane	r2, {r0, r3, r6, r8, r9, ip}
     5f8:	0b170000 	bleq	5c0600 <__bss_end__+0x5b6ef0>
     5fc:	12011101 	andne	r1, r1, #1073741824	; 0x40000000
     600:	00130106 	andseq	r0, r3, r6, lsl #2
     604:	82891800 	addhi	r1, r9, #0, 16
     608:	01110101 	tsteq	r1, r1, lsl #2
     60c:	13011331 	movwne	r1, #4913	; 0x1331
     610:	8a190000 	bhi	640618 <__bss_end__+0x636f08>
     614:	02000182 	andeq	r0, r0, #-2147483616	; 0x80000020
     618:	18429118 	stmdane	r2, {r3, r4, r8, ip, pc}^
     61c:	891a0000 	ldmdbhi	sl, {}	; <UNPREDICTABLE>
     620:	11000182 	smlabbne	r0, r2, r1, r0
     624:	00133101 	andseq	r3, r3, r1, lsl #2
     628:	82891b00 	addhi	r1, r9, #0, 22
     62c:	01110101 	tsteq	r1, r1, lsl #2
     630:	00001301 	andeq	r1, r0, r1, lsl #6
     634:	4901011c 	stmdbmi	r1, {r2, r3, r4, r8}
     638:	00130113 	andseq	r0, r3, r3, lsl r1
     63c:	00211d00 	eoreq	r1, r1, r0, lsl #26
     640:	0b2f1349 	bleq	bc536c <__bss_end__+0xbbbc5c>
     644:	2e1e0000 	cdpcs	0, 1, cr0, cr14, cr0, {0}
     648:	3a0e0301 	bcc	381254 <__bss_end__+0x377b44>
     64c:	390b3b0b 	stmdbcc	fp, {r0, r1, r3, r8, r9, fp, ip, sp}
     650:	4919270b 	ldmdbmi	r9, {r0, r1, r3, r8, r9, sl, sp}
     654:	12011113 	andne	r1, r1, #-1073741820	; 0xc0000004
     658:	97184006 	ldrls	r4, [r8, -r6]
     65c:	13011942 	movwne	r1, #6466	; 0x1942
     660:	051f0000 	ldreq	r0, [pc, #-0]	; 668 <__code_start__-0x7998>
     664:	3a0e0300 	bcc	38126c <__bss_end__+0x377b5c>
     668:	390b3b0b 	stmdbcc	fp, {r0, r1, r3, r8, r9, fp, ip, sp}
     66c:	0213490b 	andseq	r4, r3, #180224	; 0x2c000
     670:	1742b717 	smlaldne	fp, r2, r7, r7
     674:	2e200000 	cdpcs	0, 2, cr0, cr0, cr0, {0}
     678:	3a080301 	bcc	201284 <__bss_end__+0x1f7b74>
     67c:	390b3b0b 	stmdbcc	fp, {r0, r1, r3, r8, r9, fp, ip, sp}
     680:	4919270b 	ldmdbmi	r9, {r0, r1, r3, r8, r9, sl, sp}
     684:	12011113 	andne	r1, r1, #-1073741820	; 0xc0000004
     688:	97184006 	ldrls	r4, [r8, -r6]
     68c:	13011942 	movwne	r1, #6466	; 0x1942
     690:	2e210000 	cdpcs	0, 2, cr0, cr1, cr0, {0}
     694:	03193f01 	tsteq	r9, #1, 30
     698:	3b0b3a0e 	blcc	2ceed8 <__bss_end__+0x2c57c8>
     69c:	270b390b 	strcs	r3, [fp, -fp, lsl #18]
     6a0:	12011119 	andne	r1, r1, #1073741830	; 0x40000006
     6a4:	97184006 	ldrls	r4, [r8, -r6]
     6a8:	13011942 	movwne	r1, #6466	; 0x1942
     6ac:	2e220000 	cdpcs	0, 2, cr0, cr2, cr0, {0}
     6b0:	3c193f00 	ldccc	15, cr3, [r9], {-0}
     6b4:	030e6e19 	movweq	r6, #60953	; 0xee19
     6b8:	3b0b3a0e 	blcc	2ceef8 <__bss_end__+0x2c57e8>
     6bc:	000b390b 	andeq	r3, fp, fp, lsl #18
     6c0:	11010000 	mrsne	r0, (UNDEF: 1)
     6c4:	130e2501 	movwne	r2, #58625	; 0xe501
     6c8:	1b0e030b 	blne	3812fc <__bss_end__+0x377bec>
     6cc:	1201110e 	andne	r1, r1, #-2147483645	; 0x80000003
     6d0:	00171006 	andseq	r1, r7, r6
     6d4:	00240200 	eoreq	r0, r4, r0, lsl #4
     6d8:	0b3e0b0b 	bleq	f8330c <__bss_end__+0xf79bfc>
     6dc:	00000803 	andeq	r0, r0, r3, lsl #16
     6e0:	0b002403 	bleq	96f4 <__data_end__+0x3e4>
     6e4:	030b3e0b 	movweq	r3, #48651	; 0xbe0b
     6e8:	0400000e 	streq	r0, [r0], #-14
     6ec:	19270115 	stmdbne	r7!, {r0, r2, r4, r8}
     6f0:	13011349 	movwne	r1, #4937	; 0x1349
     6f4:	05050000 	streq	r0, [r5, #-0]
     6f8:	00134900 	andseq	r4, r3, r0, lsl #18
     6fc:	00340600 	eorseq	r0, r4, r0, lsl #12
     700:	0b3a0e03 	bleq	e83f14 <__bss_end__+0xe7a804>
     704:	0b390b3b 	bleq	e433f8 <__bss_end__+0xe39ce8>
     708:	193f1349 	ldmdbne	pc!, {r0, r3, r6, r8, r9, ip}	; <UNPREDICTABLE>
     70c:	0000193c 	andeq	r1, r0, ip, lsr r9
     710:	0b000f07 	bleq	4334 <__code_start__-0x3ccc>
     714:	0013490b 	andseq	r4, r3, fp, lsl #18
     718:	00260800 	eoreq	r0, r6, r0, lsl #16
     71c:	00001349 	andeq	r1, r0, r9, asr #6
     720:	3f012e09 	svccc	0x00012e09
     724:	3a0e0319 	bcc	381390 <__bss_end__+0x377c80>
     728:	390b3b0b 	stmdbcc	fp, {r0, r1, r3, r8, r9, fp, ip, sp}
     72c:	8719270b 	ldrhi	r2, [r9, -fp, lsl #14]
     730:	01111901 	tsteq	r1, r1, lsl #18
     734:	18400612 	stmdane	r0, {r1, r4, r9, sl}^
     738:	01194297 			; <UNDEFINED> instruction: 0x01194297
     73c:	0a000013 	beq	790 <__code_start__-0x7870>
     740:	01018289 	smlabbeq	r1, r9, r2, r8
     744:	13010111 	movwne	r0, #4369	; 0x1111
     748:	8a0b0000 	bhi	2c0750 <__bss_end__+0x2b7040>
     74c:	02000182 	andeq	r0, r0, #-2147483616	; 0x80000020
     750:	18429118 	stmdane	r2, {r3, r4, r8, ip, pc}^
     754:	890c0000 	stmdbhi	ip, {}	; <UNPREDICTABLE>
     758:	11000182 	smlabbne	r0, r2, r1, r0
     75c:	00133101 	andseq	r3, r3, r1, lsl #2
     760:	82890d00 	addhi	r0, r9, #0, 26
     764:	01110101 	tsteq	r1, r1, lsl #2
     768:	13011331 	movwne	r1, #4913	; 0x1331
     76c:	2e0e0000 	cdpcs	0, 0, cr0, cr14, cr0, {0}
     770:	3c193f00 	ldccc	15, cr3, [r9], {-0}
     774:	030e6e19 	movweq	r6, #60953	; 0xee19
     778:	3b0b3a0e 	blcc	2cefb8 <__bss_end__+0x2c58a8>
     77c:	000b390b 	andeq	r3, fp, fp, lsl #18
     780:	11010000 	mrsne	r0, (UNDEF: 1)
     784:	130e2501 	movwne	r2, #58625	; 0xe501
     788:	1b0e030b 	blne	3813bc <__bss_end__+0x377cac>
     78c:	1201110e 	andne	r1, r1, #-2147483645	; 0x80000003
     790:	00171006 	andseq	r1, r7, r6
     794:	00240200 	eoreq	r0, r4, r0, lsl #4
     798:	0b3e0b0b 	bleq	f833cc <__bss_end__+0xf79cbc>
     79c:	00000803 	andeq	r0, r0, r3, lsl #16
     7a0:	0b002403 	bleq	97b4 <__bss_end__+0xa4>
     7a4:	030b3e0b 	movweq	r3, #48651	; 0xbe0b
     7a8:	0400000e 	streq	r0, [r0], #-14
     7ac:	19270115 	stmdbne	r7!, {r0, r2, r4, r8}
     7b0:	13011349 	movwne	r1, #4937	; 0x1349
     7b4:	05050000 	streq	r0, [r5, #-0]
     7b8:	00134900 	andseq	r4, r3, r0, lsl #18
     7bc:	00340600 	eorseq	r0, r4, r0, lsl #12
     7c0:	0b3a0e03 	bleq	e83fd4 <__bss_end__+0xe7a8c4>
     7c4:	0b390b3b 	bleq	e434b8 <__bss_end__+0xe39da8>
     7c8:	193f1349 	ldmdbne	pc!, {r0, r3, r6, r8, r9, ip}	; <UNPREDICTABLE>
     7cc:	0000193c 	andeq	r1, r0, ip, lsr r9
     7d0:	0b000f07 	bleq	43f4 <__code_start__-0x3c0c>
     7d4:	0013490b 	andseq	r4, r3, fp, lsl #18
     7d8:	00260800 	eoreq	r0, r6, r0, lsl #16
     7dc:	00001349 	andeq	r1, r0, r9, asr #6
     7e0:	3f012e09 	svccc	0x00012e09
     7e4:	3a0e0319 	bcc	381450 <__bss_end__+0x377d40>
     7e8:	390b3b0b 	stmdbcc	fp, {r0, r1, r3, r8, r9, fp, ip, sp}
     7ec:	1201110b 	andne	r1, r1, #-1073741822	; 0xc0000002
     7f0:	97184006 	ldrls	r4, [r8, -r6]
     7f4:	13011942 	movwne	r1, #6466	; 0x1942
     7f8:	2e0a0000 	cdpcs	0, 0, cr0, cr10, cr0, {0}
     7fc:	03193f00 	tsteq	r9, #0, 30
     800:	3b0b3a0e 	blcc	2cf040 <__bss_end__+0x2c5930>
     804:	270b390b 	strcs	r3, [fp, -fp, lsl #18]
     808:	00193c19 	andseq	r3, r9, r9, lsl ip
     80c:	00340b00 	eorseq	r0, r4, r0, lsl #22
     810:	0b3a0803 	bleq	e82824 <__bss_end__+0xe79114>
     814:	0b390b3b 	bleq	e43508 <__bss_end__+0xe39df8>
     818:	17021349 	strne	r1, [r2, -r9, asr #6]
     81c:	001742b7 			; <UNDEFINED> instruction: 0x001742b7
     820:	00340c00 	eorseq	r0, r4, r0, lsl #24
     824:	0b3a0e03 	bleq	e84038 <__bss_end__+0xe7a928>
     828:	0b390b3b 	bleq	e4351c <__bss_end__+0xe39e0c>
     82c:	00001349 	andeq	r1, r0, r9, asr #6
     830:	0182890d 	orreq	r8, r2, sp, lsl #18
     834:	31011100 	mrscc	r1, (UNDEF: 17)
     838:	0e000013 	mcreq	0, 0, r0, cr0, cr3, {0}
     83c:	193f002e 	ldmdbne	pc!, {r1, r2, r3, r5}	; <UNPREDICTABLE>
     840:	0e6e193c 			; <UNDEFINED> instruction: 0x0e6e193c
     844:	0b3a0e03 	bleq	e84058 <__bss_end__+0xe7a948>
     848:	0b390b3b 	bleq	e4353c <__bss_end__+0xe39e2c>
     84c:	01000000 	mrseq	r0, (UNDEF: 0)
     850:	0e250111 	mcreq	1, 1, r0, cr5, cr1, {0}
     854:	0e030b13 	vmoveq.32	d3[0], r0
     858:	17550e1b 	smmlane	r5, fp, lr, r0
     85c:	17100111 			; <UNDEFINED> instruction: 0x17100111
     860:	24020000 	strcs	r0, [r2], #-0
     864:	3e0b0b00 	vmlacc.f64	d0, d11, d0
     868:	0008030b 	andeq	r0, r8, fp, lsl #6
     86c:	00260300 	eoreq	r0, r6, r0, lsl #6
     870:	00001349 	andeq	r1, r0, r9, asr #6
     874:	0b002404 	bleq	988c <__bss_end__+0x17c>
     878:	030b3e0b 	movweq	r3, #48651	; 0xbe0b
     87c:	0500000e 	streq	r0, [r0, #-14]
     880:	19270115 	stmdbne	r7!, {r0, r2, r4, r8}
     884:	13011349 	movwne	r1, #4937	; 0x1349
     888:	05060000 	streq	r0, [r6, #-0]
     88c:	00134900 	andseq	r4, r3, r0, lsl #18
     890:	00340700 	eorseq	r0, r4, r0, lsl #14
     894:	0b3a0e03 	bleq	e840a8 <__bss_end__+0xe7a998>
     898:	0b390b3b 	bleq	e4358c <__bss_end__+0xe39e7c>
     89c:	193f1349 	ldmdbne	pc!, {r0, r3, r6, r8, r9, ip}	; <UNPREDICTABLE>
     8a0:	0000193c 	andeq	r1, r0, ip, lsr r9
     8a4:	0b000f08 	bleq	44cc <__code_start__-0x3b34>
     8a8:	0013490b 	andseq	r4, r3, fp, lsl #18
     8ac:	00340900 	eorseq	r0, r4, r0, lsl #18
     8b0:	0b3a0e03 	bleq	e840c4 <__bss_end__+0xe7a9b4>
     8b4:	0b390b3b 	bleq	e435a8 <__bss_end__+0xe39e98>
     8b8:	00001349 	andeq	r1, r0, r9, asr #6
     8bc:	3f012e0a 	svccc	0x00012e0a
     8c0:	3a0e0319 	bcc	38152c <__bss_end__+0x377e1c>
     8c4:	390b3b0b 	stmdbcc	fp, {r0, r1, r3, r8, r9, fp, ip, sp}
     8c8:	8719270b 	ldrhi	r2, [r9, -fp, lsl #14]
     8cc:	01111901 	tsteq	r1, r1, lsl #18
     8d0:	18400612 	stmdane	r0, {r1, r4, r9, sl}^
     8d4:	01194297 			; <UNDEFINED> instruction: 0x01194297
     8d8:	0b000013 	bleq	92c <__code_start__-0x76d4>
     8dc:	0e030034 	mcreq	0, 0, r0, cr3, cr4, {1}
     8e0:	0b3b0b3a 	bleq	ec35d0 <__bss_end__+0xeb9ec0>
     8e4:	13490b39 	movtne	r0, #39737	; 0x9b39
     8e8:	42b71702 	adcsmi	r1, r7, #524288	; 0x80000
     8ec:	0c000017 	stceq	0, cr0, [r0], {23}
     8f0:	00018289 	andeq	r8, r1, r9, lsl #5
     8f4:	13310111 	teqne	r1, #1073741828	; 0x40000004
     8f8:	890d0000 	stmdbhi	sp, {}	; <UNPREDICTABLE>
     8fc:	11010182 	smlabbne	r1, r2, r1, r0
     900:	01133101 	tsteq	r3, r1, lsl #2
     904:	0e000013 	mcreq	0, 0, r0, cr0, cr3, {0}
     908:	0001828a 	andeq	r8, r1, sl, lsl #5
     90c:	42911802 	addsmi	r1, r1, #131072	; 0x20000
     910:	0f000018 	svceq	0x00000018
     914:	193f012e 	ldmdbne	pc!, {r1, r2, r3, r5, r8}	; <UNPREDICTABLE>
     918:	0b3a0e03 	bleq	e8412c <__bss_end__+0xe7aa1c>
     91c:	0b390b3b 	bleq	e43610 <__bss_end__+0xe39f00>
     920:	01111927 	tsteq	r1, r7, lsr #18
     924:	18400612 	stmdane	r0, {r1, r4, r9, sl}^
     928:	01194297 			; <UNDEFINED> instruction: 0x01194297
     92c:	10000013 	andne	r0, r0, r3, lsl r0
     930:	193f012e 	ldmdbne	pc!, {r1, r2, r3, r5, r8}	; <UNPREDICTABLE>
     934:	0b3a0e03 	bleq	e84148 <__bss_end__+0xe7aa38>
     938:	0b390b3b 	bleq	e4362c <__bss_end__+0xe39f1c>
     93c:	13491927 	movtne	r1, #39207	; 0x9927
     940:	06120111 			; <UNDEFINED> instruction: 0x06120111
     944:	42971840 	addsmi	r1, r7, #64, 16	; 0x400000
     948:	00130119 	andseq	r0, r3, r9, lsl r1
     94c:	002e1100 	eoreq	r1, lr, r0, lsl #2
     950:	193c193f 	ldmdbne	ip!, {r0, r1, r2, r3, r4, r5, r8, fp, ip}
     954:	0e030e6e 	cdpeq	14, 0, cr0, cr3, cr14, {3}
     958:	0b3b0b3a 	bleq	ec3648 <__bss_end__+0xeb9f38>
     95c:	00000b39 	andeq	r0, r0, r9, lsr fp
     960:	01110100 	tsteq	r1, r0, lsl #2
     964:	0b130e25 	bleq	4c4200 <__bss_end__+0x4baaf0>
     968:	0e1b0e03 	cdpeq	14, 1, cr0, cr11, cr3, {0}
     96c:	06120111 			; <UNDEFINED> instruction: 0x06120111
     970:	00001710 	andeq	r1, r0, r0, lsl r7
     974:	0b002402 	bleq	9984 <__bss_end__+0x274>
     978:	030b3e0b 	movweq	r3, #48651	; 0xbe0b
     97c:	03000008 	movweq	r0, #8
     980:	0b0b0024 	bleq	2c0a18 <__bss_end__+0x2b7308>
     984:	0e030b3e 	vmoveq.16	d3[0], r0
     988:	15040000 	strne	r0, [r4, #-0]
     98c:	49192701 	ldmdbmi	r9, {r0, r8, r9, sl, sp}
     990:	00130113 	andseq	r0, r3, r3, lsl r1
     994:	00050500 	andeq	r0, r5, r0, lsl #10
     998:	00001349 	andeq	r1, r0, r9, asr #6
     99c:	03003406 	movweq	r3, #1030	; 0x406
     9a0:	3b0b3a0e 	blcc	2cf1e0 <__bss_end__+0x2c5ad0>
     9a4:	490b390b 	stmdbmi	fp, {r0, r1, r3, r8, fp, ip, sp}
     9a8:	3c193f13 	ldccc	15, cr3, [r9], {19}
     9ac:	07000019 	smladeq	r0, r9, r0, r0
     9b0:	0b0b000f 	bleq	2c09f4 <__bss_end__+0x2b72e4>
     9b4:	00001349 	andeq	r1, r0, r9, asr #6
     9b8:	49002608 	stmdbmi	r0, {r3, r9, sl, sp}
     9bc:	09000013 	stmdbeq	r0, {r0, r1, r4}
     9c0:	193f012e 	ldmdbne	pc!, {r1, r2, r3, r5, r8}	; <UNPREDICTABLE>
     9c4:	0b3a0e03 	bleq	e841d8 <__bss_end__+0xe7aac8>
     9c8:	0b390b3b 	bleq	e436bc <__bss_end__+0xe39fac>
     9cc:	01111927 	tsteq	r1, r7, lsr #18
     9d0:	18400612 	stmdane	r0, {r1, r4, r9, sl}^
     9d4:	01194297 			; <UNDEFINED> instruction: 0x01194297
     9d8:	0a000013 	beq	a2c <__code_start__-0x75d4>
     9dc:	08030005 	stmdaeq	r3, {r0, r2}
     9e0:	0b3b0b3a 	bleq	ec36d0 <__bss_end__+0xeb9fc0>
     9e4:	13490b39 	movtne	r0, #39737	; 0x9b39
     9e8:	42b71702 	adcsmi	r1, r7, #524288	; 0x80000
     9ec:	0b000017 	bleq	a50 <__code_start__-0x75b0>
     9f0:	01018289 	smlabbeq	r1, r9, r2, r8
     9f4:	13310111 	teqne	r1, #1073741828	; 0x40000004
     9f8:	8a0c0000 	bhi	300a00 <__bss_end__+0x2f72f0>
     9fc:	02000182 	andeq	r0, r0, #-2147483616	; 0x80000020
     a00:	18429118 	stmdane	r2, {r3, r4, r8, ip, pc}^
     a04:	340d0000 	strcc	r0, [sp], #-0
     a08:	3a080300 	bcc	201610 <__bss_end__+0x1f7f00>
     a0c:	390b3b0b 	stmdbcc	fp, {r0, r1, r3, r8, r9, fp, ip, sp}
     a10:	0213490b 	andseq	r4, r3, #180224	; 0x2c000
     a14:	1742b717 	smlaldne	fp, r2, r7, r7
     a18:	0b0e0000 	bleq	380a20 <__bss_end__+0x377310>
     a1c:	12011101 	andne	r1, r1, #1073741824	; 0x40000000
     a20:	00130106 	andseq	r0, r3, r6, lsl #2
     a24:	82890f00 	addhi	r0, r9, #0, 30
     a28:	01110001 	tsteq	r1, r1
     a2c:	00001331 	andeq	r1, r0, r1, lsr r3
     a30:	3f012e10 	svccc	0x00012e10
     a34:	3a0e0319 	bcc	3816a0 <__bss_end__+0x377f90>
     a38:	390b3b0b 	stmdbcc	fp, {r0, r1, r3, r8, r9, fp, ip, sp}
     a3c:	4919270b 	ldmdbmi	r9, {r0, r1, r3, r8, r9, sl, sp}
     a40:	12011113 	andne	r1, r1, #-1073741820	; 0xc0000004
     a44:	97184006 	ldrls	r4, [r8, -r6]
     a48:	13011942 	movwne	r1, #6466	; 0x1942
     a4c:	2e110000 	cdpcs	0, 1, cr0, cr1, cr0, {0}
     a50:	3c193f00 	ldccc	15, cr3, [r9], {-0}
     a54:	030e6e19 	movweq	r6, #60953	; 0xee19
     a58:	3b0b3a0e 	blcc	2cf298 <__bss_end__+0x2c5b88>
     a5c:	000b390b 	andeq	r3, fp, fp, lsl #18
     a60:	11010000 	mrsne	r0, (UNDEF: 1)
     a64:	130e2501 	movwne	r2, #58625	; 0xe501
     a68:	1b0e030b 	blne	38169c <__bss_end__+0x377f8c>
     a6c:	1201110e 	andne	r1, r1, #-2147483645	; 0x80000003
     a70:	00171006 	andseq	r1, r7, r6
     a74:	00240200 	eoreq	r0, r4, r0, lsl #4
     a78:	0b3e0b0b 	bleq	f836ac <__bss_end__+0xf79f9c>
     a7c:	00000803 	andeq	r0, r0, r3, lsl #16
     a80:	0b002403 	bleq	9a94 <__bss_end__+0x384>
     a84:	030b3e0b 	movweq	r3, #48651	; 0xbe0b
     a88:	0400000e 	streq	r0, [r0], #-14
     a8c:	13490035 	movtne	r0, #36917	; 0x9035
     a90:	16050000 	strne	r0, [r5], -r0
     a94:	3a0e0300 	bcc	38169c <__bss_end__+0x377f8c>
     a98:	390b3b0b 	stmdbcc	fp, {r0, r1, r3, r8, r9, fp, ip, sp}
     a9c:	0013490b 	andseq	r4, r3, fp, lsl #18
     aa0:	01150600 	tsteq	r5, r0, lsl #12
     aa4:	13491927 	movtne	r1, #39207	; 0x9927
     aa8:	00001301 	andeq	r1, r0, r1, lsl #6
     aac:	49000507 	stmdbmi	r0, {r0, r1, r2, r8, sl}
     ab0:	08000013 	stmdaeq	r0, {r0, r1, r4}
     ab4:	0e030034 	mcreq	0, 0, r0, cr3, cr4, {1}
     ab8:	0b3b0b3a 	bleq	ec37a8 <__bss_end__+0xeba098>
     abc:	13490b39 	movtne	r0, #39737	; 0x9b39
     ac0:	193c193f 	ldmdbne	ip!, {r0, r1, r2, r3, r4, r5, r8, fp, ip}
     ac4:	0f090000 	svceq	0x00090000
     ac8:	490b0b00 	stmdbmi	fp, {r8, r9, fp}
     acc:	0a000013 	beq	b20 <__code_start__-0x74e0>
     ad0:	13490026 	movtne	r0, #36902	; 0x9026
     ad4:	040b0000 	streq	r0, [fp], #-0
     ad8:	0b0b3e01 	bleq	2d02e4 <__bss_end__+0x2c6bd4>
     adc:	3a13490b 	bcc	4d2f10 <__bss_end__+0x4c9800>
     ae0:	390b3b0b 	stmdbcc	fp, {r0, r1, r3, r8, r9, fp, ip, sp}
     ae4:	0013010b 	andseq	r0, r3, fp, lsl #2
     ae8:	00280c00 	eoreq	r0, r8, r0, lsl #24
     aec:	0b1c0e03 	bleq	704300 <__bss_end__+0x6fabf0>
     af0:	130d0000 	movwne	r0, #53248	; 0xd000
     af4:	0b0e0301 	bleq	381700 <__bss_end__+0x377ff0>
     af8:	3b0b3a0b 	blcc	2cf32c <__bss_end__+0x2c5c1c>
     afc:	010b390b 	tsteq	fp, fp, lsl #18
     b00:	0e000013 	mcreq	0, 0, r0, cr0, cr3, {0}
     b04:	0803000d 	stmdaeq	r3, {r0, r2, r3}
     b08:	0b3b0b3a 	bleq	ec37f8 <__bss_end__+0xeba0e8>
     b0c:	13490b39 	movtne	r0, #39737	; 0x9b39
     b10:	00000b38 	andeq	r0, r0, r8, lsr fp
     b14:	03000d0f 	movweq	r0, #3343	; 0xd0f
     b18:	3b0b3a0e 	blcc	2cf358 <__bss_end__+0x2c5c48>
     b1c:	490b390b 	stmdbmi	fp, {r0, r1, r3, r8, fp, ip, sp}
     b20:	000b3813 	andeq	r3, fp, r3, lsl r8
     b24:	00341000 	eorseq	r1, r4, r0
     b28:	0b3a0e03 	bleq	e8433c <__bss_end__+0xe7ac2c>
     b2c:	0b390b3b 	bleq	e43820 <__bss_end__+0xe3a110>
     b30:	061c1349 	ldreq	r1, [ip], -r9, asr #6
     b34:	2e110000 	cdpcs	0, 1, cr0, cr1, cr0, {0}
     b38:	03193f01 	tsteq	r9, #1, 30
     b3c:	3b0b3a0e 	blcc	2cf37c <__bss_end__+0x2c5c6c>
     b40:	270b390b 	strcs	r3, [fp, -fp, lsl #18]
     b44:	12011119 	andne	r1, r1, #1073741830	; 0x40000006
     b48:	97184006 	ldrls	r4, [r8, -r6]
     b4c:	13011942 	movwne	r1, #6466	; 0x1942
     b50:	89120000 	ldmdbhi	r2, {}	; <UNPREDICTABLE>
     b54:	11000182 	smlabbne	r0, r2, r1, r0
     b58:	00133101 	andseq	r3, r3, r1, lsl #2
     b5c:	012e1300 			; <UNDEFINED> instruction: 0x012e1300
     b60:	0e03193f 			; <UNDEFINED> instruction: 0x0e03193f
     b64:	0b3b0b3a 	bleq	ec3854 <__bss_end__+0xeba144>
     b68:	19270b39 	stmdbne	r7!, {r0, r3, r4, r5, r8, r9, fp}
     b6c:	01111349 	tsteq	r1, r9, asr #6
     b70:	18400612 	stmdane	r0, {r1, r4, r9, sl}^
     b74:	01194297 			; <UNDEFINED> instruction: 0x01194297
     b78:	14000013 	strne	r0, [r0], #-19	; 0xffffffed
     b7c:	01018289 	smlabbeq	r1, r9, r2, r8
     b80:	13310111 	teqne	r1, #1073741828	; 0x40000004
     b84:	8a150000 	bhi	540b8c <__bss_end__+0x53747c>
     b88:	02000182 	andeq	r0, r0, #-2147483616	; 0x80000020
     b8c:	18429118 	stmdane	r2, {r3, r4, r8, ip, pc}^
     b90:	05160000 	ldreq	r0, [r6, #-0]
     b94:	3a080300 	bcc	20179c <__bss_end__+0x1f808c>
     b98:	390b3b0b 	stmdbcc	fp, {r0, r1, r3, r8, r9, fp, ip, sp}
     b9c:	0213490b 	andseq	r4, r3, #180224	; 0x2c000
     ba0:	1742b717 	smlaldne	fp, r2, r7, r7
     ba4:	89170000 	ldmdbhi	r7, {}	; <UNPREDICTABLE>
     ba8:	11010182 	smlabbne	r1, r2, r1, r0
     bac:	01133101 	tsteq	r3, r1, lsl #2
     bb0:	18000013 	stmdane	r0, {r0, r1, r4}
     bb4:	08030034 	stmdaeq	r3, {r2, r4, r5}
     bb8:	0b3b0b3a 	bleq	ec38a8 <__bss_end__+0xeba198>
     bbc:	13490b39 	movtne	r0, #39737	; 0x9b39
     bc0:	42b71702 	adcsmi	r1, r7, #524288	; 0x80000
     bc4:	19000017 	stmdbne	r0, {r0, r1, r2, r4}
     bc8:	0e030034 	mcreq	0, 0, r0, cr3, cr4, {1}
     bcc:	0b3b0b3a 	bleq	ec38bc <__bss_end__+0xeba1ac>
     bd0:	13490b39 	movtne	r0, #39737	; 0x9b39
     bd4:	0000051c 	andeq	r0, r0, ip, lsl r5
     bd8:	03012e1a 	movweq	r2, #7706	; 0x1e1a
     bdc:	3b0b3a0e 	blcc	2cf41c <__bss_end__+0x2c5d0c>
     be0:	270b390b 	strcs	r3, [fp, -fp, lsl #18]
     be4:	12011119 	andne	r1, r1, #1073741830	; 0x40000006
     be8:	97184006 	ldrls	r4, [r8, -r6]
     bec:	13011942 	movwne	r1, #6466	; 0x1942
     bf0:	051b0000 	ldreq	r0, [fp, #-0]
     bf4:	3a0e0300 	bcc	3817fc <__bss_end__+0x3780ec>
     bf8:	390b3b0b 	stmdbcc	fp, {r0, r1, r3, r8, r9, fp, ip, sp}
     bfc:	0213490b 	andseq	r4, r3, #180224	; 0x2c000
     c00:	1742b717 	smlaldne	fp, r2, r7, r7
     c04:	351c0000 	ldrcc	r0, [ip, #-0]
     c08:	1d000000 	stcne	0, cr0, [r0, #-0]
     c0c:	193f002e 	ldmdbne	pc!, {r1, r2, r3, r5}	; <UNPREDICTABLE>
     c10:	0e6e193c 			; <UNDEFINED> instruction: 0x0e6e193c
     c14:	0b3a0e03 	bleq	e84428 <__bss_end__+0xe7ad18>
     c18:	0b390b3b 	bleq	e4390c <__bss_end__+0xe3a1fc>
     c1c:	01000000 	mrseq	r0, (UNDEF: 0)
     c20:	0e250111 	mcreq	1, 1, r0, cr5, cr1, {0}
     c24:	0e030b13 	vmoveq.32	d3[0], r0
     c28:	01110e1b 	tsteq	r1, fp, lsl lr
     c2c:	17100612 			; <UNDEFINED> instruction: 0x17100612
     c30:	24020000 	strcs	r0, [r2], #-0
     c34:	3e0b0b00 	vmlacc.f64	d0, d11, d0
     c38:	0008030b 	andeq	r0, r8, fp, lsl #6
     c3c:	00240300 	eoreq	r0, r4, r0, lsl #6
     c40:	0b3e0b0b 	bleq	f83874 <__bss_end__+0xf7a164>
     c44:	00000e03 	andeq	r0, r0, r3, lsl #28
     c48:	27011504 	strcs	r1, [r1, -r4, lsl #10]
     c4c:	01134919 	tsteq	r3, r9, lsl r9
     c50:	05000013 	streq	r0, [r0, #-19]	; 0xffffffed
     c54:	13490005 	movtne	r0, #36869	; 0x9005
     c58:	34060000 	strcc	r0, [r6], #-0
     c5c:	3a0e0300 	bcc	381864 <__bss_end__+0x378154>
     c60:	390b3b0b 	stmdbcc	fp, {r0, r1, r3, r8, r9, fp, ip, sp}
     c64:	3f13490b 	svccc	0x0013490b
     c68:	00193c19 	andseq	r3, r9, r9, lsl ip
     c6c:	000f0700 	andeq	r0, pc, r0, lsl #14
     c70:	13490b0b 	movtne	r0, #39691	; 0x9b0b
     c74:	26080000 	strcs	r0, [r8], -r0
     c78:	00134900 	andseq	r4, r3, r0, lsl #18
     c7c:	00340900 	eorseq	r0, r4, r0, lsl #18
     c80:	0b3a0e03 	bleq	e84494 <__bss_end__+0xe7ad84>
     c84:	0b390b3b 	bleq	e43978 <__bss_end__+0xe3a268>
     c88:	00001349 	andeq	r1, r0, r9, asr #6
     c8c:	3f012e0a 	svccc	0x00012e0a
     c90:	3a0e0319 	bcc	3818fc <__bss_end__+0x3781ec>
     c94:	390b3b0b 	stmdbcc	fp, {r0, r1, r3, r8, r9, fp, ip, sp}
     c98:	4919270b 	ldmdbmi	r9, {r0, r1, r3, r8, r9, sl, sp}
     c9c:	12011113 	andne	r1, r1, #-1073741820	; 0xc0000004
     ca0:	97184006 	ldrls	r4, [r8, -r6]
     ca4:	13011942 	movwne	r1, #6466	; 0x1942
     ca8:	050b0000 	streq	r0, [fp, #-0]
     cac:	3a080300 	bcc	2018b4 <__bss_end__+0x1f81a4>
     cb0:	390b3b0b 	stmdbcc	fp, {r0, r1, r3, r8, r9, fp, ip, sp}
     cb4:	0213490b 	andseq	r4, r3, #180224	; 0x2c000
     cb8:	1742b717 	smlaldne	fp, r2, r7, r7
     cbc:	890c0000 	stmdbhi	ip, {}	; <UNPREDICTABLE>
     cc0:	11010182 	smlabbne	r1, r2, r1, r0
     cc4:	00133101 	andseq	r3, r3, r1, lsl #2
     cc8:	828a0d00 	addhi	r0, sl, #0, 26
     ccc:	18020001 	stmdane	r2, {r0}
     cd0:	00184291 	mulseq	r8, r1, r2
     cd4:	012e0e00 			; <UNDEFINED> instruction: 0x012e0e00
     cd8:	0e03193f 			; <UNDEFINED> instruction: 0x0e03193f
     cdc:	0b3b0b3a 	bleq	ec39cc <__bss_end__+0xeba2bc>
     ce0:	19270b39 	stmdbne	r7!, {r0, r3, r4, r5, r8, r9, fp}
     ce4:	06120111 			; <UNDEFINED> instruction: 0x06120111
     ce8:	42971840 	addsmi	r1, r7, #64, 16	; 0x400000
     cec:	00130119 	andseq	r0, r3, r9, lsl r1
     cf0:	00340f00 	eorseq	r0, r4, r0, lsl #30
     cf4:	13490e03 	movtne	r0, #40451	; 0x9e03
     cf8:	18021934 	stmdane	r2, {r2, r4, r5, r8, fp, ip}
     cfc:	89100000 	ldmdbhi	r0, {}	; <UNPREDICTABLE>
     d00:	11000182 	smlabbne	r0, r2, r1, r0
     d04:	00133101 	andseq	r3, r3, r1, lsl #2
     d08:	82891100 	addhi	r1, r9, #0
     d0c:	01110101 	tsteq	r1, r1, lsl #2
     d10:	13011331 	movwne	r1, #4913	; 0x1331
     d14:	01120000 	tsteq	r2, r0
     d18:	01134901 	tsteq	r3, r1, lsl #18
     d1c:	13000013 	movwne	r0, #19
     d20:	13490021 	movtne	r0, #36897	; 0x9021
     d24:	00000b2f 	andeq	r0, r0, pc, lsr #22
     d28:	3f002e14 	svccc	0x00002e14
     d2c:	6e193c19 	mrcvs	12, 0, r3, cr9, cr9, {0}
     d30:	3a0e030e 	bcc	381970 <__bss_end__+0x378260>
     d34:	390b3b0b 	stmdbcc	fp, {r0, r1, r3, r8, r9, fp, ip, sp}
     d38:	0000000b 	andeq	r0, r0, fp
     d3c:	25011101 	strcs	r1, [r1, #-257]	; 0xfffffeff
     d40:	030b130e 	movweq	r1, #45838	; 0xb30e
     d44:	110e1b0e 	tstne	lr, lr, lsl #22
     d48:	10061201 	andne	r1, r6, r1, lsl #4
     d4c:	02000017 	andeq	r0, r0, #23, 0
     d50:	0b0b0024 	bleq	2c0de8 <__bss_end__+0x2b76d8>
     d54:	08030b3e 	stmdaeq	r3, {r1, r2, r3, r4, r5, r8, r9, fp}
     d58:	24030000 	strcs	r0, [r3], #-0
     d5c:	3e0b0b00 	vmlacc.f64	d0, d11, d0
     d60:	000e030b 	andeq	r0, lr, fp, lsl #6
     d64:	00350400 	eorseq	r0, r5, r0, lsl #8
     d68:	00001349 	andeq	r1, r0, r9, asr #6
     d6c:	27011505 	strcs	r1, [r1, -r5, lsl #10]
     d70:	01134919 	tsteq	r3, r9, lsl r9
     d74:	06000013 			; <UNDEFINED> instruction: 0x06000013
     d78:	13490005 	movtne	r0, #36869	; 0x9005
     d7c:	34070000 	strcc	r0, [r7], #-0
     d80:	3a0e0300 	bcc	381988 <__bss_end__+0x378278>
     d84:	390b3b0b 	stmdbcc	fp, {r0, r1, r3, r8, r9, fp, ip, sp}
     d88:	3f13490b 	svccc	0x0013490b
     d8c:	00193c19 	andseq	r3, r9, r9, lsl ip
     d90:	000f0800 	andeq	r0, pc, r0, lsl #16
     d94:	13490b0b 	movtne	r0, #39691	; 0x9b0b
     d98:	26090000 	strcs	r0, [r9], -r0
     d9c:	00134900 	andseq	r4, r3, r0, lsl #18
     da0:	01040a00 	tsteq	r4, r0, lsl #20
     da4:	0b0b0b3e 	bleq	2c3aa4 <__bss_end__+0x2ba394>
     da8:	0b3a1349 	bleq	e85ad4 <__bss_end__+0xe7c3c4>
     dac:	0b390b3b 	bleq	e43aa0 <__bss_end__+0xe3a390>
     db0:	00001301 	andeq	r1, r0, r1, lsl #6
     db4:	0300280b 	movweq	r2, #2059	; 0x80b
     db8:	000b1c0e 	andeq	r1, fp, lr, lsl #24
     dbc:	00160c00 	andseq	r0, r6, r0, lsl #24
     dc0:	0b3a0e03 	bleq	e845d4 <__bss_end__+0xe7aec4>
     dc4:	0b390b3b 	bleq	e43ab8 <__bss_end__+0xe3a3a8>
     dc8:	00001349 	andeq	r1, r0, r9, asr #6
     dcc:	0300340d 	movweq	r3, #1037	; 0x40d
     dd0:	3b0b3a0e 	blcc	2cf610 <__bss_end__+0x2c5f00>
     dd4:	490b390b 	stmdbmi	fp, {r0, r1, r3, r8, fp, ip, sp}
     dd8:	0e000013 	mcreq	0, 0, r0, cr0, cr3, {0}
     ddc:	193f012e 	ldmdbne	pc!, {r1, r2, r3, r5, r8}	; <UNPREDICTABLE>
     de0:	0b3a0e03 	bleq	e845f4 <__bss_end__+0xe7aee4>
     de4:	0b390b3b 	bleq	e43ad8 <__bss_end__+0xe3a3c8>
     de8:	01111927 	tsteq	r1, r7, lsr #18
     dec:	18400612 	stmdane	r0, {r1, r4, r9, sl}^
     df0:	01194297 			; <UNDEFINED> instruction: 0x01194297
     df4:	0f000013 	svceq	0x00000013
     df8:	08030005 	stmdaeq	r3, {r0, r2}
     dfc:	0b3b0b3a 	bleq	ec3aec <__bss_end__+0xeba3dc>
     e00:	13490b39 	movtne	r0, #39737	; 0x9b39
     e04:	42b71702 	adcsmi	r1, r7, #524288	; 0x80000
     e08:	10000017 	andne	r0, r0, r7, lsl r0
     e0c:	0e030005 	cdpeq	0, 0, cr0, cr3, cr5, {0}
     e10:	0b3b0b3a 	bleq	ec3b00 <__bss_end__+0xeba3f0>
     e14:	13490b39 	movtne	r0, #39737	; 0x9b39
     e18:	42b71702 	adcsmi	r1, r7, #524288	; 0x80000
     e1c:	11000017 	tstne	r0, r7, lsl r0
     e20:	0e030034 	mcreq	0, 0, r0, cr3, cr4, {1}
     e24:	0b3b0b3a 	bleq	ec3b14 <__bss_end__+0xeba404>
     e28:	13490b39 	movtne	r0, #39737	; 0x9b39
     e2c:	42b71702 	adcsmi	r1, r7, #524288	; 0x80000
     e30:	12000017 	andne	r0, r0, #23, 0
     e34:	01018289 	smlabbeq	r1, r9, r2, r8
     e38:	13310111 	teqne	r1, #1073741828	; 0x40000004
     e3c:	00001301 	andeq	r1, r0, r1, lsl #6
     e40:	01828a13 	orreq	r8, r2, r3, lsl sl
     e44:	91180200 	tstls	r8, r0, lsl #4
     e48:	00001842 	andeq	r1, r0, r2, asr #16
     e4c:	01828914 	orreq	r8, r2, r4, lsl r9
     e50:	31011101 	tstcc	r1, r1, lsl #2
     e54:	15000013 	strne	r0, [r0, #-19]	; 0xffffffed
     e58:	193f012e 	ldmdbne	pc!, {r1, r2, r3, r5, r8}	; <UNPREDICTABLE>
     e5c:	0b3a0e03 	bleq	e84670 <__bss_end__+0xe7af60>
     e60:	0b390b3b 	bleq	e43b54 <__bss_end__+0xe3a444>
     e64:	13491927 	movtne	r1, #39207	; 0x9927
     e68:	06120111 			; <UNDEFINED> instruction: 0x06120111
     e6c:	42971840 	addsmi	r1, r7, #64, 16	; 0x400000
     e70:	00130119 	andseq	r0, r3, r9, lsl r1
     e74:	00341600 	eorseq	r1, r4, r0, lsl #12
     e78:	0b3a0803 	bleq	e82e8c <__bss_end__+0xe7977c>
     e7c:	0b390b3b 	bleq	e43b70 <__bss_end__+0xe3a460>
     e80:	17021349 	strne	r1, [r2, -r9, asr #6]
     e84:	001742b7 			; <UNDEFINED> instruction: 0x001742b7
     e88:	00341700 	eorseq	r1, r4, r0, lsl #14
     e8c:	0b3a0e03 	bleq	e846a0 <__bss_end__+0xe7af90>
     e90:	0b390b3b 	bleq	e43b84 <__bss_end__+0xe3a474>
     e94:	061c1349 	ldreq	r1, [ip], -r9, asr #6
     e98:	89180000 	ldmdbhi	r8, {}	; <UNPREDICTABLE>
     e9c:	11000182 	smlabbne	r0, r2, r1, r0
     ea0:	00133101 	andseq	r3, r3, r1, lsl #2
     ea4:	002e1900 	eoreq	r1, lr, r0, lsl #18
     ea8:	193c193f 	ldmdbne	ip!, {r0, r1, r2, r3, r4, r5, r8, fp, ip}
     eac:	0e030e6e 	cdpeq	14, 0, cr0, cr3, cr14, {3}
     eb0:	0b3b0b3a 	bleq	ec3ba0 <__bss_end__+0xeba490>
     eb4:	00000b39 	andeq	r0, r0, r9, lsr fp
     eb8:	01110100 	tsteq	r1, r0, lsl #2
     ebc:	0b130e25 	bleq	4c4758 <__bss_end__+0x4bb048>
     ec0:	0e1b0e03 	cdpeq	14, 1, cr0, cr11, cr3, {0}
     ec4:	06120111 			; <UNDEFINED> instruction: 0x06120111
     ec8:	00001710 	andeq	r1, r0, r0, lsl r7
     ecc:	0b002402 	bleq	9edc <__bss_end__+0x7cc>
     ed0:	030b3e0b 	movweq	r3, #48651	; 0xbe0b
     ed4:	03000008 	movweq	r0, #8
     ed8:	0b0b0024 	bleq	2c0f70 <__bss_end__+0x2b7860>
     edc:	0e030b3e 	vmoveq.16	d3[0], r0
     ee0:	15040000 	strne	r0, [r4, #-0]
     ee4:	49192701 	ldmdbmi	r9, {r0, r8, r9, sl, sp}
     ee8:	00130113 	andseq	r0, r3, r3, lsl r1
     eec:	00050500 	andeq	r0, r5, r0, lsl #10
     ef0:	00001349 	andeq	r1, r0, r9, asr #6
     ef4:	03003406 	movweq	r3, #1030	; 0x406
     ef8:	3b0b3a0e 	blcc	2cf738 <__bss_end__+0x2c6028>
     efc:	490b390b 	stmdbmi	fp, {r0, r1, r3, r8, fp, ip, sp}
     f00:	3c193f13 	ldccc	15, cr3, [r9], {19}
     f04:	07000019 	smladeq	r0, r9, r0, r0
     f08:	0b0b000f 	bleq	2c0f4c <__bss_end__+0x2b783c>
     f0c:	00001349 	andeq	r1, r0, r9, asr #6
     f10:	49002608 	stmdbmi	r0, {r3, r9, sl, sp}
     f14:	09000013 	stmdbeq	r0, {r0, r1, r4}
     f18:	13470034 	movtne	r0, #28724	; 0x7034
     f1c:	0b3b0b3a 	bleq	ec3c0c <__bss_end__+0xeba4fc>
     f20:	18020b39 	stmdane	r2, {r0, r3, r4, r5, r8, r9, fp}
     f24:	2e0a0000 	cdpcs	0, 0, cr0, cr10, cr0, {0}
     f28:	03193f01 	tsteq	r9, #1, 30
     f2c:	3b0b3a0e 	blcc	2cf76c <__bss_end__+0x2c605c>
     f30:	270b390b 	strcs	r3, [fp, -fp, lsl #18]
     f34:	12011119 	andne	r1, r1, #1073741830	; 0x40000006
     f38:	97184006 	ldrls	r4, [r8, -r6]
     f3c:	13011942 	movwne	r1, #6466	; 0x1942
     f40:	050b0000 	streq	r0, [fp, #-0]
     f44:	3a080300 	bcc	201b4c <__bss_end__+0x1f843c>
     f48:	390b3b0b 	stmdbcc	fp, {r0, r1, r3, r8, r9, fp, ip, sp}
     f4c:	0213490b 	andseq	r4, r3, #180224	; 0x2c000
     f50:	0c000018 	stceq	0, cr0, [r0], {24}
     f54:	193f002e 	ldmdbne	pc!, {r1, r2, r3, r5}	; <UNPREDICTABLE>
     f58:	0b3a0e03 	bleq	e8476c <__bss_end__+0xe7b05c>
     f5c:	0b390b3b 	bleq	e43c50 <__bss_end__+0xe3a540>
     f60:	01111927 	tsteq	r1, r7, lsr #18
     f64:	18400612 	stmdane	r0, {r1, r4, r9, sl}^
     f68:	00194297 	mulseq	r9, r7, r2
     f6c:	012e0d00 			; <UNDEFINED> instruction: 0x012e0d00
     f70:	0b3a0e03 	bleq	e84784 <__bss_end__+0xe7b074>
     f74:	0b390b3b 	bleq	e43c68 <__bss_end__+0xe3a558>
     f78:	13491927 	movtne	r1, #39207	; 0x9927
     f7c:	06120111 			; <UNDEFINED> instruction: 0x06120111
     f80:	42971840 	addsmi	r1, r7, #64, 16	; 0x400000
     f84:	00130119 	andseq	r0, r3, r9, lsl r1
     f88:	00050e00 	andeq	r0, r5, r0, lsl #28
     f8c:	0b3a0803 	bleq	e82fa0 <__bss_end__+0xe79890>
     f90:	0b390b3b 	bleq	e43c84 <__bss_end__+0xe3a574>
     f94:	17021349 	strne	r1, [r2, -r9, asr #6]
     f98:	001742b7 			; <UNDEFINED> instruction: 0x001742b7
     f9c:	82890f00 	addhi	r0, r9, #0, 30
     fa0:	01110101 	tsteq	r1, r1, lsl #2
     fa4:	00001331 	andeq	r1, r0, r1, lsr r3
     fa8:	01828a10 	orreq	r8, r2, r0, lsl sl
     fac:	91180200 	tstls	r8, r0, lsl #4
     fb0:	00001842 	andeq	r1, r0, r2, asr #16
     fb4:	3f002e11 	svccc	0x00002e11
     fb8:	6e193c19 	mrcvs	12, 0, r3, cr9, cr9, {0}
     fbc:	3a0e030e 	bcc	381bfc <__bss_end__+0x3784ec>
     fc0:	390b3b0b 	stmdbcc	fp, {r0, r1, r3, r8, r9, fp, ip, sp}
     fc4:	0000000b 	andeq	r0, r0, fp
     fc8:	25011101 	strcs	r1, [r1, #-257]	; 0xfffffeff
     fcc:	030b130e 	movweq	r1, #45838	; 0xb30e
     fd0:	110e1b0e 	tstne	lr, lr, lsl #22
     fd4:	10061201 	andne	r1, r6, r1, lsl #4
     fd8:	02000017 	andeq	r0, r0, #23, 0
     fdc:	0b0b0024 	bleq	2c1074 <__bss_end__+0x2b7964>
     fe0:	08030b3e 	stmdaeq	r3, {r1, r2, r3, r4, r5, r8, r9, fp}
     fe4:	24030000 	strcs	r0, [r3], #-0
     fe8:	3e0b0b00 	vmlacc.f64	d0, d11, d0
     fec:	000e030b 	andeq	r0, lr, fp, lsl #6
     ff0:	01150400 	tsteq	r5, r0, lsl #8
     ff4:	13491927 	movtne	r1, #39207	; 0x9927
     ff8:	00001301 	andeq	r1, r0, r1, lsl #6
     ffc:	49000505 	stmdbmi	r0, {r0, r2, r8, sl}
    1000:	06000013 			; <UNDEFINED> instruction: 0x06000013
    1004:	0e030034 	mcreq	0, 0, r0, cr3, cr4, {1}
    1008:	0b3b0b3a 	bleq	ec3cf8 <__bss_end__+0xeba5e8>
    100c:	13490b39 	movtne	r0, #39737	; 0x9b39
    1010:	193c193f 	ldmdbne	ip!, {r0, r1, r2, r3, r4, r5, r8, fp, ip}
    1014:	0f070000 	svceq	0x00070000
    1018:	490b0b00 	stmdbmi	fp, {r8, r9, fp}
    101c:	08000013 	stmdaeq	r0, {r0, r1, r4}
    1020:	13490026 	movtne	r0, #36902	; 0x9026
    1024:	2e090000 	cdpcs	0, 0, cr0, cr9, cr0, {0}
    1028:	03193f01 	tsteq	r9, #1, 30
    102c:	3b0b3a0e 	blcc	2cf86c <__bss_end__+0x2c615c>
    1030:	270b390b 	strcs	r3, [fp, -fp, lsl #18]
    1034:	11134919 	tstne	r3, r9, lsl r9
    1038:	40061201 	andmi	r1, r6, r1, lsl #4
    103c:	19429718 	stmdbne	r2, {r3, r4, r8, r9, sl, ip, pc}^
    1040:	00001301 	andeq	r1, r0, r1, lsl #6
    1044:	0300050a 	movweq	r0, #1290	; 0x50a
    1048:	3b0b3a0e 	blcc	2cf888 <__bss_end__+0x2c6178>
    104c:	490b390b 	stmdbmi	fp, {r0, r1, r3, r8, fp, ip, sp}
    1050:	00180213 	andseq	r0, r8, r3, lsl r2
    1054:	00050b00 	andeq	r0, r5, r0, lsl #22
    1058:	0b3a0803 	bleq	e8306c <__bss_end__+0xe7995c>
    105c:	0b390b3b 	bleq	e43d50 <__bss_end__+0xe3a640>
    1060:	17021349 	strne	r1, [r2, -r9, asr #6]
    1064:	001742b7 			; <UNDEFINED> instruction: 0x001742b7
    1068:	00340c00 	eorseq	r0, r4, r0, lsl #24
    106c:	0b3a0803 	bleq	e83080 <__bss_end__+0xe79970>
    1070:	0b390b3b 	bleq	e43d64 <__bss_end__+0xe3a654>
    1074:	17021349 	strne	r1, [r2, -r9, asr #6]
    1078:	001742b7 			; <UNDEFINED> instruction: 0x001742b7
    107c:	11010000 	mrsne	r0, (UNDEF: 1)
    1080:	130e2501 	movwne	r2, #58625	; 0xe501
    1084:	1b0e030b 	blne	381cb8 <__bss_end__+0x3785a8>
    1088:	1201110e 	andne	r1, r1, #-2147483645	; 0x80000003
    108c:	00171006 	andseq	r1, r7, r6
    1090:	00240200 	eoreq	r0, r4, r0, lsl #4
    1094:	0b3e0b0b 	bleq	f83cc8 <__bss_end__+0xf7a5b8>
    1098:	00000803 	andeq	r0, r0, r3, lsl #16
    109c:	0b002403 	bleq	a0b0 <__bss_end__+0x9a0>
    10a0:	030b3e0b 	movweq	r3, #48651	; 0xbe0b
    10a4:	0400000e 	streq	r0, [r0], #-14
    10a8:	19270115 	stmdbne	r7!, {r0, r2, r4, r8}
    10ac:	13011349 	movwne	r1, #4937	; 0x1349
    10b0:	05050000 	streq	r0, [r5, #-0]
    10b4:	00134900 	andseq	r4, r3, r0, lsl #18
    10b8:	00340600 	eorseq	r0, r4, r0, lsl #12
    10bc:	0b3a0e03 	bleq	e848d0 <__bss_end__+0xe7b1c0>
    10c0:	0b390b3b 	bleq	e43db4 <__bss_end__+0xe3a6a4>
    10c4:	193f1349 	ldmdbne	pc!, {r0, r3, r6, r8, r9, ip}	; <UNPREDICTABLE>
    10c8:	0000193c 	andeq	r1, r0, ip, lsr r9
    10cc:	0b000f07 	bleq	4cf0 <__code_start__-0x3310>
    10d0:	0013490b 	andseq	r4, r3, fp, lsl #18
    10d4:	00260800 	eoreq	r0, r6, r0, lsl #16
    10d8:	00001349 	andeq	r1, r0, r9, asr #6
    10dc:	3f012e09 	svccc	0x00012e09
    10e0:	3a0e0319 	bcc	381d4c <__bss_end__+0x37863c>
    10e4:	390b3b0b 	stmdbcc	fp, {r0, r1, r3, r8, r9, fp, ip, sp}
    10e8:	4919270b 	ldmdbmi	r9, {r0, r1, r3, r8, r9, sl, sp}
    10ec:	12011113 	andne	r1, r1, #-1073741820	; 0xc0000004
    10f0:	97184006 	ldrls	r4, [r8, -r6]
    10f4:	00001942 	andeq	r1, r0, r2, asr #18
    10f8:	0300050a 	movweq	r0, #1290	; 0x50a
    10fc:	3b0b3a08 	blcc	2cf924 <__bss_end__+0x2c6214>
    1100:	490b390b 	stmdbmi	fp, {r0, r1, r3, r8, fp, ip, sp}
    1104:	b7170213 			; <UNDEFINED> instruction: 0xb7170213
    1108:	00001742 	andeq	r1, r0, r2, asr #14
    110c:	01110100 	tsteq	r1, r0, lsl #2
    1110:	0b130e25 	bleq	4c49ac <__bss_end__+0x4bb29c>
    1114:	0e1b0e03 	cdpeq	14, 1, cr0, cr11, cr3, {0}
    1118:	06120111 			; <UNDEFINED> instruction: 0x06120111
    111c:	00001710 	andeq	r1, r0, r0, lsl r7
    1120:	0b002402 	bleq	a130 <__bss_end__+0xa20>
    1124:	030b3e0b 	movweq	r3, #48651	; 0xbe0b
    1128:	03000008 	movweq	r0, #8
    112c:	0b0b0024 	bleq	2c11c4 <__bss_end__+0x2b7ab4>
    1130:	0e030b3e 	vmoveq.16	d3[0], r0
    1134:	15040000 	strne	r0, [r4, #-0]
    1138:	49192701 	ldmdbmi	r9, {r0, r8, r9, sl, sp}
    113c:	00130113 	andseq	r0, r3, r3, lsl r1
    1140:	00050500 	andeq	r0, r5, r0, lsl #10
    1144:	00001349 	andeq	r1, r0, r9, asr #6
    1148:	03003406 	movweq	r3, #1030	; 0x406
    114c:	3b0b3a0e 	blcc	2cf98c <__bss_end__+0x2c627c>
    1150:	490b390b 	stmdbmi	fp, {r0, r1, r3, r8, fp, ip, sp}
    1154:	3c193f13 	ldccc	15, cr3, [r9], {19}
    1158:	07000019 	smladeq	r0, r9, r0, r0
    115c:	0b0b000f 	bleq	2c11a0 <__bss_end__+0x2b7a90>
    1160:	00001349 	andeq	r1, r0, r9, asr #6
    1164:	49002608 	stmdbmi	r0, {r3, r9, sl, sp}
    1168:	09000013 	stmdbeq	r0, {r0, r1, r4}
    116c:	193f012e 	ldmdbne	pc!, {r1, r2, r3, r5, r8}	; <UNPREDICTABLE>
    1170:	0b3a0e03 	bleq	e84984 <__bss_end__+0xe7b274>
    1174:	0b390b3b 	bleq	e43e68 <__bss_end__+0xe3a758>
    1178:	13491927 	movtne	r1, #39207	; 0x9927
    117c:	06120111 			; <UNDEFINED> instruction: 0x06120111
    1180:	42971840 	addsmi	r1, r7, #64, 16	; 0x400000
    1184:	00130119 	andseq	r0, r3, r9, lsl r1
    1188:	00050a00 	andeq	r0, r5, r0, lsl #20
    118c:	0b3a0803 	bleq	e831a0 <__bss_end__+0xe79a90>
    1190:	0b390b3b 	bleq	e43e84 <__bss_end__+0xe3a774>
    1194:	18021349 	stmdane	r2, {r0, r3, r6, r8, r9, ip}
    1198:	050b0000 	streq	r0, [fp, #-0]
    119c:	3a080300 	bcc	201da4 <__bss_end__+0x1f8694>
    11a0:	390b3b0b 	stmdbcc	fp, {r0, r1, r3, r8, r9, fp, ip, sp}
    11a4:	0213490b 	andseq	r4, r3, #180224	; 0x2c000
    11a8:	1742b717 	smlaldne	fp, r2, r7, r7
    11ac:	340c0000 	strcc	r0, [ip], #-0
    11b0:	3a080300 	bcc	201db8 <__bss_end__+0x1f86a8>
    11b4:	390b3b0b 	stmdbcc	fp, {r0, r1, r3, r8, r9, fp, ip, sp}
    11b8:	0213490b 	andseq	r4, r3, #180224	; 0x2c000
    11bc:	1742b717 	smlaldne	fp, r2, r7, r7
    11c0:	01000000 	mrseq	r0, (UNDEF: 0)
    11c4:	0e250111 	mcreq	1, 1, r0, cr5, cr1, {0}
    11c8:	0e030b13 	vmoveq.32	d3[0], r0
    11cc:	17550e1b 	smmlane	r5, fp, lr, r0
    11d0:	17100111 			; <UNDEFINED> instruction: 0x17100111
    11d4:	24020000 	strcs	r0, [r2], #-0
    11d8:	3e0b0b00 	vmlacc.f64	d0, d11, d0
    11dc:	0008030b 	andeq	r0, r8, fp, lsl #6
    11e0:	00160300 	andseq	r0, r6, r0, lsl #6
    11e4:	0b3a0e03 	bleq	e849f8 <__bss_end__+0xe7b2e8>
    11e8:	0b390b3b 	bleq	e43edc <__bss_end__+0xe3a7cc>
    11ec:	00001349 	andeq	r1, r0, r9, asr #6
    11f0:	0b002404 	bleq	a208 <__bss_end__+0xaf8>
    11f4:	030b3e0b 	movweq	r3, #48651	; 0xbe0b
    11f8:	0500000e 	streq	r0, [r0, #-14]
    11fc:	13490026 	movtne	r0, #36902	; 0x9026
    1200:	15060000 	strne	r0, [r6, #-0]
    1204:	49192701 	ldmdbmi	r9, {r0, r8, r9, sl, sp}
    1208:	00130113 	andseq	r0, r3, r3, lsl r1
    120c:	00050700 	andeq	r0, r5, r0, lsl #14
    1210:	00001349 	andeq	r1, r0, r9, asr #6
    1214:	03003408 	movweq	r3, #1032	; 0x408
    1218:	3b0b3a0e 	blcc	2cfa58 <__bss_end__+0x2c6348>
    121c:	490b390b 	stmdbmi	fp, {r0, r1, r3, r8, fp, ip, sp}
    1220:	3c193f13 	ldccc	15, cr3, [r9], {19}
    1224:	09000019 	stmdbeq	r0, {r0, r3, r4}
    1228:	0b0b000f 	bleq	2c126c <__bss_end__+0x2b7b5c>
    122c:	00001349 	andeq	r1, r0, r9, asr #6
    1230:	3f012e0a 	svccc	0x00012e0a
    1234:	3a0e0319 	bcc	381ea0 <__bss_end__+0x378790>
    1238:	390b3b0b 	stmdbcc	fp, {r0, r1, r3, r8, r9, fp, ip, sp}
    123c:	4919270b 	ldmdbmi	r9, {r0, r1, r3, r8, r9, sl, sp}
    1240:	12011113 	andne	r1, r1, #-1073741820	; 0xc0000004
    1244:	97184006 	ldrls	r4, [r8, -r6]
    1248:	13011942 	movwne	r1, #6466	; 0x1942
    124c:	050b0000 	streq	r0, [fp, #-0]
    1250:	3a080300 	bcc	201e58 <__bss_end__+0x1f8748>
    1254:	390b3b0b 	stmdbcc	fp, {r0, r1, r3, r8, r9, fp, ip, sp}
    1258:	0213490b 	andseq	r4, r3, #180224	; 0x2c000
    125c:	1742b717 	smlaldne	fp, r2, r7, r7
    1260:	340c0000 	strcc	r0, [ip], #-0
    1264:	3a080300 	bcc	201e6c <__bss_end__+0x1f875c>
    1268:	390b3b0b 	stmdbcc	fp, {r0, r1, r3, r8, r9, fp, ip, sp}
    126c:	0213490b 	andseq	r4, r3, #180224	; 0x2c000
    1270:	1742b717 	smlaldne	fp, r2, r7, r7
    1274:	Address 0x0000000000001274 is out of bounds.


Disassembly of section .debug_loc:

00000000 <.debug_loc>:
       0:	00000002 	andeq	r0, r0, r2
       4:	00000030 	andeq	r0, r0, r0, lsr r0
       8:	00000038 	andeq	r0, r0, r8, lsr r0
       c:	9f300002 	svcls	0x00300002
      10:	00000038 	andeq	r0, r0, r8, lsr r0
      14:	00000098 	muleq	r0, r8, r0
      18:	00540001 	subseq	r0, r4, r1
	...
      28:	38000000 	stmdacc	r0, {}	; <UNPREDICTABLE>
      2c:	3c000000 	stccc	0, cr0, [r0], {-0}
      30:	01000000 	mrseq	r0, (UNDEF: 0)
      34:	003c5000 	eorseq	r5, ip, r0
      38:	003f0000 	eorseq	r0, pc, r0
      3c:	00010000 	andeq	r0, r1, r0
      40:	00005051 	andeq	r5, r0, r1, asr r0
      44:	00005c00 	andeq	r5, r0, r0, lsl #24
      48:	50000100 	andpl	r0, r0, r0, lsl #2
      4c:	0000005c 	andeq	r0, r0, ip, asr r0
      50:	0000005f 	andeq	r0, r0, pc, asr r0
      54:	00510001 	subseq	r0, r1, r1
	...
      60:	7c000000 	stcvc	0, cr0, [r0], {-0}
      64:	9f000000 	svcls	0x00000000
      68:	01000000 	mrseq	r0, (UNDEF: 0)
      6c:	009f5200 	addseq	r5, pc, r0, lsl #4
      70:	01380000 	teqeq	r8, r0
      74:	00010000 	andeq	r0, r1, r0
      78:	00000055 	andeq	r0, r0, r5, asr r0
	...
      88:	00009400 	andeq	r9, r0, r0, lsl #8
      8c:	0000f000 	andeq	pc, r0, r0
      90:	54000100 	strpl	r0, [r0], #-256	; 0xffffff00
      94:	000000f0 	strdeq	r0, [r0], -r0	; <UNPREDICTABLE>
      98:	00000110 	andeq	r0, r0, r0, lsl r1
      9c:	007d0002 	rsbseq	r0, sp, r2
      a0:	00000110 	andeq	r0, r0, r0, lsl r1
      a4:	00000114 	andeq	r0, r0, r4, lsl r1
      a8:	58910002 	ldmpl	r1, {r1}
      ac:	00000114 	andeq	r0, r0, r4, lsl r1
      b0:	00000138 	andeq	r0, r0, r8, lsr r1
      b4:	00540001 	subseq	r0, r4, r1
	...
      c0:	00009800 	andeq	r9, r0, r0, lsl #16
      c4:	00013800 	andeq	r3, r1, r0, lsl #16
      c8:	57000100 	strpl	r0, [r0, -r0, lsl #2]
	...
      d8:	00d00000 	sbcseq	r0, r0, r0
      dc:	00dc0000 	sbcseq	r0, ip, r0
      e0:	00010000 	andeq	r0, r1, r0
      e4:	0000dc50 	andeq	sp, r0, r0, asr ip
      e8:	00010c00 	andeq	r0, r1, r0, lsl #24
      ec:	56000100 	strpl	r0, [r0], -r0, lsl #2
      f0:	00000124 	andeq	r0, r0, r4, lsr #2
      f4:	00000138 	andeq	r0, r0, r8, lsr r1
      f8:	00560001 	subseq	r0, r6, r1
	...
     104:	f0000000 			; <UNDEFINED> instruction: 0xf0000000
     108:	f4000000 	vst4.8	{d0-d3}, [r0], r0
     10c:	01000000 	mrseq	r0, (UNDEF: 0)
     110:	00f45000 	rscseq	r5, r4, r0
     114:	01040000 	mrseq	r0, (UNDEF: 4)
     118:	00010000 	andeq	r0, r1, r0
     11c:	00000054 	andeq	r0, r0, r4, asr r0
	...
     128:	00004800 	andeq	r4, r0, r0, lsl #16
     12c:	00006300 	andeq	r6, r0, r0, lsl #6
     130:	51000100 	mrspl	r0, (UNDEF: 16)
     134:	00000063 	andeq	r0, r0, r3, rrx
     138:	0000007c 	andeq	r0, r0, ip, ror r0
     13c:	00740002 	rsbseq	r0, r4, r2
	...
     14c:	00000048 	andeq	r0, r0, r8, asr #32
     150:	00000063 	andeq	r0, r0, r3, rrx
     154:	63520001 	cmpvs	r2, #1, 0
     158:	7c000000 	stcvc	0, cr0, [r0], {-0}
     15c:	01000000 	mrseq	r0, (UNDEF: 0)
     160:	00005500 	andeq	r5, r0, r0, lsl #10
	...
     16c:	00480000 	subeq	r0, r8, r0
     170:	00540000 	subseq	r0, r4, r0
     174:	00020000 	andeq	r0, r2, r0
     178:	00540070 	subseq	r0, r4, r0, ror r0
     17c:	007c0000 	rsbseq	r0, ip, r0
     180:	00020000 	andeq	r0, r2, r0
     184:	00000074 	andeq	r0, r0, r4, ror r0
	...
     194:	00130000 	andseq	r0, r3, r0
     198:	00010000 	andeq	r0, r1, r0
     19c:	00001350 	andeq	r1, r0, r0, asr r3
     1a0:	00004800 	andeq	r4, r0, r0, lsl #16
     1a4:	55000100 	strpl	r0, [r0, #-256]	; 0xffffff00
	...
     1b8:	00000013 	andeq	r0, r0, r3, lsl r0
     1bc:	13510001 	cmpne	r1, #1, 0
     1c0:	48000000 	stmdami	r0, {}	; <UNPREDICTABLE>
     1c4:	01000000 	mrseq	r0, (UNDEF: 0)
     1c8:	00005400 	andeq	r5, r0, r0, lsl #8
	...
     1d8:	00130000 	andseq	r0, r3, r0
     1dc:	00010000 	andeq	r0, r1, r0
     1e0:	00001352 	andeq	r1, r0, r2, asr r3
     1e4:	00004800 	andeq	r4, r0, r0, lsl #16
     1e8:	57000100 	strpl	r0, [r0, -r0, lsl #2]
	...
     1f4:	00180000 	andseq	r0, r8, r0
     1f8:	00480000 	subeq	r0, r8, r0
     1fc:	00010000 	andeq	r0, r1, r0
     200:	00000056 	andeq	r0, r0, r6, asr r0
	...
     20c:	2c000000 	stccs	0, cr0, [r0], {-0}
     210:	38000000 	stmdacc	r0, {}	; <UNPREDICTABLE>
     214:	01000000 	mrseq	r0, (UNDEF: 0)
     218:	00385000 	eorseq	r5, r8, r0
     21c:	00480000 	subeq	r0, r8, r0
     220:	00010000 	andeq	r0, r1, r0
     224:	00004854 	andeq	r4, r0, r4, asr r8
     228:	00005800 	andeq	r5, r0, r0, lsl #16
     22c:	50000100 	andpl	r0, r0, r0, lsl #2
	...
     238:	00010100 	andeq	r0, r1, r0, lsl #2
     23c:	00000000 	andeq	r0, r0, r0
     240:	00000008 	andeq	r0, r0, r8
     244:	08500001 	ldmdaeq	r0, {r0}^
     248:	34000000 	strcc	r0, [r0], #-0
     24c:	01000000 	mrseq	r0, (UNDEF: 0)
     250:	00005400 	andeq	r5, r0, r0, lsl #8
	...
     260:	00000288 	andeq	r0, r0, r8, lsl #5
     264:	000002b8 			; <UNDEFINED> instruction: 0x000002b8
     268:	b8500001 	ldmdalt	r0, {r0}^
     26c:	ec000002 	stc	0, cr0, [r0], {2}
     270:	01000006 	tsteq	r0, r6
     274:	06ec5900 	strbteq	r5, [ip], r0, lsl #18
     278:	07200000 	streq	r0, [r0, -r0]!
     27c:	00040000 	andeq	r0, r4, r0
     280:	9f5001f3 	svcls	0x005001f3
	...
     290:	02880000 	addeq	r0, r8, #0, 0
     294:	02a00000 	adceq	r0, r0, #0, 0
     298:	00010000 	andeq	r0, r1, r0
     29c:	0002a051 	andeq	sl, r2, r1, asr r0
     2a0:	0002b800 	andeq	fp, r2, r0, lsl #16
     2a4:	71000300 	mrsvc	r0, LR_irq
     2a8:	02b89f01 	adcseq	r9, r8, #1, 30
     2ac:	07200000 	streq	r0, [r0, -r0]!
     2b0:	00040000 	andeq	r0, r4, r0
     2b4:	9f5101f3 	svcls	0x005101f3
	...
     2cc:	00000288 	andeq	r0, r0, r8, lsl #5
     2d0:	000002b8 			; <UNDEFINED> instruction: 0x000002b8
     2d4:	b8520001 	ldmdalt	r2, {r0}^
     2d8:	ec000002 	stc	0, cr0, [r0], {2}
     2dc:	01000003 	tsteq	r0, r3
     2e0:	03ec5600 	mvneq	r5, #0, 12
     2e4:	04a00000 	strteq	r0, [r0], #0
     2e8:	00010000 	andeq	r0, r1, r0
     2ec:	0004a05b 	andeq	sl, r4, fp, asr r0
     2f0:	0004c000 	andeq	ip, r4, r0
     2f4:	56000100 	strpl	r0, [r0], -r0, lsl #2
     2f8:	000004c0 	andeq	r0, r0, r0, asr #9
     2fc:	00000544 	andeq	r0, r0, r4, asr #10
     300:	445b0001 	ldrbmi	r0, [fp], #-1
     304:	ec000005 	stc	0, cr0, [r0], {5}
     308:	01000006 	tsteq	r0, r6
     30c:	00005600 	andeq	r5, r0, r0, lsl #12
     310:	00000000 	andeq	r0, r0, r0
     314:	00010000 	andeq	r0, r1, r0
     318:	00000000 	andeq	r0, r0, r0
     31c:	00010100 	andeq	r0, r1, r0, lsl #2
     320:	00000000 	andeq	r0, r0, r0
     324:	00020200 	andeq	r0, r2, r0, lsl #4
     328:	029c0000 	addseq	r0, ip, #0, 0
     32c:	02b80000 	adcseq	r0, r8, #0, 0
     330:	00010000 	andeq	r0, r1, r0
     334:	0002b850 	andeq	fp, r2, r0, asr r8
     338:	0002bc00 	andeq	fp, r2, r0, lsl #24
     33c:	54000100 	strpl	r0, [r0], #-256	; 0xffffff00
     340:	000002bc 			; <UNDEFINED> instruction: 0x000002bc
     344:	000002c0 	andeq	r0, r0, r0, asr #5
     348:	01740003 	cmneq	r4, r3
     34c:	0002c09f 	muleq	r2, pc, r0	; <UNPREDICTABLE>
     350:	0002e400 	andeq	lr, r2, r0, lsl #8
     354:	54000100 	strpl	r0, [r0], #-256	; 0xffffff00
     358:	000002e4 	andeq	r0, r0, r4, ror #5
     35c:	000002e8 	andeq	r0, r0, r8, ror #5
     360:	01740003 	cmneq	r4, r3
     364:	0002e89f 	muleq	r2, pc, r8	; <UNPREDICTABLE>
     368:	0006bc00 	andeq	fp, r6, r0, lsl #24
     36c:	54000100 	strpl	r0, [r0], #-256	; 0xffffff00
     370:	000006bc 			; <UNDEFINED> instruction: 0x000006bc
     374:	000006c0 	andeq	r0, r0, r0, asr #13
     378:	01740003 	cmneq	r4, r3
     37c:	0006c09f 	muleq	r6, pc, r0	; <UNPREDICTABLE>
     380:	0006d800 	andeq	sp, r6, r0, lsl #16
     384:	54000100 	strpl	r0, [r0], #-256	; 0xffffff00
     388:	000006d8 	ldrdeq	r0, [r0], -r8
     38c:	000006e0 	andeq	r0, r0, r0, ror #13
     390:	01740003 	cmneq	r4, r3
     394:	0006e09f 	muleq	r6, pc, r0	; <UNPREDICTABLE>
     398:	0006ec00 	andeq	lr, r6, r0, lsl #24
     39c:	54000100 	strpl	r0, [r0], #-256	; 0xffffff00
	...
     3ac:	000002a4 	andeq	r0, r0, r4, lsr #5
     3b0:	000006ec 	andeq	r0, r0, ip, ror #13
     3b4:	ec580001 	mrrc	0, 0, r0, r8, cr1
     3b8:	20000006 	andcs	r0, r0, r6
     3bc:	0a000007 	beq	3e0 <__code_start__-0x7c20>
     3c0:	5101f300 	mrspl	pc, SP_irq	; <UNPREDICTABLE>
     3c4:	225001f3 	subscs	r0, r0, #-1073741764	; 0xc000003c
     3c8:	009f1c31 	addseq	r1, pc, r1, lsr ip	; <UNPREDICTABLE>
     3cc:	00000000 	andeq	r0, r0, r0
     3d0:	01000000 	mrseq	r0, (UNDEF: 0)
     3d4:	00000000 	andeq	r0, r0, r0
     3d8:	00040800 	andeq	r0, r4, r0, lsl #16
     3dc:	00045c00 	andeq	r5, r4, r0, lsl #24
     3e0:	57000100 	strpl	r0, [r0, -r0, lsl #2]
     3e4:	000004c0 	andeq	r0, r0, r0, asr #9
     3e8:	000004e4 	andeq	r0, r0, r4, ror #9
     3ec:	28570001 	ldmdacs	r7, {r0}^
     3f0:	44000005 	strmi	r0, [r0], #-5
     3f4:	01000005 	tsteq	r0, r5
     3f8:	00005700 	andeq	r5, r0, r0, lsl #14
     3fc:	00000000 	andeq	r0, r0, r0
     400:	00010000 	andeq	r0, r1, r0
     404:	02ac0000 	adceq	r0, ip, #0, 0
     408:	02b80000 	adcseq	r0, r8, #0, 0
     40c:	00010000 	andeq	r0, r1, r0
     410:	0002b852 	andeq	fp, r2, r2, asr r8
     414:	00072000 	andeq	r2, r7, r0
     418:	91000300 	mrsls	r0, LR_irq
     41c:	00007dc8 	andeq	r7, r0, r8, asr #27
	...
     42c:	01000000 	mrseq	r0, (UNDEF: 0)
     430:	00000001 	andeq	r0, r0, r1
	...
     43c:	0000045c 	andeq	r0, r0, ip, asr r4
     440:	00000474 	andeq	r0, r0, r4, ror r4
     444:	74500001 	ldrbvc	r0, [r0], #-1
     448:	a0000004 	andge	r0, r0, r4
     44c:	01000004 	tsteq	r0, r4
     450:	04e45700 	strbteq	r5, [r4], #1792	; 0x700
     454:	04fc0000 	ldrbteq	r0, [ip], #0
     458:	00010000 	andeq	r0, r1, r0
     45c:	0004fc50 	andeq	pc, r4, r0, asr ip	; <UNPREDICTABLE>
     460:	00052800 	andeq	r2, r5, r0, lsl #16
     464:	57000100 	strpl	r0, [r0, -r0, lsl #2]
     468:	0000058c 	andeq	r0, r0, ip, lsl #11
     46c:	0000058c 	andeq	r0, r0, ip, lsl #11
     470:	8c500001 	mrrchi	0, 0, r0, r0, cr1	; <UNPREDICTABLE>
     474:	94000005 	strls	r0, [r0], #-5
     478:	01000005 	tsteq	r0, r5
     47c:	05c45700 	strbeq	r5, [r4, #1792]	; 0x700
     480:	05c80000 	strbeq	r0, [r8]
     484:	00010000 	andeq	r0, r1, r0
     488:	0005f850 	andeq	pc, r5, r0, asr r8	; <UNPREDICTABLE>
     48c:	0005fc00 	andeq	pc, r5, r0, lsl #24
     490:	50000100 	andpl	r0, r0, r0, lsl #2
     494:	0000062c 	andeq	r0, r0, ip, lsr #12
     498:	00000630 	andeq	r0, r0, r0, lsr r6
     49c:	74500001 	ldrbvc	r0, [r0], #-1
     4a0:	78000006 	stmdavc	r0, {r1, r2}
     4a4:	01000006 	tsteq	r0, r6
     4a8:	06b85000 	ldrteq	r5, [r8], r0
     4ac:	06d80000 	ldrbeq	r0, [r8], r0
     4b0:	00010000 	andeq	r0, r1, r0
     4b4:	00000057 	andeq	r0, r0, r7, asr r0
     4b8:	00000000 	andeq	r0, r0, r0
     4bc:	00000200 	andeq	r0, r0, r0, lsl #4
     4c0:	f4000000 	vst4.8	{d0-d3}, [r0], r0
     4c4:	f8000002 			; <UNDEFINED> instruction: 0xf8000002
     4c8:	02000002 	andeq	r0, r0, #2, 0
     4cc:	f89f3000 			; <UNDEFINED> instruction: 0xf89f3000
     4d0:	14000002 	strne	r0, [r0], #-2
     4d4:	01000003 	tsteq	r0, r3
     4d8:	031c5500 	tsteq	ip, #0, 10
     4dc:	06d80000 	ldrbeq	r0, [r8], r0
     4e0:	00010000 	andeq	r0, r1, r0
     4e4:	00000055 	andeq	r0, r0, r5, asr r0
     4e8:	00000000 	andeq	r0, r0, r0
     4ec:	00000100 	andeq	r0, r0, r0, lsl #2
     4f0:	00000000 	andeq	r0, r0, r0
     4f4:	b8000000 	stmdalt	r0, {}	; <UNPREDICTABLE>
     4f8:	3c000003 	stccc	0, cr0, [r0], {3}
     4fc:	01000004 	tsteq	r0, r4
     500:	043c5600 	ldrteq	r5, [ip], #-1536	; 0xfffffa00
     504:	04a00000 	strteq	r0, [r0], #0
     508:	00030000 	andeq	r0, r3, r0
     50c:	a09f7e7b 	addsge	r7, pc, fp, ror lr	; <UNPREDICTABLE>
     510:	c4000004 	strgt	r0, [r0], #-4
     514:	01000004 	tsteq	r0, r4
     518:	04c45600 	strbeq	r5, [r4], #1536	; 0x600
     51c:	05280000 	streq	r0, [r8, #-0]!
     520:	00030000 	andeq	r0, r3, r0
     524:	289f7e7b 	ldmcs	pc, {r0, r1, r3, r4, r5, r6, r9, sl, fp, ip, sp, lr}	; <UNPREDICTABLE>
     528:	44000005 	strmi	r0, [r0], #-5
     52c:	01000005 	tsteq	r0, r5
     530:	00005600 	andeq	r5, r0, r0, lsl #12
	...
     540:	00000070 	andeq	r0, r0, r0, ror r0
     544:	00000094 	muleq	r0, r4, r0
     548:	94500001 	ldrbls	r0, [r0], #-1
     54c:	fc000000 	stc2	0, cr0, [r0], {-0}
     550:	03000000 	movweq	r0, #0
     554:	9f027000 	svcls	0x00027000
     558:	000000fc 	strdeq	r0, [r0], -ip
     55c:	00000224 	andeq	r0, r0, r4, lsr #4
     560:	01f30004 	mvnseq	r0, r4
     564:	00009f50 	andeq	r9, r0, r0, asr pc
	...
     57c:	00700000 	rsbseq	r0, r0, r0
     580:	00e00000 	rsceq	r0, r0, r0
     584:	00010000 	andeq	r0, r1, r0
     588:	0000e051 	andeq	lr, r0, r1, asr r0
     58c:	00015400 	andeq	r5, r1, r0, lsl #8
     590:	55000100 	strpl	r0, [r0, #-256]	; 0xffffff00
     594:	00000154 	andeq	r0, r0, r4, asr r1
     598:	00000158 	andeq	r0, r0, r8, asr r1
     59c:	58510001 	ldmdapl	r1, {r0}^
     5a0:	b0000001 	andlt	r0, r0, r1
     5a4:	01000001 	tsteq	r0, r1
     5a8:	01b05500 	lslseq	r5, r0, #10
     5ac:	01c00000 	biceq	r0, r0, r0
     5b0:	00010000 	andeq	r0, r1, r0
     5b4:	0001c051 	andeq	ip, r1, r1, asr r0
     5b8:	0001e400 	andeq	lr, r1, r0, lsl #8
     5bc:	55000100 	strpl	r0, [r0, #-256]	; 0xffffff00
     5c0:	000001e4 	andeq	r0, r0, r4, ror #3
     5c4:	000001f8 	strdeq	r0, [r0], -r8
     5c8:	f8510001 			; <UNDEFINED> instruction: 0xf8510001
     5cc:	24000001 	strcs	r0, [r0], #-1
     5d0:	01000002 	tsteq	r0, r2
     5d4:	00005500 	andeq	r5, r0, r0, lsl #10
	...
     5e0:	00700000 	rsbseq	r0, r0, r0
     5e4:	00840000 	addeq	r0, r4, r0
     5e8:	00010000 	andeq	r0, r1, r0
     5ec:	00008452 	andeq	r8, r0, r2, asr r4
     5f0:	00022400 	andeq	r2, r2, r0, lsl #8
     5f4:	54000100 	strpl	r0, [r0], #-256	; 0xffffff00
	...
     604:	00000100 	andeq	r0, r0, r0, lsl #2
     608:	00000000 	andeq	r0, r0, r0
     60c:	00000070 	andeq	r0, r0, r0, ror r0
     610:	000000f4 	strdeq	r0, [r0], -r4
     614:	4c530001 	mrrcmi	0, 0, r0, r3, cr1
     618:	80000001 	andhi	r0, r0, r1
     61c:	01000001 	tsteq	r0, r1
     620:	01805300 	orreq	r5, r0, r0, lsl #6
     624:	018c0000 	orreq	r0, ip, r0
     628:	00040000 	andeq	r0, r4, r0
     62c:	9f5301f3 	svcls	0x005301f3
     630:	000001b0 			; <UNDEFINED> instruction: 0x000001b0
     634:	000001e8 	andeq	r0, r0, r8, ror #3
     638:	e8530001 	ldmda	r3, {r0}^
     63c:	ff000001 			; <UNDEFINED> instruction: 0xff000001
     640:	01000001 	tsteq	r0, r1
     644:	01ff5c00 	mvnseq	r5, r0, lsl #24
     648:	02240000 	eoreq	r0, r4, #0, 0
     64c:	00040000 	andeq	r0, r4, r0
     650:	9f5301f3 	svcls	0x005301f3
	...
     660:	00700000 	rsbseq	r0, r0, r0
     664:	008c0000 	addeq	r0, ip, r0
     668:	00020000 	andeq	r0, r2, r0
     66c:	008c0091 	umulleq	r0, ip, r1, r0
     670:	01930000 	orrseq	r0, r3, r0
     674:	00010000 	andeq	r0, r1, r0
     678:	0001b052 	andeq	fp, r1, r2, asr r0
     67c:	0001f400 	andeq	pc, r1, r0, lsl #8
     680:	52000100 	andpl	r0, r0, #0
	...
     68c:	01000001 	tsteq	r0, r1
     690:	00000001 	andeq	r0, r0, r1
     694:	00000000 	andeq	r0, r0, r0
     698:	01010100 	mrseq	r0, (UNDEF: 17)
     69c:	01000001 	tsteq	r0, r1
     6a0:	00000001 	andeq	r0, r0, r1
	...
     6ac:	0000008c 	andeq	r0, r0, ip, lsl #1
     6b0:	000000fc 	strdeq	r0, [r0], -ip
     6b4:	a0910004 	addsge	r0, r1, r4
     6b8:	00fc9f7f 	rscseq	r9, ip, pc, ror pc
     6bc:	013c0000 	teqeq	ip, r0
     6c0:	00010000 	andeq	r0, r1, r0
     6c4:	00013c50 	andeq	r3, r1, r0, asr ip
     6c8:	00014800 	andeq	r4, r1, r0, lsl #16
     6cc:	71000300 	mrsvc	r0, LR_irq
     6d0:	01489f02 	cmpeq	r8, r2, lsl #30
     6d4:	014c0000 	mrseq	r0, (UNDEF: 76)
     6d8:	00010000 	andeq	r0, r1, r0
     6dc:	00014c50 	andeq	r4, r1, r0, asr ip
     6e0:	00015800 	andeq	r5, r1, r0, lsl #16
     6e4:	91000400 	tstls	r0, r0, lsl #8
     6e8:	589f7fa0 	ldmpl	pc, {r5, r7, r8, r9, sl, fp, ip, sp, lr}	; <UNPREDICTABLE>
     6ec:	6c000001 	stcvs	0, cr0, [r0], {1}
     6f0:	01000001 	tsteq	r0, r1
     6f4:	016c5100 	cmneq	ip, r0, lsl #2
     6f8:	01780000 	cmneq	r8, r0
     6fc:	00030000 	andeq	r0, r3, r0
     700:	789f7f71 	ldmvc	pc, {r0, r4, r5, r6, r8, r9, sl, fp, ip, sp, lr}	; <UNPREDICTABLE>
     704:	84000001 	strhi	r0, [r0], #-1
     708:	03000001 	movweq	r0, #1
     70c:	9f017100 	svcls	0x00017100
     710:	00000184 	andeq	r0, r0, r4, lsl #3
     714:	00000193 	muleq	r0, r3, r1
     718:	b0500001 	subslt	r0, r0, r1
     71c:	b0000001 	andlt	r0, r0, r1
     720:	04000001 	streq	r0, [r0], #-1
     724:	7fa09100 	svcvc	0x00a09100
     728:	0001b09f 	muleq	r1, pc, r0	; <UNPREDICTABLE>
     72c:	0001b800 	andeq	fp, r1, r0, lsl #16
     730:	91000400 	tstls	r0, r0, lsl #8
     734:	b89f7fa1 	ldmlt	pc, {r0, r5, r7, r8, r9, sl, fp, ip, sp, lr}	; <UNPREDICTABLE>
     738:	bc000001 	stclt	0, cr0, [r0], {1}
     73c:	01000001 	tsteq	r0, r1
     740:	01bc5000 			; <UNDEFINED> instruction: 0x01bc5000
     744:	01c00000 	biceq	r0, r0, r0
     748:	00040000 	andeq	r0, r4, r0
     74c:	9f7fa091 	svcls	0x007fa091
     750:	000001c0 	andeq	r0, r0, r0, asr #3
     754:	000001d4 	ldrdeq	r0, [r0], -r4
     758:	d4500001 	ldrble	r0, [r0], #-1
     75c:	e4000001 	str	r0, [r0], #-1
     760:	03000001 	movweq	r0, #1
     764:	9f7f7000 	svcls	0x007f7000
     768:	000001e4 	andeq	r0, r0, r4, ror #3
     76c:	00000224 	andeq	r0, r0, r4, lsr #4
     770:	a0910004 	addsge	r0, r1, r4
     774:	00009f7f 	andeq	r9, r0, pc, ror pc
	...
     780:	00010100 	andeq	r0, r1, r0, lsl #2
	...
     790:	00900000 	addseq	r0, r0, r0
     794:	00dc0000 	sbcseq	r0, ip, r0
     798:	00010000 	andeq	r0, r1, r0
     79c:	0000dc5c 	andeq	sp, r0, ip, asr ip
     7a0:	0000f400 	andeq	pc, r0, r0, lsl #8
     7a4:	53000100 	movwpl	r0, #256	; 0x100
     7a8:	000000f4 	strdeq	r0, [r0], -r4
     7ac:	0000014c 	andeq	r0, r0, ip, asr #2
     7b0:	4c5c0001 	mrrcmi	0, 0, r0, ip, cr1
     7b4:	58000001 	stmdapl	r0, {r0}
     7b8:	01000001 	tsteq	r0, r1
     7bc:	01585300 	cmpeq	r8, r0, lsl #6
     7c0:	01740000 	cmneq	r4, r0
     7c4:	00010000 	andeq	r0, r1, r0
     7c8:	0001b05c 	andeq	fp, r1, ip, asr r0
     7cc:	0001c000 	andeq	ip, r1, r0
     7d0:	53000100 	movwpl	r0, #256	; 0x100
     7d4:	000001c0 	andeq	r0, r0, r0, asr #3
     7d8:	000001dc 	ldrdeq	r0, [r0], -ip
     7dc:	e45c0001 	ldrb	r0, [ip], #-1
     7e0:	e8000001 	stmda	r0, {r0}
     7e4:	01000001 	tsteq	r0, r1
     7e8:	01e85300 	mvneq	r5, r0, lsl #6
     7ec:	01ff0000 	mvnseq	r0, r0
     7f0:	00010000 	andeq	r0, r1, r0
     7f4:	0001ff5c 	andeq	pc, r1, ip, asr pc	; <UNPREDICTABLE>
     7f8:	00022400 	andeq	r2, r2, r0, lsl #8
     7fc:	f3000400 	vshl.u8	d0, d0, d0
     800:	009f5301 	addseq	r5, pc, r1, lsl #6
     804:	00000000 	andeq	r0, r0, r0
     808:	01000000 	mrseq	r0, (UNDEF: 0)
     80c:	00000101 	andeq	r0, r0, r1, lsl #2
     810:	dc000000 	stcle	0, cr0, [r0], {-0}
     814:	f0000000 			; <UNDEFINED> instruction: 0xf0000000
     818:	02000000 	andeq	r0, r0, #0, 0
     81c:	f09f3000 			; <UNDEFINED> instruction: 0xf09f3000
     820:	f8000000 			; <UNDEFINED> instruction: 0xf8000000
     824:	02000000 	andeq	r0, r0, #0, 0
     828:	fc9f3100 	ldc2	1, cr3, [pc], {0}
     82c:	4c000000 	stcmi	0, cr0, [r0], {-0}
     830:	01000001 	tsteq	r0, r1
     834:	014c5600 	cmpeq	ip, r0, lsl #12
     838:	01540000 	cmpeq	r4, r0
     83c:	00020000 	andeq	r0, r2, r0
     840:	00009f30 	andeq	r9, r0, r0, lsr pc
	...
     84c:	00010100 	andeq	r0, r1, r0, lsl #2
     850:	00010100 	andeq	r0, r1, r0, lsl #2
     854:	00000038 	andeq	r0, r0, r8, lsr r0
     858:	00000054 	andeq	r0, r0, r4, asr r0
     85c:	54500001 	ldrbpl	r0, [r0], #-1
     860:	58000000 	stmdapl	r0, {}	; <UNPREDICTABLE>
     864:	01000000 	mrseq	r0, (UNDEF: 0)
     868:	00585200 	subseq	r5, r8, r0, lsl #4
     86c:	00600000 	rsbeq	r0, r0, r0
     870:	00030000 	andeq	r0, r3, r0
     874:	609f0172 	addsvs	r0, pc, r2, ror r1	; <UNPREDICTABLE>
     878:	64000000 	strvs	r0, [r0], #-0
     87c:	01000000 	mrseq	r0, (UNDEF: 0)
     880:	00645200 	rsbeq	r5, r4, r0, lsl #4
     884:	00700000 	rsbseq	r0, r0, r0
     888:	00030000 	andeq	r0, r3, r0
     88c:	009f0172 	addseq	r0, pc, r2, ror r1	; <UNPREDICTABLE>
	...
     898:	38000000 	stmdacc	r0, {}	; <UNPREDICTABLE>
     89c:	50000000 	andpl	r0, r0, r0
     8a0:	01000000 	mrseq	r0, (UNDEF: 0)
     8a4:	00505100 	subseq	r5, r0, r0, lsl #2
     8a8:	00700000 	rsbseq	r0, r0, r0
     8ac:	00040000 	andeq	r0, r4, r0
     8b0:	9f5101f3 	svcls	0x005101f3
	...
     8c0:	00010100 	andeq	r0, r1, r0, lsl #2
     8c4:	00000038 	andeq	r0, r0, r8, lsr r0
     8c8:	00000050 	andeq	r0, r0, r0, asr r0
     8cc:	50520001 	subspl	r0, r2, r1
     8d0:	5c000000 	stcpl	0, cr0, [r0], {-0}
     8d4:	01000000 	mrseq	r0, (UNDEF: 0)
     8d8:	005c5100 	subseq	r5, ip, r0, lsl #2
     8dc:	00600000 	rsbeq	r0, r0, r0
     8e0:	00030000 	andeq	r0, r3, r0
     8e4:	609f0171 	addsvs	r0, pc, r1, ror r1	; <UNPREDICTABLE>
     8e8:	70000000 	andvc	r0, r0, r0
     8ec:	01000000 	mrseq	r0, (UNDEF: 0)
     8f0:	00005100 	andeq	r5, r0, r0, lsl #2
	...
     8fc:	00380000 	eorseq	r0, r8, r0
     900:	004c0000 	subeq	r0, ip, r0
     904:	00010000 	andeq	r0, r1, r0
     908:	00004c53 	andeq	r4, r0, r3, asr ip
     90c:	00006800 	andeq	r6, r0, r0, lsl #16
     910:	53000100 	movwpl	r0, #256	; 0x100
	...
     924:	00000040 	andeq	r0, r0, r0, asr #32
     928:	00000048 	andeq	r0, r0, r8, asr #32
     92c:	485c0001 	ldmdami	ip, {r0}^
     930:	4c000000 	stcmi	0, cr0, [r0], {-0}
     934:	08000000 	stmdaeq	r0, {}	; <UNPREDICTABLE>
     938:	73007200 	movwvc	r7, #512	; 0x200
     93c:	01231c00 			; <UNDEFINED> instruction: 0x01231c00
     940:	00004c9f 	muleq	r0, pc, ip	; <UNPREDICTABLE>
     944:	00005400 	andeq	r5, r0, r0, lsl #8
     948:	72000900 	andvc	r0, r0, #0, 18
     94c:	5301f300 	movwpl	pc, #4864	; 0x1300	; <UNPREDICTABLE>
     950:	9f01231c 	svcls	0x0001231c
     954:	00000054 	andeq	r0, r0, r4, asr r0
     958:	00000070 	andeq	r0, r0, r0, ror r0
     95c:	01f3000a 	mvnseq	r0, sl
     960:	5301f352 	movwpl	pc, #4946	; 0x1352	; <UNPREDICTABLE>
     964:	9f01231c 	svcls	0x0001231c
	...
     970:	004c0001 	subeq	r0, ip, r1
     974:	00700000 	rsbseq	r0, r0, r0
     978:	00010000 	andeq	r0, r1, r0
     97c:	00000050 	andeq	r0, r0, r0, asr r0
     980:	00000000 	andeq	r0, r0, r0
     984:	01010000 	mrseq	r0, (UNDEF: 1)
     988:	14000000 	strne	r0, [r0], #-0
     98c:	1c000000 	stcne	0, cr0, [r0], {-0}
     990:	01000000 	mrseq	r0, (UNDEF: 0)
     994:	001c5000 	andseq	r5, ip, r0
     998:	00240000 	eoreq	r0, r4, r0
     99c:	00030000 	andeq	r0, r3, r0
     9a0:	249f0170 	ldrcs	r0, [pc], #368	; 9a8 <__code_start__-0x7658>
     9a4:	38000000 	stmdacc	r0, {}	; <UNPREDICTABLE>
     9a8:	01000000 	mrseq	r0, (UNDEF: 0)
     9ac:	00005000 	andeq	r5, r0, r0
	...
     9b8:	00140000 	andseq	r0, r4, r0
     9bc:	00180000 	andseq	r0, r8, r0
     9c0:	00010000 	andeq	r0, r1, r0
     9c4:	00001851 	andeq	r1, r0, r1, asr r8
     9c8:	00003800 	andeq	r3, r0, r0, lsl #16
     9cc:	f3000400 	vshl.u8	d0, d0, d0
     9d0:	009f5101 	addseq	r5, pc, r1, lsl #2
	...
     9dc:	00001800 	andeq	r1, r0, r0, lsl #16
     9e0:	00003800 	andeq	r3, r0, r0, lsl #16
     9e4:	51000100 	mrspl	r0, (UNDEF: 16)
	...
     9f8:	00040000 	andeq	r0, r4, r0
     9fc:	00010000 	andeq	r0, r1, r0
     a00:	00000450 	andeq	r0, r0, r0, asr r4
     a04:	00000c00 	andeq	r0, r0, r0, lsl #24
     a08:	70000300 	andvc	r0, r0, r0, lsl #6
     a0c:	000c9f30 	andeq	r9, ip, r0, lsr pc
     a10:	00140000 	andseq	r0, r4, r0
     a14:	00040000 	andeq	r0, r4, r0
     a18:	9f5001f3 	svcls	0x005001f3
	...
     a28:	00000224 	andeq	r0, r0, r4, lsr #4
     a2c:	00000268 	andeq	r0, r0, r8, ror #4
     a30:	68500001 	ldmdavs	r0, {r0}^
     a34:	88000002 	stmdahi	r0, {r1}
     a38:	04000002 	streq	r0, [r0], #-2
     a3c:	5001f300 	andpl	pc, r1, r0, lsl #6
     a40:	0000009f 	muleq	r0, pc, r0	; <UNPREDICTABLE>
	...
     a4c:	00022400 	andeq	r2, r2, r0, lsl #8
     a50:	00026400 	andeq	r6, r2, r0, lsl #8
     a54:	51000100 	mrspl	r0, (UNDEF: 16)
     a58:	00000264 	andeq	r0, r0, r4, ror #4
     a5c:	00000288 	andeq	r0, r0, r8, lsl #5
     a60:	01f30004 	mvnseq	r0, r4
     a64:	00009f51 	andeq	r9, r0, r1, asr pc
     a68:	00000000 	andeq	r0, r0, r0
     a6c:	01000000 	mrseq	r0, (UNDEF: 0)
     a70:	00000001 	andeq	r0, r0, r1
     a74:	00000008 	andeq	r0, r0, r8
     a78:	00000010 	andeq	r0, r0, r0, lsl r0
     a7c:	10530001 	subsne	r0, r3, r1
     a80:	18000000 	stmdane	r0, {}	; <UNPREDICTABLE>
     a84:	03000000 	movweq	r0, #0
     a88:	9f047300 	svcls	0x00047300
     a8c:	00000018 	andeq	r0, r0, r8, lsl r0
     a90:	0000001f 	andeq	r0, r0, pc, lsl r0
     a94:	00530001 	subseq	r0, r3, r1
     a98:	00000000 	andeq	r0, r0, r0
     a9c:	01000000 	mrseq	r0, (UNDEF: 0)
     aa0:	008a3c00 	addeq	r3, sl, r0, lsl #24
     aa4:	008a5800 	addeq	r5, sl, r0, lsl #16
     aa8:	0c000600 	stceq	6, cr0, [r0], {-0}
     aac:	2010001c 	andscs	r0, r0, ip, lsl r0
     ab0:	0000009f 	muleq	r0, pc, r0	; <UNPREDICTABLE>
     ab4:	00000000 	andeq	r0, r0, r0
     ab8:	3c000200 	sfmcc	f0, 4, [r0], {-0}
     abc:	5800008a 	stmdapl	r0, {r1, r3, r7}
     ac0:	0600008a 	streq	r0, [r0], -sl, lsl #1
     ac4:	00240c00 	eoreq	r0, r4, r0, lsl #24
     ac8:	009f2010 	addseq	r2, pc, r0, lsl r0	; <UNPREDICTABLE>
     acc:	00000000 	andeq	r0, r0, r0
     ad0:	03000000 	movweq	r0, #0
     ad4:	008a3c00 	addeq	r3, sl, r0, lsl #24
     ad8:	008a5800 	addeq	r5, sl, r0, lsl #16
     adc:	08000500 	stmdaeq	r0, {r8, sl}
     ae0:	9f2447b4 	svcls	0x002447b4
	...
     aec:	8a3c0004 	bhi	f00b04 <__bss_end__+0xef73f4>
     af0:	8a580000 	bhi	1600af8 <__bss_end__+0x15f73e8>
     af4:	00030000 	andeq	r0, r3, r0
     af8:	009f2008 	addseq	r2, pc, r8
     afc:	00000000 	andeq	r0, r0, r0
     b00:	02000000 	andeq	r0, r0, #0, 0
     b04:	00000000 	andeq	r0, r0, r0
     b08:	008a0c00 	addeq	r0, sl, r0, lsl #24
     b0c:	008a1000 	addeq	r1, sl, r0
     b10:	30000200 	andcc	r0, r0, r0, lsl #4
     b14:	008a109f 	umulleq	r1, sl, pc, r0	; <UNPREDICTABLE>
     b18:	008a1400 	addeq	r1, sl, r0, lsl #8
     b1c:	53000100 	movwpl	r0, #256	; 0x100
     b20:	00008a18 	andeq	r8, r0, r8, lsl sl
     b24:	00008a20 	andeq	r8, r0, r0, lsr #20
     b28:	00530001 	subseq	r0, r3, r1
     b2c:	00000000 	andeq	r0, r0, r0
     b30:	02000000 	andeq	r0, r0, #0, 0
     b34:	f4000000 	vst4.8	{d0-d3}, [r0], r0
     b38:	f8000089 			; <UNDEFINED> instruction: 0xf8000089
     b3c:	02000089 	andeq	r0, r0, #137, 0	; 0x89
     b40:	f89f3000 			; <UNDEFINED> instruction: 0xf89f3000
     b44:	fc000089 	stc2	0, cr0, [r0], {137}	; 0x89
     b48:	01000089 	smlabbeq	r0, r9, r0, r0
     b4c:	00005000 	andeq	r5, r0, r0
	...
     b58:	006c0000 	rsbeq	r0, ip, r0
     b5c:	00780000 	rsbseq	r0, r8, r0
     b60:	00010000 	andeq	r0, r1, r0
     b64:	00007850 	andeq	r7, r0, r0, asr r8
     b68:	00008400 	andeq	r8, r0, r0, lsl #8
     b6c:	f3000400 	vshl.u8	d0, d0, d0
     b70:	009f5001 	addseq	r5, pc, r1
	...
     b7c:	54000000 	strpl	r0, [r0], #-0
     b80:	60000000 	andvs	r0, r0, r0
     b84:	01000000 	mrseq	r0, (UNDEF: 0)
     b88:	00605000 	rsbeq	r5, r0, r0
     b8c:	006c0000 	rsbeq	r0, ip, r0
     b90:	00040000 	andeq	r0, r4, r0
     b94:	9f5001f3 	svcls	0x005001f3
	...
     ba4:	00000030 	andeq	r0, r0, r0, lsr r0
     ba8:	0000003b 	andeq	r0, r0, fp, lsr r0
     bac:	3b500001 	blcc	1400bb8 <__bss_end__+0x13f74a8>
     bb0:	54000000 	strpl	r0, [r0], #-0
     bb4:	01000000 	mrseq	r0, (UNDEF: 0)
     bb8:	00005500 	andeq	r5, r0, r0, lsl #10
	...
     bc4:	00000040 	andeq	r0, r0, r0, asr #32
     bc8:	00000054 	andeq	r0, r0, r4, asr r0
     bcc:	00540001 	subseq	r0, r4, r1
	...
     bd8:	00004400 	andeq	r4, r0, r0, lsl #8
     bdc:	00004800 	andeq	r4, r0, r0, lsl #16
     be0:	50000100 	andpl	r0, r0, r0, lsl #2
	...
     bf0:	00000024 	andeq	r0, r0, r4, lsr #32
     bf4:	00000027 	andeq	r0, r0, r7, lsr #32
     bf8:	27500001 	ldrbcs	r0, [r0, -r1]
     bfc:	30000000 	andcc	r0, r0, r0
     c00:	01000000 	mrseq	r0, (UNDEF: 0)
     c04:	00005400 	andeq	r5, r0, r0, lsl #8
	...
     c10:	01380000 	teqeq	r8, r0
     c14:	01430000 	mrseq	r0, (UNDEF: 67)
     c18:	00010000 	andeq	r0, r1, r0
     c1c:	00014350 	andeq	r4, r1, r0, asr r3
     c20:	00016800 	andeq	r6, r1, r0, lsl #16
     c24:	54000100 	strpl	r0, [r0], #-256	; 0xffffff00
	...
     c30:	01280000 			; <UNDEFINED> instruction: 0x01280000
     c34:	01380000 	teqeq	r8, r0
     c38:	00010000 	andeq	r0, r1, r0
     c3c:	00000054 	andeq	r0, r0, r4, asr r0
	...
     c4c:	00000f00 	andeq	r0, r0, r0, lsl #30
     c50:	50000100 	andpl	r0, r0, r0, lsl #2
     c54:	0000000f 	andeq	r0, r0, pc
     c58:	00000020 	andeq	r0, r0, r0, lsr #32
     c5c:	00540001 	subseq	r0, r4, r1
	...
     c6c:	0f000000 	svceq	0x00000000
     c70:	01000000 	mrseq	r0, (UNDEF: 0)
     c74:	000f5100 	andeq	r5, pc, r0, lsl #2
     c78:	00200000 	eoreq	r0, r0, r0
     c7c:	00010000 	andeq	r0, r1, r0
     c80:	00000055 	andeq	r0, r0, r5, asr r0
	...
     c8c:	00013000 	andeq	r3, r1, r0
     c90:	00013800 	andeq	r3, r1, r0, lsl #16
     c94:	50000100 	andpl	r0, r0, r0, lsl #2
     c98:	00000138 	andeq	r0, r0, r8, lsr r1
     c9c:	00000148 	andeq	r0, r0, r8, asr #2
     ca0:	01f30004 	mvnseq	r0, r4
     ca4:	00009f50 	andeq	r9, r0, r0, asr pc
	...
     cb0:	01200000 			; <UNDEFINED> instruction: 0x01200000
     cb4:	012b0000 			; <UNDEFINED> instruction: 0x012b0000
     cb8:	00010000 	andeq	r0, r1, r0
     cbc:	00012b50 	andeq	r2, r1, r0, asr fp
     cc0:	00013000 	andeq	r3, r1, r0
     cc4:	f3000400 	vshl.u8	d0, d0, d0
     cc8:	009f5001 	addseq	r5, pc, r1
	...
     cd4:	10000000 	andne	r0, r0, r0
     cd8:	1b000001 	blne	ce4 <__code_start__-0x731c>
     cdc:	01000001 	tsteq	r0, r1
     ce0:	011b5000 	tsteq	fp, r0
     ce4:	01200000 			; <UNDEFINED> instruction: 0x01200000
     ce8:	00040000 	andeq	r0, r4, r0
     cec:	9f5001f3 	svcls	0x005001f3
	...
     cfc:	00000100 	andeq	r0, r0, r0, lsl #2
     d00:	0000010b 	andeq	r0, r0, fp, lsl #2
     d04:	0b500001 	bleq	1400d10 <__bss_end__+0x13f7600>
     d08:	10000001 	andne	r0, r0, r1
     d0c:	04000001 	streq	r0, [r0], #-1
     d10:	5001f300 	andpl	pc, r1, r0, lsl #6
     d14:	0000009f 	muleq	r0, pc, r0	; <UNPREDICTABLE>
	...
     d30:	00002800 	andeq	r2, r0, r0, lsl #16
     d34:	50000100 	andpl	r0, r0, r0, lsl #2
     d38:	00000028 	andeq	r0, r0, r8, lsr #32
     d3c:	00000030 	andeq	r0, r0, r0, lsr r0
     d40:	30550001 	subscc	r0, r5, r1
     d44:	33000000 	movwcc	r0, #0
     d48:	01000000 	mrseq	r0, (UNDEF: 0)
     d4c:	00335000 	eorseq	r5, r3, r0
     d50:	00540000 	subseq	r0, r4, r0
     d54:	00040000 	andeq	r0, r4, r0
     d58:	9f5001f3 	svcls	0x005001f3
     d5c:	00000054 	andeq	r0, r0, r4, asr r0
     d60:	00000057 	andeq	r0, r0, r7, asr r0
     d64:	57500001 	ldrbpl	r0, [r0, -r1]
     d68:	78000000 	stmdavc	r0, {}	; <UNPREDICTABLE>
     d6c:	01000000 	mrseq	r0, (UNDEF: 0)
     d70:	00785500 	rsbseq	r5, r8, r0, lsl #10
     d74:	007b0000 	rsbseq	r0, fp, r0
     d78:	00010000 	andeq	r0, r1, r0
     d7c:	00007b50 	andeq	r7, r0, r0, asr fp
     d80:	00010000 	andeq	r0, r1, r0
     d84:	55000100 	strpl	r0, [r0, #-256]	; 0xffffff00
	...
     da4:	00280000 	eoreq	r0, r8, r0
     da8:	00010000 	andeq	r0, r1, r0
     dac:	00002851 	andeq	r2, r0, r1, asr r8
     db0:	00003000 	andeq	r3, r0, r0
     db4:	f3000400 	vshl.u8	d0, d0, d0
     db8:	309f5101 	addscc	r5, pc, r1, lsl #2
     dbc:	33000000 	movwcc	r0, #0
     dc0:	01000000 	mrseq	r0, (UNDEF: 0)
     dc4:	00335100 	eorseq	r5, r3, r0, lsl #2
     dc8:	00540000 	subseq	r0, r4, r0
     dcc:	00040000 	andeq	r0, r4, r0
     dd0:	9f5101f3 	svcls	0x005101f3
     dd4:	00000054 	andeq	r0, r0, r4, asr r0
     dd8:	00000057 	andeq	r0, r0, r7, asr r0
     ddc:	57510001 	ldrbpl	r0, [r1, -r1]
     de0:	78000000 	stmdavc	r0, {}	; <UNPREDICTABLE>
     de4:	01000000 	mrseq	r0, (UNDEF: 0)
     de8:	00785400 	rsbseq	r5, r8, r0, lsl #8
     dec:	007b0000 	rsbseq	r0, fp, r0
     df0:	00010000 	andeq	r0, r1, r0
     df4:	00007b51 	andeq	r7, r0, r1, asr fp
     df8:	00009800 	andeq	r9, r0, r0, lsl #16
     dfc:	54000100 	strpl	r0, [r0], #-256	; 0xffffff00
     e00:	00000098 	muleq	r0, r8, r0
     e04:	00000100 	andeq	r0, r0, r0, lsl #2
     e08:	01f30004 	mvnseq	r0, r4
     e0c:	00009f51 	andeq	r9, r0, r1, asr pc
	...
     e1c:	0000014c 	andeq	r0, r0, ip, asr #2
     e20:	00000180 	andeq	r0, r0, r0, lsl #3
     e24:	80500001 	subshi	r0, r0, r1
     e28:	8c000001 	stchi	0, cr0, [r0], {1}
     e2c:	01000001 	tsteq	r0, r1
     e30:	018c5400 	orreq	r5, ip, r0, lsl #8
     e34:	01ac0000 			; <UNDEFINED> instruction: 0x01ac0000
     e38:	00040000 	andeq	r0, r4, r0
     e3c:	9f5001f3 	svcls	0x005001f3
	...
     e4c:	0000014c 	andeq	r0, r0, ip, asr #2
     e50:	00000183 	andeq	r0, r0, r3, lsl #3
     e54:	83510001 	cmphi	r1, #1, 0
     e58:	ac000001 	stcge	0, cr0, [r0], {1}
     e5c:	04000001 	streq	r0, [r0], #-1
     e60:	5101f300 	mrspl	pc, SP_irq	; <UNPREDICTABLE>
     e64:	0000009f 	muleq	r0, pc, r0	; <UNPREDICTABLE>
     e68:	00000000 	andeq	r0, r0, r0
     e6c:	7c000000 	stcvc	0, cr0, [r0], {-0}
     e70:	ac000001 	stcge	0, cr0, [r0], {1}
     e74:	01000001 	tsteq	r0, r1
     e78:	00005700 	andeq	r5, r0, r0, lsl #14
	...
     e84:	00000184 	andeq	r0, r0, r4, lsl #3
     e88:	000001a0 	andeq	r0, r0, r0, lsr #3
     e8c:	00500001 	subseq	r0, r0, r1
	...
     e98:	00019000 	andeq	r9, r1, r0
     e9c:	0001ac00 	andeq	sl, r1, r0, lsl #24
     ea0:	54000100 	strpl	r0, [r0], #-256	; 0xffffff00
	...
     eac:	01900001 	orrseq	r0, r0, r1
     eb0:	01ac0000 			; <UNDEFINED> instruction: 0x01ac0000
     eb4:	00050000 	andeq	r0, r5, r0
     eb8:	24007437 	strcs	r7, [r0], #-1079	; 0xfffffbc9
     ebc:	0000009f 	muleq	r0, pc, r0	; <UNPREDICTABLE>
	...
     ec8:	00019800 	andeq	r9, r1, r0, lsl #16
     ecc:	00019c00 	andeq	r9, r1, r0, lsl #24
     ed0:	51000100 	mrspl	r0, (UNDEF: 16)
     ed4:	0000019c 	muleq	r0, ip, r1
     ed8:	000001a0 	andeq	r0, r0, r0, lsr #3
     edc:	74370009 	ldrtvc	r0, [r7], #-9
     ee0:	70202400 	eorvc	r2, r0, r0, lsl #8
     ee4:	009f1a00 	addseq	r1, pc, r0, lsl #20
	...
     ef4:	14000000 	strne	r0, [r0], #-0
     ef8:	20000001 	andcs	r0, r0, r1
     efc:	01000001 	tsteq	r0, r1
     f00:	01205000 			; <UNDEFINED> instruction: 0x01205000
     f04:	01240000 			; <UNDEFINED> instruction: 0x01240000
     f08:	00040000 	andeq	r0, r4, r0
     f0c:	9f5001f3 	svcls	0x005001f3
     f10:	00000124 	andeq	r0, r0, r4, lsr #2
     f14:	00000130 	andeq	r0, r0, r0, lsr r1
     f18:	30500001 	subscc	r0, r0, r1
     f1c:	4c000001 	stcmi	0, cr0, [r0], {1}
     f20:	01000001 	tsteq	r0, r1
     f24:	00005400 	andeq	r5, r0, r0, lsl #8
     f28:	00000000 	andeq	r0, r0, r0
     f2c:	00010000 	andeq	r0, r1, r0
     f30:	0000012c 	andeq	r0, r0, ip, lsr #2
     f34:	00000144 	andeq	r0, r0, r4, asr #2
     f38:	9f300002 	svcls	0x00300002
	...
     f44:	01340000 	teqeq	r4, r0
     f48:	01400000 	mrseq	r0, (UNDEF: 64)
     f4c:	00010000 	andeq	r0, r1, r0
     f50:	00000050 	andeq	r0, r0, r0, asr r0
     f54:	00000000 	andeq	r0, r0, r0
     f58:	34000100 	strcc	r0, [r0], #-256	; 0xffffff00
     f5c:	4c000001 	stcmi	0, cr0, [r0], {1}
     f60:	05000001 	streq	r0, [r0, #-1]
     f64:	00743100 	rsbseq	r3, r4, r0, lsl #2
     f68:	00009f24 	andeq	r9, r0, r4, lsr #30
	...
     f78:	000000c0 	andeq	r0, r0, r0, asr #1
     f7c:	000000ec 	andeq	r0, r0, ip, ror #1
     f80:	ec500001 	mrrc	0, 0, r0, r0, cr1	; <UNPREDICTABLE>
     f84:	f8000000 			; <UNDEFINED> instruction: 0xf8000000
     f88:	01000000 	mrseq	r0, (UNDEF: 0)
     f8c:	00f85400 	rscseq	r5, r8, r0, lsl #8
     f90:	01140000 	tsteq	r4, r0
     f94:	00040000 	andeq	r0, r4, r0
     f98:	9f5001f3 	svcls	0x005001f3
	...
     fa4:	00e80000 	rsceq	r0, r8, r0
     fa8:	01140000 	tsteq	r4, r0
     fac:	00010000 	andeq	r0, r1, r0
     fb0:	00000056 	andeq	r0, r0, r6, asr r0
     fb4:	00000000 	andeq	r0, r0, r0
     fb8:	f0000000 			; <UNDEFINED> instruction: 0xf0000000
     fbc:	08000000 	stmdaeq	r0, {}	; <UNPREDICTABLE>
     fc0:	01000001 	tsteq	r0, r1
     fc4:	00005000 	andeq	r5, r0, r0
	...
     fd0:	000000fc 	strdeq	r0, [r0], -ip
     fd4:	00000114 	andeq	r0, r0, r4, lsl r1
     fd8:	00540001 	subseq	r0, r4, r1
     fdc:	00000000 	andeq	r0, r0, r0
     fe0:	01000000 	mrseq	r0, (UNDEF: 0)
     fe4:	0000fc00 	andeq	pc, r0, r0, lsl #24
     fe8:	00011400 	andeq	r1, r1, r0, lsl #8
     fec:	37000500 	strcc	r0, [r0, -r0, lsl #10]
     ff0:	9f240074 	svcls	0x00240074
	...
     ffc:	00000002 	andeq	r0, r0, r2
    1000:	000000fc 	strdeq	r0, [r0], -ip
    1004:	00000104 	andeq	r0, r0, r4, lsl #2
    1008:	74370009 	ldrtvc	r0, [r7], #-9
    100c:	70202400 	eorvc	r2, r0, r0, lsl #8
    1010:	049f1a00 	ldreq	r1, [pc], #2560	; 1018 <__code_start__-0x6fe8>
    1014:	0b000001 	bleq	1020 <__code_start__-0x6fe0>
    1018:	01000001 	tsteq	r0, r1
    101c:	00005100 	andeq	r5, r0, r0, lsl #2
	...
    102c:	00a40000 	adceq	r0, r4, r0
    1030:	00b30000 	adcseq	r0, r3, r0
    1034:	00010000 	andeq	r0, r1, r0
    1038:	0000b350 	andeq	fp, r0, r0, asr r3
    103c:	0000b800 	andeq	fp, r0, r0, lsl #16
    1040:	f3000400 	vshl.u8	d0, d0, d0
    1044:	b89f5001 	ldmlt	pc, {r0, ip, lr}	; <UNPREDICTABLE>
    1048:	bb000000 	bllt	1050 <__code_start__-0x6fb0>
    104c:	01000000 	mrseq	r0, (UNDEF: 0)
    1050:	00bb5000 	adcseq	r5, fp, r0
    1054:	00c00000 	sbceq	r0, r0, r0
    1058:	00040000 	andeq	r0, r4, r0
    105c:	9f5001f3 	svcls	0x005001f3
	...
    1070:	000000a4 	andeq	r0, r0, r4, lsr #1
    1074:	000000b3 	strheq	r0, [r0], -r3
    1078:	b3510001 	cmplt	r1, #1, 0
    107c:	b8000000 	stmdalt	r0, {}	; <UNPREDICTABLE>
    1080:	04000000 	streq	r0, [r0], #-0
    1084:	5101f300 	mrspl	pc, SP_irq	; <UNPREDICTABLE>
    1088:	0000b89f 	muleq	r0, pc, r8	; <UNPREDICTABLE>
    108c:	0000bb00 	andeq	fp, r0, r0, lsl #22
    1090:	51000100 	mrspl	r0, (UNDEF: 16)
    1094:	000000bb 	strheq	r0, [r0], -fp
    1098:	000000c0 	andeq	r0, r0, r0, asr #1
    109c:	01f30004 	mvnseq	r0, r4
    10a0:	00009f51 	andeq	r9, r0, r1, asr pc
	...
    10ac:	00800000 	addeq	r0, r0, r0
    10b0:	00980000 	addseq	r0, r8, r0
    10b4:	00010000 	andeq	r0, r1, r0
    10b8:	00009850 	andeq	r9, r0, r0, asr r8
    10bc:	0000a400 	andeq	sl, r0, r0, lsl #8
    10c0:	f3000400 	vshl.u8	d0, d0, d0
    10c4:	009f5001 	addseq	r5, pc, r1
	...
    10d0:	5c000000 	stcpl	0, cr0, [r0], {-0}
    10d4:	74000000 	strvc	r0, [r0], #-0
    10d8:	01000000 	mrseq	r0, (UNDEF: 0)
    10dc:	00745000 	rsbseq	r5, r4, r0
    10e0:	00800000 	addeq	r0, r0, r0
    10e4:	00040000 	andeq	r0, r4, r0
    10e8:	9f5001f3 	svcls	0x005001f3
	...
    10fc:	002c0000 	eoreq	r0, ip, r0
    1100:	00010000 	andeq	r0, r1, r0
    1104:	00002c50 	andeq	r2, r0, r0, asr ip
    1108:	00003800 	andeq	r3, r0, r0, lsl #16
    110c:	54000100 	strpl	r0, [r0], #-256	; 0xffffff00
    1110:	00000038 	andeq	r0, r0, r8, lsr r0
    1114:	0000005c 	andeq	r0, r0, ip, asr r0
    1118:	01f30004 	mvnseq	r0, r4
    111c:	00009f50 	andeq	r9, r0, r0, asr pc
	...
    1128:	00000028 	andeq	r0, r0, r8, lsr #32
    112c:	0000005c 	andeq	r0, r0, ip, asr r0
    1130:	00560001 	subseq	r0, r6, r1
	...
    113c:	00003000 	andeq	r3, r0, r0
    1140:	00004400 	andeq	r4, r0, r0, lsl #8
    1144:	50000100 	andpl	r0, r0, r0, lsl #2
	...
    1150:	003c0000 	eorseq	r0, ip, r0
    1154:	005c0000 	subseq	r0, ip, r0
    1158:	00010000 	andeq	r0, r1, r0
    115c:	00000054 	andeq	r0, r0, r4, asr r0
    1160:	00000000 	andeq	r0, r0, r0
    1164:	3c000100 	stfccs	f0, [r0], {-0}
    1168:	5c000000 	stcpl	0, cr0, [r0], {-0}
    116c:	05000000 	streq	r0, [r0, #-0]
    1170:	00743700 	rsbseq	r3, r4, r0, lsl #14
    1174:	00009f24 	andeq	r9, r0, r4, lsr #30
	...
    1180:	00000044 	andeq	r0, r0, r4, asr #32
    1184:	00000050 	andeq	r0, r0, r0, asr r0
    1188:	00500001 	subseq	r0, r0, r1
    118c:	00000000 	andeq	r0, r0, r0
    1190:	01000000 	mrseq	r0, (UNDEF: 0)
    1194:	00004400 	andeq	r4, r0, r0, lsl #8
    1198:	00005c00 	andeq	r5, r0, r0, lsl #24
    119c:	31000500 	tstcc	r0, r0, lsl #10
    11a0:	9f240074 	svcls	0x00240074
	...
    11b4:	0000000b 	andeq	r0, r0, fp
    11b8:	0b500001 	bleq	14011c4 <__bss_end__+0x13f7ab4>
    11bc:	14000000 	strne	r0, [r0], #-0
    11c0:	01000000 	mrseq	r0, (UNDEF: 0)
    11c4:	00005400 	andeq	r5, r0, r0, lsl #8
	...
    11d4:	001c0000 	andseq	r0, ip, r0
    11d8:	00010000 	andeq	r0, r1, r0
    11dc:	00001c51 	andeq	r1, r0, r1, asr ip
    11e0:	00003400 	andeq	r3, r0, r0, lsl #8
    11e4:	f3000400 	vshl.u8	d0, d0, d0
    11e8:	009f5101 	addseq	r5, pc, r1, lsl #2
    11ec:	00000000 	andeq	r0, r0, r0
    11f0:	02000000 	andeq	r0, r0, #0, 0
    11f4:	00000000 	andeq	r0, r0, r0
    11f8:	00000101 	andeq	r0, r0, r1, lsl #2
    11fc:	00000000 	andeq	r0, r0, r0
    1200:	00000400 	andeq	r0, r0, r0, lsl #8
    1204:	50000100 	andpl	r0, r0, r0, lsl #2
    1208:	00000004 	andeq	r0, r0, r4
    120c:	0000001c 	andeq	r0, r0, ip, lsl r0
    1210:	1c520001 	mrrcne	0, 0, r0, r2, cr1
    1214:	24000000 	strcs	r0, [r0], #-0
    1218:	01000000 	mrseq	r0, (UNDEF: 0)
    121c:	00245300 	eoreq	r5, r4, r0, lsl #6
    1220:	00280000 	eoreq	r0, r8, r0
    1224:	00030000 	andeq	r0, r3, r0
    1228:	289f0173 	ldmcs	pc, {r0, r1, r4, r5, r6, r8}	; <UNPREDICTABLE>
    122c:	34000000 	strcc	r0, [r0], #-0
    1230:	01000000 	mrseq	r0, (UNDEF: 0)
    1234:	00005300 	andeq	r5, r0, r0, lsl #6
    1238:	00000000 	andeq	r0, r0, r0
    123c:	00030000 	andeq	r0, r3, r0
    1240:	00000000 	andeq	r0, r0, r0
    1244:	00240000 	eoreq	r0, r4, r0
    1248:	00010000 	andeq	r0, r1, r0
    124c:	00002451 	andeq	r2, r0, r1, asr r4
    1250:	00003400 	andeq	r3, r0, r0, lsl #8
    1254:	71000300 	mrsvc	r0, LR_irq
    1258:	00009f7f 	andeq	r9, r0, pc, ror pc
	...
    1264:	00100000 	andseq	r0, r0, r0
    1268:	001c0000 	andseq	r0, ip, r0
    126c:	00010000 	andeq	r0, r1, r0
    1270:	0000245c 	andeq	r2, r0, ip, asr r4
    1274:	00003400 	andeq	r3, r0, r0, lsl #8
    1278:	52000100 	andpl	r0, r0, #0
	...
    128c:	00000018 	andeq	r0, r0, r8, lsl r0
    1290:	18500001 	ldmdane	r0, {r0}^
    1294:	24000000 	strcs	r0, [r0], #-0
    1298:	01000000 	mrseq	r0, (UNDEF: 0)
    129c:	00005000 	andeq	r5, r0, r0
	...
    12ac:	001c0000 	andseq	r0, ip, r0
    12b0:	00010000 	andeq	r0, r1, r0
    12b4:	00001c51 	andeq	r1, r0, r1, asr ip
    12b8:	00002c00 	andeq	r2, r0, r0, lsl #24
    12bc:	51000100 	mrspl	r0, (UNDEF: 16)
	...
    12d0:	00040000 	andeq	r0, r4, r0
    12d4:	00010000 	andeq	r0, r1, r0
    12d8:	00000451 	andeq	r0, r0, r1, asr r4
    12dc:	00000c00 	andeq	r0, r0, r0, lsl #24
    12e0:	51000100 	mrspl	r0, (UNDEF: 16)
    12e4:	0000000c 	andeq	r0, r0, ip
    12e8:	00000020 	andeq	r0, r0, r0, lsr #32
    12ec:	7f710003 	svcvc	0x00710003
    12f0:	0000009f 	muleq	r0, pc, r0	; <UNPREDICTABLE>
    12f4:	00000000 	andeq	r0, r0, r0
    12f8:	00000200 	andeq	r0, r0, r0, lsl #4
    12fc:	00000000 	andeq	r0, r0, r0
    1300:	04000000 	streq	r0, [r0], #-0
    1304:	01000000 	mrseq	r0, (UNDEF: 0)
    1308:	00045000 	andeq	r5, r4, r0
    130c:	00140000 	andseq	r0, r4, r0
    1310:	00010000 	andeq	r0, r1, r0
    1314:	0000145c 	andeq	r1, r0, ip, asr r4
    1318:	00002000 	andeq	r2, r0, r0
    131c:	7c000300 	stcvc	3, cr0, [r0], {-0}
    1320:	00009f7f 	andeq	r9, r0, pc, ror pc
    1324:	00000000 	andeq	r0, r0, r0
    1328:	03000000 	movweq	r0, #0
    132c:	90500003 	subsls	r0, r0, r3
    1330:	90500000 	subsls	r0, r0, r0
    1334:	00010000 	andeq	r0, r1, r0
    1338:	00905050 	addseq	r5, r0, r0, asr r0
    133c:	00907c00 	addseq	r7, r0, r0, lsl #24
    1340:	f3000400 	vshl.u8	d0, d0, d0
    1344:	009f5001 	addseq	r5, pc, r1
	...
    1350:	50000303 	andpl	r0, r0, r3, lsl #6
    1354:	50000090 	mulpl	r0, r0, r0
    1358:	01000090 	swpeq	r0, r0, [r0]	; <UNPREDICTABLE>
    135c:	90505100 	subsls	r5, r0, r0, lsl #2
    1360:	907c0000 	rsbsls	r0, ip, r0
    1364:	00040000 	andeq	r0, r4, r0
    1368:	9f5101f3 	svcls	0x005101f3
	...
    1374:	00030300 	andeq	r0, r3, r0, lsl #6
    1378:	90500000 	subsls	r0, r0, r0
    137c:	90500000 	subsls	r0, r0, r0
    1380:	00010000 	andeq	r0, r1, r0
    1384:	00905052 	addseq	r5, r0, r2, asr r0
    1388:	00905800 	addseq	r5, r0, r0, lsl #16
    138c:	52000100 	andpl	r0, r0, #0
    1390:	00009058 	andeq	r9, r0, r8, asr r0
    1394:	0000907c 	andeq	r9, r0, ip, ror r0
    1398:	01720003 	cmneq	r2, r3
    139c:	0000009f 	muleq	r0, pc, r0	; <UNPREDICTABLE>
    13a0:	00000000 	andeq	r0, r0, r0
    13a4:	01010200 	mrseq	r0, R9_usr
    13a8:	00000000 	andeq	r0, r0, r0
    13ac:	00905000 	addseq	r5, r0, r0
    13b0:	00905c00 	addseq	r5, r0, r0, lsl #24
    13b4:	50000100 	andpl	r0, r0, r0, lsl #2
    13b8:	0000905c 	andeq	r9, r0, ip, asr r0
    13bc:	00009060 	andeq	r9, r0, r0, rrx
    13c0:	01700003 	cmneq	r0, r3
    13c4:	0090609f 	umullseq	r6, r0, pc, r0	; <UNPREDICTABLE>
    13c8:	00907000 	addseq	r7, r0, r0
    13cc:	50000100 	andpl	r0, r0, r0, lsl #2
    13d0:	00009074 	andeq	r9, r0, r4, ror r0
    13d4:	00009078 	andeq	r9, r0, r8, ror r0
    13d8:	00500001 	subseq	r0, r0, r1
    13dc:	00000000 	andeq	r0, r0, r0
    13e0:	02000000 	andeq	r0, r0, #0, 0
    13e4:	00000000 	andeq	r0, r0, r0
    13e8:	00905000 	addseq	r5, r0, r0
    13ec:	00906000 	addseq	r6, r0, r0
    13f0:	51000100 	mrspl	r0, (UNDEF: 16)
    13f4:	00009060 	andeq	r9, r0, r0, rrx
    13f8:	00009064 	andeq	r9, r0, r4, rrx
    13fc:	01710003 	cmneq	r1, r3
    1400:	0090649f 	umullseq	r6, r0, pc, r4	; <UNPREDICTABLE>
    1404:	00907c00 	addseq	r7, r0, r0, lsl #24
    1408:	51000100 	mrspl	r0, (UNDEF: 16)
	...

Disassembly of section .debug_aranges:

00000000 <.debug_aranges>:
   0:	0000001c 	andeq	r0, r0, ip, lsl r0
   4:	00000002 	andeq	r0, r0, r2
   8:	00040000 	andeq	r0, r4, r0
   c:	00000000 	andeq	r0, r0, r0
  10:	00008020 	andeq	r8, r0, r0, lsr #32
  14:	00000098 	muleq	r0, r8, r0
	...
  20:	0000001c 	andeq	r0, r0, ip, lsl r0
  24:	02930002 	addseq	r0, r3, #2, 0
  28:	00040000 	andeq	r0, r4, r0
  2c:	00000000 	andeq	r0, r0, r0
  30:	000080b8 	strheq	r8, [r0], -r8	; <UNPREDICTABLE>
  34:	00000138 	andeq	r0, r0, r8, lsr r1
	...
  40:	0000001c 	andeq	r0, r0, ip, lsl r0
  44:	06560002 	ldrbeq	r0, [r6], -r2
  48:	00040000 	andeq	r0, r4, r0
  4c:	00000000 	andeq	r0, r0, r0
  50:	000081f0 	strdeq	r8, [r0], -r0
  54:	00000058 	andeq	r0, r0, r8, asr r0
	...
  60:	0000001c 	andeq	r0, r0, ip, lsl r0
  64:	07f70002 	ldrbeq	r0, [r7, r2]!
  68:	00040000 	andeq	r0, r4, r0
  6c:	00000000 	andeq	r0, r0, r0
  70:	00008248 	andeq	r8, r0, r8, asr #4
  74:	00000034 	andeq	r0, r0, r4, lsr r0
	...
  80:	0000001c 	andeq	r0, r0, ip, lsl r0
  84:	08ee0002 	stmiaeq	lr!, {r1}^
  88:	00040000 	andeq	r0, r4, r0
  8c:	00000000 	andeq	r0, r0, r0
  90:	0000827c 	andeq	r8, r0, ip, ror r2
  94:	00000720 	andeq	r0, r0, r0, lsr #14
	...
  a0:	0000001c 	andeq	r0, r0, ip, lsl r0
  a4:	13870002 	orrne	r0, r7, #2, 0
  a8:	00040000 	andeq	r0, r4, r0
  ac:	00000000 	andeq	r0, r0, r0
  b0:	0000899c 	muleq	r0, ip, r9
  b4:	0000002c 	andeq	r0, r0, ip, lsr #32
	...
  c0:	0000001c 	andeq	r0, r0, ip, lsl r0
  c4:	14ba0002 	ldrtne	r0, [sl], #2
  c8:	00040000 	andeq	r0, r4, r0
  cc:	00000000 	andeq	r0, r0, r0
  d0:	000089c8 	andeq	r8, r0, r8, asr #19
  d4:	0000002c 	andeq	r0, r0, ip, lsr #32
	...
  e0:	0000001c 	andeq	r0, r0, ip, lsl r0
  e4:	16010002 	strne	r0, [r1], -r2
  e8:	00040000 	andeq	r0, r4, r0
  ec:	00000000 	andeq	r0, r0, r0
  f0:	000089f4 	strdeq	r8, [r0], -r4
  f4:	0000007c 	andeq	r0, r0, ip, ror r0
	...
 100:	0000001c 	andeq	r0, r0, ip, lsl r0
 104:	18250002 	stmdane	r5!, {r1}
 108:	00040000 	andeq	r0, r4, r0
 10c:	00000000 	andeq	r0, r0, r0
 110:	00008a70 	andeq	r8, r0, r0, ror sl
 114:	00000084 	andeq	r0, r0, r4, lsl #1
	...
 120:	0000001c 	andeq	r0, r0, ip, lsl r0
 124:	1a760002 	bne	1d80134 <__bss_end__+0x1d76a24>
 128:	00040000 	andeq	r0, r4, r0
 12c:	00000000 	andeq	r0, r0, r0
 130:	00008af4 	strdeq	r8, [r0], -r4
 134:	000001ac 	andeq	r0, r0, ip, lsr #3
	...
 140:	0000001c 	andeq	r0, r0, ip, lsl r0
 144:	1fe20002 	svcne	0x00e20002
 148:	00040000 	andeq	r0, r4, r0
 14c:	00000000 	andeq	r0, r0, r0
 150:	00008ca0 	andeq	r8, r0, r0, lsr #25
 154:	00000148 	andeq	r0, r0, r8, asr #2
	...
 160:	0000001c 	andeq	r0, r0, ip, lsl r0
 164:	23d40002 	bicscs	r0, r4, #2, 0
 168:	00040000 	andeq	r0, r4, r0
 16c:	00000000 	andeq	r0, r0, r0
 170:	00008de8 	andeq	r8, r0, r8, ror #27
 174:	000001ac 	andeq	r0, r0, ip, lsr #3
	...
 180:	0000001c 	andeq	r0, r0, ip, lsl r0
 184:	28fc0002 	ldmcs	ip!, {r1}^
 188:	00040000 	andeq	r0, r4, r0
 18c:	00000000 	andeq	r0, r0, r0
 190:	00008f94 	muleq	r0, r4, pc	; <UNPREDICTABLE>
 194:	0000003c 	andeq	r0, r0, ip, lsr r0
	...
 1a0:	0000001c 	andeq	r0, r0, ip, lsl r0
 1a4:	2a490002 	bcs	12401b4 <__bss_end__+0x1236aa4>
 1a8:	00040000 	andeq	r0, r4, r0
 1ac:	00000000 	andeq	r0, r0, r0
 1b0:	00008fd0 	ldrdeq	r8, [r0], -r0
 1b4:	00000034 	andeq	r0, r0, r4, lsr r0
	...
 1c0:	0000001c 	andeq	r0, r0, ip, lsl r0
 1c4:	2b840002 	blcs	fe1001d4 <__bss_end__+0xfe0f6ac4>
 1c8:	00040000 	andeq	r0, r4, r0
 1cc:	00000000 	andeq	r0, r0, r0
 1d0:	00009004 	andeq	r9, r0, r4
 1d4:	0000002c 	andeq	r0, r0, ip, lsr #32
	...
 1e0:	0000001c 	andeq	r0, r0, ip, lsl r0
 1e4:	2c7f0002 	ldclcs	0, cr0, [pc], #-8	; 1e4 <__code_start__-0x7e1c>
 1e8:	00040000 	andeq	r0, r4, r0
 1ec:	00000000 	andeq	r0, r0, r0
 1f0:	00009030 	andeq	r9, r0, r0, lsr r0
 1f4:	00000020 	andeq	r0, r0, r0, lsr #32
	...
 200:	0000001c 	andeq	r0, r0, ip, lsl r0
 204:	2d920002 	ldccs	0, cr0, [r2, #8]
 208:	00040000 	andeq	r0, r4, r0
 20c:	00000000 	andeq	r0, r0, r0
 210:	00009050 	andeq	r9, r0, r0, asr r0
 214:	0000002c 	andeq	r0, r0, ip, lsr #32
	...

Disassembly of section .debug_line:

00000000 <.debug_line>:
       0:	000000e4 	andeq	r0, r0, r4, ror #1
       4:	00650003 	rsbeq	r0, r5, r3
       8:	01020000 	mrseq	r0, (UNDEF: 2)
       c:	000d0efb 	strdeq	r0, [sp], -fp
      10:	01010101 	tsteq	r1, r1, lsl #2
      14:	01000000 	mrseq	r0, (UNDEF: 0)
      18:	2f010000 	svccs	0x00010000
      1c:	72657355 	rsbvc	r7, r5, #1409286145	; 0x54000001
      20:	64612f73 	strbtvs	r2, [r1], #-3955	; 0xfffff08d
      24:	2f6e696d 	svccs	0x006e696d
      28:	342d5343 	strtcc	r5, [sp], #-835	; 0xfffffcbd
      2c:	632f4e39 			; <UNDEFINED> instruction: 0x632f4e39
      30:	6e393473 	mrcvs	4, 1, r3, cr9, cr3, {3}
      34:	6131322d 	teqvs	r1, sp, lsr #4
      38:	2f2f7475 	svccs	0x002f7475
      3c:	7062696c 	rsbvc	r6, r2, ip, ror #18
      40:	6e692f69 	cdpvs	15, 6, cr2, cr9, cr9, {3}
      44:	64756c63 	ldrbtvs	r6, [r5], #-3171	; 0xfffff39d
      48:	31000065 	tstcc	r0, r5, rrx
      4c:	6e6f732d 	cdpvs	3, 6, cr7, cr15, cr13, {1}
      50:	632e7261 			; <UNDEFINED> instruction: 0x632e7261
      54:	00000000 	andeq	r0, r0, r0
      58:	2e697072 	mcrcs	0, 3, r7, cr9, cr2, {3}
      5c:	00010068 	andeq	r0, r1, r8, rrx
      60:	2d636800 	stclcs	8, cr6, [r3, #-0]
      64:	34307273 	ldrtcc	r7, [r0], #-627	; 0xfffffd8d
      68:	0000682e 	andeq	r6, r0, lr, lsr #16
      6c:	05000000 	streq	r0, [r0, #-0]
      70:	02050014 	andeq	r0, r5, #20, 0
      74:	00008020 	andeq	r8, r0, r0, lsr #32
      78:	4b020519 	blmi	814e4 <__bss_end__+0x77dd4>
      7c:	05840505 	streq	r0, [r4, #1285]	; 0x505
      80:	05010613 	streq	r0, [r1, #-1555]	; 0xfffff9ed
      84:	05830602 	streq	r0, [r3, #1538]	; 0x602
      88:	09054c05 	stmdbeq	r5, {r0, r2, sl, fp, lr}
      8c:	06210501 	strteq	r0, [r1], -r1, lsl #10
      90:	2e050501 	cfsh32cs	mvfx0, mvfx5, #1
      94:	32060d05 	andcc	r0, r6, #320	; 0x140
      98:	0e052e06 	cdpeq	14, 0, cr2, cr5, cr6, {0}
      9c:	17052d06 	strne	r2, [r5, -r6, lsl #26]
      a0:	0e050106 	adfeqs	f0, f5, f6
      a4:	00090582 	andeq	r0, r9, r2, lsl #11
      a8:	06020402 	streq	r0, [r2], -r2, lsl #8
      ac:	0402004c 	streq	r0, [r2], #-76	; 0xffffffb4
      b0:	002e0602 	eoreq	r0, lr, r2, lsl #12
      b4:	06020402 	streq	r0, [r2], -r2, lsl #8
      b8:	00300530 	eorseq	r0, r0, r0, lsr r5
      bc:	03020402 	movweq	r0, #9218	; 0x2402
      c0:	31054a79 	tstcc	r5, r9, ror sl
      c4:	02040200 	andeq	r0, r4, #0, 4
      c8:	28050106 	stmdacs	r5, {r1, r2, r8}
      cc:	01040200 	mrseq	r0, R12_usr
      d0:	05052e06 	streq	r2, [r5, #-3590]	; 0xfffff1fa
      d4:	01040200 	mrseq	r0, R12_usr
      d8:	02050106 	andeq	r0, r5, #-2147483647	; 0x80000001
      dc:	4a090306 	bmi	240cfc <__bss_end__+0x2375ec>
      e0:	024b0505 	subeq	r0, fp, #20971520	; 0x1400000
      e4:	0101000e 	tsteq	r1, lr
      e8:	00000141 	andeq	r0, r0, r1, asr #2
      ec:	00750003 	rsbseq	r0, r5, r3
      f0:	01020000 	mrseq	r0, (UNDEF: 2)
      f4:	000d0efb 	strdeq	r0, [sp], -fp
      f8:	01010101 	tsteq	r1, r1, lsl #2
      fc:	01000000 	mrseq	r0, (UNDEF: 0)
     100:	2e010000 	cdpcs	0, 0, cr0, cr1, cr0, {0}
     104:	6372732f 	cmnvs	r2, #-1140850688	; 0xbc000000
     108:	73552f00 	cmpvc	r5, #0, 30
     10c:	2f737265 	svccs	0x00737265
     110:	696d6461 	stmdbvs	sp!, {r0, r5, r6, sl, sp, lr}^
     114:	53432f6e 	movtpl	r2, #16238	; 0x3f6e
     118:	4e39342d 	cdpmi	4, 3, cr3, cr9, cr13, {1}
     11c:	3473632f 	ldrbtcc	r6, [r3], #-815	; 0xfffffcd1
     120:	322d6e39 	eorcc	r6, sp, #912	; 0x390
     124:	74756131 	ldrbtvc	r6, [r5], #-305	; 0xfffffecf
     128:	696c2f2f 	stmdbvs	ip!, {r0, r1, r2, r3, r5, r8, r9, sl, fp, sp}^
     12c:	2f697062 	svccs	0x00697062
     130:	6c636e69 	stclvs	14, cr6, [r3], #-420	; 0xfffffe5c
     134:	00656475 	rsbeq	r6, r5, r5, ror r4
     138:	2d726800 	ldclcs	8, cr6, [r2, #-0]
     13c:	34307273 	ldrtcc	r7, [r0], #-627	; 0xfffffd8d
     140:	0100632e 	tsteq	r0, lr, lsr #6
     144:	70720000 	rsbsvc	r0, r2, r0
     148:	00682e69 	rsbeq	r2, r8, r9, ror #28
     14c:	68000002 	stmdavs	r0, {r1}
     150:	72732d63 	rsbsvc	r2, r3, #6336	; 0x18c0
     154:	682e3430 	stmdavs	lr!, {r4, r5, sl, ip, sp}
     158:	00000200 	andeq	r0, r0, r0, lsl #4
     15c:	6f697067 	svcvs	0x00697067
     160:	0200682e 	andeq	r6, r0, #3014656	; 0x2e0000
     164:	05000000 	streq	r0, [r0, #-0]
     168:	02050035 	andeq	r0, r5, #53, 0	; 0x35
     16c:	000080b8 	strheq	r8, [r0], -r8	; <UNPREDICTABLE>
     170:	05010618 	streq	r0, [r1, #-1560]	; 0xfffff9e8
     174:	05830605 	streq	r0, [r3, #1541]	; 0x605
     178:	2e01061a 	mcrcs	6, 0, r0, cr1, cr10, {0}
     17c:	2f060505 	svccs	0x00060505
     180:	05130905 	ldreq	r0, [r3, #-2309]	; 0xfffff6fb
     184:	0501060d 	streq	r0, [r1, #-1549]	; 0xfffff9f3
     188:	09054a0c 	stmdbeq	r5, {r2, r3, r9, fp, lr}
     18c:	0e054c06 	cdpeq	12, 0, cr4, cr5, cr6, {0}
     190:	1f050106 	svcne	0x00050106
     194:	2e0c052e 	cfsh32cs	mvfx0, mvfx12, #30
     198:	484b1405 	stmdami	fp, {r0, r2, sl, ip}^
     19c:	05320105 	ldreq	r0, [r2, #-261]!	; 0xfffffefb
     1a0:	12030639 	andne	r0, r3, #59768832	; 0x3900000
     1a4:	6601062e 	strvs	r0, [r1], -lr, lsr #12
     1a8:	2f060505 	svccs	0x00060505
     1ac:	01060f05 	tsteq	r6, r5, lsl #30
     1b0:	4c060505 	cfstr32mi	mvfx0, [r6], {5}
     1b4:	054c4b2f 	strbeq	r4, [ip, #-2863]	; 0xfffff4d1
     1b8:	05130601 	ldreq	r0, [r3, #-1537]	; 0xfffff9ff
     1bc:	1403063e 	strne	r0, [r3], #-1598	; 0xfffff9c2
     1c0:	0501064a 	streq	r0, [r1, #-1610]	; 0xfffff9b6
     1c4:	059f0605 	ldreq	r0, [pc, #1541]	; 7d1 <__code_start__-0x782f>
     1c8:	0501060e 	streq	r0, [r1, #-1550]	; 0xfffff9f2
     1cc:	052f0605 	streq	r0, [pc, #-1541]!	; fffffbcf <__bss_end__+0xffff64bf>
     1d0:	0501060e 	streq	r0, [r1, #-1550]	; 0xfffff9f2
     1d4:	4b2f0605 	blmi	bc19f0 <__bss_end__+0xbb82e0>
     1d8:	0a054b4b 	beq	152f0c <__bss_end__+0x1497fc>
     1dc:	08050106 	stmdaeq	r5, {r1, r2, r8}
     1e0:	06050582 	streq	r0, [r5], -r2, lsl #11
     1e4:	061a054e 	ldreq	r0, [sl], -lr, asr #10
     1e8:	06050501 	streq	r0, [r5], -r1, lsl #10
     1ec:	0609054b 	streq	r0, [r9], -fp, asr #10
     1f0:	08056601 	stmdaeq	r5, {r0, r9, sl, sp, lr}
     1f4:	0609052e 	streq	r0, [r9], -lr, lsr #10
     1f8:	061d054b 	ldreq	r0, [sp], -fp, asr #10
     1fc:	06090501 	streq	r0, [r9], -r1, lsl #10
     200:	062e064b 	strteq	r0, [lr], -fp, asr #12
     204:	061b052f 	ldreq	r0, [fp], -pc, lsr #10
     208:	2e280501 	cfsh64cs	mvdx0, mvdx8, #1
     20c:	01054a4a 	tsteq	r5, sl, asr #20
     210:	09052e18 	stmdbeq	r5, {r3, r4, r9, sl, fp, sp}
     214:	2e730306 	cdpcs	3, 7, cr0, cr3, cr6, {0}
     218:	0610054b 	ldreq	r0, [r0], -fp, asr #10
     21c:	06090501 	streq	r0, [r9], -r1, lsl #10
     220:	4b4a0903 	blmi	1282634 <__bss_end__+0x1278f24>
     224:	01061005 	tsteq	r6, r5
     228:	01000602 	tsteq	r0, r2, lsl #12
     22c:	00011501 	andeq	r1, r1, r1, lsl #10
     230:	e3000300 	movw	r0, #768	; 0x300
     234:	02000000 	andeq	r0, r0, #0, 0
     238:	0d0efb01 	vstreq	d15, [lr, #-4]
     23c:	01010100 	mrseq	r0, (UNDEF: 17)
     240:	00000001 	andeq	r0, r0, r1
     244:	01000001 	tsteq	r0, r1
     248:	696c2f2e 	stmdbvs	ip!, {r1, r2, r3, r5, r8, r9, sl, fp, sp}^
     24c:	2f006362 	svccs	0x00006362
     250:	2f74706f 	svccs	0x0074706f
     254:	656d6f68 	strbvs	r6, [sp, #-3944]!	; 0xfffff098
     258:	77657262 	strbvc	r7, [r5, -r2, ror #4]!
     25c:	6c65432f 	stclvs	3, cr4, [r5], #-188	; 0xffffff44
     260:	2f72616c 	svccs	0x0072616c
     264:	2d6d7261 	sfmcs	f7, 2, [sp, #-388]!	; 0xfffffe7c
     268:	656e6f6e 	strbvs	r6, [lr, #-3950]!	; 0xfffff092
     26c:	6261652d 	rsbvs	r6, r1, #188743680	; 0xb400000
     270:	65742d69 	ldrbvs	r2, [r4, #-3433]!	; 0xfffff297
     274:	392f7473 	stmdbcc	pc!, {r0, r1, r4, r5, r6, sl, ip, sp, lr}	; <UNPREDICTABLE>
     278:	3130322d 	teqcc	r0, sp, lsr #4
     27c:	2d347139 	ldfcss	f7, [r4, #-228]!	; 0xffffff1c
     280:	30317363 	eorscc	r7, r1, r3, ror #6
     284:	6c2f6537 	cfstr32vs	mvfx6, [pc], #-220	; 1b0 <__code_start__-0x7e50>
     288:	672f6269 	strvs	r6, [pc, -r9, ror #4]!
     28c:	612f6363 			; <UNDEFINED> instruction: 0x612f6363
     290:	6e2d6d72 	mcrvs	13, 1, r6, cr13, cr2, {3}
     294:	2d656e6f 	stclcs	14, cr6, [r5, #-444]!	; 0xfffffe44
     298:	69626165 	stmdbvs	r2!, {r0, r2, r5, r6, r8, sp, lr}^
     29c:	322e392f 	eorcc	r3, lr, #770048	; 0xbc000
     2a0:	692f312e 	stmdbvs	pc!, {r1, r2, r3, r5, r8, ip, sp}	; <UNPREDICTABLE>
     2a4:	756c636e 	strbvc	r6, [ip, #-878]!	; 0xfffffc92
     2a8:	2f006564 	svccs	0x00006564
     2ac:	72657355 	rsbvc	r7, r5, #1409286145	; 0x54000001
     2b0:	64612f73 	strbtvs	r2, [r1], #-3955	; 0xfffff08d
     2b4:	2f6e696d 	svccs	0x006e696d
     2b8:	342d5343 	strtcc	r5, [sp], #-835	; 0xfffffcbd
     2bc:	632f4e39 			; <UNDEFINED> instruction: 0x632f4e39
     2c0:	6e393473 	mrcvs	4, 1, r3, cr9, cr3, {3}
     2c4:	6131322d 	teqvs	r1, sp, lsr #4
     2c8:	2f2f7475 	svccs	0x002f7475
     2cc:	7062696c 	rsbvc	r6, r2, ip, ror #18
     2d0:	6e692f69 	cdpvs	15, 6, cr2, cr9, cr9, {3}
     2d4:	64756c63 	ldrbtvs	r6, [r5], #-3171	; 0xfffff39d
     2d8:	70000065 	andvc	r0, r0, r5, rrx
     2dc:	746e6972 	strbtvc	r6, [lr], #-2418	; 0xfffff68e
     2e0:	00632e6b 	rsbeq	r2, r3, fp, ror #28
     2e4:	73000001 	movwvc	r0, #1
     2e8:	72616474 	rsbvc	r6, r1, #116, 8	; 0x74000000
     2ec:	00682e67 	rsbeq	r2, r8, r7, ror #28
     2f0:	72000002 	andvc	r0, r0, #2, 0
     2f4:	682e6970 	stmdavs	lr!, {r4, r5, r6, r8, fp, sp, lr}
     2f8:	00000300 	andeq	r0, r0, r0, lsl #6
     2fc:	6975623c 	ldmdbvs	r5!, {r2, r3, r4, r5, r9, sp, lr}^
     300:	692d746c 	pushvs	{r2, r3, r5, r6, sl, ip, sp, lr}
     304:	00003e6e 	andeq	r3, r0, lr, ror #28
     308:	61760000 	cmnvs	r6, r0
     30c:	6972702d 	ldmdbvs	r2!, {r0, r2, r3, r5, ip, sp, lr}^
     310:	2e6b746e 	cdpcs	4, 6, cr7, cr11, cr14, {3}
     314:	00010068 	andeq	r0, r1, r8, rrx
     318:	22050000 	andcs	r0, r5, #0, 0
     31c:	f0020500 			; <UNDEFINED> instruction: 0xf0020500
     320:	17000081 	strne	r0, [r0, -r1, lsl #1]
     324:	05050106 	streq	r0, [r5, #-262]	; 0xfffffefa
     328:	14136806 	ldrne	r6, [r3], #-2054	; 0xfffff7fa
     32c:	054b0905 	strbeq	r0, [fp, #-2309]	; 0xfffff6fb
     330:	05010612 	streq	r0, [r1, #-1554]	; 0xfffff9ee
     334:	16bb0605 	ldrtne	r0, [fp], r5, lsl #12
     338:	34066606 	strcc	r6, [r6], #-1542	; 0xfffff9fa
     33c:	13060105 	movwne	r0, #24837	; 0x6105
     340:	00080266 	andeq	r0, r8, r6, ror #4
     344:	00aa0101 	adceq	r0, sl, r1, lsl #2
     348:	00030000 	andeq	r0, r3, r0
     34c:	0000005c 	andeq	r0, r0, ip, asr r0
     350:	0efb0102 	cdpeq	1, 15, cr0, cr11, cr2, {0}
     354:	0101000d 	tsteq	r1, sp
     358:	00000101 	andeq	r0, r0, r1, lsl #2
     35c:	00000100 	andeq	r0, r0, r0, lsl #2
     360:	6c2f2e01 	stcvs	14, cr2, [pc], #-4	; 364 <__code_start__-0x7c9c>
     364:	00636269 	rsbeq	r6, r3, r9, ror #4
     368:	6573552f 	ldrbvs	r5, [r3, #-1327]!	; 0xfffffad1
     36c:	612f7372 			; <UNDEFINED> instruction: 0x612f7372
     370:	6e696d64 	cdpvs	13, 6, cr6, cr9, cr4, {3}
     374:	2d53432f 	ldclcs	3, cr4, [r3, #-188]	; 0xffffff44
     378:	2f4e3934 	svccs	0x004e3934
     37c:	39347363 	ldmdbcc	r4!, {r0, r1, r5, r6, r8, r9, ip, sp, lr}
     380:	31322d6e 	teqcc	r2, lr, ror #26
     384:	2f747561 	svccs	0x00747561
     388:	62696c2f 	rsbvs	r6, r9, #12032	; 0x2f00
     38c:	692f6970 	stmdbvs	pc!, {r4, r5, r6, r8, fp, sp, lr}	; <UNPREDICTABLE>
     390:	756c636e 	strbvc	r6, [ip, #-878]!	; 0xfffffc92
     394:	00006564 	andeq	r6, r0, r4, ror #10
     398:	6b747570 	blvs	1d1d960 <__bss_end__+0x1d14250>
     39c:	0100632e 	tsteq	r0, lr, lsr #6
     3a0:	70720000 	rsbsvc	r0, r2, r0
     3a4:	00682e69 	rsbeq	r2, r8, r9, ror #28
     3a8:	00000002 	andeq	r0, r0, r2
     3ac:	05002205 	streq	r2, [r0, #-517]	; 0xfffffdfb
     3b0:	00824802 	addeq	r4, r2, r2, lsl #16
     3b4:	01061500 	tsteq	r6, r0, lsl #10
     3b8:	4b060505 	blmi	1817d4 <__bss_end__+0x1780c4>
     3bc:	02000b05 	andeq	r0, r0, #5120	; 0x1400
     3c0:	05010104 	streq	r0, [r1, #-260]	; 0xfffffefc
     3c4:	04020005 	streq	r0, [r2], #-5
     3c8:	052e0601 	streq	r0, [lr, #-1537]!	; 0xfffff9ff
     3cc:	04020009 	streq	r0, [r2], #-9
     3d0:	054b0602 	strbeq	r0, [fp, #-1538]	; 0xfffff9fe
     3d4:	0402000f 	streq	r0, [r2], #-15
     3d8:	10056502 	andne	r6, r5, r2, lsl #10
     3dc:	02040200 	andeq	r0, r4, #0, 4
     3e0:	02000106 	andeq	r0, r0, #-2147483647	; 0x80000001
     3e4:	052e0204 	streq	r0, [lr, #-516]!	; 0xfffffdfc
     3e8:	05320605 	ldreq	r0, [r2, #-1541]!	; 0xfffff9fb
     3ec:	02130601 	andseq	r0, r3, #1048576	; 0x100000
     3f0:	01010006 	tsteq	r1, r6
     3f4:	000005f5 	strdeq	r0, [r0], -r5
     3f8:	00f90003 	rscseq	r0, r9, r3
     3fc:	01020000 	mrseq	r0, (UNDEF: 2)
     400:	000d0efb 	strdeq	r0, [sp], -fp
     404:	01010101 	tsteq	r1, r1, lsl #2
     408:	01000000 	mrseq	r0, (UNDEF: 0)
     40c:	2e010000 	cdpcs	0, 0, cr0, cr1, cr0, {0}
     410:	62696c2f 	rsbvs	r6, r9, #12032	; 0x2f00
     414:	6f2f0063 	svcvs	0x002f0063
     418:	682f7470 	stmdavs	pc!, {r4, r5, r6, sl, ip, sp, lr}	; <UNPREDICTABLE>
     41c:	62656d6f 	rsbvs	r6, r5, #7104	; 0x1bc0
     420:	2f776572 	svccs	0x00776572
     424:	6c6c6543 	cfstr64vs	mvdx6, [ip], #-268	; 0xfffffef4
     428:	612f7261 			; <UNDEFINED> instruction: 0x612f7261
     42c:	6e2d6d72 	mcrvs	13, 1, r6, cr13, cr2, {3}
     430:	2d656e6f 	stclcs	14, cr6, [r5, #-444]!	; 0xfffffe44
     434:	69626165 	stmdbvs	r2!, {r0, r2, r5, r6, r8, sp, lr}^
     438:	7365742d 	cmnvc	r5, #754974720	; 0x2d000000
     43c:	2d392f74 	ldccs	15, cr2, [r9, #-464]!	; 0xfffffe30
     440:	39313032 	ldmdbcc	r1!, {r1, r4, r5, ip, sp}
     444:	632d3471 			; <UNDEFINED> instruction: 0x632d3471
     448:	37303173 			; <UNDEFINED> instruction: 0x37303173
     44c:	696c2f65 	stmdbvs	ip!, {r0, r2, r5, r6, r8, r9, sl, fp, sp}^
     450:	63672f62 	cmnvs	r7, #392	; 0x188
     454:	72612f63 	rsbvc	r2, r1, #396	; 0x18c
     458:	6f6e2d6d 	svcvs	0x006e2d6d
     45c:	652d656e 	strvs	r6, [sp, #-1390]!	; 0xfffffa92
     460:	2f696261 	svccs	0x00696261
     464:	2e322e39 	mrccs	14, 1, r2, cr2, cr9, {1}
     468:	6e692f31 	mcrvs	15, 3, r2, cr9, cr1, {1}
     46c:	64756c63 	ldrbtvs	r6, [r5], #-3171	; 0xfffff39d
     470:	552f0065 	strpl	r0, [pc, #-101]!	; 413 <__code_start__-0x7bed>
     474:	73726573 	cmnvc	r2, #482344960	; 0x1cc00000
     478:	6d64612f 	stfvse	f6, [r4, #-188]!	; 0xffffff44
     47c:	432f6e69 			; <UNDEFINED> instruction: 0x432f6e69
     480:	39342d53 	ldmdbcc	r4!, {r0, r1, r4, r6, r8, sl, fp, sp}
     484:	73632f4e 	cmnvc	r3, #312	; 0x138
     488:	2d6e3934 			; <UNDEFINED> instruction: 0x2d6e3934
     48c:	75613132 	strbvc	r3, [r1, #-306]!	; 0xfffffece
     490:	6c2f2f74 	stcvs	15, cr2, [pc], #-464	; 2c8 <__code_start__-0x7d38>
     494:	69706269 	ldmdbvs	r0!, {r0, r3, r5, r6, r9, sp, lr}^
     498:	636e692f 	cmnvs	lr, #770048	; 0xbc000
     49c:	6564756c 	strbvs	r7, [r4, #-1388]!	; 0xfffffa94
     4a0:	61760000 	cmnvs	r6, r0
     4a4:	6972702d 	ldmdbvs	r2!, {r0, r2, r3, r5, ip, sp, lr}^
     4a8:	2e6b746e 	cdpcs	4, 6, cr7, cr11, cr14, {3}
     4ac:	00010063 	andeq	r0, r1, r3, rrx
     4b0:	64747300 	ldrbtvs	r7, [r4], #-768	; 0xfffffd00
     4b4:	2d746e69 	ldclcs	14, cr6, [r4, #-420]!	; 0xfffffe5c
     4b8:	2e636367 	cdpcs	3, 6, cr6, cr3, cr7, {3}
     4bc:	00020068 	andeq	r0, r2, r8, rrx
     4c0:	69707200 	ldmdbvs	r0!, {r9, ip, sp, lr}^
     4c4:	0300682e 	movweq	r6, #2094	; 0x82e
     4c8:	70720000 	rsbsvc	r0, r2, r0
     4cc:	6e692d69 	cdpvs	13, 6, cr2, cr9, cr9, {3}
     4d0:	6e726574 	mrcvs	5, 3, r6, cr2, cr4, {3}
     4d4:	682e6c61 	stmdavs	lr!, {r0, r5, r6, sl, fp, sp, lr}
     4d8:	00000300 	andeq	r0, r0, r0, lsl #6
     4dc:	61647473 	smcvs	18243	; 0x4743
     4e0:	682e6772 	stmdavs	lr!, {r1, r4, r5, r6, r8, r9, sl, sp, lr}
     4e4:	00000200 	andeq	r0, r0, r0, lsl #4
     4e8:	6975623c 	ldmdbvs	r5!, {r2, r3, r4, r5, r9, sp, lr}^
     4ec:	692d746c 	pushvs	{r2, r3, r5, r6, sl, ip, sp, lr}
     4f0:	00003e6e 	andeq	r3, r0, lr, ror #28
     4f4:	05000000 	streq	r0, [r0, #-0]
     4f8:	0205001b 	andeq	r0, r5, #27, 0
     4fc:	0000827c 	andeq	r8, r0, ip, ror r2
     500:	05012603 	streq	r2, [r1, #-1539]	; 0xfffff9fd
     504:	2d05011d 	stfcss	f0, [r5, #-116]	; 0xffffff8c
     508:	01050106 	tsteq	r5, r6, lsl #2
     50c:	33054a2e 	movwcc	r4, #23086	; 0x5a2e
     510:	02055106 	andeq	r5, r5, #-2147483647	; 0x80000001
     514:	06060513 			; <UNDEFINED> instruction: 0x06060513
     518:	06020501 	streq	r0, [r2], -r1, lsl #10
     51c:	00080530 	andeq	r0, r8, r0, lsr r5
     520:	01010402 	tsteq	r1, r2, lsl #8
     524:	02000205 	andeq	r0, r0, #1342177280	; 0x50000000
     528:	01060104 	tsteq	r6, r4, lsl #2
     52c:	02000305 	andeq	r0, r0, #335544320	; 0x14000000
     530:	2f060204 	svccs	0x00060204
     534:	02000805 	andeq	r0, r0, #327680	; 0x50000
     538:	01060204 	tsteq	r6, r4, lsl #4
     53c:	02001505 	andeq	r1, r0, #20971520	; 0x1400000
     540:	49060204 	stmdbmi	r6, {r2, r9}
     544:	02001805 	andeq	r1, r0, #327680	; 0x50000
     548:	01060204 	tsteq	r6, r4, lsl #4
     54c:	02040200 	andeq	r0, r4, #0, 4
     550:	0602052e 	streq	r0, [r2], -lr, lsr #10
     554:	06050530 			; <UNDEFINED> instruction: 0x06050530
     558:	06020501 	streq	r0, [r2], -r1, lsl #10
     55c:	0601054b 	streq	r0, [r1], -fp, asr #10
     560:	063e0513 			; <UNDEFINED> instruction: 0x063e0513
     564:	14020531 	strne	r0, [r2], #-1329	; 0xfffffacf
     568:	01060e05 	tsteq	r6, r5, lsl #28
     56c:	052e0605 	streq	r0, [lr, #-1541]!	; 0xfffff9fb
     570:	052f0602 	streq	r0, [pc, #-1538]!	; ffffff76 <__bss_end__+0xffff6866>
     574:	05010604 	streq	r0, [r1, #-1540]	; 0xfffff9fc
     578:	052f0603 	streq	r0, [pc, #-1539]!	; ffffff7d <__bss_end__+0xffff686d>
     57c:	05010611 	streq	r0, [r1, #-1553]	; 0xfffff9ef
     580:	02052e09 	andeq	r2, r5, #144	; 0x90
     584:	05153006 	ldreq	r3, [r5, #-6]
     588:	05010607 	streq	r0, [r1, #-1543]	; 0xfffff9f9
     58c:	0b052e02 	bleq	14bd9c <__bss_end__+0x14268c>
     590:	01040200 	mrseq	r0, R12_usr
     594:	02052e06 	andeq	r2, r5, #96	; 0x60
     598:	01040200 	mrseq	r0, R12_usr
     59c:	03050106 	movweq	r0, #20742	; 0x5106
     5a0:	03040200 	movweq	r0, #16896	; 0x4200
     5a4:	0c052f06 	stceq	15, cr2, [r5], {6}
     5a8:	03040200 	movweq	r0, #16896	; 0x4200
     5ac:	0a050106 	beq	1409cc <__bss_end__+0x1372bc>
     5b0:	03040200 	movweq	r0, #16896	; 0x4200
     5b4:	0017052e 	andseq	r0, r7, lr, lsr #10
     5b8:	06030402 	streq	r0, [r3], -r2, lsl #8
     5bc:	0402002d 	streq	r0, [r2], #-45	; 0xffffffd3
     5c0:	05010603 	streq	r0, [r1, #-1539]	; 0xfffff9fd
     5c4:	05300602 	ldreq	r0, [r0, #-1538]!	; 0xfffff9fe
     5c8:	2e010609 	cfmadd32cs	mvax0, mvfx0, mvfx1, mvfx9
     5cc:	30060205 	andcc	r0, r6, r5, lsl #4
     5d0:	13060105 	movwne	r0, #24837	; 0x6105
     5d4:	31064905 	tstcc	r6, r5, lsl #18
     5d8:	02050106 	andeq	r0, r5, #-2147483647	; 0x80000001
     5dc:	0405a006 	streq	sl, [r5], #-6
     5e0:	03050106 	movweq	r0, #20742	; 0x5106
     5e4:	09052f06 	stmdbeq	r5, {r1, r2, r8, r9, sl, fp, sp}
     5e8:	02050106 	andeq	r0, r5, #-2147483647	; 0x80000001
     5ec:	05133006 	ldreq	r3, [r3, #-6]
     5f0:	0501060b 	streq	r0, [r1, #-1547]	; 0xfffff9f5
     5f4:	06300602 	ldrteq	r0, [r0], -r2, lsl #12
     5f8:	0604052e 	streq	r0, [r4], -lr, lsr #10
     5fc:	13152402 	tstne	r5, #33554432	; 0x2000000
     600:	01060f05 	tsteq	r6, r5, lsl #30
     604:	4a06052e 	bmi	181ac4 <__bss_end__+0x1783b4>
     608:	4b060505 	blmi	181a24 <__bss_end__+0x178314>
     60c:	06090513 			; <UNDEFINED> instruction: 0x06090513
     610:	06050501 	streq	r0, [r5], -r1, lsl #10
     614:	060b052f 	streq	r0, [fp], -pc, lsr #10
     618:	000d0510 	andeq	r0, sp, r0, lsl r5
     61c:	2c010402 	cfstrscs	mvf0, [r1], {2}
     620:	02000405 	andeq	r0, r0, #83886080	; 0x5000000
     624:	34060104 	strcc	r0, [r6], #-260	; 0xfffffefc
     628:	02000505 	andeq	r0, r0, #20971520	; 0x1400000
     62c:	05130104 	ldreq	r0, [r3, #-260]	; 0xfffffefc
     630:	0402001b 	streq	r0, [r2], #-27	; 0xffffffe5
     634:	05010601 	streq	r0, [r1, #-1537]	; 0xfffff9ff
     638:	04020007 	streq	r0, [r2], #-7
     63c:	1805d601 	stmdane	r5, {r0, r9, sl, ip, lr, pc}
     640:	01040200 	mrseq	r0, R12_usr
     644:	000a052e 	andeq	r0, sl, lr, lsr #10
     648:	4a010402 	bmi	41658 <__bss_end__+0x37f48>
     64c:	02000b05 	andeq	r0, r0, #5120	; 0x1400
     650:	2f060104 	svccs	0x00060104
     654:	02000e05 	andeq	r0, r0, #80	; 0x50
     658:	2e060104 	adfcss	f0, f6, f4
     65c:	02000405 	andeq	r0, r0, #83886080	; 0x5000000
     660:	062e0104 	strteq	r0, [lr], -r4, lsl #2
     664:	0606054b 	streq	r0, [r6], -fp, asr #10
     668:	06050501 	streq	r0, [r5], -r1, lsl #10
     66c:	060a052f 	streq	r0, [sl], -pc, lsr #10
     670:	4a070501 	bmi	1c1a7c <__bss_end__+0x1b836c>
     674:	030d052e 	movweq	r0, #54574	; 0xd52e
     678:	054a2e76 	strbeq	r2, [sl, #-3702]	; 0xfffff18a
     67c:	0d050d0b 	stceq	13, cr0, [r5, #-44]	; 0xffffffd4
     680:	01040200 	mrseq	r0, R12_usr
     684:	2e140306 	cdpcs	3, 1, cr0, cr4, cr6, {0}
     688:	02001105 	andeq	r1, r0, #1073741825	; 0x40000001
     68c:	05130104 	ldreq	r0, [r3, #-260]	; 0xfffffefc
     690:	0402002d 	streq	r0, [r2], #-45	; 0xffffffd3
     694:	05010601 	streq	r0, [r1, #-1537]	; 0xfffff9ff
     698:	0402002a 	streq	r0, [r2], #-42	; 0xffffffd6
     69c:	16052e01 	strne	r2, [r5], -r1, lsl #28
     6a0:	01040200 	mrseq	r0, R12_usr
     6a4:	0014054a 	andseq	r0, r4, sl, asr #10
     6a8:	06010402 	streq	r0, [r1], -r2, lsl #8
     6ac:	000d054b 	andeq	r0, sp, fp, asr #10
     6b0:	06010402 	streq	r0, [r1], -r2, lsl #8
     6b4:	04020001 	streq	r0, [r2], #-1
     6b8:	2f064a01 	svccs	0x00064a01
     6bc:	01061205 	tsteq	r6, r5, lsl #4
     6c0:	060d054a 	streq	r0, [sp], -sl, asr #10
     6c4:	0612052f 	ldreq	r0, [r2], -pc, lsr #10
     6c8:	06190501 	ldreq	r0, [r9], -r1, lsl #10
     6cc:	0004054b 	andeq	r0, r4, fp, asr #10
     6d0:	03020402 	movweq	r0, #9218	; 0x2402
     6d4:	02000111 	andeq	r0, r0, #1073741828	; 0x40000004
     6d8:	05010204 	streq	r0, [r1, #-516]	; 0xfffffdfc
     6dc:	04020002 	streq	r0, [r2], #-2
     6e0:	09051502 	stmdbeq	r5, {r1, r8, sl, ip}
     6e4:	02040200 	andeq	r0, r4, #0, 4
     6e8:	02000106 	andeq	r0, r0, #-2147483647	; 0x80000001
     6ec:	054a0204 	strbeq	r0, [sl, #-516]	; 0xfffffdfc
     6f0:	04020001 	streq	r0, [r2], #-1
     6f4:	04059f02 	streq	r9, [r5], #-3842	; 0xfffff0fe
     6f8:	4a6e0306 	bmi	1b81318 <__bss_end__+0x1b77c08>
     6fc:	01060905 	tsteq	r6, r5, lsl #18
     700:	2f060405 	svccs	0x00060405
     704:	11060605 	tstne	r6, r5, lsl #12
     708:	052f0405 	streq	r0, [pc, #-1029]!	; 30b <__code_start__-0x7cf5>
     70c:	2e63030b 	cdpcs	3, 6, cr0, cr3, cr11, {0}
     710:	02001905 	andeq	r1, r0, #81920	; 0x14000
     714:	03060104 	movweq	r0, #24836	; 0x6104
     718:	1a052e24 	bne	14bfb0 <__bss_end__+0x1428a0>
     71c:	01040200 	mrseq	r0, R12_usr
     720:	00280513 	eoreq	r0, r8, r3, lsl r5
     724:	06010402 	streq	r0, [r1], -r2, lsl #8
     728:	00250501 	eoreq	r0, r5, r1, lsl #10
     72c:	2e010402 	cdpcs	4, 0, cr0, cr1, cr2, {0}
     730:	02001f05 	andeq	r1, r0, #5, 30
     734:	054a0104 	strbeq	r0, [sl, #-260]	; 0xfffffefc
     738:	0402000b 	streq	r0, [r2], #-11
     73c:	054b0601 	strbeq	r0, [fp, #-1537]	; 0xfffff9ff
     740:	04020004 	streq	r0, [r2], #-4
     744:	00010601 	andeq	r0, r1, r1, lsl #12
     748:	4a010402 	bmi	41758 <__bss_end__+0x38048>
     74c:	01040200 	mrseq	r0, R12_usr
     750:	02004e06 	andeq	r4, r0, #96	; 0x60
     754:	00010104 	andeq	r0, r1, r4, lsl #2
     758:	01010402 	tsteq	r1, r2, lsl #8
     75c:	01040200 	mrseq	r0, R12_usr
     760:	04020001 	streq	r0, [r2], #-1
     764:	002e0601 	eoreq	r0, lr, r1, lsl #12
     768:	66010402 	strvs	r0, [r1], -r2, lsl #8
     76c:	01040200 	mrseq	r0, R12_usr
     770:	0402002e 	streq	r0, [r2], #-46	; 0xffffffd2
     774:	054a0601 	strbeq	r0, [sl, #-1537]	; 0xfffff9ff
     778:	7fa60348 	svcvc	0x00a60348
     77c:	05052008 	streq	r2, [r5, #-8]
     780:	2e060113 	mcrcs	1, 0, r0, cr6, cr3, {0}
     784:	02040200 	andeq	r0, r4, #0, 4
     788:	02002e06 	andeq	r2, r0, #96	; 0x60
     78c:	00010204 	andeq	r0, r1, r4, lsl #4
     790:	13020402 	movwne	r0, #9218	; 0x2402
     794:	02001105 	andeq	r1, r0, #1073741825	; 0x40000001
     798:	01060204 	tsteq	r6, r4, lsl #4
     79c:	02000505 	andeq	r0, r0, #20971520	; 0x1400000
     7a0:	4b060204 	blmi	180fb8 <__bss_end__+0x1778a8>
     7a4:	02000705 	andeq	r0, r0, #1310720	; 0x140000
     7a8:	01060204 	tsteq	r6, r4, lsl #4
     7ac:	4b060905 	blmi	182bc8 <__bss_end__+0x1794b8>
     7b0:	01060e05 	tsteq	r6, r5, lsl #28
     7b4:	02004805 	andeq	r4, r0, #327680	; 0x50000
     7b8:	05620104 	strbeq	r0, [r2, #-260]!	; 0xfffffefc
     7bc:	04020005 	streq	r0, [r2], #-5
     7c0:	004b0601 	subeq	r0, fp, r1, lsl #12
     7c4:	01010402 	tsteq	r1, r2, lsl #8
     7c8:	01040200 	mrseq	r0, R12_usr
     7cc:	02009e06 	andeq	r9, r0, #96	; 0x60
     7d0:	002e0104 	eoreq	r0, lr, r4, lsl #2
     7d4:	06010402 	streq	r0, [r1], -r2, lsl #8
     7d8:	0340052e 	movteq	r0, #1326	; 0x52e
     7dc:	06d600e1 	ldrbeq	r0, [r6], r1, ror #1
     7e0:	06020501 	streq	r0, [r2], -r1, lsl #10
     7e4:	061e059f 			; <UNDEFINED> instruction: 0x061e059f
     7e8:	2e120501 	cfmul32cs	mvfx0, mvfx2, mvfx1
     7ec:	2f060505 	svccs	0x00060505
     7f0:	05140205 	ldreq	r0, [r4, #-517]	; 0xfffffdfb
     7f4:	05010609 	streq	r0, [r1, #-1545]	; 0xfffff9f7
     7f8:	054b0605 	strbeq	r0, [fp, #-1541]	; 0xfffff9fb
     7fc:	08051302 	stmdaeq	r5, {r1, r8, r9, ip}
     800:	02050d06 	andeq	r0, r5, #384	; 0x180
     804:	06040533 			; <UNDEFINED> instruction: 0x06040533
     808:	060f054c 	streq	r0, [pc], -ip, asr #10
     80c:	2e090501 	cfsh32cs	mvfx0, mvfx9, #1
     810:	2c060805 	stccs	8, cr0, [r6], {5}
     814:	2e060205 	cdpcs	2, 0, cr0, cr6, cr5, {0}
     818:	02000d05 	andeq	r0, r0, #320	; 0x140
     81c:	054a0104 	strbeq	r0, [sl, #-260]	; 0xfffffefc
     820:	054b0603 	strbeq	r0, [fp, #-1539]	; 0xfffff9fd
     824:	05010605 	streq	r0, [r1, #-1541]	; 0xfffff9fb
     828:	054d0608 	strbeq	r0, [sp, #-1544]	; 0xfffff9f8
     82c:	0501060e 	streq	r0, [r1, #-1550]	; 0xfffff9f2
     830:	04052e0a 	streq	r2, [r5], #-3594	; 0xfffff1f6
     834:	09052f06 	stmdbeq	r5, {r1, r2, r8, r9, sl, fp, sp}
     838:	04050106 	streq	r0, [r5], #-262	; 0xfffffefa
     83c:	07052f06 	streq	r2, [r5, -r6, lsl #30]
     840:	052e0106 	streq	r0, [lr, #-262]!	; 0xfffffefa
     844:	05300604 	ldreq	r0, [r0, #-1540]!	; 0xfffff9fc
     848:	05010607 	streq	r0, [r1, #-1543]	; 0xfffff9f9
     84c:	13300604 	teqne	r0, #4, 12	; 0x400000
     850:	060d0514 			; <UNDEFINED> instruction: 0x060d0514
     854:	06090510 			; <UNDEFINED> instruction: 0x06090510
     858:	06120530 			; <UNDEFINED> instruction: 0x06120530
     85c:	2e0a0501 	cfsh32cs	mvfx0, mvfx10, #1
     860:	05660905 	strbeq	r0, [r6, #-2309]!	; 0xfffff6fb
     864:	054b0605 	strbeq	r0, [fp, #-1541]	; 0xfffff9fb
     868:	05010612 	streq	r0, [r1, #-1554]	; 0xfffff9ee
     86c:	0b052e16 	bleq	14c0cc <__bss_end__+0x1429bc>
     870:	0605052e 	streq	r0, [r5], -lr, lsr #10
     874:	0608052f 	streq	r0, [r8], -pc, lsr #10
     878:	04052e01 	streq	r2, [r5], #-3585	; 0xfffff1ff
     87c:	4a013006 	bmi	4c89c <__bss_end__+0x4318c>
     880:	02001501 	andeq	r1, r0, #4194304	; 0x400000
     884:	36020104 	strcc	r0, [r2], -r4, lsl #2
     888:	0402000f 	streq	r0, [r2], #-15
     88c:	02000101 	andeq	r0, r0, #1073741824	; 0x40000000
     890:	05d60104 	ldrbeq	r0, [r6, #260]	; 0x104
     894:	01133411 	tsteq	r3, r1, lsl r4
     898:	02040200 	andeq	r0, r4, #0, 4
     89c:	0200ba06 	andeq	fp, r0, #24576	; 0x6000
     8a0:	ba060304 	blt	1814b8 <__bss_end__+0x177da8>
     8a4:	03040200 	movweq	r0, #16896	; 0x4200
     8a8:	04020001 	streq	r0, [r2], #-1
     8ac:	15051403 	strne	r1, [r5, #-1027]	; 0xfffffbfd
     8b0:	03040200 	movweq	r0, #16896	; 0x4200
     8b4:	11050106 	tstne	r5, r6, lsl #2
     8b8:	03040200 	movweq	r0, #16896	; 0x4200
     8bc:	1a052f06 	bne	14c4dc <__bss_end__+0x142dcc>
     8c0:	03040200 	movweq	r0, #16896	; 0x4200
     8c4:	11050106 	tstne	r5, r6, lsl #2
     8c8:	03040200 	movweq	r0, #16896	; 0x4200
     8cc:	0200d706 	andeq	sp, r0, #1572864	; 0x180000
     8d0:	00130304 	andseq	r0, r3, r4, lsl #6
     8d4:	17030402 	strne	r0, [r3, -r2, lsl #8]
     8d8:	02001405 	andeq	r1, r0, #83886080	; 0x5000000
     8dc:	01060304 	tsteq	r6, r4, lsl #6
     8e0:	02001305 	andeq	r1, r0, #335544320	; 0x14000000
     8e4:	05820304 	streq	r0, [r2, #772]	; 0x304
     8e8:	054e0618 	strbeq	r0, [lr, #-1560]	; 0xfffff9e8
     8ec:	0501061b 	streq	r0, [r1, #-1563]	; 0xfffff9e5
     8f0:	0905821a 	stmdbeq	r5, {r1, r3, r4, r9, pc}
     8f4:	0d054b06 	vstreq	d4, [r5, #-24]	; 0xffffffe8
     8f8:	052e0106 	streq	r0, [lr, #-262]!	; 0xfffffefa
     8fc:	06f30609 	ldrbteq	r0, [r3], r9, lsl #12
     900:	061505ba 			; <UNDEFINED> instruction: 0x061505ba
     904:	06180530 			; <UNDEFINED> instruction: 0x06180530
     908:	66170501 	ldrvs	r0, [r7], -r1, lsl #10
     90c:	4b061905 	blmi	186d28 <__bss_end__+0x17d618>
     910:	03061505 	movweq	r1, #25861	; 0x6505
     914:	1105666f 	tstne	r5, pc, ror #12
     918:	d6014806 	strle	r4, [r1], -r6, lsl #16
     91c:	0b030905 	bleq	c2d38 <__bss_end__+0xb9628>
     920:	060d052e 	streq	r0, [sp], -lr, lsr #10
     924:	09052e01 	stmdbeq	r5, {r0, r9, sl, fp, sp}
     928:	ba06f306 	blt	1bd548 <__bss_end__+0x1b3e38>
     92c:	2f061505 	svccs	0x00061505
     930:	66750306 	ldrbtvs	r0, [r5], -r6, lsl #6
     934:	03061905 	movweq	r1, #26885	; 0x6905
     938:	15054a13 	strne	r4, [r5, #-2579]	; 0xfffff5ed
     93c:	666d0306 	strbtvs	r0, [sp], -r6, lsl #6
     940:	4a150306 	bmi	541560 <__bss_end__+0x537e50>
     944:	2e06ba01 	vmlacs.f32	s22, s12, s2
     948:	1a060505 	bne	181d64 <__bss_end__+0x178654>
     94c:	032e9e01 			; <UNDEFINED> instruction: 0x032e9e01
     950:	0905010e 	stmdbeq	r5, {r1, r2, r3, r8}
     954:	05050106 	streq	r0, [r5, #-262]	; 0xfffffefa
     958:	05750806 	ldrbeq	r0, [r5, #-2054]!	; 0xfffff7fa
     95c:	01180304 	tsteq	r8, r4, lsl #6
     960:	01060705 	tsteq	r6, r5, lsl #14
     964:	31060405 	tstcc	r6, r5, lsl #8
     968:	67030505 	strvs	r0, [r3, -r5, lsl #10]
     96c:	061c052e 	ldreq	r0, [ip], -lr, lsr #10
     970:	82090501 	andhi	r0, r9, #4194304	; 0x400000
     974:	f3060505 	vrshl.u8	d0, d5, d6
     978:	061c0531 			; <UNDEFINED> instruction: 0x061c0531
     97c:	82090501 	andhi	r0, r9, #4194304	; 0x400000
     980:	f3060505 	vrshl.u8	d0, d5, d6
     984:	061b0530 			; <UNDEFINED> instruction: 0x061b0530
     988:	82090501 	andhi	r0, r9, #4194304	; 0x400000
     98c:	f3060505 	vrshl.u8	d0, d5, d6
     990:	06070530 			; <UNDEFINED> instruction: 0x06070530
     994:	06050501 	streq	r0, [r5], -r1, lsl #10
     998:	09053083 	stmdbeq	r5, {r0, r1, r7, ip, sp}
     99c:	05050106 	streq	r0, [r5, #-262]	; 0xfffffefa
     9a0:	05750806 	ldrbeq	r0, [r5, #-2054]!	; 0xfffff7fa
     9a4:	22053011 	andcs	r3, r5, #17, 0
     9a8:	05050106 	streq	r0, [r5, #-262]	; 0xfffffefa
     9ac:	11054b06 	tstne	r5, r6, lsl #22
     9b0:	83050583 	movwhi	r0, #21891	; 0x5583
     9b4:	05359e01 	ldreq	r9, [r5, #-3585]!	; 0xfffff1ff
     9b8:	0501060e 	streq	r0, [r1, #-1550]	; 0xfffff9f2
     9bc:	2d062e0a 	stccs	14, cr2, [r6, #-40]	; 0xffffffd8
     9c0:	01060405 	tsteq	r6, r5, lsl #8
     9c4:	02001305 	andeq	r1, r0, #335544320	; 0x14000000
     9c8:	054a0104 	strbeq	r0, [sl, #-260]	; 0xfffffefc
     9cc:	04020010 	streq	r0, [r2], #-16
     9d0:	02002e01 	andeq	r2, r0, #1, 28
     9d4:	05660104 	strbeq	r0, [r6, #-260]!	; 0xfffffefc
     9d8:	05160602 	ldreq	r0, [r6, #-1538]	; 0xfffff9fe
     9dc:	05010607 	streq	r0, [r1, #-1543]	; 0xfffff9f9
     9e0:	054b0602 	strbeq	r0, [fp, #-1538]	; 0xfffff9fe
     9e4:	66130601 	ldrvs	r0, [r3], -r1, lsl #12
     9e8:	01001a02 	tsteq	r0, r2, lsl #20
     9ec:	00008401 	andeq	r8, r0, r1, lsl #8
     9f0:	69000300 	stmdbvs	r0, {r8, r9}
     9f4:	02000000 	andeq	r0, r0, #0, 0
     9f8:	0d0efb01 	vstreq	d15, [lr, #-4]
     9fc:	01010100 	mrseq	r0, (UNDEF: 17)
     a00:	00000001 	andeq	r0, r0, r1
     a04:	01000001 	tsteq	r0, r1
     a08:	74732f2e 	ldrbtvc	r2, [r3], #-3886	; 0xfffff0d2
     a0c:	2d666661 	stclcs	6, cr6, [r6, #-388]!	; 0xfffffe7c
     a10:	00637273 	rsbeq	r7, r3, r3, ror r2
     a14:	6573552f 	ldrbvs	r5, [r3, #-1327]!	; 0xfffffad1
     a18:	612f7372 			; <UNDEFINED> instruction: 0x612f7372
     a1c:	6e696d64 	cdpvs	13, 6, cr6, cr9, cr4, {3}
     a20:	2d53432f 	ldclcs	3, cr4, [r3, #-188]	; 0xffffff44
     a24:	2f4e3934 	svccs	0x004e3934
     a28:	39347363 	ldmdbcc	r4!, {r0, r1, r5, r6, r8, r9, ip, sp, lr}
     a2c:	31322d6e 	teqcc	r2, lr, ror #26
     a30:	2f747561 	svccs	0x00747561
     a34:	62696c2f 	rsbvs	r6, r9, #12032	; 0x2f00
     a38:	692f6970 	stmdbvs	pc!, {r4, r5, r6, r8, fp, sp, lr}	; <UNPREDICTABLE>
     a3c:	756c636e 	strbvc	r6, [ip, #-878]!	; 0xfffffc92
     a40:	00006564 	andeq	r6, r0, r4, ror #10
     a44:	61656c63 	cmnvs	r5, r3, ror #24
     a48:	65722d6e 	ldrbvs	r2, [r2, #-3438]!	; 0xfffff292
     a4c:	746f6f62 	strbtvc	r6, [pc], #-3938	; a54 <__code_start__-0x75ac>
     a50:	0100632e 	tsteq	r0, lr, lsr #6
     a54:	70720000 	rsbsvc	r0, r2, r0
     a58:	00682e69 	rsbeq	r2, r8, r9, ror #28
     a5c:	00000002 	andeq	r0, r0, r2
     a60:	05001905 	streq	r1, [r0, #-2309]	; 0xfffff6fb
     a64:	00899c02 	addeq	r9, r9, r2, lsl #24
     a68:	05051500 	streq	r1, [r5, #-1280]	; 0xfffffb00
     a6c:	4b2f832f 	blmi	be1730 <__bss_end__+0xbd8020>
     a70:	01000602 	tsteq	r0, r2, lsl #12
     a74:	00009801 	andeq	r9, r0, r1, lsl #16
     a78:	63000300 	movwvs	r0, #768	; 0x300
     a7c:	02000000 	andeq	r0, r0, #0, 0
     a80:	0d0efb01 	vstreq	d15, [lr, #-4]
     a84:	01010100 	mrseq	r0, (UNDEF: 17)
     a88:	00000001 	andeq	r0, r0, r1
     a8c:	01000001 	tsteq	r0, r1
     a90:	74732f2e 	ldrbtvc	r2, [r3], #-3886	; 0xfffff0d2
     a94:	2d666661 	stclcs	6, cr6, [r6, #-388]!	; 0xfffffe7c
     a98:	00637273 	rsbeq	r7, r3, r3, ror r2
     a9c:	6573552f 	ldrbvs	r5, [r3, #-1327]!	; 0xfffffad1
     aa0:	612f7372 			; <UNDEFINED> instruction: 0x612f7372
     aa4:	6e696d64 	cdpvs	13, 6, cr6, cr9, cr4, {3}
     aa8:	2d53432f 	ldclcs	3, cr4, [r3, #-188]	; 0xffffff44
     aac:	2f4e3934 	svccs	0x004e3934
     ab0:	39347363 	ldmdbcc	r4!, {r0, r1, r5, r6, r8, r9, ip, sp, lr}
     ab4:	31322d6e 	teqcc	r2, lr, ror #26
     ab8:	2f747561 	svccs	0x00747561
     abc:	62696c2f 	rsbvs	r6, r9, #12032	; 0x2f00
     ac0:	692f6970 	stmdbvs	pc!, {r4, r5, r6, r8, fp, sp, lr}	; <UNPREDICTABLE>
     ac4:	756c636e 	strbvc	r6, [ip, #-878]!	; 0xfffffc92
     ac8:	00006564 	andeq	r6, r0, r4, ror #10
     acc:	61747363 	cmnvs	r4, r3, ror #6
     ad0:	632e7472 			; <UNDEFINED> instruction: 0x632e7472
     ad4:	00000100 	andeq	r0, r0, r0, lsl #2
     ad8:	2e697072 	mcrcs	0, 3, r7, cr9, cr2, {3}
     adc:	00020068 	andeq	r0, r2, r8, rrx
     ae0:	10050000 	andne	r0, r5, r0
     ae4:	c8020500 	stmdagt	r2, {r8, sl}
     ae8:	14000089 	strne	r0, [r0], #-137	; 0xffffff77
     aec:	052f0505 	streq	r0, [pc, #-1285]!	; 5ef <__code_start__-0x7a11>
     af0:	05051302 	streq	r1, [r5, #-770]	; 0xfffffcfe
     af4:	05141314 	ldreq	r1, [r4, #-788]	; 0xfffffcec
     af8:	060f060a 	streq	r0, [pc], -sl, lsl #12
     afc:	4b090531 	blmi	241fc8 <__bss_end__+0x2388b8>
     b00:	01061005 	tsteq	r6, r5
     b04:	0605054a 	streq	r0, [r5], -sl, asr #10
     b08:	2f020530 	svccs	0x00020530
     b0c:	01000602 	tsteq	r0, r2, lsl #12
     b10:	0000d301 	andeq	sp, r0, r1, lsl #6
     b14:	63000300 	movwvs	r0, #768	; 0x300
     b18:	02000000 	andeq	r0, r0, #0, 0
     b1c:	0d0efb01 	vstreq	d15, [lr, #-4]
     b20:	01010100 	mrseq	r0, (UNDEF: 17)
     b24:	00000001 	andeq	r0, r0, r1
     b28:	01000001 	tsteq	r0, r1
     b2c:	74732f2e 	ldrbtvc	r2, [r3], #-3886	; 0xfffff0d2
     b30:	2d666661 	stclcs	6, cr6, [r6, #-388]!	; 0xfffffe7c
     b34:	00637273 	rsbeq	r7, r3, r3, ror r2
     b38:	6573552f 	ldrbvs	r5, [r3, #-1327]!	; 0xfffffad1
     b3c:	612f7372 			; <UNDEFINED> instruction: 0x612f7372
     b40:	6e696d64 	cdpvs	13, 6, cr6, cr9, cr4, {3}
     b44:	2d53432f 	ldclcs	3, cr4, [r3, #-188]	; 0xffffff44
     b48:	2f4e3934 	svccs	0x004e3934
     b4c:	39347363 	ldmdbcc	r4!, {r0, r1, r5, r6, r8, r9, ip, sp, lr}
     b50:	31322d6e 	teqcc	r2, lr, ror #26
     b54:	2f747561 	svccs	0x00747561
     b58:	62696c2f 	rsbvs	r6, r9, #12032	; 0x2f00
     b5c:	692f6970 	stmdbvs	pc!, {r4, r5, r6, r8, fp, sp, lr}	; <UNPREDICTABLE>
     b60:	756c636e 	strbvc	r6, [ip, #-878]!	; 0xfffffc92
     b64:	00006564 	andeq	r6, r0, r4, ror #10
     b68:	6f626572 	svcvs	0x00626572
     b6c:	632e746f 			; <UNDEFINED> instruction: 0x632e746f
     b70:	00000100 	andeq	r0, r0, r0, lsl #2
     b74:	2e697072 	mcrcs	0, 3, r7, cr9, cr2, {3}
     b78:	00020068 	andeq	r0, r2, r8, rrx
     b7c:	19050000 	stmdbne	r5, {}	; <UNPREDICTABLE>
     b80:	f4020500 	vst3.8	{d0,d2,d4}, [r2], r0
     b84:	03000089 	movweq	r0, #137	; 0x89
     b88:	0505010d 	streq	r0, [r5, #-269]	; 0xfffffef3
     b8c:	05311313 	ldreq	r1, [r1, #-787]!	; 0xfffffced
     b90:	05010613 	streq	r0, [r1, #-1555]	; 0xfffff9ed
     b94:	1b052f01 	blne	14c7a0 <__bss_end__+0x143090>
     b98:	05058506 	streq	r8, [r5, #-1286]	; 0xfffffafa
     b9c:	09051413 	stmdbeq	r5, {r0, r1, r4, sl, ip}
     ba0:	0616052f 	ldreq	r0, [r6], -pc, lsr #10
     ba4:	2e0e0501 	cfsh32cs	mvfx0, mvfx14, #1
     ba8:	2f060505 	svccs	0x00060505
     bac:	2f060105 	svccs	0x00060105
     bb0:	30061705 	andcc	r1, r6, r5, lsl #14
     bb4:	052f0505 	streq	r0, [pc, #-1285]!	; 6b7 <__code_start__-0x7949>
     bb8:	05010608 	streq	r0, [r1, #-1544]	; 0xfffff9f8
     bbc:	05052e07 	streq	r2, [r5, #-3591]	; 0xfffff1f9
     bc0:	4a0b0306 	bmi	2c17e0 <__bss_end__+0x2b80d0>
     bc4:	13134d2f 	tstne	r3, #3008	; 0xbc0
     bc8:	00671513 	rsbeq	r1, r7, r3, lsl r5
     bcc:	67010402 	strvs	r0, [r1, -r2, lsl #8]
     bd0:	02000d05 	andeq	r0, r0, #320	; 0x140
     bd4:	05010104 	streq	r0, [r1, #-260]	; 0xfffffefc
     bd8:	0402000a 	streq	r0, [r2], #-10
     bdc:	09050101 	stmdbeq	r5, {r0, r8}
     be0:	022e6a03 	eoreq	r6, lr, #12288	; 0x3000
     be4:	0101000c 	tsteq	r1, ip
     be8:	000000d9 	ldrdeq	r0, [r0], -r9
     bec:	00620003 	rsbeq	r0, r2, r3
     bf0:	01020000 	mrseq	r0, (UNDEF: 2)
     bf4:	000d0efb 	strdeq	r0, [sp], -fp
     bf8:	01010101 	tsteq	r1, r1, lsl #2
     bfc:	01000000 	mrseq	r0, (UNDEF: 0)
     c00:	2e010000 	cdpcs	0, 0, cr0, cr1, cr0, {0}
     c04:	6174732f 	cmnvs	r4, pc, lsr #6
     c08:	732d6666 			; <UNDEFINED> instruction: 0x732d6666
     c0c:	2f006372 	svccs	0x00006372
     c10:	72657355 	rsbvc	r7, r5, #1409286145	; 0x54000001
     c14:	64612f73 	strbtvs	r2, [r1], #-3955	; 0xfffff08d
     c18:	2f6e696d 	svccs	0x006e696d
     c1c:	342d5343 	strtcc	r5, [sp], #-835	; 0xfffffcbd
     c20:	632f4e39 			; <UNDEFINED> instruction: 0x632f4e39
     c24:	6e393473 	mrcvs	4, 1, r3, cr9, cr3, {3}
     c28:	6131322d 	teqvs	r1, sp, lsr #4
     c2c:	2f2f7475 	svccs	0x002f7475
     c30:	7062696c 	rsbvc	r6, r2, ip, ror #18
     c34:	6e692f69 	cdpvs	15, 6, cr2, cr9, cr9, {3}
     c38:	64756c63 	ldrbtvs	r6, [r5], #-3171	; 0xfffff39d
     c3c:	74000065 	strvc	r0, [r0], #-101	; 0xffffff9b
     c40:	72656d69 	rsbvc	r6, r5, #6720	; 0x1a40
     c44:	0100632e 	tsteq	r0, lr, lsr #6
     c48:	70720000 	rsbsvc	r0, r2, r0
     c4c:	00682e69 	rsbeq	r2, r8, r9, ror #28
     c50:	00000002 	andeq	r0, r0, r2
     c54:	05002305 	streq	r2, [r0, #-773]	; 0xfffffcfb
     c58:	008a7002 	addeq	r7, sl, r2
     c5c:	05051500 	streq	r1, [r5, #-1280]	; 0xfffffb00
     c60:	060c052f 	streq	r0, [ip], -pc, lsr #10
     c64:	4b010501 	blmi	42070 <__bss_end__+0x38960>
     c68:	4d061f05 	stcmi	15, cr1, [r6, #-20]	; 0xffffffec
     c6c:	2f310505 	svccs	0x00310505
     c70:	01061205 	tsteq	r6, r5, lsl #4
     c74:	4b060505 	blmi	182090 <__bss_end__+0x178980>
     c78:	0601052f 	streq	r0, [r1], -pc, lsr #10
     c7c:	061c0513 			; <UNDEFINED> instruction: 0x061c0513
     c80:	0501064c 	streq	r0, [r1, #-1612]	; 0xfffff9b4
     c84:	054b0605 	strbeq	r0, [fp, #-1541]	; 0xfffff9fb
     c88:	2e010613 	mcrcs	6, 0, r0, cr1, cr3, {0}
     c8c:	2f060505 	svccs	0x00060505
     c90:	05130905 	ldreq	r0, [r3, #-2309]	; 0xfffff6fb
     c94:	05010617 	streq	r0, [r1, #-1559]	; 0xfffff9e9
     c98:	052f0609 	streq	r0, [pc, #-1545]!	; 697 <__code_start__-0x7969>
     c9c:	05010611 	streq	r0, [r1, #-1553]	; 0xfffff9ef
     ca0:	1c052e0c 	stcne	14, cr2, [r5], {12}
     ca4:	01066b06 	tsteq	r6, r6, lsl #22
     ca8:	2f060505 	svccs	0x00060505
     cac:	01054a06 	tsteq	r5, r6, lsl #20
     cb0:	061e054b 	ldreq	r0, [lr], -fp, asr #10
     cb4:	0501062f 	streq	r0, [r1, #-1583]	; 0xfffff9d1
     cb8:	062f0605 	strteq	r0, [pc], -r5, lsl #12
     cbc:	4b01054a 	blmi	421ec <__bss_end__+0x38adc>
     cc0:	01000202 	tsteq	r0, r2, lsl #4
     cc4:	0001b501 	andeq	fp, r1, r1, lsl #10
     cc8:	9e000300 	cdpls	3, 0, cr0, cr0, cr0, {0}
     ccc:	02000000 	andeq	r0, r0, #0, 0
     cd0:	0d0efb01 	vstreq	d15, [lr, #-4]
     cd4:	01010100 	mrseq	r0, (UNDEF: 17)
     cd8:	00000001 	andeq	r0, r0, r1
     cdc:	01000001 	tsteq	r0, r1
     ce0:	6d6f682f 	stclvs	8, cr6, [pc, #-188]!	; c2c <__code_start__-0x73d4>
     ce4:	6e652f65 	cdpvs	15, 6, cr2, cr5, cr5, {3}
     ce8:	72656c67 	rsbvc	r6, r5, #26368	; 0x6700
     cec:	616c632f 	cmnvs	ip, pc, lsr #6
     cf0:	632f7373 			; <UNDEFINED> instruction: 0x632f7373
     cf4:	30343173 	eorscc	r3, r4, r3, ror r1
     cf8:	31322d65 	teqcc	r2, r5, ror #26
     cfc:	2f727073 	svccs	0x00727073
     d00:	62696c2f 	rsbvs	r6, r9, #12032	; 0x2f00
     d04:	692f6970 	stmdbvs	pc!, {r4, r5, r6, r8, fp, sp, lr}	; <UNPREDICTABLE>
     d08:	756c636e 	strbvc	r6, [ip, #-878]!	; 0xfffffc92
     d0c:	2f006564 	svccs	0x00006564
     d10:	2f727375 	svccs	0x00727375
     d14:	2f62696c 	svccs	0x0062696c
     d18:	2f636367 	svccs	0x00636367
     d1c:	2d6d7261 	sfmcs	f7, 2, [sp, #-388]!	; 0xfffffe7c
     d20:	656e6f6e 	strbvs	r6, [lr, #-3950]!	; 0xfffff092
     d24:	6261652d 	rsbvs	r6, r1, #188743680	; 0xb400000
     d28:	2e392f69 	cdpcs	15, 3, cr2, cr9, cr9, {3}
     d2c:	2f312e32 	svccs	0x00312e32
     d30:	6c636e69 	stclvs	14, cr6, [r3], #-420	; 0xfffffe5c
     d34:	00656475 	rsbeq	r6, r5, r5, ror r4
     d38:	72617500 	rsbvc	r7, r1, #0, 10
     d3c:	00632e74 	rsbeq	r2, r3, r4, ror lr
     d40:	72000000 	andvc	r0, r0, #0, 0
     d44:	682e6970 	stmdavs	lr!, {r4, r5, r6, r8, fp, sp, lr}
     d48:	00000100 	andeq	r0, r0, r0, lsl #2
     d4c:	74726175 	ldrbtvc	r6, [r2], #-373	; 0xfffffe8b
     d50:	0100682e 	tsteq	r0, lr, lsr #16
     d54:	70670000 	rsbvc	r0, r7, r0
     d58:	682e6f69 	stmdavs	lr!, {r0, r3, r5, r6, r8, r9, sl, fp, sp, lr}
     d5c:	00000100 	andeq	r0, r0, r0, lsl #2
     d60:	69647473 	stmdbvs	r4!, {r0, r1, r4, r5, r6, sl, ip, sp, lr}^
     d64:	682e746e 	stmdavs	lr!, {r1, r2, r3, r5, r6, sl, ip, sp, lr}
     d68:	00000200 	andeq	r0, r0, r0, lsl #4
     d6c:	00380500 	eorseq	r0, r8, r0, lsl #10
     d70:	8af40205 	bhi	ffd0158c <__bss_end__+0xffcf7e7c>
     d74:	2d030000 	stccs	0, cr0, [r3, #-0]
     d78:	05010601 	streq	r0, [r1, #-1537]	; 0xfffff9ff
     d7c:	05670605 	strbeq	r0, [r7, #-1541]!	; 0xfffff9fb
     d80:	05010611 	streq	r0, [r1, #-1553]	; 0xfffff9ef
     d84:	01052e05 	tsteq	r5, r5, lsl #28
     d88:	06160567 	ldreq	r0, [r6], -r7, ror #10
     d8c:	052e0b03 	streq	r0, [lr, #-2819]!	; 0xfffff4fd
     d90:	68673505 	stmdavs	r7!, {r0, r2, r8, sl, ip, sp}^
     d94:	0c036835 	stceq	8, cr6, [r3], {53}	; 0x35
     d98:	696b852e 	stmdbvs	fp!, {r1, r2, r3, r5, r8, sl, pc}^
     d9c:	660c0369 	strvs	r0, [ip], -r9, ror #6
     da0:	05676b13 	strbeq	r6, [r7, #-2835]!	; 0xfffff4ed
     da4:	052f0601 	streq	r0, [pc, #-1537]!	; 7ab <__code_start__-0x7855>
     da8:	25080619 	strcs	r0, [r8, #-1561]	; 0xfffff9e7
     dac:	05340505 	ldreq	r0, [r4, #-1285]!	; 0xfffffafb
     db0:	0501060d 	streq	r0, [r1, #-1549]	; 0xfffff9f3
     db4:	19054c01 	stmdbne	r5, {r0, sl, fp, lr}
     db8:	05056706 	streq	r6, [r5, #-1798]	; 0xfffff8fa
     dbc:	060d0536 			; <UNDEFINED> instruction: 0x060d0536
     dc0:	4a280501 	bmi	a021cc <__bss_end__+0x9f8abc>
     dc4:	05300105 	ldreq	r0, [r0, #-261]!	; 0xfffffefb
     dc8:	05870615 	streq	r0, [r7, #1557]	; 0x615
     dcc:	052f2f05 	streq	r2, [pc, #-3845]!	; fffffecf <__bss_end__+0xffff67bf>
     dd0:	04020009 	streq	r0, [r2], #-9
     dd4:	0a051301 	beq	1459e0 <__bss_end__+0x13c2d0>
     dd8:	01040200 	mrseq	r0, R12_usr
     ddc:	000c0511 	andeq	r0, ip, r1, lsl r5
     de0:	06010402 	streq	r0, [r1], -r2, lsl #8
     de4:	000a0501 	andeq	r0, sl, r1, lsl #10
     de8:	2e010402 	cdpcs	4, 0, cr0, cr1, cr2, {0}
     dec:	4c060505 	cfstr32mi	mvfx0, [r6], {5}
     df0:	01060e05 	tsteq	r6, r5, lsl #28
     df4:	054a0905 	strbeq	r0, [sl, #-2309]	; 0xfffff6fb
     df8:	2f2f0605 	svccs	0x002f0605
     dfc:	13060105 	movwne	r0, #24837	; 0x6105
     e00:	67061c05 	strvs	r1, [r6, -r5, lsl #24]
     e04:	05050106 	streq	r0, [r5, #-262]	; 0xfffffefa
     e08:	052f4b06 	streq	r4, [pc, #-2822]!	; 30a <__code_start__-0x7cf6>
     e0c:	04020009 	streq	r0, [r2], #-9
     e10:	0a051301 	beq	145a1c <__bss_end__+0x13c30c>
     e14:	01040200 	mrseq	r0, R12_usr
     e18:	000c0511 	andeq	r0, ip, r1, lsl r5
     e1c:	06010402 	streq	r0, [r1], -r2, lsl #8
     e20:	000a0501 	andeq	r0, sl, r1, lsl #10
     e24:	2e010402 	cdpcs	4, 0, cr0, cr1, cr2, {0}
     e28:	4c060505 	cfstr32mi	mvfx0, [r6], {5}
     e2c:	06010567 	streq	r0, [r1], -r7, ror #10
     e30:	0619052f 	ldreq	r0, [r9], -pc, lsr #10
     e34:	2e1b054c 	cfmac32cs	mvfx0, mvfx11, mvfx12
     e38:	052e2a05 	streq	r2, [lr, #-2565]!	; 0xfffff5fb
     e3c:	05010631 	streq	r0, [r1, #-1585]	; 0xfffff9cf
     e40:	1c052e01 	stcne	14, cr2, [r5], {1}
     e44:	05053106 	streq	r3, [r5, #-262]	; 0xfffffefa
     e48:	2e09032f 	cdpcs	3, 0, cr0, cr9, cr15, {1}
     e4c:	01060e05 	tsteq	r6, r5, lsl #28
     e50:	054a2105 	strbeq	r2, [sl, #-261]	; 0xfffffefb
     e54:	2e0a0301 	cdpcs	3, 0, cr0, cr10, cr1, {0}
     e58:	68061a05 	stmdavs	r6, {r0, r2, r9, fp, ip}
     e5c:	02000905 	andeq	r0, r0, #81920	; 0x14000
     e60:	05300104 	ldreq	r0, [r0, #-260]!	; 0xfffffefc
     e64:	0402000a 	streq	r0, [r2], #-10
     e68:	0c051101 	stfeqs	f1, [r5], {1}
     e6c:	01040200 	mrseq	r0, R12_usr
     e70:	0a050106 	beq	141290 <__bss_end__+0x137b80>
     e74:	01040200 	mrseq	r0, R12_usr
     e78:	0006022e 	andeq	r0, r6, lr, lsr #4
     e7c:	00fe0101 	rscseq	r0, lr, r1, lsl #2
     e80:	00030000 	andeq	r0, r3, r0
     e84:	00000059 	andeq	r0, r0, r9, asr r0
     e88:	0efb0102 	cdpeq	1, 15, cr0, cr11, cr2, {0}
     e8c:	0101000d 	tsteq	r1, sp
     e90:	00000101 	andeq	r0, r0, r1, lsl #2
     e94:	00000100 	andeq	r0, r0, r0, lsl #2
     e98:	6f682f01 	svcvs	0x00682f01
     e9c:	652f656d 	strvs	r6, [pc, #-1389]!	; 937 <__code_start__-0x76c9>
     ea0:	656c676e 	strbvs	r6, [ip, #-1902]!	; 0xfffff892
     ea4:	6c632f72 	stclvs	15, cr2, [r3], #-456	; 0xfffffe38
     ea8:	2f737361 	svccs	0x00737361
     eac:	34317363 	ldrtcc	r7, [r1], #-867	; 0xfffffc9d
     eb0:	322d6530 	eorcc	r6, sp, #48, 10	; 0xc000000
     eb4:	72707331 	rsbsvc	r7, r0, #-1006632960	; 0xc4000000
     eb8:	696c2f2f 	stmdbvs	ip!, {r0, r1, r2, r3, r5, r8, r9, sl, fp, sp}^
     ebc:	2f697062 	svccs	0x00697062
     ec0:	6c636e69 	stclvs	14, cr6, [r3], #-420	; 0xfffffe5c
     ec4:	00656475 	rsbeq	r6, r5, r5, ror r4
     ec8:	69706700 	ldmdbvs	r0!, {r8, r9, sl, sp, lr}^
     ecc:	75702d6f 	ldrbvc	r2, [r0, #-3439]!	; 0xfffff291
     ed0:	00632e64 	rsbeq	r2, r3, r4, ror #28
     ed4:	72000000 	andvc	r0, r0, #0, 0
     ed8:	682e6970 	stmdavs	lr!, {r4, r5, r6, r8, fp, sp, lr}
     edc:	00000100 	andeq	r0, r0, r0, lsl #2
     ee0:	002f0500 	eoreq	r0, pc, r0, lsl #10
     ee4:	8ca00205 	sfmhi	f0, 4, [r0], #20
     ee8:	10030000 	andne	r0, r3, r0
     eec:	05010601 	streq	r0, [r1, #-1537]	; 0xfffff9ff
     ef0:	014b0605 	cmpeq	fp, r5, lsl #12
     ef4:	02040200 	andeq	r0, r4, #0, 4
     ef8:	04020082 	streq	r0, [r2], #-130	; 0xffffff7e
     efc:	02001302 	andeq	r1, r0, #134217728	; 0x8000000
     f00:	4a010204 	bmi	41718 <__bss_end__+0x38008>
     f04:	07051414 	smladeq	r5, r4, r4, r1
     f08:	01050106 	tsteq	r5, r6, lsl #2
     f0c:	054a1b03 	strbeq	r1, [sl, #-2819]	; 0xfffff4fd
     f10:	04020005 	streq	r0, [r2], #-5
     f14:	60030601 	andvs	r0, r3, r1, lsl #12
     f18:	0402004a 	streq	r0, [r2], #-74	; 0xffffffb6
     f1c:	02002e01 	andeq	r2, r0, #1, 28
     f20:	00d60104 	sbcseq	r0, r6, r4, lsl #2
     f24:	2f010402 	svccs	0x00010402
     f28:	01040200 	mrseq	r0, R12_usr
     f2c:	0402002e 	streq	r0, [r2], #-46	; 0xffffffd2
     f30:	3135d601 	teqcc	r5, r1, lsl #12
     f34:	2e064e84 	cdpcs	14, 0, cr4, cr6, cr4, {4}
     f38:	674e8406 	strbvs	r8, [lr, -r6, lsl #8]
     f3c:	054c674e 	strbeq	r6, [ip, #-1870]	; 0xfffff8b2
     f40:	063f0824 	ldrteq	r0, [pc], -r4, lsr #16
     f44:	06260501 	strteq	r0, [r6], -r1, lsl #10
     f48:	0601052e 	streq	r0, [r1], -lr, lsr #10
     f4c:	0626054a 	strteq	r0, [r6], -sl, asr #10
     f50:	0501062f 	streq	r0, [r1, #-1583]	; 0xfffff9d1
     f54:	052e0628 	streq	r0, [lr, #-1576]!	; 0xfffff9d8
     f58:	054a0601 	strbeq	r0, [sl, #-1537]	; 0xfffff9ff
     f5c:	062f0621 	strteq	r0, [pc], -r1, lsr #12
     f60:	06230501 	strteq	r0, [r3], -r1, lsl #10
     f64:	0601052e 	streq	r0, [r1], -lr, lsr #10
     f68:	0620054a 	strteq	r0, [r0], -sl, asr #10
     f6c:	05010630 	streq	r0, [r1, #-1584]	; 0xfffff9d0
     f70:	052f0605 	streq	r0, [pc, #-1541]!	; 973 <__code_start__-0x768d>
     f74:	2e01060d 	cfmadd32cs	mvax0, mvfx0, mvfx1, mvfx13
     f78:	022f0105 	eoreq	r0, pc, #1073741825	; 0x40000001
     f7c:	01010006 	tsteq	r1, r6
     f80:	000001b7 			; <UNDEFINED> instruction: 0x000001b7
     f84:	00650003 	rsbeq	r0, r5, r3
     f88:	01020000 	mrseq	r0, (UNDEF: 2)
     f8c:	000d0efb 	strdeq	r0, [sp], -fp
     f90:	01010101 	tsteq	r1, r1, lsl #2
     f94:	01000000 	mrseq	r0, (UNDEF: 0)
     f98:	2e010000 	cdpcs	0, 0, cr0, cr1, cr0, {0}
     f9c:	6372732f 	cmnvs	r2, #-1140850688	; 0xbc000000
     fa0:	73552f00 	cmpvc	r5, #0, 30
     fa4:	2f737265 	svccs	0x00737265
     fa8:	696d6461 	stmdbvs	sp!, {r0, r5, r6, sl, sp, lr}^
     fac:	53432f6e 	movtpl	r2, #16238	; 0x3f6e
     fb0:	4e39342d 	cdpmi	4, 3, cr3, cr9, cr13, {1}
     fb4:	3473632f 	ldrbtcc	r6, [r3], #-815	; 0xfffffcd1
     fb8:	322d6e39 	eorcc	r6, sp, #912	; 0x390
     fbc:	74756131 	ldrbtvc	r6, [r5], #-305	; 0xfffffecf
     fc0:	696c2f2f 	stmdbvs	ip!, {r0, r1, r2, r3, r5, r8, r9, sl, fp, sp}^
     fc4:	2f697062 	svccs	0x00697062
     fc8:	6c636e69 	stclvs	14, cr6, [r3], #-420	; 0xfffffe5c
     fcc:	00656475 	rsbeq	r6, r5, r5, ror r4
     fd0:	69706700 	ldmdbvs	r0!, {r8, r9, sl, sp, lr}^
     fd4:	00632e6f 	rsbeq	r2, r3, pc, ror #28
     fd8:	72000001 	andvc	r0, r0, #1, 0
     fdc:	682e6970 	stmdavs	lr!, {r4, r5, r6, r8, fp, sp, lr}
     fe0:	00000200 	andeq	r0, r0, r0, lsl #4
     fe4:	6f697067 	svcvs	0x00697067
     fe8:	0200682e 	andeq	r6, r0, #3014656	; 0x2e0000
     fec:	05000000 	streq	r0, [r0, #-0]
     ff0:	02050024 	andeq	r0, r5, #36, 0	; 0x24
     ff4:	00008de8 	andeq	r8, r0, r8, ror #27
     ff8:	05011d03 	streq	r1, [r1, #-3331]	; 0xfffff2fd
     ffc:	08051305 	stmdaeq	r5, {r0, r2, r8, r9, ip}
    1000:	24050106 	strcs	r0, [r5], #-262	; 0xfffffefa
    1004:	06050549 	streq	r0, [r5], -r9, asr #10
    1008:	0630054f 	ldrteq	r0, [r0], -pc, asr #10
    100c:	662a0501 	strtvs	r0, [sl], -r1, lsl #10
    1010:	052e1805 	streq	r1, [lr, #-2053]!	; 0xfffff7fb
    1014:	054b0605 	strbeq	r0, [fp, #-1541]	; 0xfffff9fb
    1018:	2e010616 	mcrcs	6, 0, r0, cr1, cr6, {0}
    101c:	30060505 	andcc	r0, r6, r5, lsl #10
    1020:	01062705 	tsteq	r6, r5, lsl #14
    1024:	054a0e05 	strbeq	r0, [sl, #-3589]	; 0xfffff1fb
    1028:	142f0605 	strtne	r0, [pc], #-1541	; 1030 <__code_start__-0x6fd0>
    102c:	01060e05 	tsteq	r6, r5, lsl #28
    1030:	4b060505 	blmi	18244c <__bss_end__+0x178d3c>
    1034:	05660614 	strbeq	r0, [r6, #-1556]!	; 0xfffff9ec
    1038:	20052f01 	andcs	r2, r5, r1, lsl #30
    103c:	05054d06 	streq	r4, [r5, #-3334]	; 0xfffff2fa
    1040:	08051314 	stmdaeq	r5, {r2, r4, r8, r9, ip}
    1044:	20050106 	andcs	r0, r5, r6, lsl #2
    1048:	06050547 	streq	r0, [r5], -r7, asr #10
    104c:	05660633 	strbeq	r0, [r6, #-1587]!	; 0xfffff9cd
    1050:	21052f01 	tstcs	r5, r1, lsl #30
    1054:	05054d06 	streq	r4, [r5, #-3334]	; 0xfffff2fa
    1058:	08051314 	stmdaeq	r5, {r2, r4, r8, r9, ip}
    105c:	21050106 	tstcs	r5, r6, lsl #2
    1060:	06050547 	streq	r0, [r5], -r7, asr #10
    1064:	05660633 	strbeq	r0, [r6, #-1587]!	; 0xfffff9cd
    1068:	2b052f01 	blcs	14cc74 <__bss_end__+0x143564>
    106c:	01064d06 	tsteq	r6, r6, lsl #26
    1070:	2f060505 	svccs	0x00060505
    1074:	01060805 	tsteq	r6, r5, lsl #16
    1078:	4b060905 	blmi	183494 <__bss_end__+0x179d84>
    107c:	30062e06 	andcc	r2, r6, r6, lsl #28
    1080:	2f060105 	svccs	0x00060105
    1084:	35062305 	strcc	r2, [r6, #-773]	; 0xfffffcfb
    1088:	05130505 	ldreq	r0, [r3, #-1285]	; 0xfffffafb
    108c:	05010608 	streq	r0, [r1, #-1544]	; 0xfffff9f8
    1090:	05054923 	streq	r4, [r5, #-2339]	; 0xfffff6dd
    1094:	30054d06 	andcc	r4, r5, r6, lsl #26
    1098:	2a050106 	bcs	1414b8 <__bss_end__+0x137da8>
    109c:	2e180566 	cfmsc32cs	mvfx0, mvfx8, mvfx6
    10a0:	4b060505 	blmi	1824bc <__bss_end__+0x178dac>
    10a4:	01061605 	tsteq	r6, r5, lsl #12
    10a8:	0605052e 	streq	r0, [r5], -lr, lsr #10
    10ac:	06270530 			; <UNDEFINED> instruction: 0x06270530
    10b0:	4a0e0501 	bmi	3824bc <__bss_end__+0x378dac>
    10b4:	2f060505 	svccs	0x00060505
    10b8:	4a061414 	bmi	186110 <__bss_end__+0x17ca00>
    10bc:	2f01052e 	svccs	0x0001052e
    10c0:	4d061d05 	stcmi	13, cr1, [r6, #-20]	; 0xffffffec
    10c4:	05130505 	ldreq	r0, [r3, #-1285]	; 0xfffffafb
    10c8:	05010608 	streq	r0, [r1, #-1544]	; 0xfffff9f8
    10cc:	01054b10 	tsteq	r5, r0, lsl fp
    10d0:	031d0535 	tsteq	sp, #222298112	; 0xd400000
    10d4:	05052e77 	streq	r2, [r5, #-3703]	; 0xfffff189
    10d8:	13134d06 	tstne	r3, #384	; 0x180
    10dc:	01061505 	tsteq	r6, r5, lsl #10
    10e0:	0605052e 	streq	r0, [r5], -lr, lsr #10
    10e4:	1b05132f 	blne	145da8 <__bss_end__+0x13c698>
    10e8:	05660106 	strbeq	r0, [r6, #-262]!	; 0xfffffefa
    10ec:	052f0605 	streq	r0, [pc, #-1541]!	; aef <__code_start__-0x7511>
    10f0:	05130601 	ldreq	r0, [r3, #-1537]	; 0xfffff9ff
    10f4:	054c063c 	strbeq	r0, [ip, #-1596]	; 0xfffff9c4
    10f8:	08051305 	stmdaeq	r5, {r0, r2, r8, r9, ip}
    10fc:	3c050106 	stfccs	f0, [r5], {6}
    1100:	06050565 	streq	r0, [r5], -r5, ror #10
    1104:	06300569 	ldrteq	r0, [r0], -r9, ror #10
    1108:	662a0501 	strtvs	r0, [sl], -r1, lsl #10
    110c:	052e1805 	streq	r1, [lr, #-2053]!	; 0xfffff7fb
    1110:	054b0605 	strbeq	r0, [fp, #-1541]	; 0xfffff9fb
    1114:	2e010616 	mcrcs	6, 0, r0, cr1, cr6, {0}
    1118:	30060505 	andcc	r0, r6, r5, lsl #10
    111c:	01062705 	tsteq	r6, r5, lsl #14
    1120:	054a0e05 	strbeq	r0, [sl, #-3589]	; 0xfffff1fb
    1124:	142f0605 	strtne	r0, [pc], #-1541	; 112c <__code_start__-0x6ed4>
    1128:	01060e05 	tsteq	r6, r5, lsl #28
    112c:	4c060505 	cfstr32mi	mvfx0, [r6], {5}
    1130:	052e2e06 	streq	r2, [lr, #-3590]!	; 0xfffff1fa
    1134:	04023001 	streq	r3, [r2], #-1
    1138:	9d010100 	stflss	f0, [r1, #-0]
    113c:	03000000 	movweq	r0, #0
    1140:	00005f00 	andeq	r5, r0, r0, lsl #30
    1144:	fb010200 	blx	4194e <__bss_end__+0x3823e>
    1148:	01000d0e 	tsteq	r0, lr, lsl #26
    114c:	00010101 	andeq	r0, r1, r1, lsl #2
    1150:	00010000 	andeq	r0, r1, r0
    1154:	2f2e0100 	svccs	0x002e0100
    1158:	6362696c 	cmnvs	r2, #108, 18	; 0x1b0000
    115c:	73552f00 	cmpvc	r5, #0, 30
    1160:	2f737265 	svccs	0x00737265
    1164:	696d6461 	stmdbvs	sp!, {r0, r5, r6, sl, sp, lr}^
    1168:	53432f6e 	movtpl	r2, #16238	; 0x3f6e
    116c:	4e39342d 	cdpmi	4, 3, cr3, cr9, cr13, {1}
    1170:	3473632f 	ldrbtcc	r6, [r3], #-815	; 0xfffffcd1
    1174:	322d6e39 	eorcc	r6, sp, #912	; 0x390
    1178:	74756131 	ldrbtvc	r6, [r5], #-305	; 0xfffffecf
    117c:	696c2f2f 	stmdbvs	ip!, {r0, r1, r2, r3, r5, r8, r9, sl, fp, sp}^
    1180:	2f697062 	svccs	0x00697062
    1184:	6c636e69 	stclvs	14, cr6, [r3], #-420	; 0xfffffe5c
    1188:	00656475 	rsbeq	r6, r5, r5, ror r4
    118c:	74757000 	ldrbtvc	r7, [r5], #-0
    1190:	72616863 	rsbvc	r6, r1, #6488064	; 0x630000
    1194:	0100632e 	tsteq	r0, lr, lsr #6
    1198:	70720000 	rsbsvc	r0, r2, r0
    119c:	00682e69 	rsbeq	r2, r8, r9, ror #28
    11a0:	00000002 	andeq	r0, r0, r2
    11a4:	05002405 	streq	r2, [r0, #-1029]	; 0xfffffbfb
    11a8:	008f9402 	addeq	r9, pc, r2, lsl #8
    11ac:	01061400 	tsteq	r6, r0, lsl #8
    11b0:	4a062605 	bmi	18a9cc <__bss_end__+0x1812bc>
    11b4:	052e3405 	streq	r3, [lr, #-1029]!	; 0xfffffbfb
    11b8:	05010601 	streq	r0, [r1, #-1537]	; 0xfffff9ff
    11bc:	054f061b 	strbeq	r0, [pc, #-1563]	; ba9 <__code_start__-0x7457>
    11c0:	11051305 	tstne	r5, r5, lsl #6
    11c4:	01050106 	tsteq	r5, r6, lsl #2
    11c8:	06230567 	strteq	r0, [r3], -r7, ror #10
    11cc:	13050567 	movwne	r0, #21863	; 0x5567
    11d0:	01061105 	tsteq	r6, r5, lsl #2
    11d4:	024b0105 	subeq	r0, fp, #1073741825	; 0x40000001
    11d8:	01010004 	tsteq	r1, r4
    11dc:	000000e9 	andeq	r0, r0, r9, ror #1
    11e0:	005e0003 	subseq	r0, lr, r3
    11e4:	01020000 	mrseq	r0, (UNDEF: 2)
    11e8:	000d0efb 	strdeq	r0, [sp], -fp
    11ec:	01010101 	tsteq	r1, r1, lsl #2
    11f0:	01000000 	mrseq	r0, (UNDEF: 0)
    11f4:	2e010000 	cdpcs	0, 0, cr0, cr1, cr0, {0}
    11f8:	62696c2f 	rsbvs	r6, r9, #12032	; 0x2f00
    11fc:	552f0063 	strpl	r0, [pc, #-99]!	; 11a1 <__code_start__-0x6e5f>
    1200:	73726573 	cmnvc	r2, #482344960	; 0x1cc00000
    1204:	6d64612f 	stfvse	f6, [r4, #-188]!	; 0xffffff44
    1208:	432f6e69 			; <UNDEFINED> instruction: 0x432f6e69
    120c:	39342d53 	ldmdbcc	r4!, {r0, r1, r4, r6, r8, sl, fp, sp}
    1210:	73632f4e 	cmnvc	r3, #312	; 0x138
    1214:	2d6e3934 			; <UNDEFINED> instruction: 0x2d6e3934
    1218:	75613132 	strbvc	r3, [r1, #-306]!	; 0xfffffece
    121c:	6c2f2f74 	stcvs	15, cr2, [pc], #-464	; 1054 <__code_start__-0x6fac>
    1220:	69706269 	ldmdbvs	r0!, {r0, r3, r5, r6, r9, sp, lr}^
    1224:	636e692f 	cmnvs	lr, #770048	; 0xbc000
    1228:	6564756c 	strbvs	r7, [r4, #-1388]!	; 0xfffffa94
    122c:	74730000 	ldrbtvc	r0, [r3], #-0
    1230:	74616372 	strbtvc	r6, [r1], #-882	; 0xfffffc8e
    1234:	0100632e 	tsteq	r0, lr, lsr #6
    1238:	70720000 	rsbsvc	r0, r2, r0
    123c:	00682e69 	rsbeq	r2, r8, r9, ror #28
    1240:	00000002 	andeq	r0, r0, r2
    1244:	05002c05 	streq	r2, [r0, #-3077]	; 0xfffff3fb
    1248:	008fd002 	addeq	sp, pc, r2
    124c:	05051500 	streq	r1, [r5, #-1280]	; 0xfffffb00
    1250:	0b051313 	bleq	145ea4 <__bss_end__+0x13c794>
    1254:	05051106 	streq	r1, [r5, #-262]	; 0xfffffefa
    1258:	01040200 	mrseq	r0, R12_usr
    125c:	02003006 	andeq	r3, r0, #6, 0
    1260:	05150104 	ldreq	r0, [r5, #-260]	; 0xfffffefc
    1264:	04020009 	streq	r0, [r2], #-9
    1268:	10051301 	andne	r1, r5, r1, lsl #6
    126c:	01040200 	mrseq	r0, R12_usr
    1270:	0b052e06 	bleq	14ca90 <__bss_end__+0x143380>
    1274:	01040200 	mrseq	r0, R12_usr
    1278:	0402002e 	streq	r0, [r2], #-46	; 0xffffffd2
    127c:	052f0601 	streq	r0, [pc, #-1537]!	; c83 <__code_start__-0x737d>
    1280:	04020005 	streq	r0, [r2], #-5
    1284:	06010601 	streq	r0, [r1], -r1, lsl #12
    1288:	0608054e 	streq	r0, [r8], -lr, asr #10
    128c:	00050501 	andeq	r0, r5, r1, lsl #10
    1290:	06010402 	streq	r0, [r1], -r2, lsl #8
    1294:	0009052f 	andeq	r0, r9, pc, lsr #10
    1298:	13010402 	movwne	r0, #5122	; 0x1402
    129c:	02000b05 	andeq	r0, r0, #5120	; 0x1400
    12a0:	01060104 	tsteq	r6, r4, lsl #2
    12a4:	02000905 	andeq	r0, r0, #81920	; 0x14000
    12a8:	4b060104 	blmi	1816c0 <__bss_end__+0x177fb0>
    12ac:	02000f05 	andeq	r0, r0, #5, 30
    12b0:	01060104 	tsteq	r6, r4, lsl #2
    12b4:	02000d05 	andeq	r0, r0, #320	; 0x140
    12b8:	2f060104 	svccs	0x00060104
    12bc:	02000505 	andeq	r0, r0, #20971520	; 0x1400000
    12c0:	01060104 	tsteq	r6, r4, lsl #2
    12c4:	01000602 	tsteq	r0, r2, lsl #12
    12c8:	0000a201 	andeq	sl, r0, r1, lsl #4
    12cc:	5e000300 	cdppl	3, 0, cr0, cr0, cr0, {0}
    12d0:	02000000 	andeq	r0, r0, #0, 0
    12d4:	0d0efb01 	vstreq	d15, [lr, #-4]
    12d8:	01010100 	mrseq	r0, (UNDEF: 17)
    12dc:	00000001 	andeq	r0, r0, r1
    12e0:	01000001 	tsteq	r0, r1
    12e4:	696c2f2e 	stmdbvs	ip!, {r1, r2, r3, r5, r8, r9, sl, fp, sp}^
    12e8:	2f006362 	svccs	0x00006362
    12ec:	72657355 	rsbvc	r7, r5, #1409286145	; 0x54000001
    12f0:	64612f73 	strbtvs	r2, [r1], #-3955	; 0xfffff08d
    12f4:	2f6e696d 	svccs	0x006e696d
    12f8:	342d5343 	strtcc	r5, [sp], #-835	; 0xfffffcbd
    12fc:	632f4e39 			; <UNDEFINED> instruction: 0x632f4e39
    1300:	6e393473 	mrcvs	4, 1, r3, cr9, cr3, {3}
    1304:	6131322d 	teqvs	r1, sp, lsr #4
    1308:	2f2f7475 	svccs	0x002f7475
    130c:	7062696c 	rsbvc	r6, r2, ip, ror #18
    1310:	6e692f69 	cdpvs	15, 6, cr2, cr9, cr9, {3}
    1314:	64756c63 	ldrbtvs	r6, [r5], #-3171	; 0xfffff39d
    1318:	73000065 	movwvc	r0, #101	; 0x65
    131c:	6d637274 	sfmvs	f7, 2, [r3, #-464]!	; 0xfffffe30
    1320:	00632e70 	rsbeq	r2, r3, r0, ror lr
    1324:	72000001 	andvc	r0, r0, #1, 0
    1328:	682e6970 	stmdavs	lr!, {r4, r5, r6, r8, fp, sp, lr}
    132c:	00000200 	andeq	r0, r0, r0, lsl #4
    1330:	002a0500 	eoreq	r0, sl, r0, lsl #10
    1334:	90040205 	andls	r0, r4, r5, lsl #4
    1338:	05140000 	ldreq	r0, [r4, #-0]
    133c:	0f051309 	svceq	0x00051309
    1340:	06100501 	ldreq	r0, [r0], -r1, lsl #10
    1344:	2e0f0501 	cfsh32cs	mvfx0, mvfx15, #1
    1348:	02001c05 	andeq	r1, r0, #1280	; 0x500
    134c:	054a0104 	strbeq	r0, [sl, #-260]	; 0xfffffefc
    1350:	04020013 	streq	r0, [r2], #-19	; 0xffffffed
    1354:	11052e01 	tstne	r5, r1, lsl #28
    1358:	16052f06 	strne	r2, [r5], -r6, lsl #30
    135c:	052e2e06 	streq	r2, [lr, #-3590]!	; 0xfffff1fa
    1360:	052f0609 	streq	r0, [pc, #-1545]!	; d5f <__code_start__-0x72a1>
    1364:	05010615 	streq	r0, [r1, #-1557]	; 0xfffff9eb
    1368:	04022f01 	streq	r2, [r2], #-3841	; 0xfffff0ff
    136c:	a0010100 	andge	r0, r1, r0, lsl #2
    1370:	03000000 	movweq	r0, #0
    1374:	00005e00 	andeq	r5, r0, r0, lsl #28
    1378:	fb010200 	blx	41b82 <__bss_end__+0x38472>
    137c:	01000d0e 	tsteq	r0, lr, lsl #26
    1380:	00010101 	andeq	r0, r1, r1, lsl #2
    1384:	00010000 	andeq	r0, r1, r0
    1388:	2f2e0100 	svccs	0x002e0100
    138c:	6362696c 	cmnvs	r2, #108, 18	; 0x1b0000
    1390:	73552f00 	cmpvc	r5, #0, 30
    1394:	2f737265 	svccs	0x00737265
    1398:	696d6461 	stmdbvs	sp!, {r0, r5, r6, sl, sp, lr}^
    139c:	53432f6e 	movtpl	r2, #16238	; 0x3f6e
    13a0:	4e39342d 	cdpmi	4, 3, cr3, cr9, cr13, {1}
    13a4:	3473632f 	ldrbtcc	r6, [r3], #-815	; 0xfffffcd1
    13a8:	322d6e39 	eorcc	r6, sp, #912	; 0x390
    13ac:	74756131 	ldrbtvc	r6, [r5], #-305	; 0xfffffecf
    13b0:	696c2f2f 	stmdbvs	ip!, {r0, r1, r2, r3, r5, r8, r9, sl, fp, sp}^
    13b4:	2f697062 	svccs	0x00697062
    13b8:	6c636e69 	stclvs	14, cr6, [r3], #-420	; 0xfffffe5c
    13bc:	00656475 	rsbeq	r6, r5, r5, ror r4
    13c0:	72747300 	rsbsvc	r7, r4, #0, 6
    13c4:	2e797063 	cdpcs	0, 7, cr7, cr9, cr3, {3}
    13c8:	00010063 	andeq	r0, r1, r3, rrx
    13cc:	69707200 	ldmdbvs	r0!, {r9, ip, sp, lr}^
    13d0:	0200682e 	andeq	r6, r0, #3014656	; 0x2e0000
    13d4:	05000000 	streq	r0, [r0, #-0]
    13d8:	0205002a 	andeq	r0, r5, #42, 0	; 0x2a
    13dc:	00009030 	andeq	r9, r0, r0, lsr r0
    13e0:	13050514 	movwne	r0, #21780	; 0x5514
    13e4:	06140513 			; <UNDEFINED> instruction: 0x06140513
    13e8:	00220511 	eoreq	r0, r2, r1, lsl r5
    13ec:	06010402 	streq	r0, [r1], -r2, lsl #8
    13f0:	000b052f 	andeq	r0, fp, pc, lsr #10
    13f4:	01010402 	tsteq	r1, r2, lsl #8
    13f8:	02001505 	andeq	r1, r0, #20971520	; 0x1400000
    13fc:	01060104 	tsteq	r6, r4, lsl #2
    1400:	02001305 	andeq	r1, r0, #335544320	; 0x14000000
    1404:	054a0104 	strbeq	r0, [sl, #-260]	; 0xfffffefc
    1408:	0402000b 	streq	r0, [r2], #-11
    140c:	06024a01 	streq	r4, [r2], -r1, lsl #20
    1410:	03010100 	movweq	r0, #4352	; 0x1100
    1414:	03000001 	movweq	r0, #1
    1418:	0000c700 	andeq	ip, r0, r0, lsl #14
    141c:	fb010200 	blx	41c26 <__bss_end__+0x38516>
    1420:	01000d0e 	tsteq	r0, lr, lsl #26
    1424:	00010101 	andeq	r0, r1, r1, lsl #2
    1428:	00010000 	andeq	r0, r1, r0
    142c:	2f2e0100 	svccs	0x002e0100
    1430:	6362696c 	cmnvs	r2, #108, 18	; 0x1b0000
    1434:	73552f00 	cmpvc	r5, #0, 30
    1438:	2f737265 	svccs	0x00737265
    143c:	696d6461 	stmdbvs	sp!, {r0, r5, r6, sl, sp, lr}^
    1440:	53432f6e 	movtpl	r2, #16238	; 0x3f6e
    1444:	4e39342d 	cdpmi	4, 3, cr3, cr9, cr13, {1}
    1448:	3473632f 	ldrbtcc	r6, [r3], #-815	; 0xfffffcd1
    144c:	322d6e39 	eorcc	r6, sp, #912	; 0x390
    1450:	74756131 	ldrbtvc	r6, [r5], #-305	; 0xfffffecf
    1454:	696c2f2f 	stmdbvs	ip!, {r0, r1, r2, r3, r5, r8, r9, sl, fp, sp}^
    1458:	2f697062 	svccs	0x00697062
    145c:	6c636e69 	stclvs	14, cr6, [r3], #-420	; 0xfffffe5c
    1460:	00656475 	rsbeq	r6, r5, r5, ror r4
    1464:	74706f2f 	ldrbtvc	r6, [r0], #-3887	; 0xfffff0d1
    1468:	6d6f682f 	stclvs	8, cr6, [pc, #-188]!	; 13b4 <__code_start__-0x6c4c>
    146c:	65726265 	ldrbvs	r6, [r2, #-613]!	; 0xfffffd9b
    1470:	65432f77 	strbvs	r2, [r3, #-3959]	; 0xfffff089
    1474:	72616c6c 	rsbvc	r6, r1, #108, 24	; 0x6c00
    1478:	6d72612f 	ldfvse	f6, [r2, #-188]!	; 0xffffff44
    147c:	6e6f6e2d 	cdpvs	14, 6, cr6, cr15, cr13, {1}
    1480:	61652d65 	cmnvs	r5, r5, ror #26
    1484:	742d6962 	strtvc	r6, [sp], #-2402	; 0xfffff69e
    1488:	2f747365 	svccs	0x00747365
    148c:	30322d39 	eorscc	r2, r2, r9, lsr sp
    1490:	34713931 	ldrbtcc	r3, [r1], #-2353	; 0xfffff6cf
    1494:	3173632d 	cmncc	r3, sp, lsr #6
    1498:	2f653730 	svccs	0x00653730
    149c:	2f62696c 	svccs	0x0062696c
    14a0:	2f636367 	svccs	0x00636367
    14a4:	2d6d7261 	sfmcs	f7, 2, [sp, #-388]!	; 0xfffffe7c
    14a8:	656e6f6e 	strbvs	r6, [lr, #-3950]!	; 0xfffff092
    14ac:	6261652d 	rsbvs	r6, r1, #188743680	; 0xb400000
    14b0:	2e392f69 	cdpcs	15, 3, cr2, cr9, cr9, {3}
    14b4:	2f312e32 	svccs	0x00312e32
    14b8:	6c636e69 	stclvs	14, cr6, [r3], #-420	; 0xfffffe5c
    14bc:	00656475 	rsbeq	r6, r5, r5, ror r4
    14c0:	72747300 	rsbsvc	r7, r4, #0, 6
    14c4:	706d636e 	rsbvc	r6, sp, lr, ror #6
    14c8:	0100632e 	tsteq	r0, lr, lsr #6
    14cc:	70720000 	rsbsvc	r0, r2, r0
    14d0:	00682e69 	rsbeq	r2, r8, r9, ror #28
    14d4:	73000002 	movwvc	r0, #2
    14d8:	65646474 	strbvs	r6, [r4, #-1140]!	; 0xfffffb8c
    14dc:	00682e66 	rsbeq	r2, r8, r6, ror #28
    14e0:	00000003 	andeq	r0, r0, r3
    14e4:	05003905 	streq	r3, [r0, #-2309]	; 0xfffff6fb
    14e8:	00905002 	addseq	r5, r0, r2
    14ec:	05051500 	streq	r1, [r5, #-1280]	; 0xfffffb00
    14f0:	0a051313 	beq	146144 <__bss_end__+0x13ca34>
    14f4:	4a010601 	bmi	42d00 <__bss_end__+0x395f0>
    14f8:	2f060905 	svccs	0x00060905
    14fc:	01060c05 	tsteq	r6, r5, lsl #24
    1500:	052e1305 	streq	r1, [lr, #-773]!	; 0xfffffcfb
    1504:	0d052e0b 	stceq	14, cr2, [r5, #-44]	; 0xffffffd4
    1508:	1b054b06 	blne	154128 <__bss_end__+0x14aa18>
    150c:	052e0106 	streq	r0, [lr, #-262]!	; 0xfffffefa
    1510:	0105300c 	tsteq	r5, ip
    1514:	0002022f 	andeq	r0, r2, pc, lsr #4
    1518:	Address 0x0000000000001518 is out of bounds.


Disassembly of section .debug_str:

00000000 <.debug_str>:
   0:	735f6368 	cmpvc	pc, #104, 6	; 0xa0000001
   4:	5f343072 	svcpl	0x00343072
   8:	6f6e0074 	svcvs	0x006e0074
   c:	69616d74 	stmdbvs	r1!, {r2, r4, r5, r6, r8, sl, fp, sp, lr}^
  10:	6368006e 	cmnvs	r8, #110, 0	; 0x6e
  14:	3072735f 	rsbscc	r7, r2, pc, asr r3
  18:	65675f34 	strbvs	r5, [r7, #-3892]!	; 0xfffff0cc
  1c:	69645f74 	stmdbvs	r4!, {r2, r4, r5, r6, r8, r9, sl, fp, ip, lr}^
  20:	6e617473 	mcrvs	4, 3, r7, cr1, cr3, {3}
  24:	6e006563 	cfsh32vs	mvfx6, mvfx0, #51
  28:	656d6974 	strbvs	r6, [sp, #-2420]!	; 0xfffff68c
  2c:	0074756f 	rsbseq	r7, r4, pc, ror #10
  30:	69736e75 	ldmdbvs	r3!, {r0, r2, r4, r5, r6, r9, sl, fp, sp, lr}^
  34:	64656e67 	strbtvs	r6, [r5], #-3687	; 0xfffff199
  38:	61686320 	cmnvs	r8, r0, lsr #6
  3c:	65640072 	strbvs	r0, [r4, #-114]!	; 0xffffff8e
  40:	5f79616c 	svcpl	0x0079616c
  44:	6300736d 	movwvs	r7, #877	; 0x36d
  48:	6e61656c 	cdpvs	5, 6, cr6, cr1, cr12, {3}
  4c:	6265725f 	rsbvs	r7, r5, #-268435451	; 0xf0000005
  50:	00746f6f 	rsbseq	r6, r4, pc, ror #30
  54:	735f6368 	cmpvc	pc, #104, 6	; 0xa0000001
  58:	5f343072 	svcpl	0x00343072
  5c:	74696e69 	strbtvc	r6, [r9], #-3689	; 0xfffff197
  60:	6f687300 	svcvs	0x00687300
  64:	75207472 	strvc	r7, [r0, #-1138]!	; 0xfffffb8e
  68:	6769736e 	strbvs	r7, [r9, -lr, ror #6]!
  6c:	2064656e 	rsbcs	r6, r4, lr, ror #10
  70:	00746e69 	rsbseq	r6, r4, r9, ror #28
  74:	6f686365 	svcvs	0x00686365
  78:	6e69705f 	mcrvs	0, 3, r7, cr9, cr15, {2}
  7c:	732d3100 			; <UNDEFINED> instruction: 0x732d3100
  80:	72616e6f 	rsbvc	r6, r1, #1776	; 0x6f0
  84:	2f00632e 	svccs	0x0000632e
  88:	72657355 	rsbvc	r7, r5, #1409286145	; 0x54000001
  8c:	64612f73 	strbtvs	r2, [r1], #-3955	; 0xfffff08d
  90:	2f6e696d 	svccs	0x006e696d
  94:	342d5343 	strtcc	r5, [sp], #-835	; 0xfffffcbd
  98:	632f4e39 			; <UNDEFINED> instruction: 0x632f4e39
  9c:	6e393473 	mrcvs	4, 1, r3, cr9, cr3, {3}
  a0:	6131322d 	teqvs	r1, sp, lsr #4
  a4:	6c2f7475 	cfstrsvs	mvf7, [pc], #-468	; fffffed8 <__bss_end__+0xffff67c8>
  a8:	2f736261 	svccs	0x00736261
  ac:	6f732d33 	svcvs	0x00732d33
  b0:	2f72616e 	svccs	0x0072616e
  b4:	65646f63 	strbvs	r6, [r4, #-3939]!	; 0xfffff09d
  b8:	6e6f6c00 	cdpvs	12, 6, cr6, cr15, cr0, {0}
  bc:	6f6c2067 	svcvs	0x006c2067
  c0:	7520676e 	strvc	r6, [r0, #-1902]!	; 0xfffff892
  c4:	6769736e 	strbvs	r7, [r9, -lr, ror #6]!
  c8:	2064656e 	rsbcs	r6, r4, lr, ror #10
  cc:	00746e69 	rsbseq	r6, r4, r9, ror #28
  d0:	74736964 	ldrbtvc	r6, [r3], #-2404	; 0xfffff69c
  d4:	6e6f6c00 	cdpvs	12, 6, cr6, cr15, cr0, {0}
  d8:	6f6c2067 	svcvs	0x006c2067
  dc:	6920676e 	stmdbvs	r0!, {r1, r2, r3, r5, r6, r8, r9, sl, sp, lr}
  e0:	7200746e 	andvc	r7, r0, #1845493760	; 0x6e000000
  e4:	705f6970 	subsvc	r6, pc, r0, ror r9	; <UNPREDICTABLE>
  e8:	68637475 	stmdavs	r3!, {r0, r2, r4, r5, r6, sl, ip, sp, lr}^
  ec:	74007261 	strvc	r7, [r0], #-609	; 0xfffffd9f
  f0:	67676972 			; <UNDEFINED> instruction: 0x67676972
  f4:	73007265 	movwvc	r7, #613	; 0x265
  f8:	74726f68 	ldrbtvc	r6, [r2], #-3944	; 0xfffff098
  fc:	746e6920 	strbtvc	r6, [lr], #-2336	; 0xfffff6e0
 100:	554e4700 	strbpl	r4, [lr, #-1792]	; 0xfffff900
 104:	39394320 	ldmdbcc	r9!, {r5, r8, r9, lr}
 108:	322e3920 	eorcc	r3, lr, #32, 18	; 0x80000
 10c:	3220312e 	eorcc	r3, r0, #-2147483637	; 0x8000000b
 110:	31393130 	teqcc	r9, r0, lsr r1
 114:	20353230 	eorscs	r3, r5, r0, lsr r2
 118:	6c657228 	sfmvs	f7, 2, [r5], #-160	; 0xffffff60
 11c:	65736165 	ldrbvs	r6, [r3, #-357]!	; 0xfffffe9b
 120:	415b2029 	cmpmi	fp, r9, lsr #32
 124:	612f4d52 			; <UNDEFINED> instruction: 0x612f4d52
 128:	392d6d72 	pushcc	{r1, r4, r5, r6, r8, sl, fp, sp, lr}
 12c:	6172622d 	cmnvs	r2, sp, lsr #4
 130:	2068636e 	rsbcs	r6, r8, lr, ror #6
 134:	69766572 	ldmdbvs	r6!, {r1, r4, r5, r6, r8, sl, sp, lr}^
 138:	6e6f6973 			; <UNDEFINED> instruction: 0x6e6f6973
 13c:	37373220 	ldrcc	r3, [r7, -r0, lsr #4]!
 140:	5d393935 			; <UNDEFINED> instruction: 0x5d393935
 144:	636d2d20 	cmnvs	sp, #32, 26	; 0x800
 148:	613d7570 	teqvs	sp, r0, ror r5
 14c:	31316d72 	teqcc	r1, r2, ror sp
 150:	7a6a3637 	bvc	1a8da34 <__bss_end__+0x1a84324>
 154:	20732d66 	rsbscs	r2, r3, r6, ror #26
 158:	75746d2d 	ldrbvc	r6, [r4, #-3373]!	; 0xfffff2d3
 15c:	613d656e 	teqvs	sp, lr, ror #10
 160:	31316d72 	teqcc	r1, r2, ror sp
 164:	7a6a3637 	bvc	1a8da48 <__bss_end__+0x1a84338>
 168:	20732d66 	rsbscs	r2, r3, r6, ror #26
 16c:	6c666d2d 	stclvs	13, cr6, [r6], #-180	; 0xffffff4c
 170:	2d74616f 	ldfcse	f6, [r4, #-444]!	; 0xfffffe44
 174:	3d696261 	sfmcc	f6, 2, [r9, #-388]!	; 0xfffffe7c
 178:	74666f73 	strbtvc	r6, [r6], #-3955	; 0xfffff08d
 17c:	616d2d20 	cmnvs	sp, r0, lsr #26
 180:	2d206d72 	stccs	13, cr6, [r0, #-456]!	; 0xfffffe38
 184:	6372616d 	cmnvs	r2, #1073741851	; 0x4000001b
 188:	72613d68 	rsbvc	r3, r1, #104, 26	; 0x1a00
 18c:	6b36766d 	blvs	d9db48 <__bss_end__+0xd94438>
 190:	672d207a 			; <UNDEFINED> instruction: 0x672d207a
 194:	20626467 	rsbcs	r6, r2, r7, ror #8
 198:	20674f2d 	rsbcs	r4, r7, sp, lsr #30
 19c:	6474732d 	ldrbtvs	r7, [r4], #-813	; 0xfffffcd3
 1a0:	756e673d 	strbvc	r6, [lr, #-1853]!	; 0xfffff8c3
 1a4:	2d203939 			; <UNDEFINED> instruction: 0x2d203939
 1a8:	65726666 	ldrbvs	r6, [r2, #-1638]!	; 0xfffff99a
 1ac:	61747365 	cmnvs	r4, r5, ror #6
 1b0:	6e69646e 	cdpvs	4, 6, cr6, cr9, cr14, {3}
 1b4:	72740067 	rsbsvc	r0, r4, #103, 0	; 0x67
 1b8:	65676769 	strbvs	r6, [r7, #-1897]!	; 0xfffff897
 1bc:	69705f72 	ldmdbvs	r0!, {r1, r4, r5, r6, r8, r9, sl, fp, ip, lr}^
 1c0:	6365006e 	cmnvs	r5, #110, 0	; 0x6e
 1c4:	74006f68 	strvc	r6, [r0], #-3944	; 0xfffff098
 1c8:	6f656d69 	svcvs	0x00656d69
 1cc:	755f7475 	ldrbvc	r7, [pc, #-1141]	; fffffd5f <__bss_end__+0xffff664f>
 1d0:	00636573 	rsbeq	r6, r3, r3, ror r5
 1d4:	6f697067 	svcvs	0x00697067
 1d8:	6165725f 	cmnvs	r5, pc, asr r2
 1dc:	70670064 	rsbvc	r0, r7, r4, rrx
 1e0:	735f6f69 	cmpvc	pc, #420	; 0x1a4
 1e4:	6f5f7465 	svcvs	0x005f7465
 1e8:	75707475 	ldrbvc	r7, [r0, #-1141]!	; 0xfffffb8b
 1ec:	70670074 	rsbvc	r0, r7, r4, ror r0
 1f0:	735f6f69 	cmpvc	pc, #420	; 0x1a4
 1f4:	695f7465 	ldmdbvs	pc, {r0, r2, r5, r6, sl, ip, sp, lr}^	; <UNPREDICTABLE>
 1f8:	7475706e 	ldrbtvc	r7, [r5], #-110	; 0xffffff92
 1fc:	6c656400 	cfstrdvs	mvd6, [r5], #-0
 200:	755f7961 	ldrbvc	r7, [pc, #-2401]	; fffff8a7 <__bss_end__+0xffff6197>
 204:	70670073 	rsbvc	r0, r7, r3, ror r0
 208:	735f6f69 	cmpvc	pc, #420	; 0x1a4
 20c:	6f5f7465 	svcvs	0x005f7465
 210:	74006666 	strvc	r6, [r0], #-1638	; 0xfffff99a
 214:	72656d69 	rsbvc	r6, r5, #6720	; 0x1a40
 218:	7465675f 	strbtvc	r6, [r5], #-1887	; 0xfffff8a1
 21c:	6573755f 	ldrbvs	r7, [r3, #-1375]!	; 0xfffffaa1
 220:	65720063 	ldrbvs	r0, [r2, #-99]!	; 0xffffff9d
 224:	775f6461 	ldrbvc	r6, [pc, -r1, ror #8]
 228:	656c6968 	strbvs	r6, [ip, #-2408]!	; 0xfffff698
 22c:	0071655f 	rsbseq	r6, r1, pc, asr r5
 230:	6f697067 	svcvs	0x00697067
 234:	7465735f 	strbtvc	r7, [r5], #-863	; 0xfffffca1
 238:	6c75705f 	ldclvs	0, cr7, [r5], #-380	; 0xfffffe84
 23c:	776f646c 	strbvc	r6, [pc, -ip, ror #8]!
 240:	2f2e006e 	svccs	0x002e006e
 244:	2f637273 	svccs	0x00637273
 248:	732d7268 			; <UNDEFINED> instruction: 0x732d7268
 24c:	2e343072 	mrccs	0, 1, r3, cr4, cr2, {3}
 250:	75630063 	strbvc	r0, [r3, #-99]!	; 0xffffff9d
 254:	69547272 	ldmdbvs	r4, {r1, r4, r5, r6, r9, ip, sp, lr}^
 258:	7300656d 	movwvc	r6, #1389	; 0x56d
 25c:	74726174 	ldrbtvc	r6, [r2], #-372	; 0xfffffe8c
 260:	656d6954 	strbvs	r6, [sp, #-2388]!	; 0xfffff6ac
 264:	73552f00 	cmpvc	r5, #0, 30
 268:	2f737265 	svccs	0x00737265
 26c:	696d6461 	stmdbvs	sp!, {r0, r5, r6, sl, sp, lr}^
 270:	53432f6e 	movtpl	r2, #16238	; 0x3f6e
 274:	4e39342d 	cdpmi	4, 3, cr3, cr9, cr13, {1}
 278:	3473632f 	ldrbtcc	r6, [r3], #-815	; 0xfffffcd1
 27c:	322d6e39 	eorcc	r6, sp, #912	; 0x390
 280:	74756131 	ldrbtvc	r6, [r5], #-305	; 0xfffffecf
 284:	62696c2f 	rsbvs	r6, r9, #12032	; 0x2f00
 288:	67006970 	smlsdxvs	r0, r0, r9, r6
 28c:	5f6f6970 	svcpl	0x006f6970
 290:	5f746573 	svcpl	0x00746573
 294:	61006e6f 	tstvs	r0, pc, ror #28
 298:	00736772 	rsbseq	r6, r3, r2, ror r7
 29c:	705f6176 	subsvc	r6, pc, r6, ror r1	; <UNPREDICTABLE>
 2a0:	746e6972 	strbtvc	r6, [lr], #-2418	; 0xfffff68e
 2a4:	5f5f006b 	svcpl	0x005f006b
 2a8:	63756e67 	cmnvs	r5, #1648	; 0x670
 2ac:	5f61765f 	svcpl	0x0061765f
 2b0:	7473696c 	ldrbtvc	r6, [r3], #-2412	; 0xfffff694
 2b4:	615f5f00 	cmpvs	pc, r0, lsl #30
 2b8:	2f2e0070 	svccs	0x002e0070
 2bc:	6362696c 	cmnvs	r2, #108, 18	; 0x1b0000
 2c0:	6972702f 	ldmdbvs	r2!, {r0, r1, r2, r3, r5, ip, sp, lr}^
 2c4:	2e6b746e 	cdpcs	4, 6, cr7, cr11, cr14, {3}
 2c8:	5f5f0063 	svcpl	0x005f0063
 2cc:	6c5f6176 	ldfvse	f6, [pc], {118}	; 0x76
 2d0:	00747369 	rsbseq	r7, r4, r9, ror #6
 2d4:	65746e69 	ldrbvs	r6, [r4, #-3689]!	; 0xfffff197
 2d8:	6c616e72 	stclvs	14, cr6, [r1], #-456	; 0xfffffe38
 2dc:	7475705f 	ldrbtvc	r7, [r5], #-95	; 0xffffffa1
 2e0:	2f2e006b 	svccs	0x002e006b
 2e4:	6362696c 	cmnvs	r2, #108, 18	; 0x1b0000
 2e8:	7475702f 	ldrbtvc	r7, [r5], #-47	; 0xffffffd1
 2ec:	00632e6b 	rsbeq	r2, r3, fp, ror #28
 2f0:	69647369 	stmdbvs	r4!, {r0, r3, r5, r6, r8, r9, ip, sp, lr}^
 2f4:	00746967 	rsbseq	r6, r4, r7, ror #18
 2f8:	746e6975 	strbtvc	r6, [lr], #-2421	; 0xfffff68b
 2fc:	745f3436 	ldrbvc	r3, [pc], #-1078	; 304 <__code_start__-0x7cfc>
 300:	6c2f2e00 	stcvs	14, cr2, [pc], #-0	; 308 <__code_start__-0x7cf8>
 304:	2f636269 	svccs	0x00636269
 308:	702d6176 	eorvc	r6, sp, r6, ror r1
 30c:	746e6972 	strbtvc	r6, [lr], #-2418	; 0xfffff68e
 310:	00632e6b 	rsbeq	r2, r3, fp, ror #28
 314:	6f635f5f 	svcvs	0x00635f5f
 318:	735f6564 	cmpvc	pc, #100, 10	; 0x19000000
 31c:	74726174 	ldrbtvc	r6, [r2], #-372	; 0xfffffe8c
 320:	5f005f5f 	svcpl	0x00005f5f
 324:	7373625f 	cmnvc	r3, #-268435451	; 0xf0000005
 328:	6174735f 	cmnvs	r4, pc, asr r3
 32c:	5f5f7472 	svcpl	0x005f7472
 330:	64697700 	strbtvs	r7, [r9], #-1792	; 0xfffff900
 334:	5f006874 	svcpl	0x00006874
 338:	4e55465f 	mrcmi	6, 2, r4, cr5, cr15, {2}
 33c:	4f495443 	svcmi	0x00495443
 340:	005f5f4e 	subseq	r5, pc, lr, asr #30
 344:	61645f5f 	cmnvs	r4, pc, asr pc
 348:	655f6174 	ldrbvs	r6, [pc, #-372]	; 1dc <__code_start__-0x7e24>
 34c:	5f5f646e 	svcpl	0x005f646e
 350:	74757000 	ldrbtvc	r7, [r5], #-0
 354:	70665f63 	rsbvc	r5, r6, r3, ror #30
 358:	625f5f00 	subsvs	r5, pc, #0, 30
 35c:	655f7373 	ldrbvs	r7, [pc, #-883]	; fffffff1 <__bss_end__+0xffff68e1>
 360:	5f5f646e 	svcpl	0x005f646e
 364:	685f5f00 	ldmdavs	pc, {r8, r9, sl, fp, ip, lr}^	; <UNPREDICTABLE>
 368:	5f706165 	svcpl	0x00706165
 36c:	72617473 	rsbvc	r7, r1, #1929379840	; 0x73000000
 370:	005f5f74 	subseq	r5, pc, r4, ror pc	; <UNPREDICTABLE>
 374:	746e6975 	strbtvc	r6, [lr], #-2421	; 0xfffff68b
 378:	745f3233 	ldrbvc	r3, [pc], #-563	; 380 <__code_start__-0x7c80>
 37c:	69707200 	ldmdbvs	r0!, {r9, ip, sp, lr}^
 380:	7465735f 	strbtvc	r7, [r5], #-863	; 0xfffffca1
 384:	74756f5f 	ldrbtvc	r6, [r5], #-3935	; 0xfffff0a1
 388:	00747570 	rsbseq	r7, r4, r0, ror r5
 38c:	5f746d66 	svcpl	0x00746d66
 390:	72617473 	rsbvc	r7, r1, #1929379840	; 0x73000000
 394:	74730074 	ldrbtvc	r0, [r3], #-116	; 0xffffff8c
 398:	74616372 	strbtvc	r6, [r1], #-882	; 0xfffffc8e
 39c:	72747300 	rsbsvc	r7, r4, #0, 6
 3a0:	00797063 	rsbseq	r7, r9, r3, rrx
 3a4:	5f67656e 	svcpl	0x0067656e
 3a8:	5f5f0070 	svcpl	0x005f0070
 3ac:	65646f63 	strbvs	r6, [r4, #-3939]!	; 0xfffff09d
 3b0:	646e655f 	strbtvs	r6, [lr], #-1375	; 0xfffffaa1
 3b4:	65005f5f 	strvs	r5, [r0, #-3935]	; 0xfffff0a1
 3b8:	0074696d 	rsbseq	r6, r4, sp, ror #18
 3bc:	73747570 	cmnvc	r4, #112, 10	; 0x1c000000
 3c0:	0070665f 	rsbseq	r6, r0, pc, asr r6
 3c4:	65766572 	ldrbvs	r6, [r6, #-1394]!	; 0xfffffa8e
 3c8:	00657372 	rsbeq	r7, r5, r2, ror r3
 3cc:	63727473 	cmnvs	r2, #1929379840	; 0x73000000
 3d0:	5f00706d 	svcpl	0x0000706d
 3d4:	7461645f 	strbtvc	r6, [r1], #-1119	; 0xfffffba1
 3d8:	74735f61 	ldrbtvc	r5, [r3], #-3937	; 0xfffff09f
 3dc:	5f747261 	svcpl	0x00747261
 3e0:	5f5f005f 	svcpl	0x005f005f
 3e4:	676f7270 			; <UNDEFINED> instruction: 0x676f7270
 3e8:	646e655f 	strbtvs	r6, [lr], #-1375	; 0xfffffaa1
 3ec:	6e005f5f 	mcrvs	15, 0, r5, cr0, cr15, {2}
 3f0:	00316d75 	eorseq	r6, r1, r5, ror sp
 3f4:	6e727473 	mrcvs	4, 3, r7, cr2, cr3, {3}
 3f8:	00706d63 	rsbseq	r6, r0, r3, ror #26
 3fc:	65736162 	ldrbvs	r6, [r3, #-354]!	; 0xfffffe9e
 400:	67697300 	strbvs	r7, [r9, -r0, lsl #6]!
 404:	5f64656e 	svcpl	0x0064656e
 408:	70720070 	rsbsvc	r0, r2, r0, ror r0
 40c:	65725f69 	ldrbvs	r5, [r2, #-3945]!	; 0xfffff097
 410:	746f6f62 	strbtvc	r6, [pc], #-3938	; 418 <__code_start__-0x7be8>
 414:	732f2e00 			; <UNDEFINED> instruction: 0x732f2e00
 418:	66666174 			; <UNDEFINED> instruction: 0x66666174
 41c:	6372732d 	cmnvs	r2, #-1275068416	; 0xb4000000
 420:	656c632f 	strbvs	r6, [ip, #-815]!	; 0xfffffcd1
 424:	722d6e61 	eorvc	r6, sp, #1552	; 0x610
 428:	6f6f6265 	svcvs	0x006f6265
 42c:	00632e74 	rsbeq	r2, r3, r4, ror lr
 430:	74726175 	ldrbtvc	r6, [r2], #-373	; 0xfffffe8b
 434:	756c665f 	strbvc	r6, [ip, #-1631]!	; 0xfffff9a1
 438:	745f6873 	ldrbvc	r6, [pc], #-2163	; 440 <__code_start__-0x7bc0>
 43c:	635f0078 	cmpvs	pc, #120, 0	; 0x78
 440:	72617473 	rsbvc	r7, r1, #1929379840	; 0x73000000
 444:	73620074 	cmnvc	r2, #116, 0	; 0x74
 448:	6e655f73 	mcrvs	15, 3, r5, cr5, cr3, {3}
 44c:	2f2e0064 	svccs	0x002e0064
 450:	66617473 			; <UNDEFINED> instruction: 0x66617473
 454:	72732d66 	rsbsvc	r2, r3, #6528	; 0x1980
 458:	73632f63 	cmnvc	r3, #396	; 0x18c
 45c:	74726174 	ldrbtvc	r6, [r2], #-372	; 0xfffffe8c
 460:	5000632e 	andpl	r6, r0, lr, lsr #6
 464:	44575f4d 	ldrbmi	r5, [r7], #-3917	; 0xfffff0b3
 468:	5000474f 	andpl	r4, r0, pc, asr #14
 46c:	32335455 	eorscc	r5, r3, #1426063360	; 0x55000000
 470:	74657300 	strbtvc	r7, [r5], #-768	; 0xfffffd00
 474:	6573755f 	ldrbvs	r7, [r3, #-1375]!	; 0xfffffaa1
 478:	656c5f72 	strbvs	r5, [ip, #-3954]!	; 0xfffff08e
 47c:	006c6576 	rsbeq	r6, ip, r6, ror r5
 480:	74732f2e 	ldrbtvc	r2, [r3], #-3886	; 0xfffff0d2
 484:	2d666661 	stclcs	6, cr6, [r6, #-388]!	; 0xfffffe7c
 488:	2f637273 	svccs	0x00637273
 48c:	6f626572 	svcvs	0x00626572
 490:	632e746f 			; <UNDEFINED> instruction: 0x632e746f
 494:	5f4d5000 	svcpl	0x004d5000
 498:	53534150 	cmppl	r3, #20
 49c:	44524f57 	ldrbmi	r4, [r2], #-3927	; 0xfffff0a9
 4a0:	5f746100 	svcpl	0x00746100
 4a4:	72657375 	rsbvc	r7, r5, #-738197503	; 0xd4000001
 4a8:	76656c5f 			; <UNDEFINED> instruction: 0x76656c5f
 4ac:	50006c65 	andpl	r6, r0, r5, ror #24
 4b0:	53525f4d 	cmppl	r2, #308	; 0x134
 4b4:	575f4354 			; <UNDEFINED> instruction: 0x575f4354
 4b8:	47464352 	smlsldmi	r4, r6, r2, r3
 4bc:	4c55465f 	mrrcmi	6, 5, r4, r5, cr15
 4c0:	45525f4c 	ldrbmi	r5, [r2, #-3916]	; 0xfffff0b4
 4c4:	00544553 	subseq	r4, r4, r3, asr r5
 4c8:	525f4d50 	subspl	r4, pc, #80, 26	; 0x1400
 4cc:	00435453 	subeq	r5, r3, r3, asr r4
 4d0:	72737063 	rsbsvc	r7, r3, #99, 0	; 0x63
 4d4:	76656400 	strbtvc	r6, [r5], -r0, lsl #8
 4d8:	7261625f 	rsbvc	r6, r1, #-268435451	; 0xf0000005
 4dc:	72656972 	rsbvc	r6, r5, #1867776	; 0x1c8000
 4e0:	6c656400 	cfstrdvs	mvd6, [r5], #-0
 4e4:	735f7961 	cmpvc	pc, #1589248	; 0x184000
 4e8:	2e006365 	cdpcs	3, 0, cr6, cr0, cr5, {3}
 4ec:	6174732f 	cmnvs	r4, pc, lsr #6
 4f0:	732d6666 			; <UNDEFINED> instruction: 0x732d6666
 4f4:	742f6372 	strtvc	r6, [pc], #-882	; 4fc <__code_start__-0x7b04>
 4f8:	72656d69 	rsbvc	r6, r5, #6720	; 0x1a40
 4fc:	4700632e 	strmi	r6, [r0, -lr, lsr #6]
 500:	32335445 	eorscc	r5, r3, #1157627904	; 0x45000000
 504:	6d697400 	cfstrdvs	mvd7, [r9, #-0]
 508:	675f7265 	ldrbvs	r7, [pc, -r5, ror #4]
 50c:	755f7465 	ldrbvc	r7, [pc, #-1125]	; af <__code_start__-0x7f51>
 510:	5f636573 	svcpl	0x00636573
 514:	00776172 	rsbseq	r6, r7, r2, ror r1
 518:	74726175 	ldrbtvc	r6, [r2], #-373	; 0xfffffe8b
 51c:	7475705f 	ldrbtvc	r7, [r5], #-95	; 0xffffffa1
 520:	74730063 	ldrbtvc	r0, [r3], #-99	; 0xffffff9d
 524:	75007461 	strvc	r7, [r0, #-1121]	; 0xfffffb9f
 528:	5f747261 	svcpl	0x00747261
 52c:	5f6e6163 	svcpl	0x006e6163
 530:	63746567 	cmnvs	r4, #432013312	; 0x19c00000
 534:	49504700 	ldmdbmi	r0, {r8, r9, sl, lr}^
 538:	55465f4f 	strbpl	r5, [r6, #-3919]	; 0xfffff0b1
 53c:	4f5f434e 	svcmi	0x005f434e
 540:	55505455 	ldrbpl	r5, [r0, #-1109]	; 0xfffffbab
 544:	75610054 	strbvc	r0, [r1, #-84]!	; 0xffffffac
 548:	65705f78 	ldrbvs	r5, [r0, #-3960]!	; 0xfffff088
 54c:	68706972 	ldmdavs	r0!, {r1, r4, r5, r6, r8, fp, sp, lr}^
 550:	61750073 	cmnvs	r5, r3, ror r0
 554:	632e7472 			; <UNDEFINED> instruction: 0x632e7472
 558:	72617500 	rsbvc	r7, r1, #0, 10
 55c:	61635f74 	smcvs	13812	; 0x35f4
 560:	75705f6e 	ldrbvc	r5, [r0, #-3950]!	; 0xfffff092
 564:	61006374 	tstvs	r0, r4, ror r3
 568:	00726464 	rsbseq	r6, r2, r4, ror #8
 56c:	6d6f682f 	stclvs	8, cr6, [pc, #-188]!	; 4b8 <__code_start__-0x7b48>
 570:	6e652f65 	cdpvs	15, 6, cr2, cr5, cr5, {3}
 574:	72656c67 	rsbvc	r6, r5, #26368	; 0x6700
 578:	616c632f 	cmnvs	ip, pc, lsr #6
 57c:	632f7373 			; <UNDEFINED> instruction: 0x632f7373
 580:	30343173 	eorscc	r3, r4, r3, ror r1
 584:	31322d65 	teqcc	r2, r5, ror #26
 588:	2f727073 	svccs	0x00727073
 58c:	7062696c 	rsbvc	r6, r2, ip, ror #18
 590:	74732f69 	ldrbtvc	r2, [r3], #-3945	; 0xfffff097
 594:	2d666661 	stclcs	6, cr6, [r6, #-388]!	; 0xfffffe7c
 598:	76697270 			; <UNDEFINED> instruction: 0x76697270
 59c:	00657461 	rsbeq	r7, r5, r1, ror #8
 5a0:	74726175 	ldrbtvc	r6, [r2], #-373	; 0xfffffe8b
 5a4:	696e695f 	stmdbvs	lr!, {r0, r1, r2, r3, r4, r6, r8, fp, sp, lr}^
 5a8:	50470074 	subpl	r0, r7, r4, ror r0
 5ac:	465f4f49 	ldrbmi	r4, [pc], -r9, asr #30
 5b0:	5f434e55 	svcpl	0x00434e55
 5b4:	30544c41 	subscc	r4, r4, r1, asr #24
 5b8:	49504700 	ldmdbmi	r0, {r8, r9, sl, lr}^
 5bc:	55465f4f 	strbpl	r5, [r6, #-3919]	; 0xfffff0b1
 5c0:	415f434e 	cmpmi	pc, lr, asr #6
 5c4:	0031544c 	eorseq	r5, r1, ip, asr #8
 5c8:	4f495047 	svcmi	0x00495047
 5cc:	4e55465f 	mrcmi	6, 2, r4, cr5, cr15, {2}
 5d0:	4c415f43 	mcrrmi	15, 4, r5, r1, cr3
 5d4:	47003254 	smlsdmi	r0, r4, r2, r3
 5d8:	5f4f4950 	svcpl	0x004f4950
 5dc:	434e5546 	movtmi	r5, #58694	; 0xe546
 5e0:	544c415f 	strbpl	r4, [ip], #-351	; 0xfffffea1
 5e4:	50470033 	subpl	r0, r7, r3, lsr r0
 5e8:	465f4f49 	ldrbmi	r4, [pc], -r9, asr #30
 5ec:	5f434e55 	svcpl	0x00434e55
 5f0:	35544c41 	ldrbcc	r4, [r4, #-3137]	; 0xfffff3bf
 5f4:	74757000 	ldrbtvc	r7, [r5], #-0
 5f8:	62003233 	andvs	r3, r0, #805306371	; 0x30000003
 5fc:	00647561 	rsbeq	r7, r4, r1, ror #10
 600:	5f787561 	svcpl	0x00787561
 604:	62616e65 	rsbvs	r6, r1, #1616	; 0x650
 608:	0073656c 	rsbseq	r6, r3, ip, ror #10
 60c:	74726175 	ldrbtvc	r6, [r2], #-373	; 0xfffffe8b
 610:	7465675f 	strbtvc	r6, [r5], #-1887	; 0xfffff8a1
 614:	61750063 	cmnvs	r5, r3, rrx
 618:	745f7472 	ldrbvc	r7, [pc], #-1138	; 620 <__code_start__-0x79e0>
 61c:	73695f78 	cmnvc	r9, #120, 30	; 0x1e0
 620:	706d655f 	rsbvc	r6, sp, pc, asr r5
 624:	62007974 	andvs	r7, r0, #116, 18	; 0x1d0000
 628:	5f647561 	svcpl	0x00647561
 62c:	006c6176 	rsbeq	r6, ip, r6, ror r1
 630:	6c746e63 	ldclvs	14, cr6, [r4], #-396	; 0xfffffe74
 634:	72617500 	rsbvc	r7, r1, #0, 10
 638:	61685f74 	smcvs	34292	; 0x85f4
 63c:	61645f73 	smcvs	17907	; 0x45f3
 640:	47006174 	smlsdxmi	r0, r4, r1, r6
 644:	5f4f4950 	svcpl	0x004f4950
 648:	434e5546 	movtmi	r5, #58694	; 0xe546
 64c:	544c415f 	strbpl	r4, [ip], #-351	; 0xfffffea1
 650:	726f0034 	rsbvc	r0, pc, #52, 0	; 0x34
 654:	336e695f 	cmncc	lr, #1556480	; 0x17c000
 658:	63730032 	cmnvs	r3, #50, 0	; 0x32
 65c:	63746172 	cmnvs	r4, #-2147483620	; 0x8000001c
 660:	61750068 	cmnvs	r5, r8, rrx
 664:	47007472 	smlsdxmi	r0, r2, r4, r7
 668:	5f4f4950 	svcpl	0x004f4950
 66c:	434e5546 	movtmi	r5, #58694	; 0xe546
 670:	504e495f 	subpl	r4, lr, pc, asr r9
 674:	67005455 	smlsdvs	r0, r5, r4, r5
 678:	5f6f6970 	svcpl	0x006f6970
 67c:	5f746573 	svcpl	0x00746573
 680:	636e7566 	cmnvs	lr, #427819008	; 0x19800000
 684:	6e6f6974 			; <UNDEFINED> instruction: 0x6e6f6974
 688:	74656700 	strbtvc	r6, [r5], #-1792	; 0xfffff900
 68c:	67003233 	smladxvs	r0, r3, r2, r3
 690:	5f6f6970 	svcpl	0x006f6970
 694:	5f647570 	svcpl	0x00647570
 698:	0066666f 	rsbeq	r6, r6, pc, ror #12
 69c:	6f697067 	svcvs	0x00697067
 6a0:	6b6c635f 	blvs	1b19424 <__bss_end__+0x1b0fd14>
 6a4:	70670030 	rsbvc	r0, r7, r0, lsr r0
 6a8:	702d6f69 	eorvc	r6, sp, r9, ror #30
 6ac:	632e6475 			; <UNDEFINED> instruction: 0x632e6475
 6b0:	69706700 	ldmdbvs	r0!, {r8, r9, sl, sp, lr}^
 6b4:	65675f6f 	strbvs	r5, [r7, #-3951]!	; 0xfffff091
 6b8:	75705f74 	ldrbvc	r5, [r0, #-3956]!	; 0xfffff08c
 6bc:	70670064 	rsbvc	r0, r7, r4, rrx
 6c0:	735f6f69 	cmpvc	pc, #420	; 0x1a4
 6c4:	705f7465 	subsvc	r7, pc, r5, ror #8
 6c8:	67006475 	smlsdxvs	r0, r5, r4, r6
 6cc:	5f6f6970 	svcpl	0x006f6970
 6d0:	00647570 	rsbeq	r7, r4, r0, ror r5
 6d4:	6f697067 	svcvs	0x00697067
 6d8:	7465735f 	strbtvc	r7, [r5], #-863	; 0xfffffca1
 6dc:	6c75705f 	ldclvs	0, cr7, [r5], #-380	; 0xfffffe84
 6e0:	0070756c 	rsbseq	r7, r0, ip, ror #10
 6e4:	5f697072 	svcpl	0x00697072
 6e8:	65736572 	ldrbvs	r6, [r3, #-1394]!	; 0xfffffa8e
 6ec:	75705f74 	ldrbvc	r5, [r0, #-3956]!	; 0xfffff08c
 6f0:	67006374 	smlsdxvs	r0, r4, r3, r6
 6f4:	5f6f6970 	svcpl	0x006f6970
 6f8:	30726c63 	rsbscc	r6, r2, r3, ror #24
 6fc:	69706700 	ldmdbvs	r0!, {r8, r9, sl, sp, lr}^
 700:	65735f6f 	ldrbvs	r5, [r3, #-3951]!	; 0xfffff091
 704:	67003074 	smlsdxvs	r0, r4, r0, r3
 708:	5f6f6970 	svcpl	0x006f6970
 70c:	74697277 	strbtvc	r7, [r9], #-631	; 0xfffffd89
 710:	70670065 	rsbvc	r0, r7, r5, rrx
 714:	665f6f69 	ldrbvs	r6, [pc], -r9, ror #30
 718:	306c6573 	rsbcc	r6, ip, r3, ror r5
 71c:	72696600 	rsbvc	r6, r9, #0, 12
 720:	625f7473 	subsvs	r7, pc, #1929379840	; 0x73000000
 724:	6c5f7469 	cfldrdvs	mvd7, [pc], {105}	; 0x69
 728:	7461636f 	strbtvc	r6, [r1], #-879	; 0xfffffc91
 72c:	006e6f69 	rsbeq	r6, lr, r9, ror #30
 730:	73746962 	cmnvc	r4, #1605632	; 0x188000
 734:	5f6f745f 	svcpl	0x006f745f
 738:	74697277 	strbtvc	r7, [r9], #-631	; 0xfffffd89
 73c:	616d0065 	cmnvs	sp, r5, rrx
 740:	64656b73 	strbtvs	r6, [r5], #-2931	; 0xfffff48d
 744:	6c61765f 	stclvs	6, cr7, [r1], #-380	; 0xfffffe84
 748:	2e006575 	cfrshl64cs	mvdx0, mvdx5, r6
 74c:	6372732f 	cmnvs	r2, #-1140850688	; 0xbc000000
 750:	6970672f 	ldmdbvs	r0!, {r0, r1, r2, r3, r5, r8, r9, sl, sp, lr}^
 754:	00632e6f 	rsbeq	r2, r3, pc, ror #28
 758:	6f697067 	svcvs	0x00697067
 75c:	6e75665f 	mrcvs	6, 3, r6, cr5, cr15, {2}
 760:	00745f63 	rsbseq	r5, r4, r3, ror #30
 764:	73746962 	cmnvc	r4, #1605632	; 0x188000
 768:	74696200 	strbtvc	r6, [r9], #-512	; 0xfffffe00
 76c:	6b73616d 	blvs	1cd8d28 <__bss_end__+0x1ccf618>
 770:	746e6900 	strbtvc	r6, [lr], #-2304	; 0xfffff700
 774:	616e7265 	cmnvs	lr, r5, ror #4
 778:	75705f6c 	ldrbvc	r5, [r0, #-3948]!	; 0xfffff094
 77c:	61686374 	smcvs	34356	; 0x8634
 780:	70720072 	rsbsvc	r0, r2, r2, ror r0
 784:	65735f69 	ldrbvs	r5, [r3, #-3945]!	; 0xfffff097
 788:	75705f74 	ldrbvc	r5, [r0, #-3956]!	; 0xfffff08c
 78c:	2e006374 	mcrcs	3, 0, r6, cr0, cr4, {3}
 790:	62696c2f 	rsbvs	r6, r9, #12032	; 0x2f00
 794:	75702f63 	ldrbvc	r2, [r0, #-3939]!	; 0xfffff09d
 798:	61686374 	smcvs	34356	; 0x8634
 79c:	00632e72 	rsbeq	r2, r3, r2, ror lr
 7a0:	74736564 	ldrbtvc	r6, [r3], #-1380	; 0xfffffa9c
 7a4:	6c2f2e00 	stcvs	14, cr2, [pc], #-0	; 7ac <__code_start__-0x7854>
 7a8:	2f636269 	svccs	0x00636269
 7ac:	63727473 	cmnvs	r2, #1929379840	; 0x73000000
 7b0:	632e7461 			; <UNDEFINED> instruction: 0x632e7461
 7b4:	6c2f2e00 	stcvs	14, cr2, [pc], #-0	; 7bc <__code_start__-0x7844>
 7b8:	2f636269 	svccs	0x00636269
 7bc:	63727473 	cmnvs	r2, #1929379840	; 0x73000000
 7c0:	632e706d 			; <UNDEFINED> instruction: 0x632e706d
 7c4:	6c2f2e00 	stcvs	14, cr2, [pc], #-0	; 7cc <__code_start__-0x7834>
 7c8:	2f636269 	svccs	0x00636269
 7cc:	63727473 	cmnvs	r2, #1929379840	; 0x73000000
 7d0:	632e7970 			; <UNDEFINED> instruction: 0x632e7970
 7d4:	7a697300 	bvc	1a5d3dc <__bss_end__+0x1a53ccc>
 7d8:	00745f65 	rsbseq	r5, r4, r5, ror #30
 7dc:	696c2f2e 	stmdbvs	ip!, {r1, r2, r3, r5, r8, r9, sl, fp, sp}^
 7e0:	732f6362 			; <UNDEFINED> instruction: 0x732f6362
 7e4:	636e7274 	cmnvs	lr, #116, 4	; 0x40000007
 7e8:	632e706d 			; <UNDEFINED> instruction: 0x632e706d
	...

Disassembly of section .debug_frame:

00000000 <.debug_frame>:
   0:	0000000c 	andeq	r0, r0, ip
   4:	ffffffff 			; <UNDEFINED> instruction: 0xffffffff
   8:	7c020001 	stcvc	0, cr0, [r2], {1}
   c:	000d0c0e 	andeq	r0, sp, lr, lsl #24
  10:	00000018 	andeq	r0, r0, r8, lsl r0
  14:	00000000 	andeq	r0, r0, r0
  18:	00008020 	andeq	r8, r0, r0, lsr #32
  1c:	00000098 	muleq	r0, r8, r0
  20:	84080e42 	strhi	r0, [r8], #-3650	; 0xfffff1be
  24:	42018e02 	andmi	r8, r1, #2, 28
  28:	0000100e 	andeq	r1, r0, lr
  2c:	0000000c 	andeq	r0, r0, ip
  30:	ffffffff 			; <UNDEFINED> instruction: 0xffffffff
  34:	7c020001 	stcvc	0, cr0, [r2], {1}
  38:	000d0c0e 	andeq	r0, sp, lr, lsl #24
  3c:	0000001c 	andeq	r0, r0, ip, lsl r0
  40:	0000002c 	andeq	r0, r0, ip, lsr #32
  44:	000080b8 	strheq	r8, [r0], -r8	; <UNPREDICTABLE>
  48:	00000048 	andeq	r0, r0, r8, asr #32
  4c:	84180e42 	ldrhi	r0, [r8], #-3650	; 0xfffff1be
  50:	86058506 	strhi	r8, [r5], -r6, lsl #10
  54:	88038704 	stmdahi	r3, {r2, r8, r9, sl, pc}
  58:	00018e02 	andeq	r8, r1, r2, lsl #28
  5c:	00000018 	andeq	r0, r0, r8, lsl r0
  60:	0000002c 	andeq	r0, r0, ip, lsr #32
  64:	00008100 	andeq	r8, r0, r0, lsl #2
  68:	00000034 	andeq	r0, r0, r4, lsr r0
  6c:	84100e42 	ldrhi	r0, [r0], #-3650	; 0xfffff1be
  70:	86038504 	strhi	r8, [r3], -r4, lsl #10
  74:	00018e02 	andeq	r8, r1, r2, lsl #28
  78:	00000024 	andeq	r0, r0, r4, lsr #32
  7c:	0000002c 	andeq	r0, r0, ip, lsr #32
  80:	00008134 	andeq	r8, r0, r4, lsr r1
  84:	000000bc 	strheq	r0, [r0], -ip
  88:	84140e42 	ldrhi	r0, [r4], #-3650	; 0xfffff1be
  8c:	86048505 	strhi	r8, [r4], -r5, lsl #10
  90:	8e028703 	cdphi	7, 0, cr8, cr2, cr3, {0}
  94:	200e4201 	andcs	r4, lr, r1, lsl #4
  98:	0e0a4602 	cfmadd32eq	mvax0, mvfx4, mvfx10, mvfx2
  9c:	000b4214 	andeq	r4, fp, r4, lsl r2
  a0:	0000000c 	andeq	r0, r0, ip
  a4:	ffffffff 			; <UNDEFINED> instruction: 0xffffffff
  a8:	7c020001 	stcvc	0, cr0, [r2], {1}
  ac:	000d0c0e 	andeq	r0, sp, lr, lsl #24
  b0:	00000034 	andeq	r0, r0, r4, lsr r0
  b4:	000000a0 	andeq	r0, r0, r0, lsr #1
  b8:	000081f0 	strdeq	r8, [r0], -r0
  bc:	00000058 	andeq	r0, r0, r8, asr r0
  c0:	80100e42 	andshi	r0, r0, r2, asr #28
  c4:	82038104 	andhi	r8, r3, #1
  c8:	42018302 	andmi	r8, r1, #134217728	; 0x8000000
  cc:	07841c0e 	streq	r1, [r4, lr, lsl #24]
  d0:	058e0685 	streq	r0, [lr, #1669]	; 0x685
  d4:	5c280e42 	stcpl	14, cr0, [r8], #-264	; 0xfffffef8
  d8:	ce421c0e 	cdpgt	12, 4, cr1, cr2, cr14, {0}
  dc:	100ec4c5 	andne	ip, lr, r5, asr #9
  e0:	c1c2c342 	bicgt	ip, r2, r2, asr #6
  e4:	00000ec0 	andeq	r0, r0, r0, asr #29
  e8:	0000000c 	andeq	r0, r0, ip
  ec:	ffffffff 			; <UNDEFINED> instruction: 0xffffffff
  f0:	7c020001 	stcvc	0, cr0, [r2], {1}
  f4:	000d0c0e 	andeq	r0, sp, lr, lsl #24
  f8:	00000014 	andeq	r0, r0, r4, lsl r0
  fc:	000000e8 	andeq	r0, r0, r8, ror #1
 100:	00008248 	andeq	r8, r0, r8, asr #4
 104:	00000034 	andeq	r0, r0, r4, lsr r0
 108:	84080e42 	strhi	r0, [r8], #-3650	; 0xfffff1be
 10c:	00018e02 	andeq	r8, r1, r2, lsl #28
 110:	0000000c 	andeq	r0, r0, ip
 114:	ffffffff 			; <UNDEFINED> instruction: 0xffffffff
 118:	7c020001 	stcvc	0, cr0, [r2], {1}
 11c:	000d0c0e 	andeq	r0, sp, lr, lsl #24
 120:	0000000c 	andeq	r0, r0, ip
 124:	00000110 	andeq	r0, r0, r0, lsl r1
 128:	0000827c 	andeq	r8, r0, ip, ror r2
 12c:	00000014 	andeq	r0, r0, r4, lsl r0
 130:	0000000c 	andeq	r0, r0, ip
 134:	00000110 	andeq	r0, r0, r0, lsl r1
 138:	00008290 	muleq	r0, r0, r2
 13c:	00000024 	andeq	r0, r0, r4, lsr #32
 140:	0000000c 	andeq	r0, r0, ip
 144:	00000110 	andeq	r0, r0, r0, lsl r1
 148:	000082b4 			; <UNDEFINED> instruction: 0x000082b4
 14c:	00000038 	andeq	r0, r0, r8, lsr r0
 150:	00000024 	andeq	r0, r0, r4, lsr #32
 154:	00000110 	andeq	r0, r0, r0, lsl r1
 158:	000082ec 	andeq	r8, r0, ip, ror #5
 15c:	000001b4 			; <UNDEFINED> instruction: 0x000001b4
 160:	84140e42 	ldrhi	r0, [r4], #-3650	; 0xfffff1be
 164:	86048505 	strhi	r8, [r4], -r5, lsl #10
 168:	8e028703 	cdphi	7, 0, cr8, cr2, cr3, {0}
 16c:	600e4201 	andvs	r4, lr, r1, lsl #4
 170:	0e0a9a02 	vmlaeq.f32	s18, s20, s4
 174:	000b4214 	andeq	r4, fp, r4, lsl r2
 178:	00000014 	andeq	r0, r0, r4, lsl r0
 17c:	00000110 	andeq	r0, r0, r0, lsl r1
 180:	000084a0 	andeq	r8, r0, r0, lsr #9
 184:	00000064 	andeq	r0, r0, r4, rrx
 188:	8e040e54 	mcrhi	14, 0, r0, cr4, cr4, {2}
 18c:	100e4201 	andne	r4, lr, r1, lsl #4
 190:	0000002c 	andeq	r0, r0, ip, lsr #32
 194:	00000110 	andeq	r0, r0, r0, lsl r1
 198:	00008504 	andeq	r8, r0, r4, lsl #10
 19c:	00000498 	muleq	r0, r8, r4
 1a0:	84240e42 	strthi	r0, [r4], #-3650	; 0xfffff1be
 1a4:	86088509 	strhi	r8, [r8], -r9, lsl #10
 1a8:	88068707 	stmdahi	r6, {r0, r1, r2, r8, r9, sl, pc}
 1ac:	8a048905 	bhi	1225c8 <__bss_end__+0x118eb8>
 1b0:	8e028b03 	vmlahi.f64	d8, d2, d3
 1b4:	b80e4201 	stmdalt	lr, {r0, r9, lr}
 1b8:	022c0302 	eoreq	r0, ip, #134217728	; 0x8000000
 1bc:	0000240e 	andeq	r2, r0, lr, lsl #8
 1c0:	0000000c 	andeq	r0, r0, ip
 1c4:	ffffffff 			; <UNDEFINED> instruction: 0xffffffff
 1c8:	7c020001 	stcvc	0, cr0, [r2], {1}
 1cc:	000d0c0e 	andeq	r0, sp, lr, lsl #24
 1d0:	00000014 	andeq	r0, r0, r4, lsl r0
 1d4:	000001c0 	andeq	r0, r0, r0, asr #3
 1d8:	0000899c 	muleq	r0, ip, r9
 1dc:	0000002c 	andeq	r0, r0, ip, lsr #32
 1e0:	84080e42 	strhi	r0, [r8], #-3650	; 0xfffff1be
 1e4:	00018e02 	andeq	r8, r1, r2, lsl #28
 1e8:	0000000c 	andeq	r0, r0, ip
 1ec:	ffffffff 			; <UNDEFINED> instruction: 0xffffffff
 1f0:	7c020001 	stcvc	0, cr0, [r2], {1}
 1f4:	000d0c0e 	andeq	r0, sp, lr, lsl #24
 1f8:	00000014 	andeq	r0, r0, r4, lsl r0
 1fc:	000001e8 	andeq	r0, r0, r8, ror #3
 200:	000089c8 	andeq	r8, r0, r8, asr #19
 204:	0000002c 	andeq	r0, r0, ip, lsr #32
 208:	84080e42 	strhi	r0, [r8], #-3650	; 0xfffff1be
 20c:	00018e02 	andeq	r8, r1, r2, lsl #28
 210:	0000000c 	andeq	r0, r0, ip
 214:	ffffffff 			; <UNDEFINED> instruction: 0xffffffff
 218:	7c020001 	stcvc	0, cr0, [r2], {1}
 21c:	000d0c0e 	andeq	r0, sp, lr, lsl #24
 220:	0000000c 	andeq	r0, r0, ip
 224:	00000210 	andeq	r0, r0, r0, lsl r2
 228:	000089f4 	strdeq	r8, [r0], -r4
 22c:	00000018 	andeq	r0, r0, r8, lsl r0
 230:	0000000c 	andeq	r0, r0, ip
 234:	00000210 	andeq	r0, r0, r0, lsl r2
 238:	00008a0c 	andeq	r8, r0, ip, lsl #20
 23c:	00000014 	andeq	r0, r0, r4, lsl r0
 240:	00000014 	andeq	r0, r0, r4, lsl r0
 244:	00000210 	andeq	r0, r0, r0, lsl r2
 248:	00008a20 	andeq	r8, r0, r0, lsr #20
 24c:	00000050 	andeq	r0, r0, r0, asr r0
 250:	84080e42 	strhi	r0, [r8], #-3650	; 0xfffff1be
 254:	00018e02 	andeq	r8, r1, r2, lsl #28
 258:	0000000c 	andeq	r0, r0, ip
 25c:	ffffffff 			; <UNDEFINED> instruction: 0xffffffff
 260:	7c020001 	stcvc	0, cr0, [r2], {1}
 264:	000d0c0e 	andeq	r0, sp, lr, lsl #24
 268:	00000014 	andeq	r0, r0, r4, lsl r0
 26c:	00000258 	andeq	r0, r0, r8, asr r2
 270:	00008a70 	andeq	r8, r0, r0, ror sl
 274:	00000014 	andeq	r0, r0, r4, lsl r0
 278:	84080e42 	strhi	r0, [r8], #-3650	; 0xfffff1be
 27c:	00018e02 	andeq	r8, r1, r2, lsl #28
 280:	00000014 	andeq	r0, r0, r4, lsl r0
 284:	00000258 	andeq	r0, r0, r8, asr r2
 288:	00008a84 	andeq	r8, r0, r4, lsl #21
 28c:	0000001c 	andeq	r0, r0, ip, lsl r0
 290:	84080e42 	strhi	r0, [r8], #-3650	; 0xfffff1be
 294:	00018e02 	andeq	r8, r1, r2, lsl #28
 298:	00000018 	andeq	r0, r0, r8, lsl r0
 29c:	00000258 	andeq	r0, r0, r8, asr r2
 2a0:	00008aa0 	andeq	r8, r0, r0, lsr #21
 2a4:	00000024 	andeq	r0, r0, r4, lsr #32
 2a8:	84100e42 	ldrhi	r0, [r0], #-3650	; 0xfffff1be
 2ac:	86038504 	strhi	r8, [r3], -r4, lsl #10
 2b0:	00018e02 	andeq	r8, r1, r2, lsl #28
 2b4:	00000014 	andeq	r0, r0, r4, lsl r0
 2b8:	00000258 	andeq	r0, r0, r8, asr r2
 2bc:	00008ac4 	andeq	r8, r0, r4, asr #21
 2c0:	00000018 	andeq	r0, r0, r8, lsl r0
 2c4:	84080e42 	strhi	r0, [r8], #-3650	; 0xfffff1be
 2c8:	00018e02 	andeq	r8, r1, r2, lsl #28
 2cc:	00000014 	andeq	r0, r0, r4, lsl r0
 2d0:	00000258 	andeq	r0, r0, r8, asr r2
 2d4:	00008adc 	ldrdeq	r8, [r0], -ip
 2d8:	00000018 	andeq	r0, r0, r8, lsl r0
 2dc:	84080e42 	strhi	r0, [r8], #-3650	; 0xfffff1be
 2e0:	00018e02 	andeq	r8, r1, r2, lsl #28
 2e4:	0000000c 	andeq	r0, r0, ip
 2e8:	ffffffff 			; <UNDEFINED> instruction: 0xffffffff
 2ec:	7c020001 	stcvc	0, cr0, [r2], {1}
 2f0:	000d0c0e 	andeq	r0, sp, lr, lsl #24
 2f4:	00000018 	andeq	r0, r0, r8, lsl r0
 2f8:	000002e4 	andeq	r0, r0, r4, ror #5
 2fc:	00008af4 	strdeq	r8, [r0], -r4
 300:	00000020 	andeq	r0, r0, r0, lsr #32
 304:	84100e42 	ldrhi	r0, [r0], #-3650	; 0xfffff1be
 308:	86038504 	strhi	r8, [r3], -r4, lsl #10
 30c:	00018e02 	andeq	r8, r1, r2, lsl #28
 310:	00000014 	andeq	r0, r0, r4, lsl r0
 314:	000002e4 	andeq	r0, r0, r4, ror #5
 318:	00008b14 	andeq	r8, r0, r4, lsl fp
 31c:	000000b0 	strheq	r0, [r0], -r0	; <UNPREDICTABLE>
 320:	84080e42 	strhi	r0, [r8], #-3650	; 0xfffff1be
 324:	00018e02 	andeq	r8, r1, r2, lsl #28
 328:	00000014 	andeq	r0, r0, r4, lsl r0
 32c:	000002e4 	andeq	r0, r0, r4, ror #5
 330:	00008bc4 	andeq	r8, r0, r4, asr #23
 334:	00000018 	andeq	r0, r0, r8, lsl r0
 338:	84080e42 	strhi	r0, [r8], #-3650	; 0xfffff1be
 33c:	00018e02 	andeq	r8, r1, r2, lsl #28
 340:	00000014 	andeq	r0, r0, r4, lsl r0
 344:	000002e4 	andeq	r0, r0, r4, ror #5
 348:	00008bdc 	ldrdeq	r8, [r0], -ip
 34c:	00000020 	andeq	r0, r0, r0, lsr #32
 350:	84080e42 	strhi	r0, [r8], #-3650	; 0xfffff1be
 354:	00018e02 	andeq	r8, r1, r2, lsl #28
 358:	00000014 	andeq	r0, r0, r4, lsl r0
 35c:	000002e4 	andeq	r0, r0, r4, ror #5
 360:	00008bfc 	strdeq	r8, [r0], -ip
 364:	00000030 	andeq	r0, r0, r0, lsr r0
 368:	84080e42 	strhi	r0, [r8], #-3650	; 0xfffff1be
 36c:	00018e02 	andeq	r8, r1, r2, lsl #28
 370:	00000014 	andeq	r0, r0, r4, lsl r0
 374:	000002e4 	andeq	r0, r0, r4, ror #5
 378:	00008c2c 	andeq	r8, r0, ip, lsr #24
 37c:	00000030 	andeq	r0, r0, r0, lsr r0
 380:	84080e42 	strhi	r0, [r8], #-3650	; 0xfffff1be
 384:	00018e02 	andeq	r8, r1, r2, lsl #28
 388:	00000014 	andeq	r0, r0, r4, lsl r0
 38c:	000002e4 	andeq	r0, r0, r4, ror #5
 390:	00008c5c 	andeq	r8, r0, ip, asr ip
 394:	00000010 	andeq	r0, r0, r0, lsl r0
 398:	84080e42 	strhi	r0, [r8], #-3650	; 0xfffff1be
 39c:	00018e02 	andeq	r8, r1, r2, lsl #28
 3a0:	00000014 	andeq	r0, r0, r4, lsl r0
 3a4:	000002e4 	andeq	r0, r0, r4, ror #5
 3a8:	00008c6c 	andeq	r8, r0, ip, ror #24
 3ac:	00000020 	andeq	r0, r0, r0, lsr #32
 3b0:	84080e42 	strhi	r0, [r8], #-3650	; 0xfffff1be
 3b4:	00018e02 	andeq	r8, r1, r2, lsl #28
 3b8:	00000014 	andeq	r0, r0, r4, lsl r0
 3bc:	000002e4 	andeq	r0, r0, r4, ror #5
 3c0:	00008c8c 	andeq	r8, r0, ip, lsl #25
 3c4:	00000014 	andeq	r0, r0, r4, lsl r0
 3c8:	84080e42 	strhi	r0, [r8], #-3650	; 0xfffff1be
 3cc:	00018e02 	andeq	r8, r1, r2, lsl #28
 3d0:	0000000c 	andeq	r0, r0, ip
 3d4:	ffffffff 			; <UNDEFINED> instruction: 0xffffffff
 3d8:	7c020001 	stcvc	0, cr0, [r2], {1}
 3dc:	000d0c0e 	andeq	r0, sp, lr, lsl #24
 3e0:	00000020 	andeq	r0, r0, r0, lsr #32
 3e4:	000003d0 	ldrdeq	r0, [r0], -r0	; <UNPREDICTABLE>
 3e8:	00008ca0 	andeq	r8, r0, r0, lsr #25
 3ec:	00000100 	andeq	r0, r0, r0, lsl #2
 3f0:	84100e42 	ldrhi	r0, [r0], #-3650	; 0xfffff1be
 3f4:	86038504 	strhi	r8, [r3], -r4, lsl #10
 3f8:	42018e02 	andmi	r8, r1, #2, 28
 3fc:	0a52180e 	beq	148643c <__bss_end__+0x147cd2c>
 400:	0b42100e 	bleq	1084440 <__bss_end__+0x107ad30>
 404:	00000014 	andeq	r0, r0, r4, lsl r0
 408:	000003d0 	ldrdeq	r0, [r0], -r0	; <UNPREDICTABLE>
 40c:	00008da0 	andeq	r8, r0, r0, lsr #27
 410:	00000010 	andeq	r0, r0, r0, lsl r0
 414:	84080e42 	strhi	r0, [r8], #-3650	; 0xfffff1be
 418:	00018e02 	andeq	r8, r1, r2, lsl #28
 41c:	00000014 	andeq	r0, r0, r4, lsl r0
 420:	000003d0 	ldrdeq	r0, [r0], -r0	; <UNPREDICTABLE>
 424:	00008db0 			; <UNDEFINED> instruction: 0x00008db0
 428:	00000010 	andeq	r0, r0, r0, lsl r0
 42c:	84080e42 	strhi	r0, [r8], #-3650	; 0xfffff1be
 430:	00018e02 	andeq	r8, r1, r2, lsl #28
 434:	00000014 	andeq	r0, r0, r4, lsl r0
 438:	000003d0 	ldrdeq	r0, [r0], -r0	; <UNPREDICTABLE>
 43c:	00008dc0 	andeq	r8, r0, r0, asr #27
 440:	00000010 	andeq	r0, r0, r0, lsl r0
 444:	84080e42 	strhi	r0, [r8], #-3650	; 0xfffff1be
 448:	00018e02 	andeq	r8, r1, r2, lsl #28
 44c:	00000014 	andeq	r0, r0, r4, lsl r0
 450:	000003d0 	ldrdeq	r0, [r0], -r0	; <UNPREDICTABLE>
 454:	00008dd0 	ldrdeq	r8, [r0], -r0
 458:	00000018 	andeq	r0, r0, r8, lsl r0
 45c:	84080e42 	strhi	r0, [r8], #-3650	; 0xfffff1be
 460:	00018e02 	andeq	r8, r1, r2, lsl #28
 464:	0000000c 	andeq	r0, r0, ip
 468:	ffffffff 			; <UNDEFINED> instruction: 0xffffffff
 46c:	7c020001 	stcvc	0, cr0, [r2], {1}
 470:	000d0c0e 	andeq	r0, sp, lr, lsl #24
 474:	0000001c 	andeq	r0, r0, ip, lsl r0
 478:	00000464 	andeq	r0, r0, r4, ror #8
 47c:	00008de8 	andeq	r8, r0, r8, ror #27
 480:	0000005c 	andeq	r0, r0, ip, asr r0
 484:	84180e46 	ldrhi	r0, [r8], #-3654	; 0xfffff1ba
 488:	86058506 	strhi	r8, [r5], -r6, lsl #10
 48c:	88038704 	stmdahi	r3, {r2, r8, r9, sl, pc}
 490:	00018e02 	andeq	r8, r1, r2, lsl #28
 494:	00000014 	andeq	r0, r0, r4, lsl r0
 498:	00000464 	andeq	r0, r0, r4, ror #8
 49c:	00008e44 	andeq	r8, r0, r4, asr #28
 4a0:	00000024 	andeq	r0, r0, r4, lsr #32
 4a4:	84080e46 	strhi	r0, [r8], #-3654	; 0xfffff1ba
 4a8:	00018e02 	andeq	r8, r1, r2, lsl #28
 4ac:	00000014 	andeq	r0, r0, r4, lsl r0
 4b0:	00000464 	andeq	r0, r0, r4, ror #8
 4b4:	00008e68 	andeq	r8, r0, r8, ror #28
 4b8:	00000024 	andeq	r0, r0, r4, lsr #32
 4bc:	84080e46 	strhi	r0, [r8], #-3654	; 0xfffff1ba
 4c0:	00018e02 	andeq	r8, r1, r2, lsl #28
 4c4:	00000014 	andeq	r0, r0, r4, lsl r0
 4c8:	00000464 	andeq	r0, r0, r4, ror #8
 4cc:	00008e8c 	andeq	r8, r0, ip, lsl #29
 4d0:	0000001c 	andeq	r0, r0, ip, lsl r0
 4d4:	84080e42 	strhi	r0, [r8], #-3650	; 0xfffff1be
 4d8:	00018e02 	andeq	r8, r1, r2, lsl #28
 4dc:	0000001c 	andeq	r0, r0, ip, lsl r0
 4e0:	00000464 	andeq	r0, r0, r4, ror #8
 4e4:	00008ea8 	andeq	r8, r0, r8, lsr #29
 4e8:	00000054 	andeq	r0, r0, r4, asr r0
 4ec:	84180e46 	ldrhi	r0, [r8], #-3654	; 0xfffff1ba
 4f0:	86058506 	strhi	r8, [r5], -r6, lsl #10
 4f4:	88038704 	stmdahi	r3, {r2, r8, r9, sl, pc}
 4f8:	00018e02 	andeq	r8, r1, r2, lsl #28
 4fc:	00000014 	andeq	r0, r0, r4, lsl r0
 500:	00000464 	andeq	r0, r0, r4, ror #8
 504:	00008efc 	strdeq	r8, [r0], -ip
 508:	00000038 	andeq	r0, r0, r8, lsr r0
 50c:	84080e4a 	strhi	r0, [r8], #-3658	; 0xfffff1b6
 510:	00018e02 	andeq	r8, r1, r2, lsl #28
 514:	0000001c 	andeq	r0, r0, ip, lsl r0
 518:	00000464 	andeq	r0, r0, r4, ror #8
 51c:	00008f34 	andeq	r8, r0, r4, lsr pc
 520:	00000060 	andeq	r0, r0, r0, rrx
 524:	84180e48 	ldrhi	r0, [r8], #-3656	; 0xfffff1b8
 528:	86058506 	strhi	r8, [r5], -r6, lsl #10
 52c:	88038704 	stmdahi	r3, {r2, r8, r9, sl, pc}
 530:	00018e02 	andeq	r8, r1, r2, lsl #28
 534:	0000000c 	andeq	r0, r0, ip
 538:	ffffffff 			; <UNDEFINED> instruction: 0xffffffff
 53c:	7c020001 	stcvc	0, cr0, [r2], {1}
 540:	000d0c0e 	andeq	r0, sp, lr, lsl #24
 544:	00000014 	andeq	r0, r0, r4, lsl r0
 548:	00000534 	andeq	r0, r0, r4, lsr r5
 54c:	00008f94 	muleq	r0, r4, pc	; <UNPREDICTABLE>
 550:	00000014 	andeq	r0, r0, r4, lsl r0
 554:	84080e42 	strhi	r0, [r8], #-3650	; 0xfffff1be
 558:	00018e02 	andeq	r8, r1, r2, lsl #28
 55c:	0000000c 	andeq	r0, r0, ip
 560:	00000534 	andeq	r0, r0, r4, lsr r5
 564:	00008fa8 	andeq	r8, r0, r8, lsr #31
 568:	00000018 	andeq	r0, r0, r8, lsl r0
 56c:	0000000c 	andeq	r0, r0, ip
 570:	00000534 	andeq	r0, r0, r4, lsr r5
 574:	00008fc0 	andeq	r8, r0, r0, asr #31
 578:	00000010 	andeq	r0, r0, r0, lsl r0
 57c:	0000000c 	andeq	r0, r0, ip
 580:	ffffffff 			; <UNDEFINED> instruction: 0xffffffff
 584:	7c020001 	stcvc	0, cr0, [r2], {1}
 588:	000d0c0e 	andeq	r0, sp, lr, lsl #24
 58c:	0000000c 	andeq	r0, r0, ip
 590:	0000057c 	andeq	r0, r0, ip, ror r5
 594:	00008fd0 	ldrdeq	r8, [r0], -r0
 598:	00000034 	andeq	r0, r0, r4, lsr r0
 59c:	0000000c 	andeq	r0, r0, ip
 5a0:	ffffffff 			; <UNDEFINED> instruction: 0xffffffff
 5a4:	7c020001 	stcvc	0, cr0, [r2], {1}
 5a8:	000d0c0e 	andeq	r0, sp, lr, lsl #24
 5ac:	0000000c 	andeq	r0, r0, ip
 5b0:	0000059c 	muleq	r0, ip, r5
 5b4:	00009004 	andeq	r9, r0, r4
 5b8:	0000002c 	andeq	r0, r0, ip, lsr #32
 5bc:	0000000c 	andeq	r0, r0, ip
 5c0:	ffffffff 			; <UNDEFINED> instruction: 0xffffffff
 5c4:	7c020001 	stcvc	0, cr0, [r2], {1}
 5c8:	000d0c0e 	andeq	r0, sp, lr, lsl #24
 5cc:	0000000c 	andeq	r0, r0, ip
 5d0:	000005bc 			; <UNDEFINED> instruction: 0x000005bc
 5d4:	00009030 	andeq	r9, r0, r0, lsr r0
 5d8:	00000020 	andeq	r0, r0, r0, lsr #32
 5dc:	0000000c 	andeq	r0, r0, ip
 5e0:	ffffffff 			; <UNDEFINED> instruction: 0xffffffff
 5e4:	7c020001 	stcvc	0, cr0, [r2], {1}
 5e8:	000d0c0e 	andeq	r0, sp, lr, lsl #24
 5ec:	0000000c 	andeq	r0, r0, ip
 5f0:	000005dc 	ldrdeq	r0, [r0], -ip
 5f4:	00009050 	andeq	r9, r0, r0, asr r0
 5f8:	0000002c 	andeq	r0, r0, ip, lsr #32

Disassembly of section .debug_ranges:

00000000 <.debug_ranges>:
   0:	000089f4 	strdeq	r8, [r0], -r4
   4:	00008a70 	andeq	r8, r0, r0, ror sl
	...
  10:	00009050 	andeq	r9, r0, r0, asr r0
  14:	0000907c 	andeq	r9, r0, ip, ror r0
	...
