
0-test.elf:     file format elf32-littlearm


Disassembly of section .text:

00008000 <__code_start__>:
    8000:	e3a0d302 	mov	sp, #134217728	; 0x8000000
    8004:	e3a0b000 	mov	fp, #0, 0
    8008:	eb0002ef 	bl	8bcc <_cstart>
    800c:	eb000304 	bl	8c24 <rpi_reboot>

00008010 <PUT32>:
    8010:	e5801000 	str	r1, [r0]
    8014:	e12fff1e 	bx	lr

00008018 <GET32>:
    8018:	e5900000 	ldr	r0, [r0]
    801c:	e12fff1e 	bx	lr

00008020 <notmain>:
    8020:	e92d4070 	push	{r4, r5, r6, lr}
    8024:	e59f4080 	ldr	r4, [pc, #128]	; 80ac <notmain+0x8c>
    8028:	e1a00004 	mov	r0, r4
    802c:	eb0000e1 	bl	83b8 <printk>
    8030:	e59f0078 	ldr	r0, [pc, #120]	; 80b0 <notmain+0x90>
    8034:	eb0000df 	bl	83b8 <printk>
    8038:	e3a00601 	mov	r0, #1048576	; 0x100000
    803c:	eb0000a8 	bl	82e4 <kmalloc_init_set_start>
    8040:	e1a00004 	mov	r0, r4
    8044:	eb0000db 	bl	83b8 <printk>
    8048:	e3a00001 	mov	r0, #1, 0
    804c:	eb00001a 	bl	80bc <kmalloc>
    8050:	e1a01000 	mov	r1, r0
    8054:	e59f5058 	ldr	r5, [pc, #88]	; 80b4 <notmain+0x94>
    8058:	e1a00005 	mov	r0, r5
    805c:	eb0000d5 	bl	83b8 <printk>
    8060:	e1a00004 	mov	r0, r4
    8064:	eb0000d3 	bl	83b8 <printk>
    8068:	e3a00001 	mov	r0, #1, 0
    806c:	eb000012 	bl	80bc <kmalloc>
    8070:	e1a01000 	mov	r1, r0
    8074:	e1a00005 	mov	r0, r5
    8078:	eb0000ce 	bl	83b8 <printk>
    807c:	e1a00004 	mov	r0, r4
    8080:	eb0000cc 	bl	83b8 <printk>
    8084:	e3a00001 	mov	r0, #1, 0
    8088:	eb00000b 	bl	80bc <kmalloc>
    808c:	e1a01000 	mov	r1, r0
    8090:	e1a00005 	mov	r0, r5
    8094:	eb0000c7 	bl	83b8 <printk>
    8098:	e1a00004 	mov	r0, r4
    809c:	eb0000c5 	bl	83b8 <printk>
    80a0:	e59f0010 	ldr	r0, [pc, #16]	; 80b8 <notmain+0x98>
    80a4:	eb0000c3 	bl	83b8 <printk>
    80a8:	e8bd8070 	pop	{r4, r5, r6, pc}
    80ac:	00009118 	andeq	r9, r0, r8, lsl r1
    80b0:	00009120 	andeq	r9, r0, r0, lsr #2
    80b4:	0000913c 	andeq	r9, r0, ip, lsr r1
    80b8:	0000914c 	andeq	r9, r0, ip, asr #2

000080bc <kmalloc>:
    80bc:	e52de004 	push	{lr}		; (str lr, [sp, #-4]!)
    80c0:	e24dd00c 	sub	sp, sp, #12, 0
    80c4:	e3500000 	cmp	r0, #0, 0
    80c8:	0a00000d 	beq	8104 <kmalloc+0x48>
    80cc:	e59f3094 	ldr	r3, [pc, #148]	; 8168 <kmalloc+0xac>
    80d0:	e5933000 	ldr	r3, [r3]
    80d4:	e3530000 	cmp	r3, #0, 0
    80d8:	0a000011 	beq	8124 <kmalloc+0x68>
    80dc:	e2800003 	add	r0, r0, #3, 0
    80e0:	e3c03003 	bic	r3, r0, #3, 0
    80e4:	e59f2080 	ldr	r2, [pc, #128]	; 816c <kmalloc+0xb0>
    80e8:	e5920000 	ldr	r0, [r2]
    80ec:	e0803003 	add	r3, r0, r3
    80f0:	e5823000 	str	r3, [r2]
    80f4:	e3130003 	tst	r3, #3, 0
    80f8:	1a000012 	bne	8148 <kmalloc+0x8c>
    80fc:	e28dd00c 	add	sp, sp, #12, 0
    8100:	e49df004 	pop	{pc}		; (ldr pc, [sp], #4)
    8104:	e59f3064 	ldr	r3, [pc, #100]	; 8170 <kmalloc+0xb4>
    8108:	e58d3000 	str	r3, [sp]
    810c:	e3a03035 	mov	r3, #53, 0	; 0x35
    8110:	e59f205c 	ldr	r2, [pc, #92]	; 8174 <kmalloc+0xb8>
    8114:	e59f105c 	ldr	r1, [pc, #92]	; 8178 <kmalloc+0xbc>
    8118:	e59f005c 	ldr	r0, [pc, #92]	; 817c <kmalloc+0xc0>
    811c:	eb0000a5 	bl	83b8 <printk>
    8120:	eb00029e 	bl	8ba0 <clean_reboot>
    8124:	eb0000be 	bl	8424 <rpi_reset_putc>
    8128:	e59f3050 	ldr	r3, [pc, #80]	; 8180 <kmalloc+0xc4>
    812c:	e58d3000 	str	r3, [sp]
    8130:	e3a03036 	mov	r3, #54, 0	; 0x36
    8134:	e59f2038 	ldr	r2, [pc, #56]	; 8174 <kmalloc+0xb8>
    8138:	e59f1038 	ldr	r1, [pc, #56]	; 8178 <kmalloc+0xbc>
    813c:	e59f0040 	ldr	r0, [pc, #64]	; 8184 <kmalloc+0xc8>
    8140:	eb00009c 	bl	83b8 <printk>
    8144:	eb000295 	bl	8ba0 <clean_reboot>
    8148:	e59f3038 	ldr	r3, [pc, #56]	; 8188 <kmalloc+0xcc>
    814c:	e58d3000 	str	r3, [sp]
    8150:	e3a0303a 	mov	r3, #58, 0	; 0x3a
    8154:	e59f2018 	ldr	r2, [pc, #24]	; 8174 <kmalloc+0xb8>
    8158:	e59f1018 	ldr	r1, [pc, #24]	; 8178 <kmalloc+0xbc>
    815c:	e59f0018 	ldr	r0, [pc, #24]	; 817c <kmalloc+0xc0>
    8160:	eb000094 	bl	83b8 <printk>
    8164:	eb00028d 	bl	8ba0 <clean_reboot>
    8168:	00009470 	andeq	r9, r0, r0, ror r4
    816c:	00009874 	andeq	r9, r0, r4, ror r8
    8170:	000091dc 	ldrdeq	r9, [r0], -ip
    8174:	000092b4 			; <UNDEFINED> instruction: 0x000092b4
    8178:	00009154 	andeq	r9, r0, r4, asr r1
    817c:	00009160 	andeq	r9, r0, r0, ror #2
    8180:	000091b0 			; <UNDEFINED> instruction: 0x000091b0
    8184:	00009174 	andeq	r9, r0, r4, ror r1
    8188:	000091b8 			; <UNDEFINED> instruction: 0x000091b8

0000818c <kmalloc_aligned>:
    818c:	e52de004 	push	{lr}		; (str lr, [sp, #-4]!)
    8190:	e24dd00c 	sub	sp, sp, #12, 0
    8194:	e3500004 	cmp	r0, #4, 0
    8198:	1a00000f 	bne	81dc <kmalloc_aligned+0x50>
    819c:	e59f30c8 	ldr	r3, [pc, #200]	; 826c <kmalloc_aligned+0xe0>
    81a0:	e5933000 	ldr	r3, [r3]
    81a4:	e3530000 	cmp	r3, #0, 0
    81a8:	0a000013 	beq	81fc <kmalloc_aligned+0x70>
    81ac:	e2613000 	rsb	r3, r1, #0, 0
    81b0:	e1d13003 	bics	r3, r1, r3
    81b4:	1a000019 	bne	8220 <kmalloc_aligned+0x94>
    81b8:	e3510004 	cmp	r1, #4, 0
    81bc:	9a000020 	bls	8244 <kmalloc_aligned+0xb8>
    81c0:	e59f30a8 	ldr	r3, [pc, #168]	; 8270 <kmalloc_aligned+0xe4>
    81c4:	e5930000 	ldr	r0, [r3]
    81c8:	e2411001 	sub	r1, r1, #1, 0
    81cc:	e1100001 	tst	r0, r1
    81d0:	1a00001d 	bne	824c <kmalloc_aligned+0xc0>
    81d4:	e28dd00c 	add	sp, sp, #12, 0
    81d8:	e49df004 	pop	{pc}		; (ldr pc, [sp], #4)
    81dc:	e59f3090 	ldr	r3, [pc, #144]	; 8274 <kmalloc_aligned+0xe8>
    81e0:	e58d3000 	str	r3, [sp]
    81e4:	e3a03043 	mov	r3, #67, 0	; 0x43
    81e8:	e59f2088 	ldr	r2, [pc, #136]	; 8278 <kmalloc_aligned+0xec>
    81ec:	e59f1088 	ldr	r1, [pc, #136]	; 827c <kmalloc_aligned+0xf0>
    81f0:	e59f0088 	ldr	r0, [pc, #136]	; 8280 <kmalloc_aligned+0xf4>
    81f4:	eb00006f 	bl	83b8 <printk>
    81f8:	eb000268 	bl	8ba0 <clean_reboot>
    81fc:	eb000088 	bl	8424 <rpi_reset_putc>
    8200:	e59f307c 	ldr	r3, [pc, #124]	; 8284 <kmalloc_aligned+0xf8>
    8204:	e58d3000 	str	r3, [sp]
    8208:	e3a03044 	mov	r3, #68, 0	; 0x44
    820c:	e59f2064 	ldr	r2, [pc, #100]	; 8278 <kmalloc_aligned+0xec>
    8210:	e59f1064 	ldr	r1, [pc, #100]	; 827c <kmalloc_aligned+0xf0>
    8214:	e59f006c 	ldr	r0, [pc, #108]	; 8288 <kmalloc_aligned+0xfc>
    8218:	eb000066 	bl	83b8 <printk>
    821c:	eb00025f 	bl	8ba0 <clean_reboot>
    8220:	eb00007f 	bl	8424 <rpi_reset_putc>
    8224:	e59f3060 	ldr	r3, [pc, #96]	; 828c <kmalloc_aligned+0x100>
    8228:	e58d3000 	str	r3, [sp]
    822c:	e3a03045 	mov	r3, #69, 0	; 0x45
    8230:	e59f2040 	ldr	r2, [pc, #64]	; 8278 <kmalloc_aligned+0xec>
    8234:	e59f1040 	ldr	r1, [pc, #64]	; 827c <kmalloc_aligned+0xf0>
    8238:	e59f0050 	ldr	r0, [pc, #80]	; 8290 <kmalloc_aligned+0x104>
    823c:	eb00005d 	bl	83b8 <printk>
    8240:	eb000256 	bl	8ba0 <clean_reboot>
    8244:	ebffff9c 	bl	80bc <kmalloc>
    8248:	eaffffe1 	b	81d4 <kmalloc_aligned+0x48>
    824c:	e59f3040 	ldr	r3, [pc, #64]	; 8294 <kmalloc_aligned+0x108>
    8250:	e58d3000 	str	r3, [sp]
    8254:	e3a0304a 	mov	r3, #74, 0	; 0x4a
    8258:	e59f2018 	ldr	r2, [pc, #24]	; 8278 <kmalloc_aligned+0xec>
    825c:	e59f1018 	ldr	r1, [pc, #24]	; 827c <kmalloc_aligned+0xf0>
    8260:	e59f0018 	ldr	r0, [pc, #24]	; 8280 <kmalloc_aligned+0xf4>
    8264:	eb000053 	bl	83b8 <printk>
    8268:	eb00024c 	bl	8ba0 <clean_reboot>
    826c:	00009470 	andeq	r9, r0, r0, ror r4
    8270:	00009874 	andeq	r9, r0, r4, ror r8
    8274:	000091cc 	andeq	r9, r0, ip, asr #3
    8278:	000092bc 			; <UNDEFINED> instruction: 0x000092bc
    827c:	00009154 	andeq	r9, r0, r4, asr r1
    8280:	00009160 	andeq	r9, r0, r0, ror #2
    8284:	000091b0 			; <UNDEFINED> instruction: 0x000091b0
    8288:	00009174 	andeq	r9, r0, r4, ror r1
    828c:	00009218 	andeq	r9, r0, r8, lsl r2
    8290:	000091e4 	andeq	r9, r0, r4, ror #3
    8294:	0000922c 	andeq	r9, r0, ip, lsr #4

00008298 <kmalloc_init>:
    8298:	e59f3034 	ldr	r3, [pc, #52]	; 82d4 <kmalloc_init+0x3c>
    829c:	e5933000 	ldr	r3, [r3]
    82a0:	e3530000 	cmp	r3, #0, 0
    82a4:	112fff1e 	bxne	lr
    82a8:	e92d4010 	push	{r4, lr}
    82ac:	e59f3020 	ldr	r3, [pc, #32]	; 82d4 <kmalloc_init+0x3c>
    82b0:	e3a02001 	mov	r2, #1, 0
    82b4:	e5832000 	str	r2, [r3]
    82b8:	e59f1018 	ldr	r1, [pc, #24]	; 82d8 <kmalloc_init+0x40>
    82bc:	e3c11003 	bic	r1, r1, #3, 0
    82c0:	e59f3014 	ldr	r3, [pc, #20]	; 82dc <kmalloc_init+0x44>
    82c4:	e5831000 	str	r1, [r3]
    82c8:	e59f0010 	ldr	r0, [pc, #16]	; 82e0 <kmalloc_init+0x48>
    82cc:	eb000039 	bl	83b8 <printk>
    82d0:	e8bd8010 	pop	{r4, pc}
    82d4:	00009470 	andeq	r9, r0, r0, ror r4
    82d8:	0000987b 	andeq	r9, r0, fp, ror r8
    82dc:	00009874 	andeq	r9, r0, r4, ror r8
    82e0:	00009248 	andeq	r9, r0, r8, asr #4

000082e4 <kmalloc_init_set_start>:
    82e4:	e52de004 	push	{lr}		; (str lr, [sp, #-4]!)
    82e8:	e24dd00c 	sub	sp, sp, #12, 0
    82ec:	e59f3058 	ldr	r3, [pc, #88]	; 834c <kmalloc_init_set_start+0x68>
    82f0:	e5933000 	ldr	r3, [r3]
    82f4:	e3530000 	cmp	r3, #0, 0
    82f8:	1a00000a 	bne	8328 <kmalloc_init_set_start+0x44>
    82fc:	e59f3048 	ldr	r3, [pc, #72]	; 834c <kmalloc_init_set_start+0x68>
    8300:	e3a02001 	mov	r2, #1, 0
    8304:	e5832000 	str	r2, [r3]
    8308:	e2800003 	add	r0, r0, #3, 0
    830c:	e3c01003 	bic	r1, r0, #3, 0
    8310:	e59f3038 	ldr	r3, [pc, #56]	; 8350 <kmalloc_init_set_start+0x6c>
    8314:	e5831000 	str	r1, [r3]
    8318:	e59f0034 	ldr	r0, [pc, #52]	; 8354 <kmalloc_init_set_start+0x70>
    831c:	eb000025 	bl	83b8 <printk>
    8320:	e28dd00c 	add	sp, sp, #12, 0
    8324:	e49df004 	pop	{pc}		; (ldr pc, [sp], #4)
    8328:	eb00003d 	bl	8424 <rpi_reset_putc>
    832c:	e59f3024 	ldr	r3, [pc, #36]	; 8358 <kmalloc_init_set_start+0x74>
    8330:	e58d3000 	str	r3, [sp]
    8334:	e3a03063 	mov	r3, #99, 0	; 0x63
    8338:	e59f201c 	ldr	r2, [pc, #28]	; 835c <kmalloc_init_set_start+0x78>
    833c:	e59f101c 	ldr	r1, [pc, #28]	; 8360 <kmalloc_init_set_start+0x7c>
    8340:	e59f001c 	ldr	r0, [pc, #28]	; 8364 <kmalloc_init_set_start+0x80>
    8344:	eb00001b 	bl	83b8 <printk>
    8348:	eb000214 	bl	8ba0 <clean_reboot>
    834c:	00009470 	andeq	r9, r0, r0, ror r4
    8350:	00009874 	andeq	r9, r0, r4, ror r8
    8354:	00009248 	andeq	r9, r0, r8, asr #4
    8358:	00009280 	andeq	r9, r0, r0, lsl #5
    835c:	000092cc 	andeq	r9, r0, ip, asr #5
    8360:	00009154 	andeq	r9, r0, r4, asr r1
    8364:	0000924c 	andeq	r9, r0, ip, asr #4

00008368 <kfree_all>:
    8368:	e92d4010 	push	{r4, lr}
    836c:	e3a0306f 	mov	r3, #111, 0	; 0x6f
    8370:	e59f200c 	ldr	r2, [pc, #12]	; 8384 <kfree_all+0x1c>
    8374:	e59f100c 	ldr	r1, [pc, #12]	; 8388 <kfree_all+0x20>
    8378:	e59f000c 	ldr	r0, [pc, #12]	; 838c <kfree_all+0x24>
    837c:	eb00000d 	bl	83b8 <printk>
    8380:	eb000206 	bl	8ba0 <clean_reboot>
    8384:	000092e4 	andeq	r9, r0, r4, ror #5
    8388:	00009154 	andeq	r9, r0, r4, asr r1
    838c:	00009288 	andeq	r9, r0, r8, lsl #5

00008390 <kmalloc_heap_ptr>:
    8390:	e92d4010 	push	{r4, lr}
    8394:	e3a03078 	mov	r3, #120, 0	; 0x78
    8398:	e59f200c 	ldr	r2, [pc, #12]	; 83ac <kmalloc_heap_ptr+0x1c>
    839c:	e59f100c 	ldr	r1, [pc, #12]	; 83b0 <kmalloc_heap_ptr+0x20>
    83a0:	e59f000c 	ldr	r0, [pc, #12]	; 83b4 <kmalloc_heap_ptr+0x24>
    83a4:	eb000003 	bl	83b8 <printk>
    83a8:	eb0001fc 	bl	8ba0 <clean_reboot>
    83ac:	000092f0 	strdeq	r9, [r0], -r0
    83b0:	00009154 	andeq	r9, r0, r4, asr r1
    83b4:	00009288 	andeq	r9, r0, r8, lsl #5

000083b8 <printk>:
    83b8:	e92d000f 	push	{r0, r1, r2, r3}
    83bc:	e92d4030 	push	{r4, r5, lr}
    83c0:	e24dd00c 	sub	sp, sp, #12, 0
    83c4:	e28d301c 	add	r3, sp, #28, 0
    83c8:	e58d3004 	str	r3, [sp, #4]
    83cc:	e59f5034 	ldr	r5, [pc, #52]	; 8408 <printk+0x50>
    83d0:	e59d2018 	ldr	r2, [sp, #24]
    83d4:	e3a01b01 	mov	r1, #1024	; 0x400
    83d8:	e1a00005 	mov	r0, r5
    83dc:	eb0000c9 	bl	8708 <va_printk>
    83e0:	e1a04000 	mov	r4, r0
    83e4:	e59f3020 	ldr	r3, [pc, #32]	; 840c <printk+0x54>
    83e8:	e5933000 	ldr	r3, [r3]
    83ec:	e1a00005 	mov	r0, r5
    83f0:	e12fff33 	blx	r3
    83f4:	e1a00004 	mov	r0, r4
    83f8:	e28dd00c 	add	sp, sp, #12, 0
    83fc:	e8bd4030 	pop	{r4, r5, lr}
    8400:	e28dd010 	add	sp, sp, #16, 0
    8404:	e12fff1e 	bx	lr
    8408:	00009474 	andeq	r9, r0, r4, ror r4
    840c:	0000946c 	andeq	r9, r0, ip, ror #8

00008410 <internal_putchar>:
    8410:	e92d4010 	push	{r4, lr}
    8414:	e1a04000 	mov	r4, r0
    8418:	eb000284 	bl	8e30 <uart_putc>
    841c:	e1a00004 	mov	r0, r4
    8420:	e8bd8010 	pop	{r4, pc}

00008424 <rpi_reset_putc>:
    8424:	e59f3008 	ldr	r3, [pc, #8]	; 8434 <rpi_reset_putc+0x10>
    8428:	e59f2008 	ldr	r2, [pc, #8]	; 8438 <rpi_reset_putc+0x14>
    842c:	e5832000 	str	r2, [r3]
    8430:	e12fff1e 	bx	lr
    8434:	00009468 	andeq	r9, r0, r8, ror #8
    8438:	00008410 	andeq	r8, r0, r0, lsl r4

0000843c <rpi_set_putc>:
    843c:	e59f3004 	ldr	r3, [pc, #4]	; 8448 <rpi_set_putc+0xc>
    8440:	e5830000 	str	r0, [r3]
    8444:	e12fff1e 	bx	lr
    8448:	00009468 	andeq	r9, r0, r8, ror #8

0000844c <internal_putk>:
    844c:	e92d4010 	push	{r4, lr}
    8450:	e1a04000 	mov	r4, r0
    8454:	e5d40000 	ldrb	r0, [r4]
    8458:	e3500000 	cmp	r0, #0, 0
    845c:	0a000004 	beq	8474 <internal_putk+0x28>
    8460:	e59f3014 	ldr	r3, [pc, #20]	; 847c <internal_putk+0x30>
    8464:	e5933000 	ldr	r3, [r3]
    8468:	e12fff33 	blx	r3
    846c:	e2844001 	add	r4, r4, #1, 0
    8470:	eafffff7 	b	8454 <internal_putk+0x8>
    8474:	e3a00001 	mov	r0, #1, 0
    8478:	e8bd8010 	pop	{r4, pc}
    847c:	00009468 	andeq	r9, r0, r8, ror #8

00008480 <isdigit>:
    8480:	e2400030 	sub	r0, r0, #48, 0	; 0x30
    8484:	e3500009 	cmp	r0, #9, 0
    8488:	83a00000 	movhi	r0, #0, 0
    848c:	93a00001 	movls	r0, #1, 0
    8490:	e12fff1e 	bx	lr

00008494 <pad>:
    8494:	e0401001 	sub	r1, r0, r1
    8498:	e1510002 	cmp	r1, r2
    849c:	b3a03020 	movlt	r3, #32, 0
    84a0:	b4c03001 	strblt	r3, [r0], #1
    84a4:	b2811001 	addlt	r1, r1, #1, 0
    84a8:	bafffffa 	blt	8498 <pad+0x4>
    84ac:	e3a03000 	mov	r3, #0, 0
    84b0:	e5c03000 	strb	r3, [r0]
    84b4:	e12fff1e 	bx	lr

000084b8 <reverse>:
    84b8:	e042c003 	sub	ip, r2, r3
    84bc:	e28cc001 	add	ip, ip, #1, 0
    84c0:	e15c0001 	cmp	ip, r1
    84c4:	c04cc001 	subgt	ip, ip, r1
    84c8:	c083300c 	addgt	r3, r3, ip
    84cc:	e2421001 	sub	r1, r2, #1, 0
    84d0:	e1a02000 	mov	r2, r0
    84d4:	e1510003 	cmp	r1, r3
    84d8:	2451c001 	ldrbcs	ip, [r1], #-1
    84dc:	24c2c001 	strbcs	ip, [r2], #1
    84e0:	2afffffb 	bcs	84d4 <reverse+0x1c>
    84e4:	e3a03000 	mov	r3, #0, 0
    84e8:	e5c23000 	strb	r3, [r2]
    84ec:	e12fff1e 	bx	lr

000084f0 <emit>:
    84f0:	e92d40f0 	push	{r4, r5, r6, r7, lr}
    84f4:	e24dd04c 	sub	sp, sp, #76, 0	; 0x4c
    84f8:	e1a05001 	mov	r5, r1
    84fc:	e1a04002 	mov	r4, r2
    8500:	e59d2060 	ldr	r2, [sp, #96]	; 0x60
    8504:	e1520004 	cmp	r2, r4
    8508:	c2442001 	subgt	r2, r4, #1, 0
    850c:	e1a0c003 	mov	ip, r3
    8510:	e2400002 	sub	r0, r0, #2, 0
    8514:	e350000e 	cmp	r0, #14, 0
    8518:	979ff100 	ldrls	pc, [pc, r0, lsl #2]
    851c:	ea000050 	b	8664 <emit+0x174>
    8520:	0000863c 	andeq	r8, r0, ip, lsr r6
    8524:	00008664 	andeq	r8, r0, r4, ror #12
    8528:	00008664 	andeq	r8, r0, r4, ror #12
    852c:	00008664 	andeq	r8, r0, r4, ror #12
    8530:	00008664 	andeq	r8, r0, r4, ror #12
    8534:	00008664 	andeq	r8, r0, r4, ror #12
    8538:	00008630 	andeq	r8, r0, r0, lsr r6
    853c:	00008664 	andeq	r8, r0, r4, ror #12
    8540:	0000855c 	andeq	r8, r0, ip, asr r5
    8544:	00008664 	andeq	r8, r0, r4, ror #12
    8548:	00008664 	andeq	r8, r0, r4, ror #12
    854c:	00008664 	andeq	r8, r0, r4, ror #12
    8550:	00008664 	andeq	r8, r0, r4, ror #12
    8554:	00008664 	andeq	r8, r0, r4, ror #12
    8558:	000085d4 	ldrdeq	r8, [r0], -r4
    855c:	e59d1064 	ldr	r1, [sp, #100]	; 0x64
    8560:	e2511000 	subs	r1, r1, #0, 0
    8564:	13a01001 	movne	r1, #1, 0
    8568:	e0111fa3 	ands	r1, r1, r3, lsr #31
    856c:	0a000016 	beq	85cc <emit+0xdc>
    8570:	e263c000 	rsb	ip, r3, #0, 0
    8574:	e3a06001 	mov	r6, #1, 0
    8578:	e28d0008 	add	r0, sp, #8, 0
    857c:	e59f3100 	ldr	r3, [pc, #256]	; 8684 <emit+0x194>
    8580:	e0831c93 	umull	r1, r3, r3, ip
    8584:	e1a031a3 	lsr	r3, r3, #3
    8588:	e1a0e003 	mov	lr, r3
    858c:	e0833103 	add	r3, r3, r3, lsl #2
    8590:	e04c3083 	sub	r3, ip, r3, lsl #1
    8594:	e1a01000 	mov	r1, r0
    8598:	e2800001 	add	r0, r0, #1, 0
    859c:	e59f70e4 	ldr	r7, [pc, #228]	; 8688 <emit+0x198>
    85a0:	e7d73003 	ldrb	r3, [r7, r3]
    85a4:	e5c13000 	strb	r3, [r1]
    85a8:	e1a0300c 	mov	r3, ip
    85ac:	e1a0c00e 	mov	ip, lr
    85b0:	e3530009 	cmp	r3, #9, 0
    85b4:	8afffff0 	bhi	857c <emit+0x8c>
    85b8:	e3560000 	cmp	r6, #0, 0
    85bc:	13a0302d 	movne	r3, #45, 0	; 0x2d
    85c0:	15c03000 	strbne	r3, [r0]
    85c4:	12810002 	addne	r0, r1, #2, 0
    85c8:	ea00000f 	b	860c <emit+0x11c>
    85cc:	e3a06000 	mov	r6, #0, 0
    85d0:	eaffffe8 	b	8578 <emit+0x88>
    85d4:	e28d1008 	add	r1, sp, #8, 0
    85d8:	e20c000f 	and	r0, ip, #15, 0
    85dc:	e59fe0a8 	ldr	lr, [pc, #168]	; 868c <emit+0x19c>
    85e0:	e7de0000 	ldrb	r0, [lr, r0]
    85e4:	e5c10000 	strb	r0, [r1]
    85e8:	e2811001 	add	r1, r1, #1, 0
    85ec:	e35c000f 	cmp	ip, #15, 0
    85f0:	e1a0c22c 	lsr	ip, ip, #4
    85f4:	8afffff7 	bhi	85d8 <emit+0xe8>
    85f8:	e1a00001 	mov	r0, r1
    85fc:	e3a03078 	mov	r3, #120, 0	; 0x78
    8600:	e4c03002 	strb	r3, [r0], #2
    8604:	e3a03030 	mov	r3, #48, 0	; 0x30
    8608:	e5c13001 	strb	r3, [r1, #1]
    860c:	e28d1008 	add	r1, sp, #8, 0
    8610:	ebffff9f 	bl	8494 <pad>
    8614:	e1a02000 	mov	r2, r0
    8618:	e28d3008 	add	r3, sp, #8, 0
    861c:	e1a01004 	mov	r1, r4
    8620:	e1a00005 	mov	r0, r5
    8624:	ebffffa3 	bl	84b8 <reverse>
    8628:	e28dd04c 	add	sp, sp, #76, 0	; 0x4c
    862c:	e8bd80f0 	pop	{r4, r5, r6, r7, pc}
    8630:	e5cd3008 	strb	r3, [sp, #8]
    8634:	e28d0009 	add	r0, sp, #9, 0
    8638:	eafffff3 	b	860c <emit+0x11c>
    863c:	e28d0008 	add	r0, sp, #8, 0
    8640:	e20c1001 	and	r1, ip, #1, 0
    8644:	e59fe044 	ldr	lr, [pc, #68]	; 8690 <emit+0x1a0>
    8648:	e7de1001 	ldrb	r1, [lr, r1]
    864c:	e5c01000 	strb	r1, [r0]
    8650:	e2800001 	add	r0, r0, #1, 0
    8654:	e35c0001 	cmp	ip, #1, 0
    8658:	e1a0c0ac 	lsr	ip, ip, #1
    865c:	8afffff7 	bhi	8640 <emit+0x150>
    8660:	eaffffe9 	b	860c <emit+0x11c>
    8664:	e59f3028 	ldr	r3, [pc, #40]	; 8694 <emit+0x1a4>
    8668:	e58d3000 	str	r3, [sp]
    866c:	e3a03079 	mov	r3, #121, 0	; 0x79
    8670:	e59f2020 	ldr	r2, [pc, #32]	; 8698 <emit+0x1a8>
    8674:	e59f1020 	ldr	r1, [pc, #32]	; 869c <emit+0x1ac>
    8678:	e59f0020 	ldr	r0, [pc, #32]	; 86a0 <emit+0x1b0>
    867c:	ebffff4d 	bl	83b8 <printk>
    8680:	eb000146 	bl	8ba0 <clean_reboot>
    8684:	cccccccd 	stclgt	12, cr12, [ip], {205}	; 0xcd
    8688:	0000931c 	andeq	r9, r0, ip, lsl r3
    868c:	00009328 	andeq	r9, r0, r8, lsr #6
    8690:	0000933c 	andeq	r9, r0, ip, lsr r3
    8694:	00009318 	andeq	r9, r0, r8, lsl r3
    8698:	00009438 	andeq	r9, r0, r8, lsr r4
    869c:	00009304 	andeq	r9, r0, r4, lsl #6
    86a0:	00009160 	andeq	r9, r0, r0, ror #2

000086a4 <rpi_set_output>:
    86a4:	e3500000 	cmp	r0, #0, 0
    86a8:	0a000006 	beq	86c8 <rpi_set_output+0x24>
    86ac:	e59f303c 	ldr	r3, [pc, #60]	; 86f0 <rpi_set_output+0x4c>
    86b0:	e5830000 	str	r0, [r3]
    86b4:	e3510000 	cmp	r1, #0, 0
    86b8:	012fff1e 	bxeq	lr
    86bc:	e59f3030 	ldr	r3, [pc, #48]	; 86f4 <rpi_set_output+0x50>
    86c0:	e5831000 	str	r1, [r3]
    86c4:	e12fff1e 	bx	lr
    86c8:	e52de004 	push	{lr}		; (str lr, [sp, #-4]!)
    86cc:	e24dd00c 	sub	sp, sp, #12, 0
    86d0:	e59f3020 	ldr	r3, [pc, #32]	; 86f8 <rpi_set_output+0x54>
    86d4:	e58d3000 	str	r3, [sp]
    86d8:	e3a03020 	mov	r3, #32, 0
    86dc:	e59f2018 	ldr	r2, [pc, #24]	; 86fc <rpi_set_output+0x58>
    86e0:	e59f1018 	ldr	r1, [pc, #24]	; 8700 <rpi_set_output+0x5c>
    86e4:	e59f0018 	ldr	r0, [pc, #24]	; 8704 <rpi_set_output+0x60>
    86e8:	ebffff32 	bl	83b8 <printk>
    86ec:	eb00012b 	bl	8ba0 <clean_reboot>
    86f0:	00009468 	andeq	r9, r0, r8, ror #8
    86f4:	0000946c 	andeq	r9, r0, ip, ror #8
    86f8:	00009340 	andeq	r9, r0, r0, asr #6
    86fc:	00009440 	andeq	r9, r0, r0, asr #8
    8700:	00009304 	andeq	r9, r0, r4, lsl #6
    8704:	00009160 	andeq	r9, r0, r0, ror #2

00008708 <va_printk>:
    8708:	e92d4ff0 	push	{r4, r5, r6, r7, r8, r9, sl, fp, lr}
    870c:	e24ddf45 	sub	sp, sp, #276	; 0x114
    8710:	e1a09000 	mov	r9, r0
    8714:	e58d2008 	str	r2, [sp, #8]
    8718:	e58d300c 	str	r3, [sp, #12]
    871c:	e2411001 	sub	r1, r1, #1, 0
    8720:	e0808001 	add	r8, r0, r1
    8724:	e3a03000 	mov	r3, #0, 0
    8728:	e5c03000 	strb	r3, [r0]
    872c:	e1a04000 	mov	r4, r0
    8730:	e1a06002 	mov	r6, r2
    8734:	ea000001 	b	8740 <va_printk+0x38>
    8738:	e2866001 	add	r6, r6, #1, 0
    873c:	e4c43001 	strb	r3, [r4], #1
    8740:	e5d63000 	ldrb	r3, [r6]
    8744:	e3530000 	cmp	r3, #0, 0
    8748:	0a000102 	beq	8b58 <va_printk+0x450>
    874c:	e1540008 	cmp	r4, r8
    8750:	2a000100 	bcs	8b58 <va_printk+0x450>
    8754:	e3530025 	cmp	r3, #37, 0	; 0x25
    8758:	1afffff6 	bne	8738 <va_printk+0x30>
    875c:	e5d62001 	ldrb	r2, [r6, #1]
    8760:	e3520025 	cmp	r2, #37, 0	; 0x25
    8764:	04c43001 	strbeq	r3, [r4], #1
    8768:	02866002 	addeq	r6, r6, #2, 0
    876c:	0afffff3 	beq	8740 <va_printk+0x38>
    8770:	e2866001 	add	r6, r6, #1, 0
    8774:	e3a05000 	mov	r5, #0, 0
    8778:	e5d67000 	ldrb	r7, [r6]
    877c:	e1a0a007 	mov	sl, r7
    8780:	e1a00007 	mov	r0, r7
    8784:	ebffff3d 	bl	8480 <isdigit>
    8788:	e3500000 	cmp	r0, #0, 0
    878c:	0a000004 	beq	87a4 <va_printk+0x9c>
    8790:	e0855105 	add	r5, r5, r5, lsl #2
    8794:	e0875085 	add	r5, r7, r5, lsl #1
    8798:	e2455030 	sub	r5, r5, #48, 0	; 0x30
    879c:	e2866001 	add	r6, r6, #1, 0
    87a0:	eafffff4 	b	8778 <va_printk+0x70>
    87a4:	e355001f 	cmp	r5, #31, 0
    87a8:	8a00001a 	bhi	8818 <va_printk+0x110>
    87ac:	e2477062 	sub	r7, r7, #98, 0	; 0x62
    87b0:	e3570016 	cmp	r7, #22, 0
    87b4:	979ff107 	ldrls	pc, [pc, r7, lsl #2]
    87b8:	ea0000ce 	b	8af8 <va_printk+0x3f0>
    87bc:	00008a7c 	andeq	r8, r0, ip, ror sl
    87c0:	00008ac4 	andeq	r8, r0, r4, asr #21
    87c4:	000089dc 	ldrdeq	r8, [r0], -ip
    87c8:	00008af8 	strdeq	r8, [r0], -r8	; <UNPREDICTABLE>
    87cc:	000089c4 	andeq	r8, r0, r4, asr #19
    87d0:	00008af8 	strdeq	r8, [r0], -r8	; <UNPREDICTABLE>
    87d4:	00008af8 	strdeq	r8, [r0], -r8	; <UNPREDICTABLE>
    87d8:	00008af8 	strdeq	r8, [r0], -r8	; <UNPREDICTABLE>
    87dc:	00008af8 	strdeq	r8, [r0], -r8	; <UNPREDICTABLE>
    87e0:	00008af8 	strdeq	r8, [r0], -r8	; <UNPREDICTABLE>
    87e4:	00008838 	andeq	r8, r0, r8, lsr r8
    87e8:	00008af8 	strdeq	r8, [r0], -r8	; <UNPREDICTABLE>
    87ec:	00008af8 	strdeq	r8, [r0], -r8	; <UNPREDICTABLE>
    87f0:	00008af8 	strdeq	r8, [r0], -r8	; <UNPREDICTABLE>
    87f4:	00008a48 	andeq	r8, r0, r8, asr #20
    87f8:	00008af8 	strdeq	r8, [r0], -r8	; <UNPREDICTABLE>
    87fc:	00008af8 	strdeq	r8, [r0], -r8	; <UNPREDICTABLE>
    8800:	00008ab0 			; <UNDEFINED> instruction: 0x00008ab0
    8804:	00008af8 	strdeq	r8, [r0], -r8	; <UNPREDICTABLE>
    8808:	00008a14 	andeq	r8, r0, r4, lsl sl
    880c:	00008af8 	strdeq	r8, [r0], -r8	; <UNPREDICTABLE>
    8810:	00008af8 	strdeq	r8, [r0], -r8	; <UNPREDICTABLE>
    8814:	00008a48 	andeq	r8, r0, r8, asr #20
    8818:	e59f334c 	ldr	r3, [pc, #844]	; 8b6c <va_printk+0x464>
    881c:	e58d3000 	str	r3, [sp]
    8820:	e3a03098 	mov	r3, #152, 0	; 0x98
    8824:	e59f2344 	ldr	r2, [pc, #836]	; 8b70 <va_printk+0x468>
    8828:	e59f1344 	ldr	r1, [pc, #836]	; 8b74 <va_printk+0x46c>
    882c:	e59f0344 	ldr	r0, [pc, #836]	; 8b78 <va_printk+0x470>
    8830:	ebfffee0 	bl	83b8 <printk>
    8834:	eb0000d9 	bl	8ba0 <clean_reboot>
    8838:	e3a02003 	mov	r2, #3, 0
    883c:	e59f1338 	ldr	r1, [pc, #824]	; 8b7c <va_printk+0x474>
    8840:	e1a00006 	mov	r0, r6
    8844:	eb000221 	bl	90d0 <strncmp>
    8848:	e3500000 	cmp	r0, #0, 0
    884c:	0a000005 	beq	8868 <va_printk+0x160>
    8850:	e3a02003 	mov	r2, #3, 0
    8854:	e59f1324 	ldr	r1, [pc, #804]	; 8b80 <va_printk+0x478>
    8858:	e1a00006 	mov	r0, r6
    885c:	eb00021b 	bl	90d0 <strncmp>
    8860:	e3500000 	cmp	r0, #0, 0
    8864:	1a00002d 	bne	8920 <va_printk+0x218>
    8868:	e286b002 	add	fp, r6, #2, 0
    886c:	e59d300c 	ldr	r3, [sp, #12]
    8870:	e2833007 	add	r3, r3, #7, 0
    8874:	e3c33007 	bic	r3, r3, #7, 0
    8878:	e2832008 	add	r2, r3, #8, 0
    887c:	e58d200c 	str	r2, [sp, #12]
    8880:	e593a000 	ldr	sl, [r3]
    8884:	e5937004 	ldr	r7, [r3, #4]
    8888:	e3a02003 	mov	r2, #3, 0
    888c:	e59f12e8 	ldr	r1, [pc, #744]	; 8b7c <va_printk+0x474>
    8890:	e1a00006 	mov	r0, r6
    8894:	eb00020d 	bl	90d0 <strncmp>
    8898:	e3500000 	cmp	r0, #0, 0
    889c:	0a000027 	beq	8940 <va_printk+0x238>
    88a0:	e3a02003 	mov	r2, #3, 0
    88a4:	e59f12d4 	ldr	r1, [pc, #724]	; 8b80 <va_printk+0x478>
    88a8:	e1a00006 	mov	r0, r6
    88ac:	eb000207 	bl	90d0 <strncmp>
    88b0:	e3500000 	cmp	r0, #0, 0
    88b4:	1a00003b 	bne	89a8 <va_printk+0x2a0>
    88b8:	e3a06000 	mov	r6, #0, 0
    88bc:	e58d6004 	str	r6, [sp, #4]
    88c0:	e58d5000 	str	r5, [sp]
    88c4:	e1a03007 	mov	r3, r7
    88c8:	e3a02080 	mov	r2, #128, 0	; 0x80
    88cc:	e28d1010 	add	r1, sp, #16, 0
    88d0:	e3a0000a 	mov	r0, #10, 0
    88d4:	ebffff05 	bl	84f0 <emit>
    88d8:	e1a07000 	mov	r7, r0
    88dc:	e58d6004 	str	r6, [sp, #4]
    88e0:	e58d5000 	str	r5, [sp]
    88e4:	e1a0300a 	mov	r3, sl
    88e8:	e3a02080 	mov	r2, #128, 0	; 0x80
    88ec:	e28d1090 	add	r1, sp, #144, 0	; 0x90
    88f0:	e3a0000a 	mov	r0, #10, 0
    88f4:	ebfffefd 	bl	84f0 <emit>
    88f8:	e59f1284 	ldr	r1, [pc, #644]	; 8b84 <va_printk+0x47c>
    88fc:	e28d0010 	add	r0, sp, #16, 0
    8900:	eb0001df 	bl	9084 <strcmp>
    8904:	e1500006 	cmp	r0, r6
    8908:	1a000021 	bne	8994 <va_printk+0x28c>
    890c:	e28d1090 	add	r1, sp, #144, 0	; 0x90
    8910:	e28d0010 	add	r0, sp, #16, 0
    8914:	eb0001e5 	bl	90b0 <strcpy>
    8918:	e1a0600b 	mov	r6, fp
    891c:	ea00003a 	b	8a0c <va_printk+0x304>
    8920:	e59f3260 	ldr	r3, [pc, #608]	; 8b88 <va_printk+0x480>
    8924:	e58d3000 	str	r3, [sp]
    8928:	e3a0309f 	mov	r3, #159, 0	; 0x9f
    892c:	e59f223c 	ldr	r2, [pc, #572]	; 8b70 <va_printk+0x468>
    8930:	e59f123c 	ldr	r1, [pc, #572]	; 8b74 <va_printk+0x46c>
    8934:	e59f023c 	ldr	r0, [pc, #572]	; 8b78 <va_printk+0x470>
    8938:	ebfffe9e 	bl	83b8 <printk>
    893c:	eb000097 	bl	8ba0 <clean_reboot>
    8940:	e3a06000 	mov	r6, #0, 0
    8944:	e58d6004 	str	r6, [sp, #4]
    8948:	e58d5000 	str	r5, [sp]
    894c:	e1a03007 	mov	r3, r7
    8950:	e3a02080 	mov	r2, #128, 0	; 0x80
    8954:	e28d1010 	add	r1, sp, #16, 0
    8958:	e3a00010 	mov	r0, #16, 0
    895c:	ebfffee3 	bl	84f0 <emit>
    8960:	e1a07000 	mov	r7, r0
    8964:	e58d6004 	str	r6, [sp, #4]
    8968:	e58d5000 	str	r5, [sp]
    896c:	e1a0300a 	mov	r3, sl
    8970:	e3a02080 	mov	r2, #128, 0	; 0x80
    8974:	e28d1090 	add	r1, sp, #144, 0	; 0x90
    8978:	e3a00010 	mov	r0, #16, 0
    897c:	ebfffedb 	bl	84f0 <emit>
    8980:	e28d1092 	add	r1, sp, #146, 0	; 0x92
    8984:	e28d0010 	add	r0, sp, #16, 0
    8988:	eb0001b0 	bl	9050 <strcat>
    898c:	e1a0600b 	mov	r6, fp
    8990:	ea00001d 	b	8a0c <va_printk+0x304>
    8994:	e28d1090 	add	r1, sp, #144, 0	; 0x90
    8998:	e28d0010 	add	r0, sp, #16, 0
    899c:	eb0001ab 	bl	9050 <strcat>
    89a0:	e1a0600b 	mov	r6, fp
    89a4:	ea000018 	b	8a0c <va_printk+0x304>
    89a8:	e58d6000 	str	r6, [sp]
    89ac:	e3a030b6 	mov	r3, #182, 0	; 0xb6
    89b0:	e59f21b8 	ldr	r2, [pc, #440]	; 8b70 <va_printk+0x468>
    89b4:	e59f11b8 	ldr	r1, [pc, #440]	; 8b74 <va_printk+0x46c>
    89b8:	e59f01cc 	ldr	r0, [pc, #460]	; 8b8c <va_printk+0x484>
    89bc:	ebfffe7d 	bl	83b8 <printk>
    89c0:	eb000076 	bl	8ba0 <clean_reboot>
    89c4:	e3a030be 	mov	r3, #190, 0	; 0xbe
    89c8:	e59f21a0 	ldr	r2, [pc, #416]	; 8b70 <va_printk+0x468>
    89cc:	e59f11a0 	ldr	r1, [pc, #416]	; 8b74 <va_printk+0x46c>
    89d0:	e59f01b8 	ldr	r0, [pc, #440]	; 8b90 <va_printk+0x488>
    89d4:	ebfffe77 	bl	83b8 <printk>
    89d8:	eb000070 	bl	8ba0 <clean_reboot>
    89dc:	e59d300c 	ldr	r3, [sp, #12]
    89e0:	e2832004 	add	r2, r3, #4, 0
    89e4:	e58d200c 	str	r2, [sp, #12]
    89e8:	e5933000 	ldr	r3, [r3]
    89ec:	e3a02001 	mov	r2, #1, 0
    89f0:	e58d2004 	str	r2, [sp, #4]
    89f4:	e58d5000 	str	r5, [sp]
    89f8:	e3a02080 	mov	r2, #128, 0	; 0x80
    89fc:	e28d1010 	add	r1, sp, #16, 0
    8a00:	e3a0000a 	mov	r0, #10, 0
    8a04:	ebfffeb9 	bl	84f0 <emit>
    8a08:	e1a07000 	mov	r7, r0
    8a0c:	e2866001 	add	r6, r6, #1, 0
    8a10:	ea00004a 	b	8b40 <va_printk+0x438>
    8a14:	e59d300c 	ldr	r3, [sp, #12]
    8a18:	e2832004 	add	r2, r3, #4, 0
    8a1c:	e58d200c 	str	r2, [sp, #12]
    8a20:	e5933000 	ldr	r3, [r3]
    8a24:	e3a02000 	mov	r2, #0, 0
    8a28:	e58d2004 	str	r2, [sp, #4]
    8a2c:	e58d5000 	str	r5, [sp]
    8a30:	e3a02080 	mov	r2, #128, 0	; 0x80
    8a34:	e28d1010 	add	r1, sp, #16, 0
    8a38:	e3a0000a 	mov	r0, #10, 0
    8a3c:	ebfffeab 	bl	84f0 <emit>
    8a40:	e1a07000 	mov	r7, r0
    8a44:	eafffff0 	b	8a0c <va_printk+0x304>
    8a48:	e59d300c 	ldr	r3, [sp, #12]
    8a4c:	e2832004 	add	r2, r3, #4, 0
    8a50:	e58d200c 	str	r2, [sp, #12]
    8a54:	e5933000 	ldr	r3, [r3]
    8a58:	e3a02000 	mov	r2, #0, 0
    8a5c:	e58d2004 	str	r2, [sp, #4]
    8a60:	e58d5000 	str	r5, [sp]
    8a64:	e3a02080 	mov	r2, #128, 0	; 0x80
    8a68:	e28d1010 	add	r1, sp, #16, 0
    8a6c:	e3a00010 	mov	r0, #16, 0
    8a70:	ebfffe9e 	bl	84f0 <emit>
    8a74:	e1a07000 	mov	r7, r0
    8a78:	eaffffe3 	b	8a0c <va_printk+0x304>
    8a7c:	e59d300c 	ldr	r3, [sp, #12]
    8a80:	e2832004 	add	r2, r3, #4, 0
    8a84:	e58d200c 	str	r2, [sp, #12]
    8a88:	e5933000 	ldr	r3, [r3]
    8a8c:	e3a02000 	mov	r2, #0, 0
    8a90:	e58d2004 	str	r2, [sp, #4]
    8a94:	e58d5000 	str	r5, [sp]
    8a98:	e3a02080 	mov	r2, #128, 0	; 0x80
    8a9c:	e28d1010 	add	r1, sp, #16, 0
    8aa0:	e3a00002 	mov	r0, #2, 0
    8aa4:	ebfffe91 	bl	84f0 <emit>
    8aa8:	e1a07000 	mov	r7, r0
    8aac:	eaffffd6 	b	8a0c <va_printk+0x304>
    8ab0:	e59d300c 	ldr	r3, [sp, #12]
    8ab4:	e2832004 	add	r2, r3, #4, 0
    8ab8:	e58d200c 	str	r2, [sp, #12]
    8abc:	e5937000 	ldr	r7, [r3]
    8ac0:	eaffffd1 	b	8a0c <va_printk+0x304>
    8ac4:	e59d300c 	ldr	r3, [sp, #12]
    8ac8:	e2832004 	add	r2, r3, #4, 0
    8acc:	e58d200c 	str	r2, [sp, #12]
    8ad0:	e5933000 	ldr	r3, [r3]
    8ad4:	e3a02000 	mov	r2, #0, 0
    8ad8:	e58d2004 	str	r2, [sp, #4]
    8adc:	e58d5000 	str	r5, [sp]
    8ae0:	e3a02080 	mov	r2, #128, 0	; 0x80
    8ae4:	e28d1010 	add	r1, sp, #16, 0
    8ae8:	e3a00008 	mov	r0, #8, 0
    8aec:	ebfffe7f 	bl	84f0 <emit>
    8af0:	e1a07000 	mov	r7, r0
    8af4:	eaffffc4 	b	8a0c <va_printk+0x304>
    8af8:	e3a03000 	mov	r3, #0, 0
    8afc:	e5c63001 	strb	r3, [r6, #1]
    8b00:	e1a0200a 	mov	r2, sl
    8b04:	e1a0100a 	mov	r1, sl
    8b08:	e59f0084 	ldr	r0, [pc, #132]	; 8b94 <va_printk+0x48c>
    8b0c:	ebfffe29 	bl	83b8 <printk>
    8b10:	e59f3080 	ldr	r3, [pc, #128]	; 8b98 <va_printk+0x490>
    8b14:	e5933000 	ldr	r3, [r3]
    8b18:	e59d0008 	ldr	r0, [sp, #8]
    8b1c:	e12fff33 	blx	r3
    8b20:	e3a030e2 	mov	r3, #226, 0	; 0xe2
    8b24:	e59f2044 	ldr	r2, [pc, #68]	; 8b70 <va_printk+0x468>
    8b28:	e59f1044 	ldr	r1, [pc, #68]	; 8b74 <va_printk+0x46c>
    8b2c:	e59f0068 	ldr	r0, [pc, #104]	; 8b9c <va_printk+0x494>
    8b30:	ebfffe20 	bl	83b8 <printk>
    8b34:	eb000019 	bl	8ba0 <clean_reboot>
    8b38:	e2877001 	add	r7, r7, #1, 0
    8b3c:	e4c43001 	strb	r3, [r4], #1
    8b40:	e1540008 	cmp	r4, r8
    8b44:	2afffefd 	bcs	8740 <va_printk+0x38>
    8b48:	e5d73000 	ldrb	r3, [r7]
    8b4c:	e3530000 	cmp	r3, #0, 0
    8b50:	1afffff8 	bne	8b38 <va_printk+0x430>
    8b54:	eafffef9 	b	8740 <va_printk+0x38>
    8b58:	e3a03000 	mov	r3, #0, 0
    8b5c:	e4c43001 	strb	r3, [r4], #1
    8b60:	e0440009 	sub	r0, r4, r9
    8b64:	e28ddf45 	add	sp, sp, #276	; 0x114
    8b68:	e8bd8ff0 	pop	{r4, r5, r6, r7, r8, r9, sl, fp, pc}
    8b6c:	00009348 	andeq	r9, r0, r8, asr #6
    8b70:	00009450 	andeq	r9, r0, r0, asr r4
    8b74:	00009304 	andeq	r9, r0, r4, lsl #6
    8b78:	00009160 	andeq	r9, r0, r0, ror #2
    8b7c:	00009354 	andeq	r9, r0, r4, asr r3
    8b80:	00009358 	andeq	r9, r0, r8, asr r3
    8b84:	00009318 	andeq	r9, r0, r8, lsl r3
    8b88:	0000935c 	andeq	r9, r0, ip, asr r3
    8b8c:	00009398 	muleq	r0, r8, r3
    8b90:	000093c0 	andeq	r9, r0, r0, asr #7
    8b94:	000093e8 	andeq	r9, r0, r8, ror #7
    8b98:	0000946c 	andeq	r9, r0, ip, ror #8
    8b9c:	00009418 	andeq	r9, r0, r8, lsl r4

00008ba0 <clean_reboot>:
    8ba0:	e92d4010 	push	{r4, lr}
    8ba4:	e59f3018 	ldr	r3, [pc, #24]	; 8bc4 <clean_reboot+0x24>
    8ba8:	e5933000 	ldr	r3, [r3]
    8bac:	e59f0014 	ldr	r0, [pc, #20]	; 8bc8 <clean_reboot+0x28>
    8bb0:	e12fff33 	blx	r3
    8bb4:	eb0000b5 	bl	8e90 <uart_flush_tx>
    8bb8:	e3a0000a 	mov	r0, #10, 0
    8bbc:	eb000041 	bl	8cc8 <delay_ms>
    8bc0:	eb000017 	bl	8c24 <rpi_reboot>
    8bc4:	0000946c 	andeq	r9, r0, ip, ror #8
    8bc8:	0000945c 	andeq	r9, r0, ip, asr r4

00008bcc <_cstart>:
    8bcc:	e92d4010 	push	{r4, lr}
    8bd0:	e59f3018 	ldr	r3, [pc, #24]	; 8bf0 <_cstart+0x24>
    8bd4:	e59f2018 	ldr	r2, [pc, #24]	; 8bf4 <_cstart+0x28>
    8bd8:	e1530002 	cmp	r3, r2
    8bdc:	33a02000 	movcc	r2, #0, 0
    8be0:	34832004 	strcc	r2, [r3], #4
    8be4:	3afffffa 	bcc	8bd4 <_cstart+0x8>
    8be8:	ebfffd0c 	bl	8020 <notmain>
    8bec:	ebffffeb 	bl	8ba0 <clean_reboot>
    8bf0:	00009470 	andeq	r9, r0, r0, ror r4
    8bf4:	00009878 	andeq	r9, r0, r8, ror r8

00008bf8 <at_user_level>:
    8bf8:	e10f0000 	mrs	r0, CPSR
    8bfc:	e200001f 	and	r0, r0, #31, 0
    8c00:	e3500010 	cmp	r0, #16, 0
    8c04:	13a00000 	movne	r0, #0, 0
    8c08:	03a00001 	moveq	r0, #1, 0
    8c0c:	e12fff1e 	bx	lr

00008c10 <set_user_level>:
    8c10:	e10f3000 	mrs	r3, CPSR
    8c14:	e3c3301f 	bic	r3, r3, #31, 0
    8c18:	e3833010 	orr	r3, r3, #16, 0
    8c1c:	e129f003 	msr	CPSR_fc, r3
    8c20:	e12fff1e 	bx	lr

00008c24 <rpi_reboot>:
    8c24:	e92d4010 	push	{r4, lr}
    8c28:	ebfffff2 	bl	8bf8 <at_user_level>
    8c2c:	e3500000 	cmp	r0, #0, 0
    8c30:	1a000009 	bne	8c5c <rpi_reboot+0x38>
    8c34:	eb000095 	bl	8e90 <uart_flush_tx>
    8c38:	e3a0000a 	mov	r0, #10, 0
    8c3c:	eb000021 	bl	8cc8 <delay_ms>
    8c40:	e59f101c 	ldr	r1, [pc, #28]	; 8c64 <rpi_reboot+0x40>
    8c44:	e59f001c 	ldr	r0, [pc, #28]	; 8c68 <rpi_reboot+0x44>
    8c48:	ebfffcf0 	bl	8010 <PUT32>
    8c4c:	e59f1018 	ldr	r1, [pc, #24]	; 8c6c <rpi_reboot+0x48>
    8c50:	e59f0018 	ldr	r0, [pc, #24]	; 8c70 <rpi_reboot+0x4c>
    8c54:	ebfffced 	bl	8010 <PUT32>
    8c58:	eafffffe 	b	8c58 <rpi_reboot+0x34>
    8c5c:	ebffffeb 	bl	8c10 <set_user_level>
    8c60:	eafffff3 	b	8c34 <rpi_reboot+0x10>
    8c64:	5a000001 	bpl	8c70 <rpi_reboot+0x4c>
    8c68:	20100024 	andscs	r0, r0, r4, lsr #32
    8c6c:	5a000020 	bpl	8cf4 <delay_sec+0x14>
    8c70:	2010001c 	andscs	r0, r0, ip, lsl r0

00008c74 <timer_get_usec_raw>:
    8c74:	e92d4010 	push	{r4, lr}
    8c78:	e59f0004 	ldr	r0, [pc, #4]	; 8c84 <timer_get_usec_raw+0x10>
    8c7c:	ebfffce5 	bl	8018 <GET32>
    8c80:	e8bd8010 	pop	{r4, pc}
    8c84:	20003004 	andcs	r3, r0, r4

00008c88 <timer_get_usec>:
    8c88:	e92d4010 	push	{r4, lr}
    8c8c:	eb00011a 	bl	90fc <dev_barrier>
    8c90:	ebfffff7 	bl	8c74 <timer_get_usec_raw>
    8c94:	e1a04000 	mov	r4, r0
    8c98:	eb000117 	bl	90fc <dev_barrier>
    8c9c:	e1a00004 	mov	r0, r4
    8ca0:	e8bd8010 	pop	{r4, pc}

00008ca4 <delay_us>:
    8ca4:	e92d4070 	push	{r4, r5, r6, lr}
    8ca8:	e1a05000 	mov	r5, r0
    8cac:	ebfffff5 	bl	8c88 <timer_get_usec>
    8cb0:	e1a04000 	mov	r4, r0
    8cb4:	ebfffff3 	bl	8c88 <timer_get_usec>
    8cb8:	e0400004 	sub	r0, r0, r4
    8cbc:	e1500005 	cmp	r0, r5
    8cc0:	3afffffb 	bcc	8cb4 <delay_us+0x10>
    8cc4:	e8bd8070 	pop	{r4, r5, r6, pc}

00008cc8 <delay_ms>:
    8cc8:	e92d4010 	push	{r4, lr}
    8ccc:	e0603280 	rsb	r3, r0, r0, lsl #5
    8cd0:	e0800103 	add	r0, r0, r3, lsl #2
    8cd4:	e1a00180 	lsl	r0, r0, #3
    8cd8:	ebfffff1 	bl	8ca4 <delay_us>
    8cdc:	e8bd8010 	pop	{r4, pc}

00008ce0 <delay_sec>:
    8ce0:	e92d4010 	push	{r4, lr}
    8ce4:	e0603280 	rsb	r3, r0, r0, lsl #5
    8ce8:	e0800103 	add	r0, r0, r3, lsl #2
    8cec:	e1a00180 	lsl	r0, r0, #3
    8cf0:	ebfffff4 	bl	8cc8 <delay_ms>
    8cf4:	e8bd8010 	pop	{r4, pc}

00008cf8 <or_in32>:
    8cf8:	e92d4070 	push	{r4, r5, r6, lr}
    8cfc:	e1a04000 	mov	r4, r0
    8d00:	e1a05001 	mov	r5, r1
    8d04:	ebfffcc3 	bl	8018 <GET32>
    8d08:	e1801005 	orr	r1, r0, r5
    8d0c:	e1a00004 	mov	r0, r4
    8d10:	ebfffcbe 	bl	8010 <PUT32>
    8d14:	e8bd8070 	pop	{r4, r5, r6, pc}

00008d18 <uart_init>:
    8d18:	e92d4010 	push	{r4, lr}
    8d1c:	e3a01002 	mov	r1, #2, 0
    8d20:	e3a0000e 	mov	r0, #14, 0
    8d24:	eb0000b1 	bl	8ff0 <gpio_set_function>
    8d28:	e3a01002 	mov	r1, #2, 0
    8d2c:	e3a0000f 	mov	r0, #15, 0
    8d30:	eb0000ae 	bl	8ff0 <gpio_set_function>
    8d34:	eb0000f0 	bl	90fc <dev_barrier>
    8d38:	e3a01001 	mov	r1, #1, 0
    8d3c:	e59f0064 	ldr	r0, [pc, #100]	; 8da8 <uart_init+0x90>
    8d40:	ebffffec 	bl	8cf8 <or_in32>
    8d44:	eb0000ec 	bl	90fc <dev_barrier>
    8d48:	e59f405c 	ldr	r4, [pc, #92]	; 8dac <uart_init+0x94>
    8d4c:	e3a01000 	mov	r1, #0, 0
    8d50:	e1a00004 	mov	r0, r4
    8d54:	ebfffcad 	bl	8010 <PUT32>
    8d58:	e3a01000 	mov	r1, #0, 0
    8d5c:	e59f004c 	ldr	r0, [pc, #76]	; 8db0 <uart_init+0x98>
    8d60:	ebfffcaa 	bl	8010 <PUT32>
    8d64:	e3a01003 	mov	r1, #3, 0
    8d68:	e59f0044 	ldr	r0, [pc, #68]	; 8db4 <uart_init+0x9c>
    8d6c:	ebfffca7 	bl	8010 <PUT32>
    8d70:	e3a01000 	mov	r1, #0, 0
    8d74:	e59f003c 	ldr	r0, [pc, #60]	; 8db8 <uart_init+0xa0>
    8d78:	ebfffca4 	bl	8010 <PUT32>
    8d7c:	e3a010c7 	mov	r1, #199, 0	; 0xc7
    8d80:	e59f0034 	ldr	r0, [pc, #52]	; 8dbc <uart_init+0xa4>
    8d84:	ebfffca1 	bl	8010 <PUT32>
    8d88:	e59f1030 	ldr	r1, [pc, #48]	; 8dc0 <uart_init+0xa8>
    8d8c:	e59f0030 	ldr	r0, [pc, #48]	; 8dc4 <uart_init+0xac>
    8d90:	ebfffc9e 	bl	8010 <PUT32>
    8d94:	e3a01003 	mov	r1, #3, 0
    8d98:	e1a00004 	mov	r0, r4
    8d9c:	ebfffc9b 	bl	8010 <PUT32>
    8da0:	eb0000d5 	bl	90fc <dev_barrier>
    8da4:	e8bd8010 	pop	{r4, pc}
    8da8:	20215004 	eorcs	r5, r1, r4
    8dac:	20215060 	eorcs	r5, r1, r0, rrx
    8db0:	20215044 	eorcs	r5, r1, r4, asr #32
    8db4:	2021504c 	eorcs	r5, r1, ip, asr #32
    8db8:	20215050 	eorcs	r5, r1, r0, asr r0
    8dbc:	20215048 	eorcs	r5, r1, r8, asr #32
    8dc0:	0000010e 	andeq	r0, r0, lr, lsl #2
    8dc4:	20215068 	eorcs	r5, r1, r8, rrx

00008dc8 <uart_can_getc>:
    8dc8:	e92d4010 	push	{r4, lr}
    8dcc:	e59f0008 	ldr	r0, [pc, #8]	; 8ddc <uart_can_getc+0x14>
    8dd0:	ebfffc90 	bl	8018 <GET32>
    8dd4:	e2000001 	and	r0, r0, #1, 0
    8dd8:	e8bd8010 	pop	{r4, pc}
    8ddc:	20215064 	eorcs	r5, r1, r4, rrx

00008de0 <uart_can_putc>:
    8de0:	e92d4010 	push	{r4, lr}
    8de4:	e59f0010 	ldr	r0, [pc, #16]	; 8dfc <uart_can_putc+0x1c>
    8de8:	ebfffc8a 	bl	8018 <GET32>
    8dec:	e3100002 	tst	r0, #2, 0
    8df0:	13a00001 	movne	r0, #1, 0
    8df4:	03a00000 	moveq	r0, #0, 0
    8df8:	e8bd8010 	pop	{r4, pc}
    8dfc:	20215064 	eorcs	r5, r1, r4, rrx

00008e00 <uart_getc>:
    8e00:	e92d4010 	push	{r4, lr}
    8e04:	eb0000bc 	bl	90fc <dev_barrier>
    8e08:	ebffffee 	bl	8dc8 <uart_can_getc>
    8e0c:	e3500000 	cmp	r0, #0, 0
    8e10:	0afffffc 	beq	8e08 <uart_getc+0x8>
    8e14:	e59f0010 	ldr	r0, [pc, #16]	; 8e2c <uart_getc+0x2c>
    8e18:	ebfffc7e 	bl	8018 <GET32>
    8e1c:	e6ef4070 	uxtb	r4, r0
    8e20:	eb0000b5 	bl	90fc <dev_barrier>
    8e24:	e1a00004 	mov	r0, r4
    8e28:	e8bd8010 	pop	{r4, pc}
    8e2c:	20215040 	eorcs	r5, r1, r0, asr #32

00008e30 <uart_putc>:
    8e30:	e92d4010 	push	{r4, lr}
    8e34:	e1a04000 	mov	r4, r0
    8e38:	eb0000af 	bl	90fc <dev_barrier>
    8e3c:	ebffffe7 	bl	8de0 <uart_can_putc>
    8e40:	e3500000 	cmp	r0, #0, 0
    8e44:	0afffffc 	beq	8e3c <uart_putc+0xc>
    8e48:	e6ef1074 	uxtb	r1, r4
    8e4c:	e59f0008 	ldr	r0, [pc, #8]	; 8e5c <uart_putc+0x2c>
    8e50:	ebfffc6e 	bl	8010 <PUT32>
    8e54:	eb0000a8 	bl	90fc <dev_barrier>
    8e58:	e8bd8010 	pop	{r4, pc}
    8e5c:	20215040 	eorcs	r5, r1, r0, asr #32

00008e60 <uart_has_data>:
    8e60:	e92d4010 	push	{r4, lr}
    8e64:	eb0000a4 	bl	90fc <dev_barrier>
    8e68:	ebffffd6 	bl	8dc8 <uart_can_getc>
    8e6c:	e8bd8010 	pop	{r4, pc}

00008e70 <uart_tx_is_empty>:
    8e70:	e92d4010 	push	{r4, lr}
    8e74:	eb0000a0 	bl	90fc <dev_barrier>
    8e78:	e59f000c 	ldr	r0, [pc, #12]	; 8e8c <uart_tx_is_empty+0x1c>
    8e7c:	ebfffc65 	bl	8018 <GET32>
    8e80:	e1a004a0 	lsr	r0, r0, #9
    8e84:	e2000001 	and	r0, r0, #1, 0
    8e88:	e8bd8010 	pop	{r4, pc}
    8e8c:	20215064 	eorcs	r5, r1, r4, rrx

00008e90 <uart_flush_tx>:
    8e90:	e92d4010 	push	{r4, lr}
    8e94:	ebfffff5 	bl	8e70 <uart_tx_is_empty>
    8e98:	e3500000 	cmp	r0, #0, 0
    8e9c:	0afffffc 	beq	8e94 <uart_flush_tx+0x4>
    8ea0:	e8bd8010 	pop	{r4, pc}

00008ea4 <gpio_set_output>:
    8ea4:	e350001f 	cmp	r0, #31, 0
    8ea8:	812fff1e 	bxhi	lr
    8eac:	e92d41f0 	push	{r4, r5, r6, r7, r8, lr}
    8eb0:	e1a04000 	mov	r4, r0
    8eb4:	e59f5040 	ldr	r5, [pc, #64]	; 8efc <gpio_set_output+0x58>
    8eb8:	e0853095 	umull	r3, r5, r5, r0
    8ebc:	e1a051a5 	lsr	r5, r5, #3
    8ec0:	e1a07105 	lsl	r7, r5, #2
    8ec4:	e2876202 	add	r6, r7, #536870912	; 0x20000000
    8ec8:	e2866602 	add	r6, r6, #2097152	; 0x200000
    8ecc:	e1a00006 	mov	r0, r6
    8ed0:	ebfffc50 	bl	8018 <GET32>
    8ed4:	e0875005 	add	r5, r7, r5
    8ed8:	e0444085 	sub	r4, r4, r5, lsl #1
    8edc:	e0844084 	add	r4, r4, r4, lsl #1
    8ee0:	e3a01007 	mov	r1, #7, 0
    8ee4:	e1c00411 	bic	r0, r0, r1, lsl r4
    8ee8:	e3a01001 	mov	r1, #1, 0
    8eec:	e1801411 	orr	r1, r0, r1, lsl r4
    8ef0:	e1a00006 	mov	r0, r6
    8ef4:	ebfffc45 	bl	8010 <PUT32>
    8ef8:	e8bd81f0 	pop	{r4, r5, r6, r7, r8, pc}
    8efc:	cccccccd 	stclgt	12, cr12, [ip], {205}	; 0xcd

00008f00 <gpio_set_on>:
    8f00:	e350001f 	cmp	r0, #31, 0
    8f04:	812fff1e 	bxhi	lr
    8f08:	e92d4010 	push	{r4, lr}
    8f0c:	e3a01001 	mov	r1, #1, 0
    8f10:	e1a01011 	lsl	r1, r1, r0
    8f14:	e59f0004 	ldr	r0, [pc, #4]	; 8f20 <gpio_set_on+0x20>
    8f18:	ebfffc3c 	bl	8010 <PUT32>
    8f1c:	e8bd8010 	pop	{r4, pc}
    8f20:	2020001c 	eorcs	r0, r0, ip, lsl r0

00008f24 <gpio_set_off>:
    8f24:	e350001f 	cmp	r0, #31, 0
    8f28:	812fff1e 	bxhi	lr
    8f2c:	e92d4010 	push	{r4, lr}
    8f30:	e3a01001 	mov	r1, #1, 0
    8f34:	e1a01011 	lsl	r1, r1, r0
    8f38:	e59f0004 	ldr	r0, [pc, #4]	; 8f44 <gpio_set_off+0x20>
    8f3c:	ebfffc33 	bl	8010 <PUT32>
    8f40:	e8bd8010 	pop	{r4, pc}
    8f44:	20200028 	eorcs	r0, r0, r8, lsr #32

00008f48 <gpio_write>:
    8f48:	e92d4010 	push	{r4, lr}
    8f4c:	e3510000 	cmp	r1, #0, 0
    8f50:	0a000001 	beq	8f5c <gpio_write+0x14>
    8f54:	ebffffe9 	bl	8f00 <gpio_set_on>
    8f58:	e8bd8010 	pop	{r4, pc}
    8f5c:	ebfffff0 	bl	8f24 <gpio_set_off>
    8f60:	e8bd8010 	pop	{r4, pc}

00008f64 <gpio_set_input>:
    8f64:	e350001f 	cmp	r0, #31, 0
    8f68:	812fff1e 	bxhi	lr
    8f6c:	e92d41f0 	push	{r4, r5, r6, r7, r8, lr}
    8f70:	e1a04000 	mov	r4, r0
    8f74:	e59f5038 	ldr	r5, [pc, #56]	; 8fb4 <gpio_set_input+0x50>
    8f78:	e0853095 	umull	r3, r5, r5, r0
    8f7c:	e1a051a5 	lsr	r5, r5, #3
    8f80:	e1a07105 	lsl	r7, r5, #2
    8f84:	e2876202 	add	r6, r7, #536870912	; 0x20000000
    8f88:	e2866602 	add	r6, r6, #2097152	; 0x200000
    8f8c:	e1a00006 	mov	r0, r6
    8f90:	ebfffc20 	bl	8018 <GET32>
    8f94:	e0875005 	add	r5, r7, r5
    8f98:	e0444085 	sub	r4, r4, r5, lsl #1
    8f9c:	e0844084 	add	r4, r4, r4, lsl #1
    8fa0:	e3a01007 	mov	r1, #7, 0
    8fa4:	e1c01411 	bic	r1, r0, r1, lsl r4
    8fa8:	e1a00006 	mov	r0, r6
    8fac:	ebfffc17 	bl	8010 <PUT32>
    8fb0:	e8bd81f0 	pop	{r4, r5, r6, r7, r8, pc}
    8fb4:	cccccccd 	stclgt	12, cr12, [ip], {205}	; 0xcd

00008fb8 <gpio_read>:
    8fb8:	e350001f 	cmp	r0, #31, 0
    8fbc:	9a000001 	bls	8fc8 <gpio_read+0x10>
    8fc0:	e3e00000 	mvn	r0, #0, 0
    8fc4:	e12fff1e 	bx	lr
    8fc8:	e92d4010 	push	{r4, lr}
    8fcc:	e1a04000 	mov	r4, r0
    8fd0:	e59f0014 	ldr	r0, [pc, #20]	; 8fec <gpio_read+0x34>
    8fd4:	ebfffc0f 	bl	8018 <GET32>
    8fd8:	e3a03001 	mov	r3, #1, 0
    8fdc:	e0103413 	ands	r3, r0, r3, lsl r4
    8fe0:	13a00001 	movne	r0, #1, 0
    8fe4:	03a00000 	moveq	r0, #0, 0
    8fe8:	e8bd8010 	pop	{r4, pc}
    8fec:	20200034 	eorcs	r0, r0, r4, lsr r0

00008ff0 <gpio_set_function>:
    8ff0:	e3510007 	cmp	r1, #7, 0
    8ff4:	9350001f 	cmpls	r0, #31, 0
    8ff8:	812fff1e 	bxhi	lr
    8ffc:	e92d41f0 	push	{r4, r5, r6, r7, r8, lr}
    9000:	e1a04000 	mov	r4, r0
    9004:	e1a05001 	mov	r5, r1
    9008:	e59f603c 	ldr	r6, [pc, #60]	; 904c <gpio_set_function+0x5c>
    900c:	e0863096 	umull	r3, r6, r6, r0
    9010:	e1a061a6 	lsr	r6, r6, #3
    9014:	e1a08106 	lsl	r8, r6, #2
    9018:	e2887202 	add	r7, r8, #536870912	; 0x20000000
    901c:	e2877602 	add	r7, r7, #2097152	; 0x200000
    9020:	e1a00007 	mov	r0, r7
    9024:	ebfffbfb 	bl	8018 <GET32>
    9028:	e0886006 	add	r6, r8, r6
    902c:	e0444086 	sub	r4, r4, r6, lsl #1
    9030:	e0844084 	add	r4, r4, r4, lsl #1
    9034:	e3a01007 	mov	r1, #7, 0
    9038:	e1c01411 	bic	r1, r0, r1, lsl r4
    903c:	e1811415 	orr	r1, r1, r5, lsl r4
    9040:	e1a00007 	mov	r0, r7
    9044:	ebfffbf1 	bl	8010 <PUT32>
    9048:	e8bd81f0 	pop	{r4, r5, r6, r7, r8, pc}
    904c:	cccccccd 	stclgt	12, cr12, [ip], {205}	; 0xcd

00009050 <strcat>:
    9050:	e1a02000 	mov	r2, r0
    9054:	e1a03002 	mov	r3, r2
    9058:	e2822001 	add	r2, r2, #1, 0
    905c:	e5d3c000 	ldrb	ip, [r3]
    9060:	e35c0000 	cmp	ip, #0, 0
    9064:	1afffffa 	bne	9054 <strcat+0x4>
    9068:	e2433001 	sub	r3, r3, #1, 0
    906c:	e5d12000 	ldrb	r2, [r1]
    9070:	e2811001 	add	r1, r1, #1, 0
    9074:	e5e32001 	strb	r2, [r3, #1]!
    9078:	e3520000 	cmp	r2, #0, 0
    907c:	1afffffa 	bne	906c <strcat+0x1c>
    9080:	e12fff1e 	bx	lr

00009084 <strcmp>:
    9084:	e5d03000 	ldrb	r3, [r0]
    9088:	e3530000 	cmp	r3, #0, 0
    908c:	0a000004 	beq	90a4 <strcmp+0x20>
    9090:	e5d12000 	ldrb	r2, [r1]
    9094:	e1530002 	cmp	r3, r2
    9098:	02800001 	addeq	r0, r0, #1, 0
    909c:	02811001 	addeq	r1, r1, #1, 0
    90a0:	0afffff7 	beq	9084 <strcmp>
    90a4:	e5d10000 	ldrb	r0, [r1]
    90a8:	e0430000 	sub	r0, r3, r0
    90ac:	e12fff1e 	bx	lr

000090b0 <strcpy>:
    90b0:	e1a0c000 	mov	ip, r0
    90b4:	e5d12000 	ldrb	r2, [r1]
    90b8:	e2811001 	add	r1, r1, #1, 0
    90bc:	e5cc2000 	strb	r2, [ip]
    90c0:	e28cc001 	add	ip, ip, #1, 0
    90c4:	e3520000 	cmp	r2, #0, 0
    90c8:	1afffff9 	bne	90b4 <strcpy+0x4>
    90cc:	e12fff1e 	bx	lr

000090d0 <strncmp>:
    90d0:	e3520000 	cmp	r2, #0, 0
    90d4:	e2422001 	sub	r2, r2, #1, 0
    90d8:	0a000005 	beq	90f4 <strncmp+0x24>
    90dc:	e4d03001 	ldrb	r3, [r0], #1
    90e0:	e4d1c001 	ldrb	ip, [r1], #1
    90e4:	e153000c 	cmp	r3, ip
    90e8:	0afffff8 	beq	90d0 <strncmp>
    90ec:	e043000c 	sub	r0, r3, ip
    90f0:	e12fff1e 	bx	lr
    90f4:	e3a00000 	mov	r0, #0, 0
    90f8:	e12fff1e 	bx	lr

000090fc <dev_barrier>:
    90fc:	ea000002 	b	910c <dsb>

00009100 <dmb>:
    9100:	e3a00000 	mov	r0, #0, 0
    9104:	ee070fba 	mcr	15, 0, r0, cr7, cr10, {5}
    9108:	e12fff1e 	bx	lr

0000910c <dsb>:
    910c:	ee070f9a 	mcr	15, 0, r0, cr7, cr10, {4}
    9110:	e12fff1e 	bx	lr

00009114 <__code_end__>:
    9114:	00000000 	andeq	r0, r0, r0

Disassembly of section .rodata:

00009118 <__FUNCTION__.3949-0x19c>:
    9118:	43415254 	movtmi	r5, #4692	; 0x1254
    911c:	00003a45 	andeq	r3, r0, r5, asr #20
    9120:	706d6973 	rsbvc	r6, sp, r3, ror r9
    9124:	6320656c 			; <UNDEFINED> instruction: 0x6320656c
    9128:	6b636568 	blvs	18e26d0 <__bss_end__+0x18d8e58>
    912c:	726f6620 	rsbvc	r6, pc, #32, 12	; 0x2000000
    9130:	616d6b20 	cmnvs	sp, r0, lsr #22
    9134:	636f6c6c 	cmnvs	pc, #108, 24	; 0x6c00
    9138:	0000000a 	andeq	r0, r0, sl
    913c:	6c616d6b 	stclvs	13, cr6, [r1], #-428	; 0xfffffe54
    9140:	28636f6c 	stmdacs	r3!, {r2, r3, r5, r6, r8, r9, sl, fp, sp, lr}^
    9144:	253d2931 	ldrcs	r2, [sp, #-2353]!	; 0xfffff6cf
    9148:	00000a70 	andeq	r0, r0, r0, ror sl
    914c:	656e6f64 	strbvs	r6, [lr, #-3940]!	; 0xfffff09c
    9150:	0000000a 	andeq	r0, r0, sl
    9154:	6c616d6b 	stclvs	13, cr6, [r1], #-428	; 0xfffffe54
    9158:	2e636f6c 	cdpcs	15, 6, cr6, cr3, cr12, {3}
    915c:	00000063 	andeq	r0, r0, r3, rrx
    9160:	494e4150 	stmdbmi	lr, {r4, r6, r8, lr}^
    9164:	73253a43 			; <UNDEFINED> instruction: 0x73253a43
    9168:	3a73253a 	bcc	1cd2658 <__bss_end__+0x1cc8de0>
    916c:	253a6425 	ldrcs	r6, [sl, #-1061]!	; 0xfffffbdb
    9170:	00000a73 	andeq	r0, r0, r3, ror sl
    9174:	4f525245 	svcmi	0x00525245
    9178:	73253a52 			; <UNDEFINED> instruction: 0x73253a52
    917c:	3a73253a 	bcc	1cd266c <__bss_end__+0x1cc8df4>
    9180:	203a6425 	eorscs	r6, sl, r5, lsr #8
    9184:	534c4146 	movtpl	r4, #49478	; 0xc146
    9188:	253c2845 	ldrcs	r2, [ip, #-2117]!	; 0xfffff7bb
    918c:	3a293e73 	bcc	a58b60 <__bss_end__+0xa4f2e8>
    9190:	6c616320 	stclvs	3, cr6, [r1], #-128	; 0xffffff80
    9194:	676e696c 	strbvs	r6, [lr, -ip, ror #18]!
    9198:	66656220 	strbtvs	r6, [r5], -r0, lsr #4
    919c:	2065726f 	rsbcs	r7, r5, pc, ror #4
    91a0:	74696e69 	strbtvc	r6, [r9], #-3689	; 0xfffff197
    91a4:	696c6169 	stmdbvs	ip!, {r0, r3, r5, r6, r8, sp, lr}^
    91a8:	0a64657a 	beq	1922798 <__bss_end__+0x1918f20>
    91ac:	00000000 	andeq	r0, r0, r0
    91b0:	74696e69 	strbtvc	r6, [r9], #-3689	; 0xfffff197
    91b4:	0000705f 	andeq	r7, r0, pc, asr r0
    91b8:	615f7369 	cmpvs	pc, r9, ror #6
    91bc:	6e67696c 	vnmulvs.f16	s13, s14, s25	; <UNPREDICTABLE>
    91c0:	68286465 	stmdavs	r8!, {r0, r2, r5, r6, sl, sp, lr}
    91c4:	2c706165 	ldfcse	f6, [r0], #-404	; 0xfffffe6c
    91c8:	00293420 	eoreq	r3, r9, r0, lsr #8
    91cc:	657a6973 	ldrbvs	r6, [sl, #-2419]!	; 0xfffff68d
    91d0:	6828666f 	stmdavs	r8!, {r0, r1, r2, r3, r5, r6, r9, sl, sp, lr}
    91d4:	29706165 	ldmdbcs	r0!, {r0, r2, r5, r6, r8, sp, lr}^
    91d8:	203d3d20 	eorscs	r3, sp, r0, lsr #26
    91dc:	7479626e 	ldrbtvc	r6, [r9], #-622	; 0xfffffd92
    91e0:	00007365 	andeq	r7, r0, r5, ror #6
    91e4:	4f525245 	svcmi	0x00525245
    91e8:	73253a52 			; <UNDEFINED> instruction: 0x73253a52
    91ec:	3a73253a 	bcc	1cd26dc <__bss_end__+0x1cc8e64>
    91f0:	203a6425 	eorscs	r6, sl, r5, lsr #8
    91f4:	534c4146 	movtpl	r4, #49478	; 0xc146
    91f8:	253c2845 	ldrcs	r2, [ip, #-2117]!	; 0xfffff7bb
    91fc:	3a293e73 	bcc	a58bd0 <__bss_end__+0xa4f358>
    9200:	73736120 	cmnvc	r3, #8
    9204:	6e696d75 	mcrvs	13, 3, r6, cr9, cr5, {3}
    9208:	6f702067 	svcvs	0x00702067
    920c:	20726577 	rsbscs	r6, r2, r7, ror r5
    9210:	7420666f 	strtvc	r6, [r0], #-1647	; 0xfffff991
    9214:	000a6f77 	andeq	r6, sl, r7, ror pc
    9218:	705f7369 	subsvc	r7, pc, r9, ror #6
    921c:	2832776f 	ldmdacs	r2!, {r0, r1, r2, r3, r5, r6, r8, r9, sl, ip, sp, lr}
    9220:	67696c61 	strbvs	r6, [r9, -r1, ror #24]!
    9224:	6e656d6e 	cdpvs	13, 6, cr6, cr5, cr14, {3}
    9228:	00002974 	andeq	r2, r0, r4, ror r9
    922c:	615f7369 	cmpvs	pc, r9, ror #6
    9230:	6e67696c 	vnmulvs.f16	s13, s14, s25	; <UNPREDICTABLE>
    9234:	68286465 	stmdavs	r8!, {r0, r2, r5, r6, sl, sp, lr}
    9238:	2c706165 	ldfcse	f6, [r0], #-404	; 0xfffffe6c
    923c:	696c6120 	stmdbvs	ip!, {r5, r8, sp, lr}^
    9240:	656d6e67 	strbvs	r6, [sp, #-3687]!	; 0xfffff199
    9244:	0029746e 	eoreq	r7, r9, lr, ror #8
    9248:	000a6425 	andeq	r6, sl, r5, lsr #8
    924c:	4f525245 	svcmi	0x00525245
    9250:	73253a52 			; <UNDEFINED> instruction: 0x73253a52
    9254:	3a73253a 	bcc	1cd2744 <__bss_end__+0x1cc8ecc>
    9258:	203a6425 	eorscs	r6, sl, r5, lsr #8
    925c:	534c4146 	movtpl	r4, #49478	; 0xc146
    9260:	253c2845 	ldrcs	r2, [ip, #-2117]!	; 0xfffff7bb
    9264:	3a293e73 	bcc	a58c38 <__bss_end__+0xa4f3c0>
    9268:	726c6120 	rsbvc	r6, ip, #8
    926c:	79646165 	stmdbvc	r4!, {r0, r2, r5, r6, r8, sp, lr}^
    9270:	696e6920 	stmdbvs	lr!, {r5, r8, fp, sp, lr}^
    9274:	6c616974 			; <UNDEFINED> instruction: 0x6c616974
    9278:	64657a69 	strbtvs	r7, [r5], #-2665	; 0xfffff597
    927c:	0000000a 	andeq	r0, r0, sl
    9280:	696e6921 	stmdbvs	lr!, {r0, r5, r8, fp, sp, lr}^
    9284:	00705f74 	rsbseq	r5, r0, r4, ror pc
    9288:	494e4150 	stmdbmi	lr, {r4, r6, r8, lr}^
    928c:	73253a43 			; <UNDEFINED> instruction: 0x73253a43
    9290:	3a73253a 	bcc	1cd2780 <__bss_end__+0x1cc8f08>
    9294:	693a6425 	ldmdbvs	sl!, {r0, r2, r5, sl, sp, lr}
    9298:	656c706d 	strbvs	r7, [ip, #-109]!	; 0xffffff93
    929c:	746e656d 	strbtvc	r6, [lr], #-1389	; 0xfffffa93
    92a0:	69687420 	stmdbvs	r8!, {r5, sl, ip, sp, lr}^
    92a4:	75662073 	strbvc	r2, [r6, #-115]!	; 0xffffff8d
    92a8:	6974636e 	ldmdbvs	r4!, {r1, r2, r3, r5, r6, r8, r9, sp, lr}^
    92ac:	0a216e6f 	beq	864c70 <__bss_end__+0x85b3f8>
    92b0:	0000000a 	andeq	r0, r0, sl

000092b4 <__FUNCTION__.3949>:
    92b4:	6c616d6b 	stclvs	13, cr6, [r1], #-428	; 0xfffffe54
    92b8:	00636f6c 	rsbeq	r6, r3, ip, ror #30

000092bc <__FUNCTION__.3955>:
    92bc:	6c616d6b 	stclvs	13, cr6, [r1], #-428	; 0xfffffe54
    92c0:	5f636f6c 	svcpl	0x00636f6c
    92c4:	67696c61 	strbvs	r6, [r9, -r1, ror #24]!
    92c8:	0064656e 	rsbeq	r6, r4, lr, ror #10

000092cc <__FUNCTION__.3962>:
    92cc:	6c616d6b 	stclvs	13, cr6, [r1], #-428	; 0xfffffe54
    92d0:	5f636f6c 	svcpl	0x00636f6c
    92d4:	74696e69 	strbtvc	r6, [r9], #-3689	; 0xfffff197
    92d8:	7465735f 	strbtvc	r7, [r5], #-863	; 0xfffffca1
    92dc:	6174735f 	cmnvs	r4, pc, asr r3
    92e0:	00007472 	andeq	r7, r0, r2, ror r4

000092e4 <__FUNCTION__.3966>:
    92e4:	6572666b 	ldrbvs	r6, [r2, #-1643]!	; 0xfffff995
    92e8:	6c615f65 	stclvs	15, cr5, [r1], #-404	; 0xfffffe6c
    92ec:	0000006c 	andeq	r0, r0, ip, rrx

000092f0 <__FUNCTION__.3970>:
    92f0:	6c616d6b 	stclvs	13, cr6, [r1], #-428	; 0xfffffe54
    92f4:	5f636f6c 	svcpl	0x00636f6c
    92f8:	70616568 	rsbvc	r6, r1, r8, ror #10
    92fc:	7274705f 	rsbsvc	r7, r4, #95, 0	; 0x5f
    9300:	00000000 	andeq	r0, r0, r0
    9304:	696c2f2e 	stmdbvs	ip!, {r1, r2, r3, r5, r8, r9, sl, fp, sp}^
    9308:	762f6362 	strtvc	r6, [pc], -r2, ror #6
    930c:	72702d61 	rsbsvc	r2, r0, #6208	; 0x1840
    9310:	6b746e69 	blvs	1d24cbc <__bss_end__+0x1d1b444>
    9314:	0000632e 	andeq	r6, r0, lr, lsr #6
    9318:	00000030 	andeq	r0, r0, r0, lsr r0
    931c:	33323130 	teqcc	r2, #12
    9320:	37363534 			; <UNDEFINED> instruction: 0x37363534
    9324:	00003938 	andeq	r3, r0, r8, lsr r9
    9328:	33323130 	teqcc	r2, #12
    932c:	37363534 			; <UNDEFINED> instruction: 0x37363534
    9330:	62613938 	rsbvs	r3, r1, #56, 18	; 0xe0000
    9334:	66656463 	strbtvs	r6, [r5], -r3, ror #8
    9338:	00000000 	andeq	r0, r0, r0
    933c:	00003130 	andeq	r3, r0, r0, lsr r1
    9340:	63747570 	cmnvs	r4, #112, 10	; 0x1c000000
    9344:	0070665f 	rsbseq	r6, r0, pc, asr r6
    9348:	74646977 	strbtvc	r6, [r4], #-2423	; 0xfffff689
    934c:	203c2068 	eorscs	r2, ip, r8, rrx
    9350:	00003233 	andeq	r3, r0, r3, lsr r2
    9354:	00786c6c 	rsbseq	r6, r8, ip, ror #24
    9358:	00646c6c 	rsbeq	r6, r4, ip, ror #24
    935c:	6e727473 	mrcvs	4, 3, r7, cr2, cr3, {3}
    9360:	28706d63 	ldmdacs	r0!, {r0, r1, r5, r6, r8, sl, fp, sp, lr}^
    9364:	202c7974 	eorcs	r7, ip, r4, ror r9
    9368:	786c6c22 	stmdavc	ip!, {r1, r5, sl, fp, sp, lr}^
    936c:	33202c22 			; <UNDEFINED> instruction: 0x33202c22
    9370:	3d3d2029 	ldccc	0, cr2, [sp, #-164]!	; 0xffffff5c
    9374:	7c203020 	stcvc	0, cr3, [r0], #-128	; 0xffffff80
    9378:	7473207c 	ldrbtvc	r2, [r3], #-124	; 0xffffff84
    937c:	6d636e72 	stclvs	14, cr6, [r3, #-456]!	; 0xfffffe38
    9380:	79742870 	ldmdbvc	r4!, {r4, r5, r6, fp, sp}^
    9384:	6c22202c 	stcvs	0, cr2, [r2], #-176	; 0xffffff50
    9388:	2c22646c 	cfstrscs	mvf6, [r2], #-432	; 0xfffffe50
    938c:	20293320 	eorcs	r3, r9, r0, lsr #6
    9390:	30203d3d 	eorcc	r3, r0, sp, lsr sp
    9394:	00000000 	andeq	r0, r0, r0
    9398:	494e4150 	stmdbmi	lr, {r4, r6, r8, lr}^
    939c:	73253a43 			; <UNDEFINED> instruction: 0x73253a43
    93a0:	3a73253a 	bcc	1cd2890 <__bss_end__+0x1cc9018>
    93a4:	693a6425 	ldmdbvs	sl!, {r0, r2, r5, sl, sp, lr}
    93a8:	736f706d 	cmnvc	pc, #109, 0	; 0x6d
    93ac:	6c626973 			; <UNDEFINED> instruction: 0x6c626973
    93b0:	66203a65 	strtvs	r3, [r0], -r5, ror #20
    93b4:	3c3d746d 	cfldrscc	mvf7, [sp], #-436	; 0xfffffe4c
    93b8:	0a3e7325 	beq	fa6054 <__bss_end__+0xf9c7dc>
    93bc:	0000000a 	andeq	r0, r0, sl
    93c0:	494e4150 	stmdbmi	lr, {r4, r6, r8, lr}^
    93c4:	73253a43 			; <UNDEFINED> instruction: 0x73253a43
    93c8:	3a73253a 	bcc	1cd28b8 <__bss_end__+0x1cc9040>
    93cc:	663a6425 	ldrtvs	r6, [sl], -r5, lsr #8
    93d0:	74616f6c 	strbtvc	r6, [r1], #-3948	; 0xfffff094
    93d4:	746f6e20 	strbtvc	r6, [pc], #-3616	; 93dc <__FUNCTION__.3970+0xec>
    93d8:	616e6520 	cmnvs	lr, r0, lsr #10
    93dc:	64656c62 	strbtvs	r6, [r5], #-3170	; 0xfffff39e
    93e0:	0a212121 	beq	85186c <__bss_end__+0x847ff4>
    93e4:	00000000 	andeq	r0, r0, r0
    93e8:	6e697270 	mcrvs	2, 3, r7, cr9, cr0, {3}
    93ec:	203a6b74 	eorscs	r6, sl, r4, ror fp
    93f0:	20746f6e 	rsbscs	r6, r4, lr, ror #30
    93f4:	646e6168 	strbtvs	r6, [lr], #-360	; 0xfffffe98
    93f8:	676e696c 	strbvs	r6, [lr, -ip, ror #18]!
    93fc:	65707320 	ldrbvs	r7, [r0, #-800]!	; 0xfffffce0
    9400:	69666963 	stmdbvs	r6!, {r0, r1, r5, r6, r8, fp, sp, lr}^
    9404:	27207265 	strcs	r7, [r0, -r5, ror #4]!
    9408:	20276325 	eorcs	r6, r7, r5, lsr #6
    940c:	63736128 	cmnvs	r3, #10
    9410:	253d6969 	ldrcs	r6, [sp, #-2409]!	; 0xfffff697
    9414:	000a2964 	andeq	r2, sl, r4, ror #18
    9418:	494e4150 	stmdbmi	lr, {r4, r6, r8, lr}^
    941c:	73253a43 			; <UNDEFINED> instruction: 0x73253a43
    9420:	3a73253a 	bcc	1cd2910 <__bss_end__+0x1cc9098>
    9424:	703a6425 	eorsvc	r6, sl, r5, lsr #8
    9428:	746e6972 	strbtvc	r6, [lr], #-2418	; 0xfffff68e
    942c:	7265206b 	rsbvc	r2, r5, #107, 0	; 0x6b
    9430:	0a726f72 	beq	1ca5200 <__bss_end__+0x1c9b988>
    9434:	0000000a 	andeq	r0, r0, sl

00009438 <__FUNCTION__.3988>:
    9438:	74696d65 	strbtvc	r6, [r9], #-3429	; 0xfffff29b
    943c:	00000000 	andeq	r0, r0, r0

00009440 <__FUNCTION__.3936>:
    9440:	5f697072 	svcpl	0x00697072
    9444:	5f746573 	svcpl	0x00746573
    9448:	7074756f 	rsbsvc	r7, r4, pc, ror #10
    944c:	00007475 	andeq	r7, r0, r5, ror r4

00009450 <__FUNCTION__.4014>:
    9450:	705f6176 	subsvc	r6, pc, r6, ror r1	; <UNPREDICTABLE>
    9454:	746e6972 	strbtvc	r6, [lr], #-2418	; 0xfffff68e
    9458:	0000006b 	andeq	r0, r0, fp, rrx
    945c:	454e4f44 	strbmi	r4, [lr, #-3908]	; 0xfffff0bc
    9460:	0a212121 	beq	8518ec <__bss_end__+0x848074>
	...

Disassembly of section .data:

00009468 <rpi_putchar>:
    9468:	00008410 	andeq	r8, r0, r0, lsl r4

0000946c <putk>:
    946c:	0000844c 	andeq	r8, r0, ip, asr #8

Disassembly of section .bss:

00009470 <__bss_start__>:
    9470:	00000000 	andeq	r0, r0, r0

00009474 <buf.3928>:
	...

00009874 <heap>:
    9874:	00000000 	andeq	r0, r0, r0

Disassembly of section .ARM.attributes:

00000000 <.ARM.attributes>:
   0:	00002a41 	andeq	r2, r0, r1, asr #20
   4:	61656100 	cmnvs	r5, r0, lsl #2
   8:	01006962 	tsteq	r0, r2, ror #18
   c:	00000020 	andeq	r0, r0, r0, lsr #32
  10:	4b5a3605 	blmi	168d82c <__bss_end__+0x1683fb4>
  14:	08070600 	stmdaeq	r7, {r9, sl}
  18:	12010901 	andne	r0, r1, #16384	; 0x4000
  1c:	15011404 	strne	r1, [r1, #-1028]	; 0xfffffbfc
  20:	18031701 	stmdane	r3, {r0, r8, r9, sl, ip}
  24:	22011a01 	andcs	r1, r1, #4096	; 0x1000
  28:	Address 0x0000000000000028 is out of bounds.


Disassembly of section .comment:

00000000 <.comment>:
   0:	3a434347 	bcc	10d0d24 <__bss_end__+0x10c74ac>
   4:	4e472820 	cdpmi	8, 4, cr2, cr7, cr0, {1}
   8:	6f542055 	svcvs	0x00542055
   c:	20736c6f 	rsbscs	r6, r3, pc, ror #24
  10:	20726f66 	rsbscs	r6, r2, r6, ror #30
  14:	206d7241 	rsbcs	r7, sp, r1, asr #4
  18:	65626d45 	strbvs	r6, [r2, #-3397]!	; 0xfffff2bb
  1c:	64656464 	strbtvs	r6, [r5], #-1124	; 0xfffffb9c
  20:	6f725020 	svcvs	0x00725020
  24:	73736563 	cmnvc	r3, #415236096	; 0x18c00000
  28:	2073726f 	rsbscs	r7, r3, pc, ror #4
  2c:	30322d39 	eorscc	r2, r2, r9, lsr sp
  30:	712d3931 			; <UNDEFINED> instruction: 0x712d3931
  34:	616d2d34 	cmnvs	sp, r4, lsr sp
  38:	29726f6a 	ldmdbcs	r2!, {r1, r3, r5, r6, r8, r9, sl, fp, sp, lr}^
  3c:	322e3920 	eorcc	r3, lr, #32, 18	; 0x80000
  40:	3220312e 	eorcc	r3, r0, #-2147483637	; 0x8000000b
  44:	31393130 	teqcc	r9, r0, lsr r1
  48:	20353230 	eorscs	r3, r5, r0, lsr r2
  4c:	6c657228 	sfmvs	f7, 2, [r5], #-160	; 0xffffff60
  50:	65736165 	ldrbvs	r6, [r3, #-357]!	; 0xfffffe9b
  54:	415b2029 	cmpmi	fp, r9, lsr #32
  58:	612f4d52 			; <UNDEFINED> instruction: 0x612f4d52
  5c:	392d6d72 	pushcc	{r1, r4, r5, r6, r8, sl, fp, sp, lr}
  60:	6172622d 	cmnvs	r2, sp, lsr #4
  64:	2068636e 	rsbcs	r6, r8, lr, ror #6
  68:	69766572 	ldmdbvs	r6!, {r1, r4, r5, r6, r8, sl, sp, lr}^
  6c:	6e6f6973 			; <UNDEFINED> instruction: 0x6e6f6973
  70:	37373220 	ldrcc	r3, [r7, -r0, lsr #4]!
  74:	5d393935 			; <UNDEFINED> instruction: 0x5d393935
  78:	43434700 	movtmi	r4, #14080	; 0x3700
  7c:	3128203a 			; <UNDEFINED> instruction: 0x3128203a
  80:	2d393a35 	vldmdbcs	r9!, {s6-s58}
  84:	39313032 	ldmdbcc	r1!, {r1, r4, r5, ip, sp}
  88:	2d34712d 	ldfcss	f7, [r4, #-180]!	; 0xffffff4c
  8c:	75627530 	strbvc	r7, [r2, #-1328]!	; 0xfffffad0
  90:	3175746e 	cmncc	r5, lr, ror #8
  94:	2e392029 	cdpcs	0, 3, cr2, cr9, cr9, {1}
  98:	20312e32 	eorscs	r2, r1, r2, lsr lr
  9c:	39313032 	ldmdbcc	r1!, {r1, r4, r5, ip, sp}
  a0:	35323031 	ldrcc	r3, [r2, #-49]!	; 0xffffffcf
  a4:	65722820 	ldrbvs	r2, [r2, #-2080]!	; 0xfffff7e0
  a8:	7361656c 	cmnvc	r1, #108, 10	; 0x1b000000
  ac:	5b202965 	blpl	80a648 <__bss_end__+0x800dd0>
  b0:	2f4d5241 	svccs	0x004d5241
  b4:	2d6d7261 	sfmcs	f7, 2, [sp, #-388]!	; 0xfffffe7c
  b8:	72622d39 	rsbvc	r2, r2, #3648	; 0xe40
  bc:	68636e61 	stmdavs	r3!, {r0, r5, r6, r9, sl, fp, sp, lr}^
  c0:	76657220 	strbtvc	r7, [r5], -r0, lsr #4
  c4:	6f697369 	svcvs	0x00697369
  c8:	3732206e 	ldrcc	r2, [r2, -lr, rrx]!
  cc:	39393537 	ldmdbcc	r9!, {r0, r1, r2, r4, r5, r8, sl, ip, sp}
  d0:	Address 0x00000000000000d0 is out of bounds.


Disassembly of section .debug_info:

00000000 <.debug_info>:
       0:	0000020f 	andeq	r0, r0, pc, lsl #4
       4:	00000004 	andeq	r0, r0, r4
       8:	01040000 	mrseq	r0, (UNDEF: 4)
       c:	000000c0 	andeq	r0, r0, r0, asr #1
      10:	0000290c 	andeq	r2, r0, ip, lsl #18
      14:	00006300 	andeq	r6, r0, r0, lsl #6
      18:	00802000 	addeq	r2, r0, r0
      1c:	00009c00 	andeq	r9, r0, r0, lsl #24
      20:	00000000 	andeq	r0, r0, r0
      24:	05040200 	streq	r0, [r4, #-512]	; 0xfffffe00
      28:	00746e69 	rsbseq	r6, r4, r9, ror #28
      2c:	3c070403 	cfstrscc	mvf0, [r7], {3}
      30:	03000000 	movweq	r0, #0
      34:	000a0601 	andeq	r0, sl, r1, lsl #12
      38:	02030000 	andeq	r0, r3, #0, 0
      3c:	00009f05 	andeq	r9, r0, r5, lsl #30
      40:	05040300 	streq	r0, [r4, #-768]	; 0xfffffd00
      44:	0000004e 	andeq	r0, r0, lr, asr #32
      48:	49050803 	stmdbmi	r5, {r0, r1, fp}
      4c:	03000000 	movweq	r0, #0
      50:	00080801 	andeq	r0, r8, r1, lsl #16
      54:	02030000 	andeq	r0, r3, #0, 0
      58:	00001607 	andeq	r1, r0, r7, lsl #12
      5c:	07040300 	streq	r0, [r4, -r0, lsl #6]
      60:	00000037 	andeq	r0, r0, r7, lsr r0
      64:	32070803 	andcc	r0, r7, #196608	; 0x30000
      68:	04000000 	streq	r0, [r0], #-0
      6c:	00000025 	andeq	r0, r0, r5, lsr #32
      70:	0000007a 	andeq	r0, r0, sl, ror r0
      74:	00002505 	andeq	r2, r0, r5, lsl #10
      78:	57060000 	strpl	r0, [r6, -r0]
      7c:	02000000 	andeq	r0, r0, #0, 0
      80:	00860e1c 	addeq	r0, r6, ip, lsl lr
      84:	04070000 	streq	r0, [r7], #-0
      88:	0000006b 	andeq	r0, r0, fp, rrx
      8c:	00002504 	andeq	r2, r0, r4, lsl #10
      90:	00009b00 	andeq	r9, r0, r0, lsl #22
      94:	009b0500 	addseq	r0, fp, r0, lsl #10
      98:	07000000 	streq	r0, [r0, -r0]
      9c:	0000a804 	andeq	sl, r0, r4, lsl #16
      a0:	08010300 	stmdaeq	r1, {r8, r9}
      a4:	00000011 	andeq	r0, r0, r1, lsl r0
      a8:	0000a108 	andeq	sl, r0, r8, lsl #2
      ac:	02d90600 	sbcseq	r0, r9, #0, 12
      b0:	21020000 	mrscs	r0, (UNDEF: 2)
      b4:	0000b90e 	andeq	fp, r0, lr, lsl #18
      b8:	8c040700 	stchi	7, cr0, [r4], {-0}
      bc:	09000000 	stmdbeq	r0, {}	; <UNPREDICTABLE>
      c0:	00000000 	andeq	r0, r0, r0
      c4:	20060301 	andcs	r0, r6, r1, lsl #6
      c8:	9c000080 	stcls	0, cr0, [r0], {128}	; 0x80
      cc:	01000000 	mrseq	r0, (UNDEF: 0)
      d0:	0001ee9c 	muleq	r1, ip, lr
      d4:	80300a00 	eorshi	r0, r0, r0, lsl #20
      d8:	01ee0000 	mvneq	r0, r0
      dc:	00e90000 	rsceq	r0, r9, r0
      e0:	010b0000 	mrseq	r0, (UNDEF: 11)
      e4:	00740250 	rsbseq	r0, r4, r0, asr r2
      e8:	80380a00 	eorshi	r0, r8, r0, lsl #20
      ec:	01ee0000 	mvneq	r0, r0
      f0:	01000000 	mrseq	r0, (UNDEF: 0)
      f4:	010b0000 	mrseq	r0, (UNDEF: 11)
      f8:	20030550 	andcs	r0, r3, r0, asr r5
      fc:	00000091 	muleq	r0, r1, r0
     100:	0080400a 	addeq	r4, r0, sl
     104:	0001fa00 	andeq	pc, r1, r0, lsl #20
     108:	00011500 	andeq	r1, r1, r0, lsl #10
     10c:	50010b00 	andpl	r0, r1, r0, lsl #22
     110:	24404003 	strbcs	r4, [r0], #-3
     114:	80480a00 	subhi	r0, r8, r0, lsl #20
     118:	01ee0000 	mvneq	r0, r0
     11c:	01290000 			; <UNDEFINED> instruction: 0x01290000
     120:	010b0000 	mrseq	r0, (UNDEF: 11)
     124:	00740250 	rsbseq	r0, r4, r0, asr r2
     128:	80500a00 	subshi	r0, r0, r0, lsl #20
     12c:	02060000 	andeq	r0, r6, #0, 0
     130:	013c0000 	teqeq	ip, r0
     134:	010b0000 	mrseq	r0, (UNDEF: 11)
     138:	00310150 	eorseq	r0, r1, r0, asr r1
     13c:	0080600a 	addeq	r6, r0, sl
     140:	0001ee00 	andeq	lr, r1, r0, lsl #28
     144:	00015000 	andeq	r5, r1, r0
     148:	50010b00 	andpl	r0, r1, r0, lsl #22
     14c:	00007502 	andeq	r7, r0, r2, lsl #10
     150:	0080680a 	addeq	r6, r0, sl, lsl #16
     154:	0001ee00 	andeq	lr, r1, r0, lsl #28
     158:	00016400 	andeq	r6, r1, r0, lsl #8
     15c:	50010b00 	andpl	r0, r1, r0, lsl #22
     160:	00007402 	andeq	r7, r0, r2, lsl #8
     164:	0080700a 	addeq	r7, r0, sl
     168:	00020600 	andeq	r0, r2, r0, lsl #12
     16c:	00017700 	andeq	r7, r1, r0, lsl #14
     170:	50010b00 	andpl	r0, r1, r0, lsl #22
     174:	0a003101 	beq	c580 <__bss_end__+0x2d08>
     178:	0000807c 	andeq	r8, r0, ip, ror r0
     17c:	000001ee 	andeq	r0, r0, lr, ror #3
     180:	0000018b 	andeq	r0, r0, fp, lsl #3
     184:	0250010b 	subseq	r0, r0, #-1073741822	; 0xc0000002
     188:	0a000075 	beq	364 <__code_start__-0x7c9c>
     18c:	00008084 	andeq	r8, r0, r4, lsl #1
     190:	000001ee 	andeq	r0, r0, lr, ror #3
     194:	0000019f 	muleq	r0, pc, r1	; <UNPREDICTABLE>
     198:	0250010b 	subseq	r0, r0, #-1073741822	; 0xc0000002
     19c:	0a000074 	beq	374 <__code_start__-0x7c8c>
     1a0:	0000808c 	andeq	r8, r0, ip, lsl #1
     1a4:	00000206 	andeq	r0, r0, r6, lsl #4
     1a8:	000001b2 			; <UNDEFINED> instruction: 0x000001b2
     1ac:	0150010b 	cmpeq	r0, fp, lsl #2
     1b0:	980a0031 	stmdals	sl, {r0, r4, r5}
     1b4:	ee000080 	cdp	0, 0, cr0, cr0, cr0, {4}
     1b8:	c6000001 	strgt	r0, [r0], -r1
     1bc:	0b000001 	bleq	1c8 <__code_start__-0x7e38>
     1c0:	75025001 	strvc	r5, [r2, #-1]
     1c4:	a00a0000 	andge	r0, sl, r0
     1c8:	ee000080 	cdp	0, 0, cr0, cr0, cr0, {4}
     1cc:	da000001 	ble	1d8 <__code_start__-0x7e28>
     1d0:	0b000001 	bleq	1dc <__code_start__-0x7e24>
     1d4:	74025001 	strvc	r5, [r2], #-1
     1d8:	a80c0000 	stmdage	ip, {}	; <UNPREDICTABLE>
     1dc:	ee000080 	cdp	0, 0, cr0, cr0, cr0, {4}
     1e0:	0b000001 	bleq	1ec <__code_start__-0x7e14>
     1e4:	03055001 	movweq	r5, #20481	; 0x5001
     1e8:	0000914c 	andeq	r9, r0, ip, asr #2
     1ec:	3c0d0000 	stccc	0, cr0, [sp], {-0}
     1f0:	3c000002 	stccc	0, cr0, [r0], {2}
     1f4:	02000002 	andeq	r0, r0, #2, 0
     1f8:	a90d0628 	stmdbge	sp, {r3, r5, r9, sl}
     1fc:	a9000000 	stmdbge	r0, {}	; <UNPREDICTABLE>
     200:	02000000 	andeq	r0, r0, #0, 0
     204:	970d067c 	smlsdxls	sp, ip, r6, r0
     208:	97000000 	strls	r0, [r0, -r0]
     20c:	02000000 	andeq	r0, r0, #0, 0
     210:	41000774 	tstmi	r0, r4, ror r7
     214:	04000007 	streq	r0, [r0], #-7
     218:	0000b200 	andeq	fp, r0, r0, lsl #4
     21c:	c0010400 	andgt	r0, r1, r0, lsl #8
     220:	0c000000 	stceq	0, cr0, [r0], {-0}
     224:	000001e0 	andeq	r0, r0, r0, ror #3
     228:	00000063 	andeq	r0, r0, r3, rrx
     22c:	000080bc 	strheq	r8, [r0], -ip
     230:	000002fc 	strdeq	r0, [r0], -ip
     234:	0000008b 	andeq	r0, r0, fp, lsl #1
     238:	69050402 	stmdbvs	r5, {r1, sl}
     23c:	0300746e 	movweq	r7, #1134	; 0x46e
     240:	003c0704 	eorseq	r0, ip, r4, lsl #14
     244:	01030000 	mrseq	r0, (UNDEF: 3)
     248:	00000a06 	andeq	r0, r0, r6, lsl #20
     24c:	05020300 	streq	r0, [r2, #-768]	; 0xfffffd00
     250:	0000009f 	muleq	r0, pc, r0	; <UNPREDICTABLE>
     254:	4e050403 	cdpmi	4, 0, cr0, cr5, cr3, {0}
     258:	03000000 	movweq	r0, #0
     25c:	00490508 	subeq	r0, r9, r8, lsl #10
     260:	01030000 	mrseq	r0, (UNDEF: 3)
     264:	00000808 	andeq	r0, r0, r8, lsl #16
     268:	07020300 	streq	r0, [r2, -r0, lsl #6]
     26c:	00000016 	andeq	r0, r0, r6, lsl r0
     270:	37070403 	strcc	r0, [r7, -r3, lsl #8]
     274:	03000000 	movweq	r0, #0
     278:	00320708 	eorseq	r0, r2, r8, lsl #14
     27c:	25040000 	strcs	r0, [r4, #-0]
     280:	7a000000 	bvc	288 <__code_start__-0x7d78>
     284:	05000000 	streq	r0, [r0, #-0]
     288:	00000025 	andeq	r0, r0, r5, lsr #32
     28c:	00570600 	subseq	r0, r7, r0, lsl #12
     290:	1c020000 	stcne	0, cr0, [r2], {-0}
     294:	0000860e 	andeq	r8, r0, lr, lsl #12
     298:	6b040700 	blvs	101ea0 <__bss_end__+0xf8628>
     29c:	04000000 	streq	r0, [r0], #-0
     2a0:	00000025 	andeq	r0, r0, r5, lsr #32
     2a4:	0000009b 	muleq	r0, fp, r0
     2a8:	00009b05 	andeq	r9, r0, r5, lsl #22
     2ac:	04070000 	streq	r0, [r7], #-0
     2b0:	000000a8 	andeq	r0, r0, r8, lsr #1
     2b4:	11080103 	tstne	r8, r3, lsl #2
     2b8:	08000000 	stmdaeq	r0, {}	; <UNPREDICTABLE>
     2bc:	000000a1 	andeq	r0, r0, r1, lsr #1
     2c0:	0002d906 	andeq	sp, r2, r6, lsl #18
     2c4:	0e210200 	cdpeq	2, 2, cr0, cr1, cr0, {0}
     2c8:	000000b9 	strheq	r0, [r0], -r9
     2cc:	008c0407 	addeq	r0, ip, r7, lsl #8
     2d0:	18060000 	stmdane	r6, {}	; <UNPREDICTABLE>
     2d4:	01000002 	tsteq	r0, r2
     2d8:	00a10d04 	adceq	r0, r1, r4, lsl #26
     2dc:	97090000 	strls	r0, [r9, -r0]
     2e0:	01000001 	tsteq	r0, r1
     2e4:	00250c07 	eoreq	r0, r5, r7, lsl #24
     2e8:	03050000 	movweq	r0, #20480	; 0x5000
     2ec:	00009470 	andeq	r9, r0, r0, ror r4
     2f0:	0001db0a 	andeq	sp, r1, sl, lsl #22
     2f4:	0a0a0100 	beq	2806fc <__bss_end__+0x276e84>
     2f8:	0000002c 	andeq	r0, r0, ip, lsr #32
     2fc:	98740305 	ldmdals	r4!, {r0, r2, r8, r9}^
     300:	08030000 	stmdaeq	r3, {}	; <UNPREDICTABLE>
     304:	0001c704 	andeq	ip, r1, r4, lsl #14
     308:	0c040b00 			; <UNDEFINED> instruction: 0x0c040b00
     30c:	00000207 	andeq	r0, r0, r7, lsl #4
     310:	f6077701 			; <UNDEFINED> instruction: 0xf6077701
     314:	90000000 	andls	r0, r0, r0
     318:	28000083 	stmdacs	r0, {r0, r1, r7}
     31c:	01000000 	mrseq	r0, (UNDEF: 0)
     320:	00015a9c 	muleq	r1, ip, sl
     324:	01ce0d00 	biceq	r0, lr, r0, lsl #26
     328:	016a0000 	cmneq	sl, r0
     32c:	03050000 	movweq	r0, #20480	; 0x5000
     330:	000092f0 	strdeq	r9, [r0], -r0
     334:	0083a80e 	addeq	sl, r3, lr, lsl #16
     338:	00072000 	andeq	r2, r7, r0
     33c:	00015000 	andeq	r5, r1, r0
     340:	50010f00 	andpl	r0, r1, r0, lsl #30
     344:	92880305 	addls	r0, r8, #335544320	; 0x14000000
     348:	010f0000 	mrseq	r0, CPSR
     34c:	54030551 	strpl	r0, [r3], #-1361	; 0xfffffaaf
     350:	0f000091 	svceq	0x00000091
     354:	03055201 	movweq	r5, #20993	; 0x5201
     358:	000092f0 	strdeq	r9, [r0], -r0
     35c:	0253010f 	subseq	r0, r3, #-1073741821	; 0xc0000003
     360:	10007808 	andne	r7, r0, r8, lsl #16
     364:	000083ac 	andeq	r8, r0, ip, lsr #7
     368:	0000072c 	andeq	r0, r0, ip, lsr #14
     36c:	00a81100 	adceq	r1, r8, r0, lsl #2
     370:	016a0000 	cmneq	sl, r0
     374:	2c120000 	ldccs	0, cr0, [r2], {-0}
     378:	10000000 	andne	r0, r0, r0
     37c:	015a0800 	cmpeq	sl, r0, lsl #16
     380:	8d130000 	ldchi	0, cr0, [r3, #-0]
     384:	01000001 	tsteq	r0, r1
     388:	8368066e 	cmnhi	r8, #115343360	; 0x6e00000
     38c:	00280000 	eoreq	r0, r8, r0
     390:	9c010000 	stcls	0, cr0, [r1], {-0}
     394:	000001cd 	andeq	r0, r0, sp, asr #3
     398:	0001ce0d 	andeq	ip, r1, sp, lsl #28
     39c:	0001dd00 	andeq	sp, r1, r0, lsl #26
     3a0:	e4030500 	str	r0, [r3], #-1280	; 0xfffffb00
     3a4:	0e000092 	mcreq	0, 0, r0, cr0, cr2, {4}
     3a8:	00008380 	andeq	r8, r0, r0, lsl #7
     3ac:	00000720 	andeq	r0, r0, r0, lsr #14
     3b0:	000001c3 	andeq	r0, r0, r3, asr #3
     3b4:	0550010f 	ldrbeq	r0, [r0, #-271]	; 0xfffffef1
     3b8:	00928803 	addseq	r8, r2, r3, lsl #16
     3bc:	51010f00 	tstpl	r1, r0, lsl #30
     3c0:	91540305 	cmpls	r4, r5, lsl #6
     3c4:	010f0000 	mrseq	r0, CPSR
     3c8:	e4030552 	str	r0, [r3], #-1362	; 0xfffffaae
     3cc:	0f000092 	svceq	0x00000092
     3d0:	08025301 	stmdaeq	r2, {r0, r8, r9, ip, lr}
     3d4:	8410006f 	ldrhi	r0, [r0], #-111	; 0xffffff91
     3d8:	2c000083 	stccs	0, cr0, [r0], {131}	; 0x83
     3dc:	00000007 	andeq	r0, r0, r7
     3e0:	0000a811 	andeq	sl, r0, r1, lsl r8
     3e4:	0001dd00 	andeq	sp, r1, r0, lsl #26
     3e8:	002c1200 	eoreq	r1, ip, r0, lsl #4
     3ec:	00090000 	andeq	r0, r9, r0
     3f0:	0001cd08 	andeq	ip, r1, r8, lsl #26
     3f4:	00a91300 	adceq	r1, r9, r0, lsl #6
     3f8:	62010000 	andvs	r0, r1, #0, 0
     3fc:	0082e406 	addeq	lr, r2, r6, lsl #8
     400:	00008400 	andeq	r8, r0, r0, lsl #8
     404:	bf9c0100 	svclt	0x009c0100
     408:	14000002 	strne	r0, [r0], #-2
     40c:	0000022e 	andeq	r0, r0, lr, lsr #4
     410:	2c266201 	sfmcs	f6, 4, [r6], #-4
     414:	0a000000 	beq	41c <__code_start__-0x7be4>
     418:	00000000 	andeq	r0, r0, r0
     41c:	0d000000 	stceq	0, cr0, [r0, #-0]
     420:	000001ce 	andeq	r0, r0, lr, asr #3
     424:	000002cf 	andeq	r0, r0, pc, asr #5
     428:	92cc0305 	sbcls	r0, ip, #335544320	; 0x14000000
     42c:	af150000 	svcge	0x00150000
     430:	08000006 	stmdaeq	r0, {r1, r2}
     434:	01000083 	smlabbeq	r0, r3, r0, r0
     438:	00000030 	andeq	r0, r0, r0, lsr r0
     43c:	500c6501 	andpl	r6, ip, r1, lsl #10
     440:	16000002 	strne	r0, [r0], -r2
     444:	000006ca 	andeq	r0, r0, sl, asr #13
     448:	00000053 	andeq	r0, r0, r3, asr r0
     44c:	00000051 	andeq	r0, r0, r1, asr r0
     450:	0006c016 	andeq	ip, r6, r6, lsl r0
     454:	00006b00 	andeq	r6, r0, r0, lsl #22
     458:	00006700 	andeq	r6, r0, r0, lsl #14
     45c:	00301700 	eorseq	r1, r0, r0, lsl #14
     460:	0e000000 	cdpeq	0, 0, cr0, cr0, cr0, {0}
     464:	00008320 	andeq	r8, r0, r0, lsr #6
     468:	00000720 	andeq	r0, r0, r0, lsr #14
     46c:	00000273 	andeq	r0, r0, r3, ror r2
     470:	0550010f 	ldrbeq	r0, [r0, #-271]	; 0xfffffef1
     474:	00924803 	addseq	r4, r2, r3, lsl #16
     478:	51010f00 	tstpl	r1, r0, lsl #30
     47c:	5001f308 	andpl	pc, r1, r8, lsl #6
     480:	fc090323 	stc2	3, cr0, [r9], {35}	; 0x23
     484:	2c10001a 	ldccs	0, cr0, [r0], {26}
     488:	38000083 	stmdacc	r0, {r0, r1, r7}
     48c:	0e000007 	cdpeq	0, 0, cr0, cr0, cr7, {0}
     490:	00008348 	andeq	r8, r0, r8, asr #6
     494:	00000720 	andeq	r0, r0, r0, lsr #14
     498:	000002b5 			; <UNDEFINED> instruction: 0x000002b5
     49c:	0550010f 	ldrbeq	r0, [r0, #-271]	; 0xfffffef1
     4a0:	00924c03 	addseq	r4, r2, r3, lsl #24
     4a4:	51010f00 	tstpl	r1, r0, lsl #30
     4a8:	91540305 	cmpls	r4, r5, lsl #6
     4ac:	010f0000 	mrseq	r0, CPSR
     4b0:	cc030552 	cfstr32gt	mvfx0, [r3], {82}	; 0x52
     4b4:	0f000092 	svceq	0x00000092
     4b8:	08025301 	stmdaeq	r2, {r0, r8, r9, ip, lr}
     4bc:	7d020f63 	stcvc	15, cr0, [r2, #-396]	; 0xfffffe74
     4c0:	80030500 	andhi	r0, r3, r0, lsl #10
     4c4:	00000092 	muleq	r0, r2, r0
     4c8:	00834c10 	addeq	r4, r3, r0, lsl ip
     4cc:	00072c00 	andeq	r2, r7, r0, lsl #24
     4d0:	a8110000 	ldmdage	r1, {}	; <UNPREDICTABLE>
     4d4:	cf000000 	svcgt	0x00000000
     4d8:	12000002 	andne	r0, r0, #2, 0
     4dc:	0000002c 	andeq	r0, r0, ip, lsr #32
     4e0:	bf080016 	svclt	0x00080016
     4e4:	13000002 	movwne	r0, #2
     4e8:	00000180 	andeq	r0, r0, r0, lsl #3
     4ec:	98065601 	stmdals	r6, {r0, r9, sl, ip, lr}
     4f0:	4c000082 	stcmi	0, cr0, [r0], {130}	; 0x82
     4f4:	01000000 	mrseq	r0, (UNDEF: 0)
     4f8:	00032b9c 	muleq	r3, ip, fp
     4fc:	06af1500 	strteq	r1, [pc], r0, lsl #10
     500:	82b80000 	adcshi	r0, r8, #0, 0
     504:	18010000 	stmdane	r1, {}	; <UNPREDICTABLE>
     508:	01000000 	mrseq	r0, (UNDEF: 0)
     50c:	03170c5a 	tsteq	r7, #23040	; 0x5a00
     510:	ca160000 	bgt	580518 <__bss_end__+0x576ca0>
     514:	8d000006 	stchi	0, cr0, [r0, #-24]	; 0xffffffe8
     518:	8b000000 	blhi	520 <__code_start__-0x7ae0>
     51c:	18000000 	stmdane	r0, {}	; <UNPREDICTABLE>
     520:	000006c0 	andeq	r0, r0, r0, asr #13
     524:	00001817 	andeq	r1, r0, r7, lsl r8
     528:	d0190000 	andsle	r0, r9, r0
     52c:	20000082 	andcs	r0, r0, r2, lsl #1
     530:	0f000007 	svceq	0x00000007
     534:	03055001 	movweq	r5, #20481	; 0x5001
     538:	00009248 	andeq	r9, r0, r8, asr #4
     53c:	f70c0000 			; <UNDEFINED> instruction: 0xf70c0000
     540:	01000001 	tsteq	r0, r1
     544:	00f60742 	rscseq	r0, r6, r2, asr #14
     548:	818c0000 	orrhi	r0, ip, r0
     54c:	010c0000 	mrseq	r0, (UNDEF: 12)
     550:	9c010000 	stcls	0, cr0, [r1], {-0}
     554:	000004fb 	strdeq	r0, [r0], -fp
     558:	00022714 	andeq	r2, r2, r4, lsl r7
     55c:	20420100 	subcs	r0, r2, r0, lsl #2
     560:	0000002c 	andeq	r0, r0, ip, lsr #32
     564:	000000b5 	strheq	r0, [r0], -r5
     568:	000000a1 	andeq	r0, r0, r1, lsr #1
     56c:	0001a614 	andeq	sl, r1, r4, lsl r6
     570:	31420100 	mrscc	r0, (UNDEF: 82)
     574:	0000002c 	andeq	r0, r0, ip, lsr #32
     578:	00000150 	andeq	r0, r0, r0, asr r1
     57c:	0000013a 	andeq	r0, r0, sl, lsr r1
     580:	0001ce0d 	andeq	ip, r1, sp, lsl #28
     584:	00050b00 	andeq	r0, r5, r0, lsl #22
     588:	bc030500 	cfstr32lt	mvfx0, [r3], {-0}
     58c:	1a000092 	bne	7dc <__code_start__-0x7824>
     590:	000006de 	ldrdeq	r0, [r0], -lr
     594:	000081ac 	andeq	r8, r0, ip, lsr #3
     598:	0081ac03 	addeq	sl, r1, r3, lsl #24
     59c:	00000400 	andeq	r0, r0, r0, lsl #8
     5a0:	05450100 	strbeq	r0, [r5, #-256]	; 0xffffff00
     5a4:	000003a3 	andeq	r0, r0, r3, lsr #7
     5a8:	0006ef16 	andeq	lr, r6, r6, lsl pc
     5ac:	0001e400 	andeq	lr, r1, r0, lsl #8
     5b0:	0001e200 	andeq	lr, r1, r0, lsl #4
     5b4:	fa1a0000 	blx	6805bc <__bss_end__+0x676d44>
     5b8:	c8000006 	stmdagt	r0, {r1, r2}
     5bc:	00000081 	andeq	r0, r0, r1, lsl #1
     5c0:	000081c8 	andeq	r8, r0, r8, asr #3
     5c4:	00000004 	andeq	r0, r0, r4
     5c8:	d7054a01 	strle	r4, [r5, -r1, lsl #20]
     5cc:	16000003 	strne	r0, [r0], -r3
     5d0:	00000715 	andeq	r0, r0, r5, lsl r7
     5d4:	000001f9 	strdeq	r0, [r0], -r9
     5d8:	000001f7 	strdeq	r0, [r0], -r7
     5dc:	00070b16 	andeq	r0, r7, r6, lsl fp
     5e0:	00020e00 	andeq	r0, r2, r0, lsl #28
     5e4:	00020c00 	andeq	r0, r2, r0, lsl #24
     5e8:	f80e0000 			; <UNDEFINED> instruction: 0xf80e0000
     5ec:	20000081 	andcs	r0, r0, r1, lsl #1
     5f0:	10000007 	andne	r0, r0, r7
     5f4:	0f000004 	svceq	0x00000004
     5f8:	03055001 	movweq	r5, #20481	; 0x5001
     5fc:	00009160 	andeq	r9, r0, r0, ror #2
     600:	0551010f 	ldrbeq	r0, [r1, #-271]	; 0xfffffef1
     604:	00915403 	addseq	r5, r1, r3, lsl #8
     608:	52010f00 	andpl	r0, r1, #0, 30
     60c:	92bc0305 	adcsls	r0, ip, #335544320	; 0x14000000
     610:	010f0000 	mrseq	r0, CPSR
     614:	43080253 	movwmi	r0, #33363	; 0x8253
     618:	007d020f 	rsbseq	r0, sp, pc, lsl #4
     61c:	91cc0305 	bicls	r0, ip, r5, lsl #6
     620:	10000000 	andne	r0, r0, r0
     624:	000081fc 	strdeq	r8, [r0], -ip
     628:	0000072c 	andeq	r0, r0, ip, lsr #14
     62c:	00820010 	addeq	r0, r2, r0, lsl r0
     630:	00073800 	andeq	r3, r7, r0, lsl #16
     634:	821c0e00 	andshi	r0, ip, #0, 28
     638:	07200000 	streq	r0, [r0, -r0]!
     63c:	045b0000 	ldrbeq	r0, [fp], #-0
     640:	010f0000 	mrseq	r0, CPSR
     644:	74030550 	strvc	r0, [r3], #-1360	; 0xfffffab0
     648:	0f000091 	svceq	0x00000091
     64c:	03055101 	movweq	r5, #20737	; 0x5101
     650:	00009154 	andeq	r9, r0, r4, asr r1
     654:	0552010f 	ldrbeq	r0, [r2, #-271]	; 0xfffffef1
     658:	0092bc03 	addseq	fp, r2, r3, lsl #24
     65c:	53010f00 	movwpl	r0, #7936	; 0x1f00
     660:	0f440802 	svceq	0x00440802
     664:	05007d02 	streq	r7, [r0, #-3330]	; 0xfffff2fe
     668:	0091b003 	addseq	fp, r1, r3
     66c:	20100000 	andscs	r0, r0, r0
     670:	2c000082 	stccs	0, cr0, [r0], {130}	; 0x82
     674:	10000007 	andne	r0, r0, r7
     678:	00008224 	andeq	r8, r0, r4, lsr #4
     67c:	00000738 	andeq	r0, r0, r8, lsr r7
     680:	0082400e 	addeq	r4, r2, lr
     684:	00072000 	andeq	r2, r7, r0
     688:	0004a600 	andeq	sl, r4, r0, lsl #12
     68c:	50010f00 	andpl	r0, r1, r0, lsl #30
     690:	91e40305 	mvnls	r0, r5, lsl #6
     694:	010f0000 	mrseq	r0, CPSR
     698:	54030551 	strpl	r0, [r3], #-1361	; 0xfffffaaf
     69c:	0f000091 	svceq	0x00000091
     6a0:	03055201 	movweq	r5, #20993	; 0x5201
     6a4:	000092bc 			; <UNDEFINED> instruction: 0x000092bc
     6a8:	0253010f 	subseq	r0, r3, #-1073741821	; 0xc0000003
     6ac:	020f4508 	andeq	r4, pc, #8, 10	; 0x2000000
     6b0:	0305007d 	movweq	r0, #20605	; 0x507d
     6b4:	00009218 	andeq	r9, r0, r8, lsl r2
     6b8:	82441000 	subhi	r1, r4, #0, 0
     6bc:	072c0000 	streq	r0, [ip, -r0]!
     6c0:	48100000 	ldmdami	r0, {}	; <UNPREDICTABLE>
     6c4:	10000082 	andne	r0, r0, r2, lsl #1
     6c8:	0e000005 	cdpeq	0, 0, cr0, cr0, cr5, {0}
     6cc:	00008268 	andeq	r8, r0, r8, ror #4
     6d0:	00000720 	andeq	r0, r0, r0, lsr #14
     6d4:	000004f1 	strdeq	r0, [r0], -r1
     6d8:	0550010f 	ldrbeq	r0, [r0, #-271]	; 0xfffffef1
     6dc:	00916003 	addseq	r6, r1, r3
     6e0:	51010f00 	tstpl	r1, r0, lsl #30
     6e4:	91540305 	cmpls	r4, r5, lsl #6
     6e8:	010f0000 	mrseq	r0, CPSR
     6ec:	bc030552 	cfstr32lt	mvfx0, [r3], {82}	; 0x52
     6f0:	0f000092 	svceq	0x00000092
     6f4:	08025301 	stmdaeq	r2, {r0, r8, r9, ip, lr}
     6f8:	7d020f4a 	stcvc	15, cr0, [r2, #-296]	; 0xfffffed8
     6fc:	2c030500 	cfstr32cs	mvfx0, [r3], {-0}
     700:	00000092 	muleq	r0, r2, r0
     704:	00826c10 	addeq	r6, r2, r0, lsl ip
     708:	00072c00 	andeq	r2, r7, r0, lsl #24
     70c:	a8110000 	ldmdage	r1, {}	; <UNPREDICTABLE>
     710:	0b000000 	bleq	718 <__code_start__-0x78e8>
     714:	12000005 	andne	r0, r0, #5, 0
     718:	0000002c 	andeq	r0, r0, ip, lsr #32
     71c:	fb08000f 	blx	200762 <__bss_end__+0x1f6eea>
     720:	0c000004 	stceq	0, cr0, [r0], {4}
     724:	00000097 	muleq	r0, r7, r0
     728:	f6073401 			; <UNDEFINED> instruction: 0xf6073401
     72c:	bc000000 	stclt	0, cr0, [r0], {-0}
     730:	d0000080 	andle	r0, r0, r0, lsl #1
     734:	01000000 	mrseq	r0, (UNDEF: 0)
     738:	00069a9c 	muleq	r6, ip, sl
     73c:	02271400 	eoreq	r1, r7, #0, 8
     740:	34010000 	strcc	r0, [r1], #-0
     744:	00002c18 	andeq	r2, r0, r8, lsl ip
     748:	00023300 	andeq	r3, r2, r0, lsl #6
     74c:	00022100 	andeq	r2, r2, r0, lsl #2
     750:	01ce0d00 	biceq	r0, lr, r0, lsl #26
     754:	06aa0000 	strteq	r0, [sl], r0
     758:	03050000 	movweq	r0, #20480	; 0x5000
     75c:	000092b4 			; <UNDEFINED> instruction: 0x000092b4
     760:	706d741b 	rsbvc	r7, sp, fp, lsl r4
     764:	0e380100 	rsfeqe	f0, f0, f0
     768:	0000002c 	andeq	r0, r0, ip, lsr #32
     76c:	000002ba 			; <UNDEFINED> instruction: 0x000002ba
     770:	000002b6 			; <UNDEFINED> instruction: 0x000002b6
     774:	0006af15 	andeq	sl, r6, r5, lsl pc
     778:	0080dc00 	addeq	sp, r0, r0, lsl #24
     77c:	00000200 	andeq	r0, r0, r0, lsl #4
     780:	37010000 	strcc	r0, [r1, -r0]
     784:	0005960e 	andeq	r9, r5, lr, lsl #12
     788:	06ca1600 	strbeq	r1, [sl], r0, lsl #12
     78c:	02da0000 	sbcseq	r0, sl, #0, 0
     790:	02d80000 	sbcseq	r0, r8, #0, 0
     794:	c0160000 	andsgt	r0, r6, r0
     798:	f2000006 	vhadd.s8	d0, d0, d6
     79c:	ee000002 	cdp	0, 0, cr0, cr0, cr2, {0}
     7a0:	17000002 	strne	r0, [r0, -r2]
     7a4:	00000000 	andeq	r0, r0, r0
     7a8:	06fa1a00 	ldrbteq	r1, [sl], r0, lsl #20
     7ac:	80f40000 	rscshi	r0, r4, r0
     7b0:	f4020000 	vst4.8	{d0-d3}, [r2], r0
     7b4:	00000080 	andeq	r0, r0, r0, lsl #1
     7b8:	01000000 	mrseq	r0, (UNDEF: 0)
     7bc:	05ca053a 	strbeq	r0, [sl, #1338]	; 0x53a
     7c0:	15160000 	ldrne	r0, [r6, #-0]
     7c4:	14000007 	strne	r0, [r0], #-7
     7c8:	12000003 	andne	r0, r0, #3, 0
     7cc:	16000003 	strne	r0, [r0], -r3
     7d0:	0000070b 	andeq	r0, r0, fp, lsl #14
     7d4:	0000032a 	andeq	r0, r0, sl, lsr #6
     7d8:	00000328 	andeq	r0, r0, r8, lsr #6
     7dc:	81200e00 			; <UNDEFINED> instruction: 0x81200e00
     7e0:	07200000 	streq	r0, [r0, -r0]!
     7e4:	06030000 	streq	r0, [r3], -r0
     7e8:	010f0000 	mrseq	r0, CPSR
     7ec:	60030550 	andvs	r0, r3, r0, asr r5
     7f0:	0f000091 	svceq	0x00000091
     7f4:	03055101 	movweq	r5, #20737	; 0x5101
     7f8:	00009154 	andeq	r9, r0, r4, asr r1
     7fc:	0552010f 	ldrbeq	r0, [r2, #-271]	; 0xfffffef1
     800:	0092b403 	addseq	fp, r2, r3, lsl #8
     804:	53010f00 	movwpl	r0, #7936	; 0x1f00
     808:	0f350802 	svceq	0x00350802
     80c:	05007d02 	streq	r7, [r0, #-3330]	; 0xfffff2fe
     810:	0091dc03 	addseq	sp, r1, r3, lsl #24
     814:	24100000 	ldrcs	r0, [r0], #-0
     818:	2c000081 	stccs	0, cr0, [r0], {129}	; 0x81
     81c:	10000007 	andne	r0, r0, r7
     820:	00008128 	andeq	r8, r0, r8, lsr #2
     824:	00000738 	andeq	r0, r0, r8, lsr r7
     828:	0081440e 	addeq	r4, r1, lr, lsl #8
     82c:	00072000 	andeq	r2, r7, r0
     830:	00064e00 	andeq	r4, r6, r0, lsl #28
     834:	50010f00 	andpl	r0, r1, r0, lsl #30
     838:	91740305 	cmnls	r4, r5, lsl #6
     83c:	010f0000 	mrseq	r0, CPSR
     840:	54030551 	strpl	r0, [r3], #-1361	; 0xfffffaaf
     844:	0f000091 	svceq	0x00000091
     848:	03055201 	movweq	r5, #20993	; 0x5201
     84c:	000092b4 			; <UNDEFINED> instruction: 0x000092b4
     850:	0253010f 	subseq	r0, r3, #-1073741821	; 0xc0000003
     854:	020f3608 	andeq	r3, pc, #8, 12	; 0x800000
     858:	0305007d 	movweq	r0, #20605	; 0x507d
     85c:	000091b0 			; <UNDEFINED> instruction: 0x000091b0
     860:	81481000 	mrshi	r1, (UNDEF: 72)
     864:	072c0000 	streq	r0, [ip, -r0]!
     868:	640e0000 	strvs	r0, [lr], #-0
     86c:	20000081 	andcs	r0, r0, r1, lsl #1
     870:	90000007 	andls	r0, r0, r7
     874:	0f000006 	svceq	0x00000006
     878:	03055001 	movweq	r5, #20481	; 0x5001
     87c:	00009160 	andeq	r9, r0, r0, ror #2
     880:	0551010f 	ldrbeq	r0, [r1, #-271]	; 0xfffffef1
     884:	00915403 	addseq	r5, r1, r3, lsl #8
     888:	52010f00 	andpl	r0, r1, #0, 30
     88c:	92b40305 	adcsls	r0, r4, #335544320	; 0x14000000
     890:	010f0000 	mrseq	r0, CPSR
     894:	3a080253 	bcc	2011e8 <__bss_end__+0x1f7970>
     898:	007d020f 	rsbseq	r0, sp, pc, lsl #4
     89c:	91b80305 			; <UNDEFINED> instruction: 0x91b80305
     8a0:	10000000 	andne	r0, r0, r0
     8a4:	00008168 	andeq	r8, r0, r8, ror #2
     8a8:	0000072c 	andeq	r0, r0, ip, lsr #14
     8ac:	00a81100 	adceq	r1, r8, r0, lsl #2
     8b0:	06aa0000 	strteq	r0, [sl], r0
     8b4:	2c120000 	ldccs	0, cr0, [r2], {-0}
     8b8:	07000000 	streq	r0, [r0, -r0]
     8bc:	069a0800 	ldreq	r0, [sl], r0, lsl #16
     8c0:	bf1c0000 	svclt	0x001c0000
     8c4:	01000001 	tsteq	r0, r1
     8c8:	002c1822 	eoreq	r1, ip, r2, lsr #16
     8cc:	de030000 	cdple	0, 0, cr0, cr3, cr0, {0}
     8d0:	1d000006 	stcne	0, cr0, [r0, #-24]	; 0xffffffe8
     8d4:	22010078 	andcs	r0, r1, #120, 0	; 0x78
     8d8:	00002c29 	andeq	r2, r0, r9, lsr #24
     8dc:	006e1d00 	rsbeq	r1, lr, r0, lsl #26
     8e0:	2c352201 	lfmcs	f2, 4, [r5], #-4
     8e4:	1e000000 	cdpne	0, 0, cr0, cr0, cr0, {0}
     8e8:	000001ce 	andeq	r0, r0, lr, asr #3
     8ec:	000006aa 	andeq	r0, r0, sl, lsr #13
     8f0:	019e1c00 	orrseq	r1, lr, r0, lsl #24
     8f4:	1f010000 	svcne	0x00010000
     8f8:	00002c18 	andeq	r2, r0, r8, lsl ip
     8fc:	06fa0300 	ldrbteq	r0, [sl], r0, lsl #6
     900:	781d0000 	ldmdavc	sp, {}	; <UNPREDICTABLE>
     904:	291f0100 	ldmdbcs	pc, {r8}	; <UNPREDICTABLE>
     908:	0000002c 	andeq	r0, r0, ip, lsr #32
     90c:	01751c00 	cmneq	r5, r0, lsl #24
     910:	19010000 	stmdbne	r1, {}	; <UNPREDICTABLE>
     914:	00002c18 	andeq	r2, r0, r8, lsl ip
     918:	07200300 	streq	r0, [r0, -r0, lsl #6]!
     91c:	781d0000 	ldmdavc	sp, {}	; <UNPREDICTABLE>
     920:	2c190100 	ldfcss	f0, [r9], {-0}
     924:	0000002c 	andeq	r0, r0, ip, lsr #32
     928:	01006e1d 	tsteq	r0, sp, lsl lr
     92c:	002c3819 	eoreq	r3, ip, r9, lsl r8
     930:	1f000000 	svcne	0x00000000
     934:	0000023c 	andeq	r0, r0, ip, lsr r2
     938:	0000023c 	andeq	r0, r0, ip, lsr r2
     93c:	1f062802 	svcne	0x00062802
     940:	000001ea 	andeq	r0, r0, sl, ror #3
     944:	000001ea 	andeq	r0, r0, sl, ror #3
     948:	1f066702 	svcne	0x00066702
     94c:	000001b0 			; <UNDEFINED> instruction: 0x000001b0
     950:	000001b0 			; <UNDEFINED> instruction: 0x000001b0
     954:	00061d02 	andeq	r1, r6, r2, lsl #26
     958:	0000019d 	muleq	r0, sp, r1
     95c:	02760004 	rsbseq	r0, r6, #4, 0
     960:	01040000 	mrseq	r0, (UNDEF: 4)
     964:	000000c0 	andeq	r0, r0, r0, asr #1
     968:	0002570c 	andeq	r5, r2, ip, lsl #14
     96c:	00027100 	andeq	r7, r2, r0, lsl #2
     970:	0083b800 	addeq	fp, r3, r0, lsl #16
     974:	00005800 	andeq	r5, r0, r0, lsl #16
     978:	00035d00 	andeq	r5, r3, r0, lsl #26
     97c:	02430200 	subeq	r0, r3, #0, 4
     980:	28020000 	stmdacs	r2, {}	; <UNPREDICTABLE>
     984:	0000311b 	andeq	r3, r0, fp, lsl r1
     988:	02670300 	rsbeq	r0, r7, #0, 6
     98c:	04040000 	streq	r0, [r4], #-0
     990:	00004800 	andeq	r4, r0, r0, lsl #16
     994:	02520400 	subseq	r0, r2, #0, 8
     998:	00480000 	subeq	r0, r8, r0
     99c:	00000000 	andeq	r0, r0, r0
     9a0:	69020405 	stmdbvs	r2, {r0, r2, sl}
     9a4:	02000002 	andeq	r0, r0, #2, 0
     9a8:	00251863 	eoreq	r1, r5, r3, ror #16
     9ac:	04060000 	streq	r0, [r6], #-0
     9b0:	746e6905 	strbtvc	r6, [lr], #-2309	; 0xfffff6fb
     9b4:	07040700 	streq	r0, [r4, -r0, lsl #14]
     9b8:	0000003c 	andeq	r0, r0, ip, lsr r0
     9bc:	0a060107 	beq	180de0 <__bss_end__+0x177568>
     9c0:	07000000 	streq	r0, [r0, -r0]
     9c4:	009f0502 	addseq	r0, pc, r2, lsl #10
     9c8:	04070000 	streq	r0, [r7], #-0
     9cc:	00004e05 	andeq	r4, r0, r5, lsl #28
     9d0:	05080700 	streq	r0, [r8, #-1792]	; 0xfffff900
     9d4:	00000049 	andeq	r0, r0, r9, asr #32
     9d8:	08080107 	stmdaeq	r8, {r0, r1, r2, r8}
     9dc:	07000000 	streq	r0, [r0, -r0]
     9e0:	00160702 	andseq	r0, r6, r2, lsl #14
     9e4:	04070000 	streq	r0, [r7], #-0
     9e8:	00003707 	andeq	r3, r0, r7, lsl #14
     9ec:	07080700 	streq	r0, [r8, -r0, lsl #14]
     9f0:	00000032 	andeq	r0, r0, r2, lsr r0
     9f4:	00005608 	andeq	r5, r0, r8, lsl #12
     9f8:	0000ab00 	andeq	sl, r0, r0, lsl #22
     9fc:	00560900 	subseq	r0, r6, r0, lsl #18
     a00:	0a000000 	beq	a08 <__code_start__-0x75f8>
     a04:	00000057 	andeq	r0, r0, r7, asr r0
     a08:	b70e1c03 	strlt	r1, [lr, -r3, lsl #24]
     a0c:	0b000000 	bleq	a14 <__code_start__-0x75ec>
     a10:	00009c04 	andeq	r9, r0, r4, lsl #24
     a14:	00560800 	subseq	r0, r6, r0, lsl #16
     a18:	00cc0000 	sbceq	r0, ip, r0
     a1c:	cc090000 	stcgt	0, cr0, [r9], {-0}
     a20:	00000000 	andeq	r0, r0, r0
     a24:	00d9040b 	sbcseq	r0, r9, fp, lsl #8
     a28:	01070000 	mrseq	r0, (UNDEF: 7)
     a2c:	00001108 	andeq	r1, r0, r8, lsl #2
     a30:	00d20c00 	sbcseq	r0, r2, r0, lsl #24
     a34:	d90a0000 	stmdble	sl, {}	; <UNPREDICTABLE>
     a38:	03000002 	movweq	r0, #2
     a3c:	00ea0e21 	rsceq	r0, sl, r1, lsr #28
     a40:	040b0000 	streq	r0, [fp], #-0
     a44:	000000bd 	strheq	r0, [r0], -sp
     a48:	00023c0d 	andeq	r3, r2, sp, lsl #24
     a4c:	05060100 	streq	r0, [r6, #-256]	; 0xffffff00
     a50:	00000056 	andeq	r0, r0, r6, asr r0
     a54:	000083b8 			; <UNDEFINED> instruction: 0x000083b8
     a58:	00000058 	andeq	r0, r0, r8, asr r0
     a5c:	01839c01 	orreq	r9, r3, r1, lsl #24
     a60:	660e0000 	strvs	r0, [lr], -r0
     a64:	0100746d 	tsteq	r0, sp, ror #8
     a68:	00cc1806 	sbceq	r1, ip, r6, lsl #16
     a6c:	91020000 	mrsls	r0, (UNDEF: 2)
     a70:	62100f70 	andsvs	r0, r0, #112, 30	; 0x1c0
     a74:	01006675 	tsteq	r0, r5, ror r6
     a78:	01831108 	orreq	r1, r3, r8, lsl #2
     a7c:	03050000 	movweq	r0, #20480	; 0x5000
     a80:	00009474 	andeq	r9, r0, r4, ror r4
     a84:	00023411 	andeq	r3, r2, r1, lsl r4
     a88:	0d090100 	stfeqs	f0, [r9, #-0]
     a8c:	0000004a 	andeq	r0, r0, sl, asr #32
     a90:	125c9102 	subsne	r9, ip, #-2147483648	; 0x80000000
     a94:	01007a73 	tsteq	r0, r3, ror sl
     a98:	00560d0c 	subseq	r0, r6, ip, lsl #26
     a9c:	03430000 	movteq	r0, #12288	; 0x3000
     aa0:	033d0000 	teqeq	sp, #0, 0
     aa4:	e0130000 	ands	r0, r3, r0
     aa8:	94000083 	strls	r0, [r0], #-131	; 0xffffff7d
     aac:	76000001 	strvc	r0, [r0], -r1
     ab0:	14000001 	strne	r0, [r0], #-1
     ab4:	75025001 	strvc	r5, [r2, #-1]
     ab8:	51011400 	tstpl	r1, r0, lsl #8
     abc:	04000a03 	streq	r0, [r0], #-2563	; 0xfffff5fd
     ac0:	03520114 	cmpeq	r2, #5
     ac4:	14064891 	strne	r4, [r6], #-2193	; 0xfffff76f
     ac8:	91025301 	tstls	r2, r1, lsl #6
     acc:	f415004c 			; <UNDEFINED> instruction: 0xf415004c
     ad0:	14000083 	strne	r0, [r0], #-131	; 0xffffff7d
     ad4:	75025001 	strvc	r5, [r2, #-1]
     ad8:	16000000 	strne	r0, [r0], -r0
     adc:	000000d2 	ldrdeq	r0, [r0], -r2
     ae0:	00000194 	muleq	r0, r4, r1
     ae4:	00005d17 	andeq	r5, r0, r7, lsl sp
     ae8:	0003ff00 	andeq	pc, r3, r0, lsl #30
     aec:	00023918 	andeq	r3, r2, r8, lsl r9
     af0:	00023900 	andeq	r3, r2, r0, lsl #18
     af4:	05020500 	streq	r0, [r2, #-1280]	; 0xfffffb00
     af8:	00014900 	andeq	r4, r1, r0, lsl #18
     afc:	b8000400 	stmdalt	r0, {sl}
     b00:	04000003 	streq	r0, [r0], #-3
     b04:	0000c001 	andeq	ip, r0, r1
     b08:	02b50c00 	adcseq	r0, r5, #0, 24
     b0c:	02710000 	rsbseq	r0, r1, #0, 0
     b10:	84100000 	ldrhi	r0, [r0], #-0
     b14:	003c0000 	eorseq	r0, ip, r0
     b18:	04760000 	ldrbteq	r0, [r6], #-0
     b1c:	04020000 	streq	r0, [r2], #-0
     b20:	746e6905 	strbtvc	r6, [lr], #-2309	; 0xfffff6fb
     b24:	07040300 	streq	r0, [r4, -r0, lsl #6]
     b28:	0000003c 	andeq	r0, r0, ip, lsr r0
     b2c:	0a060103 	beq	180f40 <__bss_end__+0x1776c8>
     b30:	03000000 	movweq	r0, #0
     b34:	009f0502 	addseq	r0, pc, r2, lsl #10
     b38:	04030000 	streq	r0, [r3], #-0
     b3c:	00004e05 	andeq	r4, r0, r5, lsl #28
     b40:	05080300 	streq	r0, [r8, #-768]	; 0xfffffd00
     b44:	00000049 	andeq	r0, r0, r9, asr #32
     b48:	08080103 	stmdaeq	r8, {r0, r1, r8}
     b4c:	03000000 	movweq	r0, #0
     b50:	00160702 	andseq	r0, r6, r2, lsl #14
     b54:	04030000 	streq	r0, [r3], #-0
     b58:	00003707 	andeq	r3, r0, r7, lsl #14
     b5c:	07080300 	streq	r0, [r8, -r0, lsl #6]
     b60:	00000032 	andeq	r0, r0, r2, lsr r0
     b64:	00002504 	andeq	r2, r0, r4, lsl #10
     b68:	00007a00 	andeq	r7, r0, r0, lsl #20
     b6c:	00250500 	eoreq	r0, r5, r0, lsl #10
     b70:	06000000 	streq	r0, [r0], -r0
     b74:	00000057 	andeq	r0, r0, r7, asr r0
     b78:	860e1c02 	strhi	r1, [lr], -r2, lsl #24
     b7c:	07000000 	streq	r0, [r0, -r0]
     b80:	00006b04 	andeq	r6, r0, r4, lsl #22
     b84:	00250400 	eoreq	r0, r5, r0, lsl #8
     b88:	009b0000 	addseq	r0, fp, r0
     b8c:	9b050000 	blls	140b94 <__bss_end__+0x13731c>
     b90:	00000000 	andeq	r0, r0, r0
     b94:	00a80407 	adceq	r0, r8, r7, lsl #8
     b98:	01030000 	mrseq	r0, (UNDEF: 3)
     b9c:	00001108 	andeq	r1, r0, r8, lsl #2
     ba0:	00a10800 	adceq	r0, r1, r0, lsl #16
     ba4:	d9060000 	stmdble	r6, {}	; <UNPREDICTABLE>
     ba8:	02000002 	andeq	r0, r0, #2, 0
     bac:	00b90e21 	adcseq	r0, r9, r1, lsr #28
     bb0:	04070000 	streq	r0, [r7], #-0
     bb4:	0000008c 	andeq	r0, r0, ip, lsl #1
     bb8:	00007a09 	andeq	r7, r0, r9, lsl #20
     bbc:	07060100 	streq	r0, [r6, -r0, lsl #2]
     bc0:	94680305 	strbtls	r0, [r8], #-773	; 0xfffffcfb
     bc4:	a80a0000 	stmdage	sl, {}	; <UNPREDICTABLE>
     bc8:	01000002 	tsteq	r0, r2
     bcc:	843c060b 	ldrthi	r0, [ip], #-1547	; 0xfffff9f5
     bd0:	00100000 	andseq	r0, r0, r0
     bd4:	9c010000 	stcls	0, cr0, [r1], {-0}
     bd8:	000000f1 	strdeq	r0, [r0], -r1
     bdc:	0070660b 	rsbseq	r6, r0, fp, lsl #12
     be0:	86190b01 	ldrhi	r0, [r9], -r1, lsl #22
     be4:	01000000 	mrseq	r0, (UNDEF: 0)
     be8:	b00c0050 	andlt	r0, ip, r0, asr r0
     bec:	01000001 	tsteq	r0, r1
     bf0:	84240608 	strthi	r0, [r4], #-1544	; 0xfffff9f8
     bf4:	00180000 	andseq	r0, r8, r0
     bf8:	9c010000 	stcls	0, cr0, [r1], {-0}
     bfc:	0002970d 	andeq	r9, r2, sp, lsl #14
     c00:	0c030100 	stfeqs	f0, [r3], {-0}
     c04:	00000025 	andeq	r0, r0, r5, lsr #32
     c08:	00008410 	andeq	r8, r0, r0, lsl r4
     c0c:	00000014 	andeq	r0, r0, r4, lsl r0
     c10:	01409c01 	cmpeq	r0, r1, lsl #24
     c14:	630e0000 	movwvs	r0, #57344	; 0xe000
     c18:	21030100 	mrscs	r0, (UNDEF: 19)
     c1c:	00000025 	andeq	r0, r0, r5, lsr #32
     c20:	00000370 	andeq	r0, r0, r0, ror r3
     c24:	0000036c 	andeq	r0, r0, ip, ror #6
     c28:	00841c0f 	addeq	r1, r4, pc, lsl #24
     c2c:	00014000 	andeq	r4, r1, r0
     c30:	50011000 	andpl	r1, r1, r0
     c34:	00007402 	andeq	r7, r0, r2, lsl #8
     c38:	02c61100 	sbceq	r1, r6, #0
     c3c:	02c60000 	sbceq	r0, r6, #0, 0
     c40:	3b020000 	blcc	80c48 <__bss_end__+0x773d0>
     c44:	00f30006 	rscseq	r0, r3, r6
     c48:	00040000 	andeq	r0, r4, r0
     c4c:	000004c7 	andeq	r0, r0, r7, asr #9
     c50:	00c00104 	sbceq	r0, r0, r4, lsl #2
     c54:	de0c0000 	cdple	0, 0, cr0, cr12, cr0, {0}
     c58:	71000002 	tstvc	r0, r2
     c5c:	4c000002 	stcmi	0, cr0, [r0], {2}
     c60:	34000084 	strcc	r0, [r0], #-132	; 0xffffff7c
     c64:	17000000 	strne	r0, [r0, -r0]
     c68:	02000005 	andeq	r0, r0, #5, 0
     c6c:	6e690504 	cdpvs	5, 6, cr0, cr9, cr4, {0}
     c70:	04030074 	streq	r0, [r3], #-116	; 0xffffff8c
     c74:	00003c07 	andeq	r3, r0, r7, lsl #24
     c78:	06010300 	streq	r0, [r1], -r0, lsl #6
     c7c:	0000000a 	andeq	r0, r0, sl
     c80:	9f050203 	svcls	0x00050203
     c84:	03000000 	movweq	r0, #0
     c88:	004e0504 	subeq	r0, lr, r4, lsl #10
     c8c:	08030000 	stmdaeq	r3, {}	; <UNPREDICTABLE>
     c90:	00004905 	andeq	r4, r0, r5, lsl #18
     c94:	08010300 	stmdaeq	r1, {r8, r9}
     c98:	00000008 	andeq	r0, r0, r8
     c9c:	16070203 	strne	r0, [r7], -r3, lsl #4
     ca0:	03000000 	movweq	r0, #0
     ca4:	00370704 	eorseq	r0, r7, r4, lsl #14
     ca8:	08030000 	stmdaeq	r3, {}	; <UNPREDICTABLE>
     cac:	00003207 	andeq	r3, r0, r7, lsl #4
     cb0:	00250400 	eoreq	r0, r5, r0, lsl #8
     cb4:	007a0000 	rsbseq	r0, sl, r0
     cb8:	25050000 	strcs	r0, [r5, #-0]
     cbc:	00000000 	andeq	r0, r0, r0
     cc0:	00005706 	andeq	r5, r0, r6, lsl #14
     cc4:	0e1c0200 	cdpeq	2, 1, cr0, cr12, cr0, {0}
     cc8:	00000086 	andeq	r0, r0, r6, lsl #1
     ccc:	006b0407 	rsbeq	r0, fp, r7, lsl #8
     cd0:	25040000 	strcs	r0, [r4, #-0]
     cd4:	9b000000 	blls	cdc <__code_start__-0x7324>
     cd8:	05000000 	streq	r0, [r0, #-0]
     cdc:	0000009b 	muleq	r0, fp, r0
     ce0:	a8040700 	stmdage	r4, {r8, r9, sl}
     ce4:	03000000 	movweq	r0, #0
     ce8:	00110801 	andseq	r0, r1, r1, lsl #16
     cec:	a1080000 	mrsge	r0, (UNDEF: 8)
     cf0:	06000000 	streq	r0, [r0], -r0
     cf4:	000002d9 	ldrdeq	r0, [r0], -r9
     cf8:	b90e2102 	stmdblt	lr, {r1, r8, sp}
     cfc:	07000000 	streq	r0, [r0, -r0]
     d00:	00008c04 	andeq	r8, r0, r4, lsl #24
     d04:	00ad0900 	adceq	r0, sp, r0, lsl #18
     d08:	0c010000 	stceq	0, cr0, [r1], {-0}
     d0c:	6c030507 	cfstr32vs	mvfx0, [r3], {7}
     d10:	0a000094 	beq	f68 <__code_start__-0x7098>
     d14:	000002d0 	ldrdeq	r0, [r0], -r0	; <UNPREDICTABLE>
     d18:	25050401 	strcs	r0, [r5, #-1025]	; 0xfffffbff
     d1c:	4c000000 	stcmi	0, cr0, [r0], {-0}
     d20:	34000084 	strcc	r0, [r0], #-132	; 0xffffff7c
     d24:	01000000 	mrseq	r0, (UNDEF: 0)
     d28:	00700b9c 			; <UNDEFINED> instruction: 0x00700b9c
     d2c:	9b1f0401 	blls	7c1d38 <__bss_end__+0x7b84c0>
     d30:	92000000 	andls	r0, r0, #0, 0
     d34:	8e000003 	cdphi	0, 0, cr0, cr0, cr3, {0}
     d38:	00000003 	andeq	r0, r0, r3
     d3c:	000a9500 	andeq	r9, sl, r0, lsl #10
     d40:	65000400 	strvs	r0, [r0, #-1024]	; 0xfffffc00
     d44:	04000005 	streq	r0, [r0], #-5
     d48:	0000c001 	andeq	ip, r0, r1
     d4c:	02fd0c00 	rscseq	r0, sp, #0, 24
     d50:	02710000 	rsbseq	r0, r1, #0, 0
     d54:	84800000 	strhi	r0, [r0], #0
     d58:	07200000 	streq	r0, [r0, -r0]!
     d5c:	05c50000 	strbeq	r0, [r5]
     d60:	04020000 	streq	r0, [r2], #-0
     d64:	746e6905 	strbtvc	r6, [lr], #-2309	; 0xfffff6fb
     d68:	07040300 	streq	r0, [r4, -r0, lsl #6]
     d6c:	0000003c 	andeq	r0, r0, ip, lsr r0
     d70:	0a060103 	beq	181184 <__bss_end__+0x17790c>
     d74:	03000000 	movweq	r0, #0
     d78:	009f0502 	addseq	r0, pc, r2, lsl #10
     d7c:	04030000 	streq	r0, [r3], #-0
     d80:	00004e05 	andeq	r4, r0, r5, lsl #28
     d84:	05080300 	streq	r0, [r8, #-768]	; 0xfffffd00
     d88:	00000049 	andeq	r0, r0, r9, asr #32
     d8c:	08080103 	stmdaeq	r8, {r0, r1, r8}
     d90:	03000000 	movweq	r0, #0
     d94:	00160702 	andseq	r0, r6, r2, lsl #14
     d98:	54040000 	strpl	r0, [r4], #-0
     d9c:	02000003 	andeq	r0, r0, #3, 0
     da0:	00691934 	rsbeq	r1, r9, r4, lsr r9
     da4:	04030000 	streq	r0, [r3], #-0
     da8:	00003707 	andeq	r3, r0, r7, lsl #14
     dac:	02f40400 	rscseq	r0, r4, #0, 8
     db0:	37020000 	strcc	r0, [r2, -r0]
     db4:	00007c19 	andeq	r7, r0, r9, lsl ip
     db8:	07080300 	streq	r0, [r8, -r0, lsl #6]
     dbc:	00000032 	andeq	r0, r0, r2, lsr r0
     dc0:	00002505 	andeq	r2, r0, r5, lsl #10
     dc4:	00009200 	andeq	r9, r0, r0, lsl #4
     dc8:	00250600 	eoreq	r0, r5, r0, lsl #12
     dcc:	07000000 	streq	r0, [r0, -r0]
     dd0:	00000057 	andeq	r0, r0, r7, asr r0
     dd4:	9e0e1c03 	cdpls	12, 0, cr1, cr14, cr3, {0}
     dd8:	08000000 	stmdaeq	r0, {}	; <UNPREDICTABLE>
     ddc:	00008304 	andeq	r8, r0, r4, lsl #6
     de0:	00250500 	eoreq	r0, r5, r0, lsl #10
     de4:	00b30000 	adcseq	r0, r3, r0
     de8:	b3060000 	movwlt	r0, #24576	; 0x6000
     dec:	00000000 	andeq	r0, r0, r0
     df0:	00c00408 	sbceq	r0, r0, r8, lsl #8
     df4:	01030000 	mrseq	r0, (UNDEF: 3)
     df8:	00001108 	andeq	r1, r0, r8, lsl #2
     dfc:	00b90900 	adcseq	r0, r9, r0, lsl #18
     e00:	d9070000 	stmdble	r7, {}	; <UNPREDICTABLE>
     e04:	03000002 	movweq	r0, #2
     e08:	00d10e21 	sbcseq	r0, r1, r1, lsr #28
     e0c:	04080000 	streq	r0, [r8], #-0
     e10:	000000a4 	andeq	r0, r0, r4, lsr #1
     e14:	00031007 	andeq	r1, r3, r7
     e18:	0d0b0400 	cfstrseq	mvf0, [fp, #-0]
     e1c:	000000b9 	strheq	r0, [r0], -r9
     e20:	00038a07 	andeq	r8, r3, r7, lsl #20
     e24:	0d0c0400 	cfstrseq	mvf0, [ip, #-0]
     e28:	000000b9 	strheq	r0, [r0], -r9
     e2c:	00031f07 	andeq	r1, r3, r7, lsl #30
     e30:	0d0d0400 	cfstrseq	mvf0, [sp, #-0]
     e34:	000000b9 	strheq	r0, [r0], -r9
     e38:	00034807 	andeq	r4, r3, r7, lsl #16
     e3c:	0d0e0400 	cfstrseq	mvf0, [lr, #-0]
     e40:	000000b9 	strheq	r0, [r0], -r9
     e44:	0003b307 	andeq	fp, r3, r7, lsl #6
     e48:	0d0f0400 	cfstrseq	mvf0, [pc, #-0]	; e50 <__code_start__-0x71b0>
     e4c:	000000b9 	strheq	r0, [r0], -r9
     e50:	00033307 	andeq	r3, r3, r7, lsl #6
     e54:	0d100400 	cfldrseq	mvf0, [r0, #-0]
     e58:	000000b9 	strheq	r0, [r0], -r9
     e5c:	0003c207 	andeq	ip, r3, r7, lsl #4
     e60:	0d110400 	cfldrseq	mvf0, [r1, #-0]
     e64:	000000b9 	strheq	r0, [r0], -r9
     e68:	00021807 	andeq	r1, r2, r7, lsl #16
     e6c:	0d120400 	cfldrseq	mvf0, [r2, #-0]
     e70:	000000b9 	strheq	r0, [r0], -r9
     e74:	00024304 	andeq	r4, r2, r4, lsl #6
     e78:	1b280500 	blne	a02280 <__bss_end__+0x9f8a08>
     e7c:	00000143 	andeq	r0, r0, r3, asr #2
     e80:	0002670a 	andeq	r6, r2, sl, lsl #14
     e84:	00060400 	andeq	r0, r6, r0, lsl #8
     e88:	0000015a 	andeq	r0, r0, sl, asr r1
     e8c:	0002520b 	andeq	r5, r2, fp, lsl #4
     e90:	00015a00 	andeq	r5, r1, r0, lsl #20
     e94:	0c000000 	stceq	0, cr0, [r0], {-0}
     e98:	02690404 	rsbeq	r0, r9, #4, 8	; 0x4000000
     e9c:	63050000 	movwvs	r0, #20480	; 0x5000
     ea0:	00013718 	andeq	r3, r1, r8, lsl r7
     ea4:	02390d00 	eorseq	r0, r9, #0, 26
     ea8:	81010000 	mrshi	r0, (UNDEF: 1)
     eac:	00002505 	andeq	r2, r0, r5, lsl #10
     eb0:	00870800 	addeq	r0, r7, r0, lsl #16
     eb4:	00049800 	andeq	r9, r4, r0, lsl #16
     eb8:	d59c0100 	ldrle	r0, [ip, #256]	; 0x100
     ebc:	0e000006 	cdpeq	0, 0, cr0, cr0, cr6, {0}
     ec0:	00667562 	rsbeq	r7, r6, r2, ror #10
     ec4:	d5158101 	ldrle	r8, [r5, #-257]	; 0xfffffeff
     ec8:	b6000006 	strlt	r0, [r0], -r6
     ecc:	b0000003 	andlt	r0, r0, r3
     ed0:	0e000003 	cdpeq	0, 0, cr0, cr0, cr3, {0}
     ed4:	8101006e 	tsthi	r1, lr, rrx
     ed8:	0000251e 	andeq	r2, r0, lr, lsl r5
     edc:	0003e800 	andeq	lr, r3, r0, lsl #16
     ee0:	0003e200 	andeq	lr, r3, r0, lsl #4
     ee4:	6d660e00 	stclvs	14, cr0, [r6, #-0]
     ee8:	81010074 	tsthi	r1, r4, ror r0
     eec:	0000b32d 	andeq	fp, r0, sp, lsr #6
     ef0:	00042200 	andeq	r2, r4, r0, lsl #4
     ef4:	00041600 	andeq	r1, r4, r0, lsl #12
     ef8:	02340f00 	eorseq	r0, r4, #0, 30
     efc:	81010000 	mrshi	r0, (UNDEF: 1)
     f00:	00015c3a 	andeq	r5, r1, sl, lsr ip
     f04:	d4910300 	ldrle	r0, [r1], #768	; 0x300
     f08:	0070107d 	rsbseq	r1, r0, sp, ror r0
     f0c:	d5088201 	strle	r8, [r8, #-513]	; 0xfffffdff
     f10:	80000006 	andhi	r0, r0, r6
     f14:	6c000004 	stcvs	0, cr0, [r0], {4}
     f18:	10000004 	andne	r0, r0, r4
     f1c:	82010065 	andhi	r0, r1, #101, 0	; 0x65
     f20:	0006d512 	andeq	sp, r6, r2, lsl r5
     f24:	00050200 	andeq	r0, r5, r0, lsl #4
     f28:	0004fe00 	andeq	pc, r4, r0, lsl #28
     f2c:	30781000 	rsbscc	r1, r8, r0
     f30:	0e830100 	rmfeqs	f0, f3, f0
     f34:	0000005d 	andeq	r0, r0, sp, asr r0
     f38:	0000052f 	andeq	r0, r0, pc, lsr #10
     f3c:	00000529 	andeq	r0, r0, r9, lsr #10
     f40:	00317811 	eorseq	r7, r1, r1, lsl r8
     f44:	5d118301 	ldcpl	3, cr8, [r1, #-4]
     f48:	12000000 	andne	r0, r0, #0, 0
     f4c:	0000036c 	andeq	r0, r0, ip, ror #6
     f50:	b3118601 	tstlt	r1, #1048576	; 0x100000
     f54:	5c000000 	stcpl	0, cr0, [r0], {-0}
     f58:	58000005 	stmdapl	r0, {r0, r2}
     f5c:	13000005 	movwne	r0, #5
     f60:	000001ce 	andeq	r0, r0, lr, asr #3
     f64:	000006eb 	andeq	r0, r0, fp, ror #13
     f68:	94500305 	ldrbls	r0, [r0], #-773	; 0xfffffcfb
     f6c:	70140000 	andsvc	r0, r4, r0
     f70:	e8000087 	stmda	r0, {r0, r1, r2, r7}
     f74:	10000003 	andne	r0, r0, r3
     f78:	91010073 	tstls	r1, r3, ror r0
     f7c:	0006d50a 	andeq	sp, r6, sl, lsl #10
     f80:	00059200 	andeq	r9, r5, r0, lsl #4
     f84:	00057c00 	andeq	r7, r5, r0, lsl #24
     f88:	756e1500 	strbvc	r1, [lr, #-1280]!	; 0xfffffb00
     f8c:	9101006d 	tstls	r1, sp, rrx
     f90:	0006f00d 	andeq	pc, r6, sp
     f94:	d8910300 	ldmle	r1, {r8, r9}
     f98:	03cf167d 	biceq	r1, pc, #131072000	; 0x7d00000
     f9c:	91010000 	mrsls	r0, (UNDEF: 1)
     fa0:	0006f017 	andeq	pc, r6, r7, lsl r0	; <UNPREDICTABLE>
     fa4:	d8910300 	ldmle	r1, {r8, r9}
     fa8:	032d127e 			; <UNDEFINED> instruction: 0x032d127e
     fac:	92010000 	andls	r0, r1, #0, 0
     fb0:	00002c0d 	andeq	r2, r0, sp, lsl #24
     fb4:	00061900 	andeq	r1, r6, r0, lsl #18
     fb8:	00061300 	andeq	r1, r6, r0, lsl #6
     fbc:	88381700 	ldmdahi	r8!, {r8, r9, sl, ip}
     fc0:	018c0000 	orreq	r0, ip, r0
     fc4:	04f70000 	ldrbteq	r0, [r7], #0
     fc8:	74100000 	ldrvc	r0, [r0], #-0
     fcc:	9e010079 	mcrls	0, 0, r0, cr1, cr9, {3}
     fd0:	0000b31d 	andeq	fp, r0, sp, lsl r3
     fd4:	00064d00 	andeq	r4, r6, r0, lsl #26
     fd8:	00064300 	andeq	r4, r6, r0, lsl #6
     fdc:	78781100 	ldmdavc	r8!, {r8, ip}^
     fe0:	1aa20100 	bne	fe8813e8 <__bss_end__+0xfe877b70>
     fe4:	00000070 	andeq	r0, r0, r0, ror r0
     fe8:	00884818 	addeq	r4, r8, r8, lsl r8
     fec:	000a5000 	andeq	r5, sl, r0
     ff0:	0002cd00 	andeq	ip, r2, r0, lsl #26
     ff4:	50011900 	andpl	r1, r1, r0, lsl #18
     ff8:	19007602 	stmdbne	r0, {r1, r9, sl, ip, sp, lr}
     ffc:	03055101 	movweq	r5, #20737	; 0x5101
    1000:	00009354 	andeq	r9, r0, r4, asr r3
    1004:	01520119 	cmpeq	r2, r9, lsl r1
    1008:	60180033 	andsvs	r0, r8, r3, lsr r0
    100c:	50000088 	andpl	r0, r0, r8, lsl #1
    1010:	ef00000a 	svc	0x0000000a
    1014:	19000002 	stmdbne	r0, {r1}
    1018:	76025001 	strvc	r5, [r2], -r1
    101c:	51011900 	tstpl	r1, r0, lsl #18
    1020:	93580305 	cmpls	r8, #335544320	; 0x14000000
    1024:	01190000 	tsteq	r9, r0
    1028:	00330152 	eorseq	r0, r3, r2, asr r1
    102c:	00889818 	addeq	r9, r8, r8, lsl r8
    1030:	000a5000 	andeq	r5, sl, r0
    1034:	00031100 	andeq	r1, r3, r0, lsl #2
    1038:	50011900 	andpl	r1, r1, r0, lsl #18
    103c:	19007602 	stmdbne	r0, {r1, r9, sl, ip, sp, lr}
    1040:	03055101 	movweq	r5, #20737	; 0x5101
    1044:	00009354 	andeq	r9, r0, r4, asr r3
    1048:	01520119 	cmpeq	r2, r9, lsl r1
    104c:	b0180033 	andslt	r0, r8, r3, lsr r0
    1050:	50000088 	andpl	r0, r0, r8, lsl #1
    1054:	3300000a 	movwcc	r0, #10
    1058:	19000003 	stmdbne	r0, {r0, r1}
    105c:	76025001 	strvc	r5, [r2], -r1
    1060:	51011900 	tstpl	r1, r0, lsl #18
    1064:	93580305 	cmpls	r8, #335544320	; 0x14000000
    1068:	01190000 	tsteq	r9, r0
    106c:	00330152 	eorseq	r0, r3, r2, asr r1
    1070:	0088d818 	addeq	sp, r8, r8, lsl r8
    1074:	00070000 	andeq	r0, r7, r0
    1078:	00036700 	andeq	r6, r3, r0, lsl #14
    107c:	50011900 	andpl	r1, r1, r0, lsl #18
    1080:	01193a01 	tsteq	r9, r1, lsl #20
    1084:	d0910351 	addsle	r0, r1, r1, asr r3
    1088:	5201197d 	andpl	r1, r1, #2048000	; 0x1f4000
    108c:	19800802 	stmibne	r0, {r1, fp}
    1090:	77025301 	strvc	r5, [r2, -r1, lsl #6]
    1094:	7d021900 	vstrvc.16	s2, [r2, #-0]	; <UNPREDICTABLE>
    1098:	00750200 	rsbseq	r0, r5, r0, lsl #4
    109c:	047d0219 	ldrbteq	r0, [sp], #-537	; 0xfffffde7
    10a0:	00007602 	andeq	r7, r0, r2, lsl #12
    10a4:	0088f818 	addeq	pc, r8, r8, lsl r8	; <UNPREDICTABLE>
    10a8:	00070000 	andeq	r0, r7, r0
    10ac:	00039b00 	andeq	r9, r3, r0, lsl #22
    10b0:	50011900 	andpl	r1, r1, r0, lsl #18
    10b4:	01193a01 	tsteq	r9, r1, lsl #20
    10b8:	d0910351 	addsle	r0, r1, r1, asr r3
    10bc:	5201197e 	andpl	r1, r1, #2064384	; 0x1f8000
    10c0:	19800802 	stmibne	r0, {r1, fp}
    10c4:	7a025301 	bvc	95cd0 <__bss_end__+0x8c458>
    10c8:	7d021900 	vstrvc.16	s2, [r2, #-0]	; <UNPREDICTABLE>
    10cc:	00750200 	rsbseq	r0, r5, r0, lsl #4
    10d0:	047d0219 	ldrbteq	r0, [sp], #-537	; 0xfffffde7
    10d4:	00007602 	andeq	r7, r0, r2, lsl #12
    10d8:	00890418 	addeq	r0, r9, r8, lsl r4
    10dc:	000a5c00 	andeq	r5, sl, r0, lsl #24
    10e0:	0003b900 	andeq	fp, r3, r0, lsl #18
    10e4:	50011900 	andpl	r1, r1, r0, lsl #18
    10e8:	7dd09103 	ldfvcp	f1, [r0, #12]
    10ec:	05510119 	ldrbeq	r0, [r1, #-281]	; 0xfffffee7
    10f0:	00931803 	addseq	r1, r3, r3, lsl #16
    10f4:	18180000 	ldmdane	r8, {}	; <UNPREDICTABLE>
    10f8:	68000089 	stmdavs	r0, {r0, r3, r7}
    10fc:	d500000a 	strle	r0, [r0, #-10]
    1100:	19000003 	stmdbne	r0, {r0, r1}
    1104:	91035001 	tstls	r3, r1
    1108:	01197dd0 			; <UNDEFINED> instruction: 0x01197dd0
    110c:	d0910351 	addsle	r0, r1, r1, asr r3
    1110:	3c18007e 	ldccc	0, cr0, [r8], {126}	; 0x7e
    1114:	74000089 	strvc	r0, [r0], #-137	; 0xffffff77
    1118:	0e00000a 	cdpeq	0, 0, cr0, cr0, cr10, {0}
    111c:	19000004 	stmdbne	r0, {r2}
    1120:	03055001 	movweq	r5, #20481	; 0x5001
    1124:	00009160 	andeq	r9, r0, r0, ror #2
    1128:	05510119 	ldrbeq	r0, [r1, #-281]	; 0xfffffee7
    112c:	00930403 	addseq	r0, r3, r3, lsl #8
    1130:	52011900 	andpl	r1, r1, #0, 18
    1134:	94500305 	ldrbls	r0, [r0], #-773	; 0xfffffcfb
    1138:	01190000 	tsteq	r9, r0
    113c:	9f080253 	svcls	0x00080253
    1140:	007d0219 	rsbseq	r0, sp, r9, lsl r2
    1144:	935c0305 	cmpls	ip, #335544320	; 0x14000000
    1148:	1a000000 	bne	1150 <__code_start__-0x6eb0>
    114c:	00008940 	andeq	r8, r0, r0, asr #18
    1150:	00000a80 	andeq	r0, r0, r0, lsl #21
    1154:	00896018 	addeq	r6, r9, r8, lsl r0
    1158:	00070000 	andeq	r0, r7, r0
    115c:	00044b00 	andeq	r4, r4, r0, lsl #22
    1160:	50011900 	andpl	r1, r1, r0, lsl #18
    1164:	01194001 	tsteq	r9, r1
    1168:	d0910351 	addsle	r0, r1, r1, asr r3
    116c:	5201197d 	andpl	r1, r1, #2048000	; 0x1f4000
    1170:	19800802 	stmibne	r0, {r1, fp}
    1174:	77025301 	strvc	r5, [r2, -r1, lsl #6]
    1178:	7d021900 	vstrvc.16	s2, [r2, #-0]	; <UNPREDICTABLE>
    117c:	00750200 	rsbseq	r0, r5, r0, lsl #4
    1180:	047d0219 	ldrbteq	r0, [sp], #-537	; 0xfffffde7
    1184:	00007602 	andeq	r7, r0, r2, lsl #12
    1188:	00898018 	addeq	r8, r9, r8, lsl r0
    118c:	00070000 	andeq	r0, r7, r0
    1190:	00047f00 	andeq	r7, r4, r0, lsl #30
    1194:	50011900 	andpl	r1, r1, r0, lsl #18
    1198:	01194001 	tsteq	r9, r1
    119c:	d0910351 	addsle	r0, r1, r1, asr r3
    11a0:	5201197e 	andpl	r1, r1, #2064384	; 0x1f8000
    11a4:	19800802 	stmibne	r0, {r1, fp}
    11a8:	7a025301 	bvc	95db4 <__bss_end__+0x8c53c>
    11ac:	7d021900 	vstrvc.16	s2, [r2, #-0]	; <UNPREDICTABLE>
    11b0:	00750200 	rsbseq	r0, r5, r0, lsl #4
    11b4:	047d0219 	ldrbteq	r0, [sp], #-537	; 0xfffffde7
    11b8:	00007602 	andeq	r7, r0, r2, lsl #12
    11bc:	00898c18 	addeq	r8, r9, r8, lsl ip
    11c0:	000a8c00 	andeq	r8, sl, r0, lsl #24
    11c4:	00049b00 	andeq	r9, r4, r0, lsl #22
    11c8:	50011900 	andpl	r1, r1, r0, lsl #18
    11cc:	7dd09103 	ldfvcp	f1, [r0, #12]
    11d0:	03510119 	cmpeq	r1, #1073741830	; 0x40000006
    11d4:	007ed291 			; <UNDEFINED> instruction: 0x007ed291
    11d8:	0089a018 	addeq	sl, r9, r8, lsl r0
    11dc:	000a8c00 	andeq	r8, sl, r0, lsl #24
    11e0:	0004b700 	andeq	fp, r4, r0, lsl #14
    11e4:	50011900 	andpl	r1, r1, r0, lsl #18
    11e8:	7dd09103 	ldfvcp	f1, [r0, #12]
    11ec:	03510119 	cmpeq	r1, #1073741830	; 0x40000006
    11f0:	007ed091 			; <UNDEFINED> instruction: 0x007ed091
    11f4:	0089c018 	addeq	ip, r9, r8, lsl r0
    11f8:	000a7400 	andeq	r7, sl, r0, lsl #8
    11fc:	0004ed00 	andeq	lr, r4, r0, lsl #26
    1200:	50011900 	andpl	r1, r1, r0, lsl #18
    1204:	93980305 	orrsls	r0, r8, #335544320	; 0x14000000
    1208:	01190000 	tsteq	r9, r0
    120c:	04030551 	streq	r0, [r3], #-1361	; 0xfffffaaf
    1210:	19000093 	stmdbne	r0, {r0, r1, r4, r7}
    1214:	03055201 	movweq	r5, #20993	; 0x5201
    1218:	00009450 	andeq	r9, r0, r0, asr r4
    121c:	02530119 	subseq	r0, r3, #1073741830	; 0x40000006
    1220:	0219b608 	andseq	fp, r9, #8, 12	; 0x800000
    1224:	7602007d 			; <UNDEFINED> instruction: 0x7602007d
    1228:	c41a0000 	ldrgt	r0, [sl], #-0
    122c:	80000089 	andhi	r0, r0, r9, lsl #1
    1230:	0000000a 	andeq	r0, r0, sl
    1234:	00878818 	addeq	r8, r7, r8, lsl r8
    1238:	00097e00 	andeq	r7, r9, r0, lsl #28
    123c:	00050b00 	andeq	r0, r5, r0, lsl #22
    1240:	50011900 	andpl	r1, r1, r0, lsl #18
    1244:	00007702 	andeq	r7, r0, r2, lsl #14
    1248:	00883418 	addeq	r3, r8, r8, lsl r4
    124c:	000a7400 	andeq	r7, sl, r0, lsl #8
    1250:	00054400 	andeq	r4, r5, r0, lsl #8
    1254:	50011900 	andpl	r1, r1, r0, lsl #18
    1258:	91600305 	cmnls	r0, r5, lsl #6
    125c:	01190000 	tsteq	r9, r0
    1260:	04030551 	streq	r0, [r3], #-1361	; 0xfffffaaf
    1264:	19000093 	stmdbne	r0, {r0, r1, r4, r7}
    1268:	03055201 	movweq	r5, #20993	; 0x5201
    126c:	00009450 	andeq	r9, r0, r0, asr r4
    1270:	02530119 	subseq	r0, r3, #1073741830	; 0x40000006
    1274:	02199808 	andseq	r9, r9, #8, 16	; 0x80000
    1278:	0305007d 	movweq	r0, #20605	; 0x507d
    127c:	00009348 	andeq	r9, r0, r8, asr #6
    1280:	88381a00 	ldmdahi	r8!, {r9, fp, ip}
    1284:	0a800000 	beq	fe00128c <__bss_end__+0xfdff7a14>
    1288:	d8180000 	ldmdale	r8, {}	; <UNPREDICTABLE>
    128c:	74000089 	strvc	r0, [r0], #-137	; 0xffffff77
    1290:	7c00000a 	stcvc	0, cr0, [r0], {10}
    1294:	19000005 	stmdbne	r0, {r0, r2}
    1298:	03055001 	movweq	r5, #20481	; 0x5001
    129c:	000093c0 	andeq	r9, r0, r0, asr #7
    12a0:	05510119 	ldrbeq	r0, [r1, #-281]	; 0xfffffee7
    12a4:	00930403 	addseq	r0, r3, r3, lsl #8
    12a8:	52011900 	andpl	r1, r1, #0, 18
    12ac:	94500305 	ldrbls	r0, [r0], #-773	; 0xfffffcfb
    12b0:	01190000 	tsteq	r9, r0
    12b4:	be080253 	mcrlt	2, 0, r0, cr8, cr3, {2}
    12b8:	89dc1a00 	ldmibhi	ip, {r9, fp, ip}^
    12bc:	0a800000 	beq	fe0012c4 <__bss_end__+0xfdff7a4c>
    12c0:	08180000 	ldmdaeq	r8, {}	; <UNPREDICTABLE>
    12c4:	0000008a 	andeq	r0, r0, sl, lsl #1
    12c8:	b2000007 	andlt	r0, r0, #7, 0
    12cc:	19000005 	stmdbne	r0, {r0, r2}
    12d0:	3a015001 	bcc	552dc <__bss_end__+0x4ba64>
    12d4:	03510119 	cmpeq	r1, #1073741830	; 0x40000006
    12d8:	197dd091 	ldmdbne	sp!, {r0, r4, r7, ip, lr, pc}^
    12dc:	08025201 	stmdaeq	r2, {r0, r9, ip, lr}
    12e0:	7d021980 	vstrvc.16	s2, [r2, #-256]	; 0xffffff00	; <UNPREDICTABLE>
    12e4:	00750200 	rsbseq	r0, r5, r0, lsl #4
    12e8:	047d0219 	ldrbteq	r0, [sp], #-537	; 0xfffffde7
    12ec:	18003101 	stmdane	r0, {r0, r8, ip, sp}
    12f0:	00008a40 	andeq	r8, r0, r0, asr #20
    12f4:	00000700 	andeq	r0, r0, r0, lsl #14
    12f8:	000005df 	ldrdeq	r0, [r0], -pc	; <UNPREDICTABLE>
    12fc:	01500119 	cmpeq	r0, r9, lsl r1
    1300:	5101193a 	tstpl	r1, sl, lsr r9
    1304:	7dd09103 	ldfvcp	f1, [r0, #12]
    1308:	02520119 	subseq	r0, r2, #1073741830	; 0x40000006
    130c:	02198008 	andseq	r8, r9, #8, 0
    1310:	7502007d 	strvc	r0, [r2, #-125]	; 0xffffff83
    1314:	7d021900 	vstrvc.16	s2, [r2, #-0]	; <UNPREDICTABLE>
    1318:	00300104 	eorseq	r0, r0, r4, lsl #2
    131c:	008a7418 	addeq	r7, sl, r8, lsl r4
    1320:	00070000 	andeq	r0, r7, r0
    1324:	00060c00 	andeq	r0, r6, r0, lsl #24
    1328:	50011900 	andpl	r1, r1, r0, lsl #18
    132c:	01194001 	tsteq	r9, r1
    1330:	d0910351 	addsle	r0, r1, r1, asr r3
    1334:	5201197d 	andpl	r1, r1, #2048000	; 0x1f4000
    1338:	19800802 	stmibne	r0, {r1, fp}
    133c:	02007d02 	andeq	r7, r0, #128	; 0x80
    1340:	02190075 	andseq	r0, r9, #117, 0	; 0x75
    1344:	3001047d 	andcc	r0, r1, sp, ror r4
    1348:	8aa81800 	bhi	fea07350 <__bss_end__+0xfe9fdad8>
    134c:	07000000 	streq	r0, [r0, -r0]
    1350:	06390000 	ldrteq	r0, [r9], -r0
    1354:	01190000 	tsteq	r9, r0
    1358:	19320150 	ldmdbne	r2!, {r4, r6, r8}
    135c:	91035101 	tstls	r3, r1, lsl #2
    1360:	01197dd0 			; <UNDEFINED> instruction: 0x01197dd0
    1364:	80080252 	andhi	r0, r8, r2, asr r2
    1368:	007d0219 	rsbseq	r0, sp, r9, lsl r2
    136c:	19007502 	stmdbne	r0, {r1, r8, sl, ip, sp, lr}
    1370:	01047d02 	tsteq	r4, r2, lsl #26
    1374:	f0180030 			; <UNDEFINED> instruction: 0xf0180030
    1378:	0000008a 	andeq	r0, r0, sl, lsl #1
    137c:	66000007 	strvs	r0, [r0], -r7
    1380:	19000006 	stmdbne	r0, {r1, r2}
    1384:	38015001 	stmdacc	r1, {r0, ip, lr}
    1388:	03510119 	cmpeq	r1, #1073741830	; 0x40000006
    138c:	197dd091 	ldmdbne	sp!, {r0, r4, r7, ip, lr, pc}^
    1390:	08025201 	stmdaeq	r2, {r0, r9, ip, lr}
    1394:	7d021980 	vstrvc.16	s2, [r2, #-256]	; 0xffffff00	; <UNPREDICTABLE>
    1398:	00750200 	rsbseq	r0, r5, r0, lsl #4
    139c:	047d0219 	ldrbteq	r0, [sp], #-537	; 0xfffffde7
    13a0:	18003001 	stmdane	r0, {r0, ip, sp}
    13a4:	00008b10 	andeq	r8, r0, r0, lsl fp
    13a8:	00000a74 	andeq	r0, r0, r4, ror sl
    13ac:	00000689 	andeq	r0, r0, r9, lsl #13
    13b0:	05500119 	ldrbeq	r0, [r0, #-281]	; 0xfffffee7
    13b4:	0093e803 	addseq	lr, r3, r3, lsl #16
    13b8:	51011900 	tstpl	r1, r0, lsl #18
    13bc:	19007a02 	stmdbne	r0, {r1, r9, fp, ip, sp, lr}
    13c0:	7a025201 	bvc	95bcc <__bss_end__+0x8c354>
    13c4:	201b0000 	andscs	r0, fp, r0
    13c8:	9b00008b 	blls	15fc <__code_start__-0x6a04>
    13cc:	19000006 	stmdbne	r0, {r1, r2}
    13d0:	91045001 	tstls	r4, r1
    13d4:	00067dc8 	andeq	r7, r6, r8, asr #27
    13d8:	008b3418 	addeq	r3, fp, r8, lsl r4
    13dc:	000a7400 	andeq	r7, sl, r0, lsl #8
    13e0:	0006ca00 	andeq	ip, r6, r0, lsl #20
    13e4:	50011900 	andpl	r1, r1, r0, lsl #18
    13e8:	94180305 	ldrls	r0, [r8], #-773	; 0xfffffcfb
    13ec:	01190000 	tsteq	r9, r0
    13f0:	04030551 	streq	r0, [r3], #-1361	; 0xfffffaaf
    13f4:	19000093 	stmdbne	r0, {r0, r1, r4, r7}
    13f8:	03055201 	movweq	r5, #20993	; 0x5201
    13fc:	00009450 	andeq	r9, r0, r0, asr r4
    1400:	02530119 	subseq	r0, r3, #1073741830	; 0x40000006
    1404:	1a00e208 	bne	39c2c <__bss_end__+0x303b4>
    1408:	00008b38 	andeq	r8, r0, r8, lsr fp
    140c:	00000a80 	andeq	r0, r0, r0, lsl #21
    1410:	04080000 	streq	r0, [r8], #-0
    1414:	000000b9 	strheq	r0, [r0], -r9
    1418:	0000c01c 	andeq	ip, r0, ip, lsl r0
    141c:	0006eb00 	andeq	lr, r6, r0, lsl #22
    1420:	002c1d00 	eoreq	r1, ip, r0, lsl #26
    1424:	00090000 	andeq	r0, r9, r0
    1428:	0006db09 	andeq	sp, r6, r9, lsl #22
    142c:	00b91c00 	adcseq	r1, r9, r0, lsl #24
    1430:	07000000 	streq	r0, [r0, -r0]
    1434:	2c1d0000 	ldccs	0, cr0, [sp], {-0}
    1438:	7f000000 	svcvc	0x00000000
    143c:	03971e00 	orrseq	r1, r7, #0, 28
    1440:	49010000 	stmdbmi	r1, {}	; <UNPREDICTABLE>
    1444:	0006d501 	andeq	sp, r6, r1, lsl #10
    1448:	0084f000 	addeq	pc, r4, r0
    144c:	0001b400 	andeq	fp, r1, r0, lsl #8
    1450:	699c0100 	ldmibvs	ip, {r8}
    1454:	1f000008 	svcne	0x00000008
    1458:	000003dc 	ldrdeq	r0, [r0], -ip
    145c:	2c0f4901 			; <UNDEFINED> instruction: 0x2c0f4901
    1460:	96000000 	strls	r0, [r0], -r0
    1464:	90000006 	andls	r0, r0, r6
    1468:	0e000006 	cdpeq	0, 0, cr0, cr0, cr6, {0}
    146c:	00747364 	rsbseq	r7, r4, r4, ror #6
    1470:	d51b4901 	ldrle	r4, [fp, #-2305]	; 0xfffff6ff
    1474:	d4000006 	strle	r0, [r0], #-6
    1478:	c4000006 	strgt	r0, [r0], #-6
    147c:	0e000006 	cdpeq	0, 0, cr0, cr0, cr6, {0}
    1480:	4901006e 	stmdbmi	r1, {r1, r2, r3, r5, r6}
    1484:	00002524 	andeq	r2, r0, r4, lsr #10
    1488:	00073800 	andeq	r3, r7, r0, lsl #16
    148c:	00073400 	andeq	r3, r7, r0, lsl #8
    1490:	61760e00 	cmnvs	r6, r0, lsl #28
    1494:	4901006c 	stmdbmi	r1, {r2, r3, r5, r6}
    1498:	0000252b 	andeq	r2, r0, fp, lsr #10
    149c:	00076200 	andeq	r6, r7, r0, lsl #4
    14a0:	00075600 	andeq	r5, r7, r0, lsl #12
    14a4:	032d1f00 			; <UNDEFINED> instruction: 0x032d1f00
    14a8:	49010000 	stmdbmi	r1, {}	; <UNPREDICTABLE>
    14ac:	00002534 	andeq	r2, r0, r4, lsr r5
    14b0:	0007b800 	andeq	fp, r7, r0, lsl #16
    14b4:	0007b200 	andeq	fp, r7, r0, lsl #4
    14b8:	03e10f00 	mvneq	r0, #0, 30
    14bc:	49010000 	stmdbmi	r1, {}	; <UNPREDICTABLE>
    14c0:	0000253f 	andeq	r2, r0, pc, lsr r5
    14c4:	04910200 	ldreq	r0, [r1], #512	; 0x200
    14c8:	66756215 			; <UNDEFINED> instruction: 0x66756215
    14cc:	074e0100 	strbeq	r0, [lr, -r0, lsl #2]
    14d0:	00000869 	andeq	r0, r0, r9, ror #16
    14d4:	7fa89103 	svcvc	0x00a89103
    14d8:	01007010 	tsteq	r0, r0, lsl r0
    14dc:	06d5114e 	ldrbeq	r1, [r5], lr, asr #2
    14e0:	08020000 	stmdaeq	r2, {}	; <UNPREDICTABLE>
    14e4:	07e20000 	strbeq	r0, [r2, r0]!
    14e8:	75100000 	ldrvc	r0, [r0, #-0]
    14ec:	0b4f0100 	bleq	13c18f4 <__bss_end__+0x13b807c>
    14f0:	0000002c 	andeq	r0, r0, ip, lsr #32
    14f4:	000008e8 	andeq	r0, r0, r8, ror #17
    14f8:	000008d4 	ldrdeq	r0, [r0], -r4
    14fc:	0001ce13 	andeq	ip, r1, r3, lsl lr
    1500:	00088900 	andeq	r8, r8, r0, lsl #18
    1504:	38030500 	stmdacc	r3, {r8, sl}
    1508:	17000094 			; <UNDEFINED> instruction: 0x17000094
    150c:	0000855c 	andeq	r8, r0, ip, asr r5
    1510:	00000078 	andeq	r0, r0, r8, ror r0
    1514:	000007f0 	strdeq	r0, [r0], -r0	; <UNPREDICTABLE>
    1518:	00038412 	andeq	r8, r3, r2, lsl r4
    151c:	0d540100 	ldfeqe	f0, [r4, #-0]
    1520:	0000002c 	andeq	r0, r0, ip, lsr #32
    1524:	00000969 	andeq	r0, r0, r9, ror #18
    1528:	00000961 	andeq	r0, r0, r1, ror #18
    152c:	86141800 	ldrhi	r1, [r4], -r0, lsl #16
    1530:	091b0000 	ldmdbeq	fp, {}	; <UNPREDICTABLE>
    1534:	08050000 	stmdaeq	r5, {}	; <UNPREDICTABLE>
    1538:	01190000 	tsteq	r9, r0
    153c:	a0910351 	addsge	r0, r1, r1, asr r3
    1540:	2818007f 	ldmdacs	r8, {r0, r1, r2, r3, r4, r5, r6}
    1544:	8e000086 	cdphi	0, 0, cr0, cr0, cr6, {4}
    1548:	26000008 	strcs	r0, [r0], -r8
    154c:	19000008 	stmdbne	r0, {r3}
    1550:	75025001 	strvc	r5, [r2, #-1]
    1554:	51011900 	tstpl	r1, r0, lsl #18
    1558:	19007402 	stmdbne	r0, {r1, sl, ip, sp, lr}
    155c:	91035301 	tstls	r3, r1, lsl #6
    1560:	18007fa0 	stmdane	r0, {r5, r7, r8, r9, sl, fp, ip, sp, lr}
    1564:	00008680 	andeq	r8, r0, r0, lsl #13
    1568:	00000a74 	andeq	r0, r0, r4, ror sl
    156c:	0000085f 	andeq	r0, r0, pc, asr r8
    1570:	05500119 	ldrbeq	r0, [r0, #-281]	; 0xfffffee7
    1574:	00916003 	addseq	r6, r1, r3
    1578:	51011900 	tstpl	r1, r0, lsl #18
    157c:	93040305 	movwls	r0, #17157	; 0x4305
    1580:	01190000 	tsteq	r9, r0
    1584:	38030552 	stmdacc	r3, {r1, r4, r6, r8, sl}
    1588:	19000094 	stmdbne	r0, {r2, r4, r7}
    158c:	08025301 	stmdaeq	r2, {r0, r8, r9, ip, lr}
    1590:	7d021979 	vstrvc.16	s2, [r2, #-242]	; 0xffffff0e	; <UNPREDICTABLE>
    1594:	18030500 	stmdane	r3, {r8, sl}
    1598:	00000093 	muleq	r0, r3, r0
    159c:	0086841a 	addeq	r8, r6, sl, lsl r4
    15a0:	000a8000 	andeq	r8, sl, r0
    15a4:	b91c0000 	ldmdblt	ip, {}	; <UNPREDICTABLE>
    15a8:	79000000 	stmdbvc	r0, {}	; <UNPREDICTABLE>
    15ac:	1d000008 	stcne	0, cr0, [r0, #-32]	; 0xffffffe0
    15b0:	0000002c 	andeq	r0, r0, ip, lsr #32
    15b4:	c01c003f 	andsgt	r0, ip, pc, lsr r0
    15b8:	89000000 	stmdbhi	r0, {}	; <UNPREDICTABLE>
    15bc:	1d000008 	stcne	0, cr0, [r0, #-32]	; 0xffffffe0
    15c0:	0000002c 	andeq	r0, r0, ip, lsr #32
    15c4:	79090004 	stmdbvc	r9, {r2}
    15c8:	1e000008 	cdpne	0, 0, cr0, cr0, cr8, {0}
    15cc:	000003a4 	andeq	r0, r0, r4, lsr #7
    15d0:	d50e3801 	strle	r3, [lr, #-2049]	; 0xfffff7ff
    15d4:	b8000006 	stmdalt	r0, {r1, r2}
    15d8:	38000084 	stmdacc	r0, {r2, r7}
    15dc:	01000000 	mrseq	r0, (UNDEF: 0)
    15e0:	00091b9c 	muleq	r9, ip, fp
    15e4:	73640e00 	cmnvc	r4, #0, 28
    15e8:	38010074 	stmdacc	r1, {r2, r4, r5, r6}
    15ec:	0006d51c 	andeq	sp, r6, ip, lsl r5
    15f0:	0009aa00 	andeq	sl, r9, r0, lsl #20
    15f4:	0009a000 	andeq	sl, r9, r0
    15f8:	006e0e00 	rsbeq	r0, lr, r0, lsl #28
    15fc:	25253801 	strcs	r3, [r5, #-2049]!	; 0xfffff7ff
    1600:	f1000000 	cps	#0
    1604:	ed000009 	stc	0, cr0, [r0, #-36]	; 0xffffffdc
    1608:	0e000009 	cdpeq	0, 0, cr0, cr0, cr9, {0}
    160c:	38010070 	stmdacc	r1, {r4, r5, r6}
    1610:	0006d52e 	andeq	sp, r6, lr, lsr #10
    1614:	000a1a00 	andeq	r1, sl, r0, lsl #20
    1618:	000a1200 	andeq	r1, sl, r0, lsl #4
    161c:	00ba1f00 	adcseq	r1, sl, r0, lsl #30
    1620:	38010000 	stmdacc	r1, {}	; <UNPREDICTABLE>
    1624:	0006d537 	andeq	sp, r6, r7, lsr r5
    1628:	000a5400 	andeq	r5, sl, r0, lsl #8
    162c:	000a5000 	andeq	r5, sl, r0
    1630:	656c1000 	strbvs	r1, [ip, #-0]!
    1634:	3a01006e 	bcc	417f4 <__bss_end__+0x37f7c>
    1638:	00002506 	andeq	r2, r0, r6, lsl #10
    163c:	000a7a00 	andeq	r7, sl, r0, lsl #20
    1640:	000a7200 	andeq	r7, sl, r0, lsl #4
    1644:	00731000 	rsbseq	r1, r3, r0
    1648:	d5083e01 	strle	r3, [r8, #-3585]	; 0xfffff1ff
    164c:	c8000006 	stmdagt	r0, {r1, r2}
    1650:	c600000a 	strgt	r0, [r0], -sl
    1654:	0000000a 	andeq	r0, r0, sl
    1658:	64617020 	strbtvs	r7, [r1], #-32	; 0xffffffe0
    165c:	0e2e0100 	sufeqe	f0, f6, f0
    1660:	000006d5 	ldrdeq	r0, [r0], -r5
    1664:	00008494 	muleq	r0, r4, r4
    1668:	00000024 	andeq	r0, r0, r4, lsr #32
    166c:	097e9c01 	ldmdbeq	lr!, {r0, sl, fp, ip, pc}^
    1670:	700e0000 	andvc	r0, lr, r0
    1674:	182e0100 	stmdane	lr!, {r8}
    1678:	000006d5 	ldrdeq	r0, [r0], -r5
    167c:	00000ae1 	andeq	r0, r0, r1, ror #21
    1680:	00000adb 	ldrdeq	r0, [r0], -fp
    1684:	0003dc1f 	andeq	sp, r3, pc, lsl ip
    1688:	222e0100 	eorcs	r0, lr, #0
    168c:	000006d5 	ldrdeq	r0, [r0], -r5
    1690:	00000b10 	andeq	r0, r0, r0, lsl fp
    1694:	00000b0c 	andeq	r0, r0, ip, lsl #22
    1698:	00032d0f 	andeq	r2, r3, pc, lsl #26
    169c:	2c2e0100 	stfcss	f0, [lr], #-0
    16a0:	00000025 	andeq	r0, r0, r5, lsr #32
    16a4:	6c105201 	lfmvs	f5, 4, [r0], {1}
    16a8:	01006e65 	tsteq	r0, r5, ror #28
    16ac:	0025062f 	eoreq	r0, r5, pc, lsr #12
    16b0:	0b330000 	bleq	cc16b8 <__bss_end__+0xcb7e40>
    16b4:	0b310000 	bleq	c416bc <__bss_end__+0xc37e44>
    16b8:	1e000000 	cdpne	0, 0, cr0, cr0, cr0, {0}
    16bc:	000002ec 	andeq	r0, r0, ip, ror #5
    16c0:	250c2701 	strcs	r2, [ip, #-1793]	; 0xfffff8ff
    16c4:	80000000 	andhi	r0, r0, r0
    16c8:	14000084 	strne	r0, [r0], #-132	; 0xffffff7c
    16cc:	01000000 	mrseq	r0, (UNDEF: 0)
    16d0:	0009ab9c 	muleq	r9, ip, fp
    16d4:	00630e00 	rsbeq	r0, r3, r0, lsl #28
    16d8:	25182701 	ldrcs	r2, [r8, #-1793]	; 0xfffff8ff
    16dc:	4c000000 	stcmi	0, cr0, [r0], {-0}
    16e0:	4600000b 	strmi	r0, [r0], -fp
    16e4:	0000000b 	andeq	r0, r0, fp
    16e8:	00035d21 	andeq	r5, r3, r1, lsr #26
    16ec:	061f0100 	ldreq	r0, [pc], -r0, lsl #2
    16f0:	000086a4 	andeq	r8, r0, r4, lsr #13
    16f4:	00000064 	andeq	r0, r0, r4, rrx
    16f8:	0a3b9c01 	beq	ee8704 <__bss_end__+0xedee8c>
    16fc:	401f0000 	andsmi	r0, pc, r0
    1700:	01000003 	tsteq	r0, r3
    1704:	009e1b1f 	addseq	r1, lr, pc, lsl fp
    1708:	0b7e0000 	bleq	1f81710 <__bss_end__+0x1f77e98>
    170c:	0b7a0000 	bleq	1e81714 <__bss_end__+0x1e77e9c>
    1710:	9c1f0000 	ldcls	0, cr0, [pc], {-0}
    1714:	01000003 	tsteq	r0, r3
    1718:	00d1301f 	sbcseq	r3, r1, pc, lsl r0
    171c:	0ba30000 	bleq	fe8c1724 <__bss_end__+0xfe8b7eac>
    1720:	0b9f0000 	bleq	fe7c1728 <__bss_end__+0xfe7b7eb0>
    1724:	ce130000 	cdpgt	0, 1, cr0, cr3, cr0, {0}
    1728:	4b000001 	blmi	1734 <__code_start__-0x68cc>
    172c:	0500000a 	streq	r0, [r0, #-10]
    1730:	00944003 	addseq	r4, r4, r3
    1734:	86ec1800 	strbthi	r1, [ip], r0, lsl #16
    1738:	0a740000 	beq	1d01740 <__bss_end__+0x1cf7ec8>
    173c:	0a310000 	beq	c41744 <__bss_end__+0xc37ecc>
    1740:	01190000 	tsteq	r9, r0
    1744:	60030550 	andvs	r0, r3, r0, asr r5
    1748:	19000091 	stmdbne	r0, {r0, r4, r7}
    174c:	03055101 	movweq	r5, #20737	; 0x5101
    1750:	00009304 	andeq	r9, r0, r4, lsl #6
    1754:	05520119 	ldrbeq	r0, [r2, #-281]	; 0xfffffee7
    1758:	00944003 	addseq	r4, r4, r3
    175c:	53011900 	movwpl	r1, #6400	; 0x1900
    1760:	19200802 	stmdbne	r0!, {r1, fp}
    1764:	05007d02 	streq	r7, [r0, #-3330]	; 0xfffff2fe
    1768:	00934003 	addseq	r4, r3, r3
    176c:	f01a0000 			; <UNDEFINED> instruction: 0xf01a0000
    1770:	80000086 	andhi	r0, r0, r6, lsl #1
    1774:	0000000a 	andeq	r0, r0, sl
    1778:	0000c01c 	andeq	ip, r0, ip, lsl r0
    177c:	000a4b00 	andeq	r4, sl, r0, lsl #22
    1780:	002c1d00 	eoreq	r1, ip, r0, lsl #26
    1784:	000e0000 	andeq	r0, lr, r0
    1788:	000a3b09 	andeq	r3, sl, r9, lsl #22
    178c:	03d42200 	bicseq	r2, r4, #0, 4
    1790:	03d40000 	bicseq	r0, r4, #0, 0
    1794:	d9030000 	stmdble	r3, {}	; <UNPREDICTABLE>
    1798:	03ac2205 			; <UNDEFINED> instruction: 0x03ac2205
    179c:	03ac0000 			; <UNDEFINED> instruction: 0x03ac0000
    17a0:	d8030000 	stmdale	r3, {}	; <UNPREDICTABLE>
    17a4:	037d2205 	cmneq	sp, #1342177280	; 0x50000000
    17a8:	037d0000 	cmneq	sp, #0, 0
    17ac:	db030000 	blle	c17b4 <__bss_end__+0xb7f3c>
    17b0:	023c2207 	eorseq	r2, ip, #1879048192	; 0x70000000
    17b4:	023c0000 	eorseq	r0, ip, #0, 0
    17b8:	28030000 	stmdacs	r3, {}	; <UNPREDICTABLE>
    17bc:	01ea2206 	mvneq	r2, r6, lsl #4
    17c0:	01ea0000 	mvneq	r0, r0
    17c4:	67030000 	strvs	r0, [r3, -r0]
    17c8:	03762206 	cmneq	r6, #1610612736	; 0x60000000
    17cc:	03760000 	cmneq	r6, #0, 0
    17d0:	dc030000 	stcle	0, cr0, [r3], {-0}
    17d4:	012f0007 			; <UNDEFINED> instruction: 0x012f0007
    17d8:	00040000 	andeq	r0, r4, r0
    17dc:	0000076f 	andeq	r0, r0, pc, ror #14
    17e0:	00c00104 	sbceq	r0, r0, r4, lsl #2
    17e4:	fe0c0000 	cdp2	0, 0, cr0, cr12, cr0, {0}
    17e8:	71000003 	tstvc	r0, r3
    17ec:	a0000002 	andge	r0, r0, r2
    17f0:	2c00008b 	stccs	0, cr0, [r0], {139}	; 0x8b
    17f4:	be000000 	cdplt	0, 0, cr0, cr0, cr0, {0}
    17f8:	0200000b 	andeq	r0, r0, #11, 0
    17fc:	6e690504 	cdpvs	5, 6, cr0, cr9, cr4, {0}
    1800:	04030074 	streq	r0, [r3], #-116	; 0xffffff8c
    1804:	00003c07 	andeq	r3, r0, r7, lsl #24
    1808:	06010300 	streq	r0, [r1], -r0, lsl #6
    180c:	0000000a 	andeq	r0, r0, sl
    1810:	9f050203 	svcls	0x00050203
    1814:	03000000 	movweq	r0, #0
    1818:	004e0504 	subeq	r0, lr, r4, lsl #10
    181c:	08030000 	stmdaeq	r3, {}	; <UNPREDICTABLE>
    1820:	00004905 	andeq	r4, r0, r5, lsl #18
    1824:	08010300 	stmdaeq	r1, {r8, r9}
    1828:	00000008 	andeq	r0, r0, r8
    182c:	16070203 	strne	r0, [r7], -r3, lsl #4
    1830:	03000000 	movweq	r0, #0
    1834:	00370704 	eorseq	r0, r7, r4, lsl #14
    1838:	08030000 	stmdaeq	r3, {}	; <UNPREDICTABLE>
    183c:	00003207 	andeq	r3, r0, r7, lsl #4
    1840:	00250400 	eoreq	r0, r5, r0, lsl #8
    1844:	007a0000 	rsbseq	r0, sl, r0
    1848:	25050000 	strcs	r0, [r5, #-0]
    184c:	00000000 	andeq	r0, r0, r0
    1850:	00005706 	andeq	r5, r0, r6, lsl #14
    1854:	0e1c0200 	cdpeq	2, 1, cr0, cr12, cr0, {0}
    1858:	00000086 	andeq	r0, r0, r6, lsl #1
    185c:	006b0407 	rsbeq	r0, fp, r7, lsl #8
    1860:	25040000 	strcs	r0, [r4, #-0]
    1864:	9b000000 	blls	186c <__code_start__-0x6794>
    1868:	05000000 	streq	r0, [r0, #-0]
    186c:	0000009b 	muleq	r0, fp, r0
    1870:	a8040700 	stmdage	r4, {r8, r9, sl}
    1874:	03000000 	movweq	r0, #0
    1878:	00110801 	andseq	r0, r1, r1, lsl #16
    187c:	a1080000 	mrsge	r0, (UNDEF: 8)
    1880:	06000000 	streq	r0, [r0], -r0
    1884:	000002d9 	ldrdeq	r0, [r0], -r9
    1888:	b90e2102 	stmdblt	lr, {r1, r8, sp}
    188c:	07000000 	streq	r0, [r0, -r0]
    1890:	00008c04 	andeq	r8, r0, r4, lsl #24
    1894:	01ea0900 	mvneq	r0, r0, lsl #18
    1898:	04010000 	streq	r0, [r1], #-0
    189c:	008ba006 	addeq	sl, fp, r6
    18a0:	00002c00 	andeq	r2, r0, r0, lsl #24
    18a4:	0e9c0100 	fmleqe	f0, f4, f0
    18a8:	0a000001 	beq	18b4 <__code_start__-0x674c>
    18ac:	00008bb4 			; <UNDEFINED> instruction: 0x00008bb4
    18b0:	000000e8 	andeq	r0, r0, r8, ror #1
    18b4:	0550010b 	ldrbeq	r0, [r0, #-267]	; 0xfffffef5
    18b8:	00945c03 	addseq	r5, r4, r3, lsl #24
    18bc:	b80c0000 	stmdalt	ip, {}	; <UNPREDICTABLE>
    18c0:	0e00008b 	cdpeq	0, 0, cr0, cr0, cr11, {4}
    18c4:	0d000001 	stceq	0, cr0, [r0, #-4]
    18c8:	00008bc0 	andeq	r8, r0, r0, asr #23
    18cc:	0000011a 	andeq	r0, r0, sl, lsl r1
    18d0:	00000104 	andeq	r0, r0, r4, lsl #2
    18d4:	0150010b 	cmpeq	r0, fp, lsl #2
    18d8:	c40c003a 	strgt	r0, [ip], #-58	; 0xffffffc6
    18dc:	2600008b 	strcs	r0, [r0], -fp, lsl #1
    18e0:	00000001 	andeq	r0, r0, r1
    18e4:	0004190e 	andeq	r1, r4, lr, lsl #18
    18e8:	00041900 	andeq	r1, r4, r0, lsl #18
    18ec:	06460200 	strbeq	r0, [r6], -r0, lsl #4
    18f0:	0003f50e 	andeq	pc, r3, lr, lsl #10
    18f4:	0003f500 	andeq	pc, r3, r0, lsl #10
    18f8:	06510200 	ldrbeq	r0, [r1], -r0, lsl #4
    18fc:	0003ea0e 	andeq	lr, r3, lr, lsl #20
    1900:	0003ea00 	andeq	lr, r3, r0, lsl #20
    1904:	06640200 	strbteq	r0, [r4], -r0, lsl #4
    1908:	00014300 	andeq	r4, r1, r0, lsl #6
    190c:	2f000400 	svccs	0x00000400
    1910:	04000008 	streq	r0, [r0], #-8
    1914:	0000c001 	andeq	ip, r0, r1
    1918:	04370c00 	ldrteq	r0, [r7], #-3072	; 0xfffff400
    191c:	02710000 	rsbseq	r0, r1, #0, 0
    1920:	8bcc0000 	blhi	ff301928 <__bss_end__+0xff2f80b0>
    1924:	002c0000 	eoreq	r0, ip, r0
    1928:	0c460000 	mareq	acc0, r0, r6
    192c:	04020000 	streq	r0, [r2], #-0
    1930:	746e6905 	strbtvc	r6, [lr], #-2309	; 0xfffff6fb
    1934:	07040300 	streq	r0, [r4, -r0, lsl #6]
    1938:	0000003c 	andeq	r0, r0, ip, lsr r0
    193c:	0a060103 	beq	181d50 <__bss_end__+0x1784d8>
    1940:	03000000 	movweq	r0, #0
    1944:	009f0502 	addseq	r0, pc, r2, lsl #10
    1948:	04030000 	streq	r0, [r3], #-0
    194c:	00004e05 	andeq	r4, r0, r5, lsl #28
    1950:	05080300 	streq	r0, [r8, #-768]	; 0xfffffd00
    1954:	00000049 	andeq	r0, r0, r9, asr #32
    1958:	08080103 	stmdaeq	r8, {r0, r1, r8}
    195c:	03000000 	movweq	r0, #0
    1960:	00160702 	andseq	r0, r6, r2, lsl #14
    1964:	04030000 	streq	r0, [r3], #-0
    1968:	00003707 	andeq	r3, r0, r7, lsl #14
    196c:	07080300 	streq	r0, [r8, -r0, lsl #6]
    1970:	00000032 	andeq	r0, r0, r2, lsr r0
    1974:	00002504 	andeq	r2, r0, r4, lsl #10
    1978:	00007a00 	andeq	r7, r0, r0, lsl #20
    197c:	00250500 	eoreq	r0, r5, r0, lsl #10
    1980:	06000000 	streq	r0, [r0], -r0
    1984:	00000057 	andeq	r0, r0, r7, asr r0
    1988:	860e1c02 	strhi	r1, [lr], -r2, lsl #24
    198c:	07000000 	streq	r0, [r0, -r0]
    1990:	00006b04 	andeq	r6, r0, r4, lsl #22
    1994:	00250400 	eoreq	r0, r5, r0, lsl #8
    1998:	009b0000 	addseq	r0, fp, r0
    199c:	9b050000 	blls	1419a4 <__bss_end__+0x13812c>
    19a0:	00000000 	andeq	r0, r0, r0
    19a4:	00a80407 	adceq	r0, r8, r7, lsl #8
    19a8:	01030000 	mrseq	r0, (UNDEF: 3)
    19ac:	00001108 	andeq	r1, r0, r8, lsl #2
    19b0:	00a10800 	adceq	r0, r1, r0, lsl #16
    19b4:	d9060000 	stmdble	r6, {}	; <UNPREDICTABLE>
    19b8:	02000002 	andeq	r0, r0, #2, 0
    19bc:	00b90e21 	adcseq	r0, r9, r1, lsr #28
    19c0:	04070000 	streq	r0, [r7], #-0
    19c4:	0000008c 	andeq	r0, r0, ip, lsl #1
    19c8:	00042709 	andeq	r2, r4, r9, lsl #14
    19cc:	06030100 	streq	r0, [r3], -r0, lsl #2
    19d0:	00008bcc 	andeq	r8, r0, ip, asr #23
    19d4:	0000002c 	andeq	r0, r0, ip, lsr #32
    19d8:	01289c01 			; <UNDEFINED> instruction: 0x01289c01
    19dc:	1f060000 	svcne	0x00060000
    19e0:	01000003 	tsteq	r0, r3
    19e4:	00251004 	eoreq	r1, r5, r4
    19e8:	48060000 	stmdami	r6, {}	; <UNPREDICTABLE>
    19ec:	01000003 	tsteq	r0, r3
    19f0:	00251f04 	eoreq	r1, r5, r4, lsl #30
    19f4:	000a0000 	andeq	r0, sl, r0
    19f8:	01000000 	mrseq	r0, (UNDEF: 0)
    19fc:	620b0705 	andvs	r0, fp, #1310720	; 0x140000
    1a00:	01007373 	tsteq	r0, r3, ror r3
    1a04:	01280a07 			; <UNDEFINED> instruction: 0x01280a07
    1a08:	0bca0000 	bleq	ff281a10 <__bss_end__+0xff278198>
    1a0c:	0bc40000 	bleq	ff101a14 <__bss_end__+0xff0f819c>
    1a10:	2f0c0000 	svccs	0x000c0000
    1a14:	01000004 	tsteq	r0, r4
    1a18:	01280a08 			; <UNDEFINED> instruction: 0x01280a08
    1a1c:	ec0d0000 	stc	0, cr0, [sp], {-0}
    1a20:	2e00008b 	cdpcs	0, 0, cr0, cr0, cr11, {4}
    1a24:	0d000001 	stceq	0, cr0, [r0, #-4]
    1a28:	00008bf0 	strdeq	r8, [r0], -r0
    1a2c:	0000013a 	andeq	r0, r0, sl, lsr r1
    1a30:	25040700 	strcs	r0, [r4, #-1792]	; 0xfffff900
    1a34:	0e000000 	cdpeq	0, 0, cr0, cr0, cr0, {0}
	...
    1a40:	0e06f102 	mvfeqs	f7, f2
    1a44:	000001ea 	andeq	r0, r0, sl, ror #3
    1a48:	000001ea 	andeq	r0, r0, sl, ror #3
    1a4c:	00066702 	andeq	r6, r6, r2, lsl #14
    1a50:	00000220 	andeq	r0, r0, r0, lsr #4
    1a54:	08fc0004 	ldmeq	ip!, {r2}^
    1a58:	01040000 	mrseq	r0, (UNDEF: 4)
    1a5c:	000000c0 	andeq	r0, r0, r0, asr #1
    1a60:	0004690c 	andeq	r6, r4, ip, lsl #18
    1a64:	00027100 	andeq	r7, r2, r0, lsl #2
    1a68:	00004800 	andeq	r4, r0, r0, lsl #16
    1a6c:	00000000 	andeq	r0, r0, r0
    1a70:	000ce200 	andeq	lr, ip, r0, lsl #4
    1a74:	05040200 	streq	r0, [r4, #-512]	; 0xfffffe00
    1a78:	00746e69 	rsbseq	r6, r4, r9, ror #28
    1a7c:	00002503 	andeq	r2, r0, r3, lsl #10
    1a80:	07040400 	streq	r0, [r4, -r0, lsl #8]
    1a84:	0000003c 	andeq	r0, r0, ip, lsr r0
    1a88:	0a060104 	beq	181ea0 <__bss_end__+0x178628>
    1a8c:	04000000 	streq	r0, [r0], #-0
    1a90:	009f0502 	addseq	r0, pc, r2, lsl #10
    1a94:	04040000 	streq	r0, [r4], #-0
    1a98:	00004e05 	andeq	r4, r0, r5, lsl #28
    1a9c:	05080400 	streq	r0, [r8, #-1024]	; 0xfffffc00
    1aa0:	00000049 	andeq	r0, r0, r9, asr #32
    1aa4:	08080104 	stmdaeq	r8, {r2, r8}
    1aa8:	04000000 	streq	r0, [r0], #-0
    1aac:	00160702 	andseq	r0, r6, r2, lsl #14
    1ab0:	04040000 	streq	r0, [r4], #-0
    1ab4:	00003707 	andeq	r3, r0, r7, lsl #14
    1ab8:	07080400 	streq	r0, [r8, -r0, lsl #8]
    1abc:	00000032 	andeq	r0, r0, r2, lsr r0
    1ac0:	00002505 	andeq	r2, r0, r5, lsl #10
    1ac4:	00007f00 	andeq	r7, r0, r0, lsl #30
    1ac8:	00250600 	eoreq	r0, r5, r0, lsl #12
    1acc:	07000000 	streq	r0, [r0, -r0]
    1ad0:	00000057 	andeq	r0, r0, r7, asr r0
    1ad4:	8b0e1c02 	blhi	388ae4 <__bss_end__+0x37f26c>
    1ad8:	08000000 	stmdaeq	r0, {}	; <UNPREDICTABLE>
    1adc:	00007004 	andeq	r7, r0, r4
    1ae0:	00250500 	eoreq	r0, r5, r0, lsl #10
    1ae4:	00a00000 	adceq	r0, r0, r0
    1ae8:	a0060000 	andge	r0, r6, r0
    1aec:	00000000 	andeq	r0, r0, r0
    1af0:	00ad0408 	adceq	r0, sp, r8, lsl #8
    1af4:	01040000 	mrseq	r0, (UNDEF: 4)
    1af8:	00001108 	andeq	r1, r0, r8, lsl #2
    1afc:	00a60300 	adceq	r0, r6, r0, lsl #6
    1b00:	d9070000 	stmdble	r7, {}	; <UNPREDICTABLE>
    1b04:	02000002 	andeq	r0, r0, #2, 0
    1b08:	00be0e21 	adcseq	r0, lr, r1, lsr #28
    1b0c:	04080000 	streq	r0, [r8], #-0
    1b10:	00000091 	muleq	r0, r1, r0
    1b14:	00048d09 	andeq	r8, r4, r9, lsl #26
    1b18:	110d0100 	mrsne	r0, (UNDEF: 29)
    1b1c:	00000031 	andeq	r0, r0, r1, lsr r0
    1b20:	0003ea0a 	andeq	lr, r3, sl, lsl #20
    1b24:	061f0100 	ldreq	r0, [pc], -r0, lsl #2
    1b28:	00008c24 	andeq	r8, r0, r4, lsr #24
    1b2c:	00000050 	andeq	r0, r0, r0, asr r0
    1b30:	01a59c01 			; <UNDEFINED> instruction: 0x01a59c01
    1b34:	b10b0000 	mrslt	r0, (UNDEF: 11)
    1b38:	01000004 	tsteq	r0, r4
    1b3c:	002c0f2f 	eoreq	r0, ip, pc, lsr #30
    1b40:	0bf70000 	bleq	ffdc1b48 <__bss_end__+0xffdb82d0>
    1b44:	0bf50000 	bleq	ffd41b4c <__bss_end__+0xffd382d4>
    1b48:	4c0b0000 	stcmi	0, cr0, [fp], {-0}
    1b4c:	01000004 	tsteq	r0, r4
    1b50:	002c0f30 	eoreq	r0, ip, r0, lsr pc
    1b54:	0c110000 	ldceq	0, cr0, [r1], {-0}
    1b58:	0c0f0000 	stceq	0, cr0, [pc], {-0}
    1b5c:	7e0b0000 	cdpvc	0, 0, cr0, cr11, cr0, {0}
    1b60:	01000004 	tsteq	r0, r4
    1b64:	002c0f31 	eoreq	r0, ip, r1, lsr pc
    1b68:	0c2b0000 	stceq	0, cr0, [fp], #-0
    1b6c:	0c290000 	stceq	0, cr0, [r9], #-0
    1b70:	980b0000 	stmdals	fp, {}	; <UNPREDICTABLE>
    1b74:	01000004 	tsteq	r0, r4
    1b78:	002c0f32 	eoreq	r0, ip, r2, lsr pc
    1b7c:	0c440000 	mareq	acc0, r0, r4
    1b80:	0c420000 	mareq	acc0, r0, r2
    1b84:	2c0c0000 	stccs	0, cr0, [ip], {-0}
    1b88:	d000008c 	andle	r0, r0, ip, lsl #1
    1b8c:	0c000001 	stceq	0, cr0, [r0], {1}
    1b90:	00008c38 	andeq	r8, r0, r8, lsr ip
    1b94:	000001ff 	strdeq	r0, [r0], -pc	; <UNPREDICTABLE>
    1b98:	008c400d 	addeq	r4, ip, sp
    1b9c:	00020b00 	andeq	r0, r2, r0, lsl #22
    1ba0:	00015b00 	andeq	r5, r1, r0, lsl #22
    1ba4:	50010e00 	andpl	r0, r1, r0, lsl #28
    1ba8:	0d003a01 	vstreq	s6, [r0, #-4]
    1bac:	00008c4c 	andeq	r8, r0, ip, asr #24
    1bb0:	00000217 	andeq	r0, r0, r7, lsl r2
    1bb4:	0000017b 	andeq	r0, r0, fp, ror r1
    1bb8:	0550010e 	ldrbeq	r0, [r0, #-270]	; 0xfffffef2
    1bbc:	1000240c 	andne	r2, r0, ip, lsl #8
    1bc0:	51010e20 	tstpl	r1, r0, lsr #28
    1bc4:	00010c05 	andeq	r0, r1, r5, lsl #24
    1bc8:	0d005a00 	vstreq	s10, [r0, #-0]
    1bcc:	00008c58 	andeq	r8, r0, r8, asr ip
    1bd0:	00000217 	andeq	r0, r0, r7, lsl r2
    1bd4:	0000019b 	muleq	r0, fp, r1
    1bd8:	0550010e 	ldrbeq	r0, [r0, #-270]	; 0xfffffef2
    1bdc:	10001c0c 	andne	r1, r0, ip, lsl #24
    1be0:	51010e20 	tstpl	r1, r0, lsr #28
    1be4:	00200c05 	eoreq	r0, r0, r5, lsl #24
    1be8:	0c005a00 			; <UNDEFINED> instruction: 0x0c005a00
    1bec:	00008c60 	andeq	r8, r0, r0, ror #24
    1bf0:	000001a5 	andeq	r0, r0, r5, lsr #3
    1bf4:	045a0f00 	ldrbeq	r0, [sl], #-3840	; 0xfffff100
    1bf8:	17010000 	strne	r0, [r1, -r0]
    1bfc:	008c1006 	addeq	r1, ip, r6
    1c00:	00001400 	andeq	r1, r0, r0, lsl #8
    1c04:	d09c0100 	addsle	r0, ip, r0, lsl #2
    1c08:	0b000001 	bleq	1c14 <__code_start__-0x63ec>
    1c0c:	000004b9 			; <UNDEFINED> instruction: 0x000004b9
    1c10:	310e1801 	tstcc	lr, r1, lsl #16
    1c14:	5f000000 	svcpl	0x00000000
    1c18:	5900000c 	stmdbpl	r0, {r2, r3}
    1c1c:	0000000c 	andeq	r0, r0, ip
    1c20:	00048a10 	andeq	r8, r4, r0, lsl sl
    1c24:	050e0100 	streq	r0, [lr, #-256]	; 0xffffff00
    1c28:	00000025 	andeq	r0, r0, r5, lsr #32
    1c2c:	00008bf8 	strdeq	r8, [r0], -r8	; <UNPREDICTABLE>
    1c30:	00000018 	andeq	r0, r0, r8, lsl r0
    1c34:	01ff9c01 	mvnseq	r9, r1, lsl #24
    1c38:	b90b0000 	stmdblt	fp, {}	; <UNPREDICTABLE>
    1c3c:	01000004 	tsteq	r0, r4
    1c40:	00310e0f 	eorseq	r0, r1, pc, lsl #28
    1c44:	0c8d0000 	stceq	0, cr0, [sp], {0}
    1c48:	0c890000 	stceq	0, cr0, [r9], {0}
    1c4c:	11000000 	mrsne	r0, (UNDEF: 0)
    1c50:	00000419 	andeq	r0, r0, r9, lsl r4
    1c54:	00000419 	andeq	r0, r0, r9, lsl r4
    1c58:	11064602 	tstne	r6, r2, lsl #12
    1c5c:	000003f5 	strdeq	r0, [r0], -r5
    1c60:	000003f5 	strdeq	r0, [r0], -r5
    1c64:	11065102 	tstne	r6, r2, lsl #2
    1c68:	00000454 	andeq	r0, r0, r4, asr r4
    1c6c:	00000454 	andeq	r0, r0, r4, asr r4
    1c70:	0006a402 	andeq	sl, r6, r2, lsl #8
    1c74:	0000024d 	andeq	r0, r0, sp, asr #4
    1c78:	0a0e0004 	beq	381c90 <__bss_end__+0x378418>
    1c7c:	01040000 	mrseq	r0, (UNDEF: 4)
    1c80:	000000c0 	andeq	r0, r0, r0, asr #1
    1c84:	0004d40c 	andeq	sp, r4, ip, lsl #8
    1c88:	00027100 	andeq	r7, r2, r0, lsl #2
    1c8c:	008c7400 	addeq	r7, ip, r0, lsl #8
    1c90:	00008400 	andeq	r8, r0, r0, lsl #8
    1c94:	000db900 	andeq	fp, sp, r0, lsl #18
    1c98:	05040200 	streq	r0, [r4, #-512]	; 0xfffffe00
    1c9c:	00746e69 	rsbseq	r6, r4, r9, ror #28
    1ca0:	3c070403 	cfstrscc	mvf0, [r7], {3}
    1ca4:	03000000 	movweq	r0, #0
    1ca8:	000a0601 	andeq	r0, sl, r1, lsl #12
    1cac:	02030000 	andeq	r0, r3, #0, 0
    1cb0:	00009f05 	andeq	r9, r0, r5, lsl #30
    1cb4:	05040300 	streq	r0, [r4, #-768]	; 0xfffffd00
    1cb8:	0000004e 	andeq	r0, r0, lr, asr #32
    1cbc:	49050803 	stmdbmi	r5, {r0, r1, fp}
    1cc0:	03000000 	movweq	r0, #0
    1cc4:	00080801 	andeq	r0, r8, r1, lsl #16
    1cc8:	02030000 	andeq	r0, r3, #0, 0
    1ccc:	00001607 	andeq	r1, r0, r7, lsl #12
    1cd0:	07040300 	streq	r0, [r4, -r0, lsl #6]
    1cd4:	00000037 	andeq	r0, r0, r7, lsr r0
    1cd8:	32070803 	andcc	r0, r7, #196608	; 0x30000
    1cdc:	04000000 	streq	r0, [r0], #-0
    1ce0:	00000025 	andeq	r0, r0, r5, lsr #32
    1ce4:	0000007a 	andeq	r0, r0, sl, ror r0
    1ce8:	00002505 	andeq	r2, r0, r5, lsl #10
    1cec:	57060000 	strpl	r0, [r6, -r0]
    1cf0:	02000000 	andeq	r0, r0, #0, 0
    1cf4:	00860e1c 	addeq	r0, r6, ip, lsl lr
    1cf8:	04070000 	streq	r0, [r7], #-0
    1cfc:	0000006b 	andeq	r0, r0, fp, rrx
    1d00:	00002504 	andeq	r2, r0, r4, lsl #10
    1d04:	00009b00 	andeq	r9, r0, r0, lsl #22
    1d08:	009b0500 	addseq	r0, fp, r0, lsl #10
    1d0c:	07000000 	streq	r0, [r0, -r0]
    1d10:	0000a804 	andeq	sl, r0, r4, lsl #16
    1d14:	08010300 	stmdaeq	r1, {r8, r9}
    1d18:	00000011 	andeq	r0, r0, r1, lsl r0
    1d1c:	0000a108 	andeq	sl, r0, r8, lsl #2
    1d20:	02d90600 	sbcseq	r0, r9, #0, 12
    1d24:	21020000 	mrscs	r0, (UNDEF: 2)
    1d28:	0000b90e 	andeq	fp, r0, lr, lsl #18
    1d2c:	8c040700 	stchi	7, cr0, [r4], {-0}
    1d30:	09000000 	stmdbeq	r0, {}	; <UNPREDICTABLE>
    1d34:	000004ca 	andeq	r0, r0, sl, asr #9
    1d38:	e0061e01 	and	r1, r6, r1, lsl #28
    1d3c:	1800008c 	stmdane	r0, {r2, r3, r7}
    1d40:	01000000 	mrseq	r0, (UNDEF: 0)
    1d44:	0001099c 	muleq	r1, ip, r9
    1d48:	65730a00 	ldrbvs	r0, [r3, #-2560]!	; 0xfffff600
    1d4c:	1e010063 	cdpne	0, 0, cr0, cr1, cr3, {3}
    1d50:	00002c19 	andeq	r2, r0, r9, lsl ip
    1d54:	000cb000 	andeq	fp, ip, r0
    1d58:	000cac00 	andeq	sl, ip, r0, lsl #24
    1d5c:	8cf40b00 	vldmiahi	r4!, {d16-d15}
    1d60:	01090000 	mrseq	r0, (UNDEF: 9)
    1d64:	010c0000 	mrseq	r0, (UNDEF: 12)
    1d68:	01f31150 	mvnseq	r1, r0, asr r1
    1d6c:	f3243550 	vqrshl.u32	<illegal reg q1.5>, q0, q2
    1d70:	321c5001 	andscc	r5, ip, #1, 0
    1d74:	5001f324 	andpl	pc, r1, r4, lsr #6
    1d78:	00243322 	eoreq	r3, r4, r2, lsr #6
    1d7c:	03f50900 	mvnseq	r0, #0, 18
    1d80:	1b010000 	blne	41d88 <__bss_end__+0x38510>
    1d84:	008cc806 	addeq	ip, ip, r6, lsl #16
    1d88:	00001800 	andeq	r1, r0, r0, lsl #16
    1d8c:	529c0100 	addspl	r0, ip, #0
    1d90:	0a000001 	beq	1d9c <__code_start__-0x6264>
    1d94:	0100736d 	tsteq	r0, sp, ror #6
    1d98:	002c181b 	eoreq	r1, ip, fp, lsl r8
    1d9c:	0cd50000 	ldcleq	0, cr0, [r5], {0}
    1da0:	0cd10000 	ldcleq	0, cr0, [r1], {0}
    1da4:	dc0b0000 	stcle	0, cr0, [fp], {-0}
    1da8:	5200008c 	andpl	r0, r0, #140, 0	; 0x8c
    1dac:	0c000001 	stceq	0, cr0, [r0], {1}
    1db0:	f3115001 	vhadd.u16	d5, d1, d1
    1db4:	24355001 	ldrtcs	r5, [r5], #-1
    1db8:	1c5001f3 	ldfnee	f0, [r0], {243}	; 0xf3
    1dbc:	01f32432 	mvnseq	r2, r2, lsr r4
    1dc0:	24332250 	ldrtcs	r2, [r3], #-592	; 0xfffffdb0
    1dc4:	fd090000 	stc2	0, cr0, [r9, #-0]
    1dc8:	01000004 	tsteq	r0, r4
    1dcc:	8ca40612 	stchi	6, cr0, [r4], #72	; 0x48
    1dd0:	00240000 	eoreq	r0, r4, r0
    1dd4:	9c010000 	stcls	0, cr0, [r1], {-0}
    1dd8:	000001c2 	andeq	r0, r0, r2, asr #3
    1ddc:	0073750a 	rsbseq	r7, r3, sl, lsl #10
    1de0:	2c181201 	lfmcs	f1, 4, [r8], {1}
    1de4:	fa000000 	blx	1dec <__code_start__-0x6214>
    1de8:	f600000c 			; <UNDEFINED> instruction: 0xf600000c
    1dec:	0d00000c 	stceq	0, cr0, [r0, #-48]	; 0xffffffd0
    1df0:	01006272 	tsteq	r0, r2, ror r2
    1df4:	002c0e13 	eoreq	r0, ip, r3, lsl lr
    1df8:	0d1a0000 	ldceq	0, cr0, [sl, #-0]
    1dfc:	0d180000 	ldceq	0, cr0, [r8, #-0]
    1e00:	b40e0000 	strlt	r0, [lr], #-0
    1e04:	1400008c 	strne	r0, [r0], #-140	; 0xffffff74
    1e08:	b8000000 	stmdalt	r0, {}	; <UNPREDICTABLE>
    1e0c:	0d000001 	stceq	0, cr0, [r0, #-4]
    1e10:	01006172 	tsteq	r0, r2, ror r1
    1e14:	002c1215 	eoreq	r1, ip, r5, lsl r2
    1e18:	0d2f0000 	stceq	0, cr0, [pc, #-0]	; 1e20 <__code_start__-0x61e0>
    1e1c:	0d2d0000 	stceq	0, cr0, [sp, #-0]
    1e20:	b80f0000 	stmdalt	pc, {}	; <UNPREDICTABLE>
    1e24:	c200008c 	andgt	r0, r0, #140, 0	; 0x8c
    1e28:	00000001 	andeq	r0, r0, r1
    1e2c:	008cb00f 	addeq	fp, ip, pc
    1e30:	0001c200 	andeq	ip, r1, r0, lsl #4
    1e34:	ee100000 	cdp	0, 1, cr0, cr0, cr0, {0}
    1e38:	01000004 	tsteq	r0, r4
    1e3c:	002c0a09 	eoreq	r0, ip, r9, lsl #20
    1e40:	8c880000 	stchi	0, cr0, [r8], {0}
    1e44:	001c0000 	andseq	r0, ip, r0
    1e48:	9c010000 	stcls	0, cr0, [r1], {-0}
    1e4c:	0000020a 	andeq	r0, r0, sl, lsl #4
    1e50:	0100750d 	tsteq	r0, sp, lsl #10
    1e54:	002c0e0d 	eoreq	r0, ip, sp, lsl #28
    1e58:	0d460000 	stcleq	0, cr0, [r6, #-0]
    1e5c:	0d420000 	stcleq	0, cr0, [r2, #-0]
    1e60:	900f0000 	andls	r0, pc, r0
    1e64:	3800008c 	stmdacc	r0, {r2, r3, r7}
    1e68:	0f000002 	svceq	0x00000002
    1e6c:	00008c94 	muleq	r0, r4, ip
    1e70:	0000020a 	andeq	r0, r0, sl, lsl #4
    1e74:	008c9c0f 	addeq	r9, ip, pc, lsl #24
    1e78:	00023800 	andeq	r3, r2, r0, lsl #16
    1e7c:	06100000 	ldreq	r0, [r0], -r0
    1e80:	01000005 	tsteq	r0, r5
    1e84:	002c0a04 	eoreq	r0, ip, r4, lsl #20
    1e88:	8c740000 	ldclhi	0, cr0, [r4], #-0
    1e8c:	00140000 	andseq	r0, r4, r0
    1e90:	9c010000 	stcls	0, cr0, [r1], {-0}
    1e94:	00000238 	andeq	r0, r0, r8, lsr r2
    1e98:	008c800b 	addeq	r8, ip, fp
    1e9c:	00024400 	andeq	r4, r2, r0, lsl #8
    1ea0:	50010c00 	andpl	r0, r1, r0, lsl #24
    1ea4:	30040c05 	andcc	r0, r4, r5, lsl #24
    1ea8:	00002000 	andeq	r2, r0, r0
    1eac:	0004be11 	andeq	fp, r4, r1, lsl lr
    1eb0:	0004be00 	andeq	fp, r4, r0, lsl #28
    1eb4:	06930200 	ldreq	r0, [r3], r0, lsl #4
    1eb8:	0004e811 	andeq	lr, r4, r1, lsl r8
    1ebc:	0004e800 	andeq	lr, r4, r0, lsl #16
    1ec0:	0ab00200 	beq	fec026c8 <__bss_end__+0xfebf8e50>
    1ec4:	00056800 	andeq	r6, r5, r0, lsl #16
    1ec8:	0f000400 	svceq	0x00000400
    1ecc:	0400000b 	streq	r0, [r0], #-11
    1ed0:	0000c001 	andeq	ip, r0, r1
    1ed4:	05490c00 	strbeq	r0, [r9, #-3072]	; 0xfffff400
    1ed8:	055e0000 	ldrbeq	r0, [lr, #-0]
    1edc:	8cf80000 	ldclhi	0, cr0, [r8]
    1ee0:	01ac0000 			; <UNDEFINED> instruction: 0x01ac0000
    1ee4:	0e960000 	cdpeq	0, 9, cr0, cr6, cr0, {0}
    1ee8:	04020000 	streq	r0, [r2], #-0
    1eec:	746e6905 	strbtvc	r6, [lr], #-2309	; 0xfffff6fb
    1ef0:	07040300 	streq	r0, [r4, -r0, lsl #6]
    1ef4:	0000003c 	andeq	r0, r0, ip, lsr r0
    1ef8:	00002c04 	andeq	r2, r0, r4, lsl #24
    1efc:	06010300 	streq	r0, [r1], -r0, lsl #6
    1f00:	0000000a 	andeq	r0, r0, sl
    1f04:	9f050203 	svcls	0x00050203
    1f08:	03000000 	movweq	r0, #0
    1f0c:	004e0504 	subeq	r0, lr, r4, lsl #10
    1f10:	08030000 	stmdaeq	r3, {}	; <UNPREDICTABLE>
    1f14:	00004905 	andeq	r4, r0, r5, lsl #18
    1f18:	08010300 	stmdaeq	r1, {r8, r9}
    1f1c:	00000008 	andeq	r0, r0, r8
    1f20:	16070203 	strne	r0, [r7], -r3, lsl #4
    1f24:	05000000 	streq	r0, [r0, #-0]
    1f28:	00000354 	andeq	r0, r0, r4, asr r3
    1f2c:	6e193405 	cfmulsvs	mvf3, mvf9, mvf5
    1f30:	03000000 	movweq	r0, #0
    1f34:	00370704 	eorseq	r0, r7, r4, lsl #14
    1f38:	08030000 	stmdaeq	r3, {}	; <UNPREDICTABLE>
    1f3c:	00003207 	andeq	r3, r0, r7, lsl #4
    1f40:	00250600 	eoreq	r0, r5, r0, lsl #12
    1f44:	008b0000 	addeq	r0, fp, r0
    1f48:	25070000 	strcs	r0, [r7, #-0]
    1f4c:	00000000 	andeq	r0, r0, r0
    1f50:	00005708 	andeq	r5, r0, r8, lsl #14
    1f54:	0e1c0200 	cdpeq	2, 1, cr0, cr12, cr0, {0}
    1f58:	00000097 	muleq	r0, r7, r0
    1f5c:	007c0409 	rsbseq	r0, ip, r9, lsl #8
    1f60:	25060000 	strcs	r0, [r6, #-0]
    1f64:	ac000000 	stcge	0, cr0, [r0], {-0}
    1f68:	07000000 	streq	r0, [r0, -r0]
    1f6c:	000000ac 	andeq	r0, r0, ip, lsr #1
    1f70:	b9040900 	stmdblt	r4, {r8, fp}
    1f74:	03000000 	movweq	r0, #0
    1f78:	00110801 	andseq	r0, r1, r1, lsl #16
    1f7c:	b20a0000 	andlt	r0, sl, #0, 0
    1f80:	08000000 	stmdaeq	r0, {}	; <UNPREDICTABLE>
    1f84:	000002d9 	ldrdeq	r0, [r0], -r9
    1f88:	ca0e2102 	bgt	38a398 <__bss_end__+0x380b20>
    1f8c:	09000000 	stmdbeq	r0, {}	; <UNPREDICTABLE>
    1f90:	00009d04 	andeq	r9, r0, r4, lsl #26
    1f94:	01070b00 	tsteq	r7, r0, lsl #22
    1f98:	00000054 	andeq	r0, r0, r4, asr r0
    1f9c:	0f0e0c04 	svceq	0x000e0c04
    1fa0:	0c000001 	stceq	0, cr0, [r0], {1}
    1fa4:	00000659 	andeq	r0, r0, r9, asr r6
    1fa8:	052c0c00 	streq	r0, [ip, #-3072]!	; 0xfffff400
    1fac:	0c010000 	stceq	0, cr0, [r1], {-0}
    1fb0:	0000059c 	muleq	r0, ip, r5
    1fb4:	05ab0c04 	streq	r0, [fp, #3076]!	; 0xc04
    1fb8:	0c050000 	stceq	0, cr0, [r5], {-0}
    1fbc:	000005ba 			; <UNDEFINED> instruction: 0x000005ba
    1fc0:	05c90c06 	strbeq	r0, [r9, #3078]	; 0xc06
    1fc4:	0c070000 	stceq	0, cr0, [r7], {-0}
    1fc8:	00000635 	andeq	r0, r0, r5, lsr r6
    1fcc:	05d80c03 	ldrbeq	r0, [r8, #3075]	; 0xc03
    1fd0:	00020000 	andeq	r0, r2, r0
    1fd4:	00053d0d 	andeq	r3, r5, sp, lsl #26
    1fd8:	06032c00 	streq	r2, [r3], -r0, lsl #24
    1fdc:	0001ab08 	andeq	sl, r1, r8, lsl #22
    1fe0:	6f690e00 	svcvs	0x00690e00
    1fe4:	09090300 	stmdbeq	r9, {r8, r9}
    1fe8:	00000033 	andeq	r0, r0, r3, lsr r0
    1fec:	65690e00 	strbvs	r0, [r9, #-3584]!	; 0xfffff200
    1ff0:	0a030072 	beq	c21c0 <__bss_end__+0xb8948>
    1ff4:	00003309 	andeq	r3, r0, r9, lsl #6
    1ff8:	690e0400 	stmdbvs	lr, {sl}
    1ffc:	03007269 	movweq	r7, #617	; 0x269
    2000:	00330911 	eorseq	r0, r3, r1, lsl r9
    2004:	0e080000 	cdpeq	0, 0, cr0, cr8, cr0, {0}
    2008:	0072636c 	rsbseq	r6, r2, ip, ror #6
    200c:	33091303 	movwcc	r1, #37635	; 0x9303
    2010:	0c000000 	stceq	0, cr0, [r0], {-0}
    2014:	72636d0e 	rsbvc	r6, r3, #896	; 0x380
    2018:	09140300 	ldmdbeq	r4, {r8, r9}
    201c:	00000033 	andeq	r0, r0, r3, lsr r0
    2020:	736c0e10 	cmnvc	ip, #16, 28	; 0x100
    2024:	15030072 	strne	r0, [r3, #-114]	; 0xffffff8e
    2028:	00003309 	andeq	r3, r0, r9, lsl #6
    202c:	6d0e1400 	cfstrsvs	mvf1, [lr, #-0]
    2030:	03007273 	movweq	r7, #627	; 0x273
    2034:	00330916 	eorseq	r0, r3, r6, lsl r9
    2038:	0f180000 	svceq	0x00180000
    203c:	0000064c 	andeq	r0, r0, ip, asr #12
    2040:	33091703 	movwcc	r1, #38659	; 0x9703
    2044:	1c000000 	stcne	0, cr0, [r0], {-0}
    2048:	0006220f 	andeq	r2, r6, pc, lsl #4
    204c:	091b0300 	ldmdbeq	fp, {r8, r9}
    2050:	00000033 	andeq	r0, r0, r3, lsr r0
    2054:	05190f20 	ldreq	r0, [r9, #-3872]	; 0xfffff0e0
    2058:	1d030000 	stcne	0, cr0, [r3, #-0]
    205c:	00003309 	andeq	r3, r0, r9, lsl #6
    2060:	ed0f2400 	cfstrs	mvf2, [pc, #-0]	; 2068 <__code_start__-0x5f98>
    2064:	03000005 	movweq	r0, #5
    2068:	0033091e 	eorseq	r0, r3, lr, lsl r9
    206c:	00280000 	eoreq	r0, r8, r0
    2070:	0005f210 	andeq	pc, r5, r0, lsl r2	; <UNPREDICTABLE>
    2074:	09080100 	stmdbeq	r8, {r8}
    2078:	000001c1 	andeq	r0, r0, r1, asr #3
    207c:	20215004 	eorcs	r5, r1, r4
    2080:	00330409 	eorseq	r0, r3, r9, lsl #8
    2084:	bb0a0000 	bllt	28208c <__bss_end__+0x278814>
    2088:	10000001 	andne	r0, r0, r1
    208c:	00000654 	andeq	r0, r0, r4, asr r6
    2090:	dc232901 			; <UNDEFINED> instruction: 0xdc232901
    2094:	40000001 	andmi	r0, r0, r1
    2098:	09202150 	stmdbeq	r0!, {r4, r6, r8, sp}
    209c:	00010f04 	andeq	r0, r1, r4, lsl #30
    20a0:	01d60a00 	bicseq	r0, r6, r0, lsl #20
    20a4:	19110000 	ldmdbne	r1, {}	; <UNPREDICTABLE>
    20a8:	01000004 	tsteq	r0, r4
    20ac:	8e9006c2 	cdphi	6, 9, cr0, cr0, cr2, {6}
    20b0:	00140000 	andseq	r0, r4, r0
    20b4:	9c010000 	stcls	0, cr0, [r1], {-0}
    20b8:	00000201 	andeq	r0, r0, r1, lsl #4
    20bc:	008e9812 	addeq	r9, lr, r2, lsl r8
    20c0:	00020100 	andeq	r0, r2, r0, lsl #2
    20c4:	08130000 	ldmdaeq	r3, {}	; <UNPREDICTABLE>
    20c8:	01000006 	tsteq	r0, r6
    20cc:	002505ac 	eoreq	r0, r5, ip, lsr #11
    20d0:	8e700000 	cdphi	0, 7, cr0, cr0, cr0, {0}
    20d4:	00200000 	eoreq	r0, r0, r0
    20d8:	9c010000 	stcls	0, cr0, [r1], {-0}
    20dc:	00000238 	andeq	r0, r0, r8, lsr r2
    20e0:	008e7812 	addeq	r7, lr, r2, lsl r8
    20e4:	00053b00 	andeq	r3, r5, r0, lsl #22
    20e8:	8e801400 	cdphi	4, 8, cr1, cr0, cr0, {0}
    20ec:	05470000 	strbeq	r0, [r7, #-0]
    20f0:	01150000 	tsteq	r5, r0
    20f4:	640c0550 	strvs	r0, [ip], #-1360	; 0xfffffab0
    20f8:	00202150 	eoreq	r2, r0, r0, asr r1
    20fc:	06271300 	strteq	r1, [r7], -r0, lsl #6
    2100:	a9010000 	stmdbge	r1, {}	; <UNPREDICTABLE>
    2104:	00002505 	andeq	r2, r0, r5, lsl #10
    2108:	008e6000 	addeq	r6, lr, r0
    210c:	00001000 	andeq	r1, r0, r0
    2110:	659c0100 	ldrvs	r0, [ip, #256]	; 0x100
    2114:	12000002 	andne	r0, r0, #2, 0
    2118:	00008e68 	andeq	r8, r0, r8, ror #28
    211c:	0000053b 	andeq	r0, r0, fp, lsr r5
    2120:	008e6c12 	addeq	r6, lr, r2, lsl ip
    2124:	00035600 	andeq	r5, r3, r0, lsl #12
    2128:	c6110000 	ldrgt	r0, [r1], -r0
    212c:	01000002 	tsteq	r0, r2
    2130:	8e3006a1 	cfmsuba32hi	mvax5, mvax0, mvfx0, mvfx1
    2134:	00300000 	eorseq	r0, r0, r0
    2138:	9c010000 	stcls	0, cr0, [r1], {-0}
    213c:	000002c9 	andeq	r0, r0, r9, asr #5
    2140:	01006316 	tsteq	r0, r6, lsl r3
    2144:	002c19a1 	eoreq	r1, ip, r1, lsr #19
    2148:	0d680000 	stcleq	0, cr0, [r8, #-0]
    214c:	0d640000 	stcleq	0, cr0, [r4, #-0]
    2150:	3c120000 	ldccc	0, cr0, [r2], {-0}
    2154:	3b00008e 	blcc	2394 <__code_start__-0x5c6c>
    2158:	12000005 	andne	r0, r0, #5, 0
    215c:	00008e40 	andeq	r8, r0, r0, asr #28
    2160:	00000328 	andeq	r0, r0, r8, lsr #6
    2164:	008e5417 	addeq	r5, lr, r7, lsl r4
    2168:	00055300 	andeq	r5, r5, r0, lsl #6
    216c:	0002bf00 	andeq	fp, r2, r0, lsl #30
    2170:	50011500 	andpl	r1, r1, r0, lsl #10
    2174:	50400c05 	subpl	r0, r0, r5, lsl #24
    2178:	01152021 	tsteq	r5, r1, lsr #32
    217c:	00740551 	rsbseq	r0, r4, r1, asr r5
    2180:	001aff08 	andseq	pc, sl, r8, lsl #30
    2184:	008e5812 	addeq	r5, lr, r2, lsl r8
    2188:	00053b00 	andeq	r3, r5, r0, lsl #22
    218c:	fe130000 	cdp2	0, 1, cr0, cr3, cr0, {0}
    2190:	01000005 	tsteq	r0, r5
    2194:	00250599 	mlaeq	r5, r9, r5, r0
    2198:	8e000000 	cdphi	0, 0, cr0, cr0, cr0, {0}
    219c:	00300000 	eorseq	r0, r0, r0
    21a0:	9c010000 	stcls	0, cr0, [r1], {-0}
    21a4:	00000328 	andeq	r0, r0, r8, lsr #6
    21a8:	01006318 	tsteq	r0, r8, lsl r3
    21ac:	0025099d 	mlaeq	r5, sp, r9, r0
    21b0:	0d880000 	stceq	0, cr0, [r8]
    21b4:	0d860000 	stceq	0, cr0, [r6]
    21b8:	08120000 	ldmdaeq	r2, {}	; <UNPREDICTABLE>
    21bc:	3b00008e 	blcc	23fc <__code_start__-0x5c04>
    21c0:	12000005 	andne	r0, r0, #5, 0
    21c4:	00008e0c 	andeq	r8, r0, ip, lsl #28
    21c8:	00000356 	andeq	r0, r0, r6, asr r3
    21cc:	008e1c17 	addeq	r1, lr, r7, lsl ip
    21d0:	00054700 	andeq	r4, r5, r0, lsl #14
    21d4:	00031e00 	andeq	r1, r3, r0, lsl #28
    21d8:	50011500 	andpl	r1, r1, r0, lsl #10
    21dc:	50400c05 	subpl	r0, r0, r5, lsl #24
    21e0:	12002021 	andne	r2, r0, #33, 0	; 0x21
    21e4:	00008e24 	andeq	r8, r0, r4, lsr #28
    21e8:	0000053b 	andeq	r0, r0, fp, lsr r5
    21ec:	05501300 	ldrbeq	r1, [r0, #-768]	; 0xfffffd00
    21f0:	8a010000 	bhi	421f8 <__bss_end__+0x38980>
    21f4:	00002505 	andeq	r2, r0, r5, lsl #10
    21f8:	008de000 	addeq	lr, sp, r0
    21fc:	00002000 	andeq	r2, r0, r0
    2200:	569c0100 	ldrpl	r0, [ip], r0, lsl #2
    2204:	14000003 	strne	r0, [r0], #-3
    2208:	00008dec 	andeq	r8, r0, ip, ror #27
    220c:	00000547 	andeq	r0, r0, r7, asr #10
    2210:	05500115 	ldrbeq	r0, [r0, #-277]	; 0xfffffeeb
    2214:	2150640c 	cmpcs	r0, ip, lsl #8
    2218:	13000020 	movwne	r0, #32
    221c:	0000051e 	andeq	r0, r0, lr, lsl r5
    2220:	25058101 	strcs	r8, [r5, #-257]	; 0xfffffeff
    2224:	c8000000 	stmdagt	r0, {}	; <UNPREDICTABLE>
    2228:	1800008d 	stmdane	r0, {r0, r2, r3, r7}
    222c:	01000000 	mrseq	r0, (UNDEF: 0)
    2230:	0003849c 	muleq	r3, ip, r4
    2234:	8dd41400 	cfldrdhi	mvd1, [r4]
    2238:	05470000 	strbeq	r0, [r7, #-0]
    223c:	01150000 	tsteq	r5, r0
    2240:	640c0550 	strvs	r0, [ip], #-1360	; 0xfffffab0
    2244:	00202150 	eoreq	r2, r0, r0, asr r1
    2248:	05921100 	ldreq	r1, [r2, #256]	; 0x100
    224c:	3b010000 	blcc	42254 <__bss_end__+0x389dc>
    2250:	008d1806 	addeq	r1, sp, r6, lsl #16
    2254:	0000b000 	andeq	fp, r0, r0
    2258:	d19c0100 	orrsle	r0, ip, r0, lsl #2
    225c:	19000004 	stmdbne	r0, {r2}
    2260:	00000619 	andeq	r0, r0, r9, lsl r6
    2264:	620e7401 	andvs	r7, lr, #16777216	; 0x1000000
    2268:	0e000000 	cdpeq	0, 0, cr0, cr0, cr0, {0}
    226c:	8d281701 	stchi	7, cr1, [r8, #-4]!
    2270:	055f0000 	ldrbeq	r0, [pc, #-0]	; 2278 <__code_start__-0x5d88>
    2274:	03c00000 	biceq	r0, r0, #0, 0
    2278:	01150000 	tsteq	r5, r0
    227c:	153e0150 	ldrne	r0, [lr, #-336]!	; 0xfffffeb0
    2280:	32015101 	andcc	r5, r1, #1073741824	; 0x40000000
    2284:	8d341700 	ldchi	7, cr1, [r4, #-0]
    2288:	055f0000 	ldrbeq	r0, [pc, #-0]	; 2290 <__code_start__-0x5d70>
    228c:	03d80000 	bicseq	r0, r8, #0, 0
    2290:	01150000 	tsteq	r5, r0
    2294:	153f0150 	ldrne	r0, [pc, #-336]!	; 214c <__code_start__-0x5eb4>
    2298:	32015101 	andcc	r5, r1, #1073741824	; 0x40000000
    229c:	8d381200 	lfmhi	f1, 4, [r8, #-0]
    22a0:	053b0000 	ldreq	r0, [fp, #-0]!
    22a4:	44170000 	ldrmi	r0, [r7], #-0
    22a8:	d100008d 	smlabble	r0, sp, r0, r0
    22ac:	fd000004 	stc2	0, cr0, [r0, #-16]
    22b0:	15000003 	strne	r0, [r0, #-3]
    22b4:	0c055001 	stceq	0, cr5, [r5], {1}
    22b8:	20215004 	eorcs	r5, r1, r4
    22bc:	01510115 	cmpeq	r1, r5, lsl r1
    22c0:	48120031 	ldmdami	r2, {r0, r4, r5}
    22c4:	3b00008d 	blcc	2500 <__code_start__-0x5b00>
    22c8:	17000005 	strne	r0, [r0, -r5]
    22cc:	00008d58 	andeq	r8, r0, r8, asr sp
    22d0:	00000553 	andeq	r0, r0, r3, asr r5
    22d4:	0000041f 	andeq	r0, r0, pc, lsl r4
    22d8:	02500115 	subseq	r0, r0, #1073741829	; 0x40000005
    22dc:	01150074 	tsteq	r5, r4, ror r0
    22e0:	00300151 	eorseq	r0, r0, r1, asr r1
    22e4:	008d6417 	addeq	r6, sp, r7, lsl r4
    22e8:	00055300 	andeq	r5, r5, r0, lsl #6
    22ec:	00043b00 	andeq	r3, r4, r0, lsl #22
    22f0:	50011500 	andpl	r1, r1, r0, lsl #10
    22f4:	50440c05 	subpl	r0, r4, r5, lsl #24
    22f8:	01152021 	tsteq	r5, r1, lsr #32
    22fc:	00300151 	eorseq	r0, r0, r1, asr r1
    2300:	008d7017 	addeq	r7, sp, r7, lsl r0
    2304:	00055300 	andeq	r5, r5, r0, lsl #6
    2308:	00045700 	andeq	r5, r4, r0, lsl #14
    230c:	50011500 	andpl	r1, r1, r0, lsl #10
    2310:	504c0c05 	subpl	r0, ip, r5, lsl #24
    2314:	01152021 	tsteq	r5, r1, lsr #32
    2318:	00330151 	eorseq	r0, r3, r1, asr r1
    231c:	008d7c17 	addeq	r7, sp, r7, lsl ip
    2320:	00055300 	andeq	r5, r5, r0, lsl #6
    2324:	00047300 	andeq	r7, r4, r0, lsl #6
    2328:	50011500 	andpl	r1, r1, r0, lsl #10
    232c:	50500c05 	subspl	r0, r0, r5, lsl #24
    2330:	01152021 	tsteq	r5, r1, lsr #32
    2334:	00300151 	eorseq	r0, r0, r1, asr r1
    2338:	008d8817 	addeq	r8, sp, r7, lsl r8
    233c:	00055300 	andeq	r5, r5, r0, lsl #6
    2340:	00049000 	andeq	r9, r4, r0
    2344:	50011500 	andpl	r1, r1, r0, lsl #10
    2348:	50480c05 	subpl	r0, r8, r5, lsl #24
    234c:	01152021 	tsteq	r5, r1, lsr #32
    2350:	c7080251 	smlsdgt	r8, r1, r2, r0
    2354:	8d941700 	ldchi	7, cr1, [r4]
    2358:	05530000 	ldrbeq	r0, [r3, #-0]
    235c:	04ae0000 	strteq	r0, [lr], #0
    2360:	01150000 	tsteq	r5, r0
    2364:	680c0550 	stmdavs	ip, {r4, r6, r8, sl}
    2368:	15202150 	strne	r2, [r0, #-336]!	; 0xfffffeb0
    236c:	0a035101 	beq	d6778 <__bss_end__+0xccf00>
    2370:	1700010e 	strne	r0, [r0, -lr, lsl #2]
    2374:	00008da0 	andeq	r8, r0, r0, lsr #27
    2378:	00000553 	andeq	r0, r0, r3, asr r5
    237c:	000004c7 	andeq	r0, r0, r7, asr #9
    2380:	02500115 	subseq	r0, r0, #1073741829	; 0x40000005
    2384:	01150074 	tsteq	r5, r4, ror r0
    2388:	00330151 	eorseq	r0, r3, r1, asr r1
    238c:	008da412 	addeq	sl, sp, r2, lsl r4
    2390:	00053b00 	andeq	r3, r5, r0, lsl #22
    2394:	441a0000 	ldrmi	r0, [sl], #-0
    2398:	01000006 	tsteq	r0, r6
    239c:	8cf80d2e 	ldclhi	13, cr0, [r8], #184	; 0xb8
    23a0:	00200000 	eoreq	r0, r0, r0
    23a4:	9c010000 	stcls	0, cr0, [r1], {-0}
    23a8:	00000534 	andeq	r0, r0, r4, lsr r5
    23ac:	00022f1b 	andeq	r2, r2, fp, lsl pc
    23b0:	242e0100 	strtcs	r0, [lr], #-256	; 0xffffff00
    23b4:	00000534 	andeq	r0, r0, r4, lsr r5
    23b8:	00000d9f 	muleq	r0, pc, sp	; <UNPREDICTABLE>
    23bc:	00000d9b 	muleq	r0, fp, sp
    23c0:	6c617616 	stclvs	6, cr7, [r1], #-88	; 0xffffffa8
    23c4:	332e0100 			; <UNDEFINED> instruction: 0x332e0100
    23c8:	0000002c 	andeq	r0, r0, ip, lsr #32
    23cc:	00000dc1 	andeq	r0, r0, r1, asr #27
    23d0:	00000dbd 			; <UNDEFINED> instruction: 0x00000dbd
    23d4:	008d0817 	addeq	r0, sp, r7, lsl r8
    23d8:	00054700 	andeq	r4, r5, r0, lsl #14
    23dc:	00052300 	andeq	r2, r5, r0, lsl #6
    23e0:	50011500 	andpl	r1, r1, r0, lsl #10
    23e4:	00007402 	andeq	r7, r0, r2, lsl #8
    23e8:	008d1414 	addeq	r1, sp, r4, lsl r4
    23ec:	00055300 	andeq	r5, r5, r0, lsl #6
    23f0:	50011500 	andpl	r1, r1, r0, lsl #10
    23f4:	00007402 	andeq	r7, r0, r2, lsl #8
    23f8:	3a040900 	bcc	104800 <__bss_end__+0xfaf88>
    23fc:	1c000005 	stcne	0, cr0, [r0], {5}
    2400:	0004be1d 	andeq	fp, r4, sp, lsl lr
    2404:	0004be00 	andeq	fp, r4, r0, lsl #28
    2408:	06930200 	ldreq	r0, [r3], r0, lsl #4
    240c:	00067b1d 	andeq	r7, r6, sp, lsl fp
    2410:	00067b00 	andeq	r7, r6, r0, lsl #22
    2414:	0bb10200 	bleq	fec42c1c <__bss_end__+0xfec393a4>
    2418:	0005e71d 	andeq	lr, r5, sp, lsl r7
    241c:	0005e700 	andeq	lr, r5, r0, lsl #14
    2420:	06a50200 	strteq	r0, [r5], r0, lsl #4
    2424:	0006691d 	andeq	r6, r6, sp, lsl r9
    2428:	00066900 	andeq	r6, r6, r0, lsl #18
    242c:	06190400 	ldreq	r0, [r9], -r0, lsl #8
    2430:	00052400 	andeq	r2, r5, r0, lsl #8
    2434:	cc000400 	cfstrsgt	mvf0, [r0], {-0}
    2438:	0400000c 	streq	r0, [r0], #-12
    243c:	0000c001 	andeq	ip, r0, r1
    2440:	06e30c00 	strbteq	r0, [r3], r0, lsl #24
    2444:	02710000 	rsbseq	r0, r1, #0, 0
    2448:	8ea40000 	cdphi	0, 10, cr0, cr4, cr0, {0}
    244c:	01ac0000 			; <UNDEFINED> instruction: 0x01ac0000
    2450:	104f0000 	subne	r0, pc, r0
    2454:	04020000 	streq	r0, [r2], #-0
    2458:	746e6905 	strbtvc	r6, [lr], #-2309	; 0xfffff6fb
    245c:	07040300 	streq	r0, [r4, -r0, lsl #6]
    2460:	0000003c 	andeq	r0, r0, ip, lsr r0
    2464:	00002c04 	andeq	r2, r0, r4, lsl #24
    2468:	06010300 	streq	r0, [r1], -r0, lsl #6
    246c:	0000000a 	andeq	r0, r0, sl
    2470:	9f050203 	svcls	0x00050203
    2474:	03000000 	movweq	r0, #0
    2478:	004e0504 	subeq	r0, lr, r4, lsl #10
    247c:	08030000 	stmdaeq	r3, {}	; <UNPREDICTABLE>
    2480:	00004905 	andeq	r4, r0, r5, lsl #18
    2484:	08010300 	stmdaeq	r1, {r8, r9}
    2488:	00000008 	andeq	r0, r0, r8
    248c:	16070203 	strne	r0, [r7], -r3, lsl #4
    2490:	03000000 	movweq	r0, #0
    2494:	00370704 	eorseq	r0, r7, r4, lsl #14
    2498:	08030000 	stmdaeq	r3, {}	; <UNPREDICTABLE>
    249c:	00003207 	andeq	r3, r0, r7, lsl #4
    24a0:	00250500 	eoreq	r0, r5, r0, lsl #10
    24a4:	007f0000 	rsbseq	r0, pc, r0
    24a8:	25060000 	strcs	r0, [r6, #-0]
    24ac:	00000000 	andeq	r0, r0, r0
    24b0:	00005707 	andeq	r5, r0, r7, lsl #14
    24b4:	0e1c0200 	cdpeq	2, 1, cr0, cr12, cr0, {0}
    24b8:	0000008b 	andeq	r0, r0, fp, lsl #1
    24bc:	00700408 	rsbseq	r0, r0, r8, lsl #8
    24c0:	25050000 	strcs	r0, [r5, #-0]
    24c4:	a0000000 	andge	r0, r0, r0
    24c8:	06000000 	streq	r0, [r0], -r0
    24cc:	000000a0 	andeq	r0, r0, r0, lsr #1
    24d0:	ad040800 	stcge	8, cr0, [r4, #-0]
    24d4:	03000000 	movweq	r0, #0
    24d8:	00110801 	andseq	r0, r1, r1, lsl #16
    24dc:	a6090000 	strge	r0, [r9], -r0
    24e0:	07000000 	streq	r0, [r0, -r0]
    24e4:	000002d9 	ldrdeq	r0, [r0], -r9
    24e8:	be0e2102 	adflte	f2, f6, f2
    24ec:	08000000 	stmdaeq	r0, {}	; <UNPREDICTABLE>
    24f0:	00009104 	andeq	r9, r0, r4, lsl #2
    24f4:	01070a00 	tsteq	r7, r0, lsl #20
    24f8:	00000054 	andeq	r0, r0, r4, asr r0
    24fc:	030e0c03 	movweq	r0, #60419	; 0xec03
    2500:	0b000001 	bleq	250c <__code_start__-0x5af4>
    2504:	00000659 	andeq	r0, r0, r9, asr r6
    2508:	052c0b00 	streq	r0, [ip, #-2816]!	; 0xfffff500
    250c:	0b010000 	bleq	42514 <__bss_end__+0x38c9c>
    2510:	0000059c 	muleq	r0, ip, r5
    2514:	05ab0b04 	streq	r0, [fp, #2820]!	; 0xb04
    2518:	0b050000 	bleq	142520 <__bss_end__+0x138ca8>
    251c:	000005ba 			; <UNDEFINED> instruction: 0x000005ba
    2520:	05c90b06 	strbeq	r0, [r9, #2822]	; 0xb06
    2524:	0b070000 	bleq	1c252c <__bss_end__+0x1b8cb4>
    2528:	00000635 	andeq	r0, r0, r5, lsr r6
    252c:	05d80b03 	ldrbeq	r0, [r8, #2819]	; 0xb03
    2530:	00020000 	andeq	r0, r2, r0
    2534:	00071c0c 	andeq	r1, r7, ip, lsl #24
    2538:	03150300 	tsteq	r5, #0, 6
    253c:	000000c4 	andeq	r0, r0, r4, asr #1
    2540:	0006a00d 	andeq	sl, r6, sp
    2544:	1b110100 	blne	44294c <__bss_end__+0x4390d4>
    2548:	0000011b 	andeq	r0, r0, fp, lsl r1
    254c:	00330408 	eorseq	r0, r3, r8, lsl #8
    2550:	8b0d0000 	blhi	342558 <__bss_end__+0x338ce0>
    2554:	01000006 	tsteq	r0, r6
    2558:	011b1b12 	tsteq	fp, r2, lsl fp
    255c:	810d0000 	mrshi	r0, (UNDEF: 13)
    2560:	01000006 	tsteq	r0, r6
    2564:	011b1b13 	tsteq	fp, r3, lsl fp
    2568:	690e0000 	stmdbvs	lr, {}	; <UNPREDICTABLE>
    256c:	01000006 	tsteq	r0, r6
    2570:	8ff00668 	svchi	0x00f00668
    2574:	00600000 	rsbeq	r0, r0, r0
    2578:	9c010000 	stcls	0, cr0, [r1], {-0}
    257c:	00000200 	andeq	r0, r0, r0, lsl #4
    2580:	6e69700f 	cdpvs	0, 6, cr7, cr9, cr15, {0}
    2584:	21680100 	cmncs	r8, r0, lsl #2
    2588:	0000002c 	andeq	r0, r0, ip, lsr #32
    258c:	00000de5 	andeq	r0, r0, r5, ror #27
    2590:	00000ddf 	ldrdeq	r0, [r0], -pc	; <UNPREDICTABLE>
    2594:	00067210 	andeq	r7, r6, r0, lsl r2
    2598:	32680100 	rsbcc	r0, r8, #0
    259c:	00000103 	andeq	r0, r0, r3, lsl #2
    25a0:	00000e15 	andeq	r0, r0, r5, lsl lr
    25a4:	00000e11 	andeq	r0, r0, r1, lsl lr
    25a8:	00022f11 	andeq	r2, r2, r1, lsl pc
    25ac:	186b0100 	stmdane	fp!, {r8}^
    25b0:	0000011b 	andeq	r0, r0, fp, lsl r1
    25b4:	00000e38 	andeq	r0, r0, r8, lsr lr
    25b8:	00000e36 	andeq	r0, r0, r6, lsr lr
    25bc:	0006d311 	andeq	sp, r6, r1, lsl r3
    25c0:	0e6c0100 	poweqe	f0, f4, f0
    25c4:	0000002c 	andeq	r0, r0, ip, lsr #32
    25c8:	00000e4d 	andeq	r0, r0, sp, asr #28
    25cc:	00000e4b 	andeq	r0, r0, fp, asr #28
    25d0:	0006ab11 	andeq	sl, r6, r1, lsl fp
    25d4:	0e6e0100 	poweqe	f0, f6, f0
    25d8:	0000002c 	andeq	r0, r0, ip, lsr #32
    25dc:	00000e62 	andeq	r0, r0, r2, ror #28
    25e0:	00000e60 	andeq	r0, r0, r0, ror #28
    25e4:	00072d11 	andeq	r2, r7, r1, lsl sp
    25e8:	0e6f0100 	poweqe	f0, f7, f0
    25ec:	0000002c 	andeq	r0, r0, ip, lsr #32
    25f0:	00000e77 	andeq	r0, r0, r7, ror lr
    25f4:	00000e75 	andeq	r0, r0, r5, ror lr
    25f8:	0006cc11 	andeq	ip, r6, r1, lsl ip
    25fc:	0e710100 	rpweqs	f0, f1, f0
    2600:	0000002c 	andeq	r0, r0, ip, lsr #32
    2604:	00000e92 	muleq	r0, r2, lr
    2608:	00000e8e 	andeq	r0, r0, lr, lsl #29
    260c:	00902812 	addseq	r2, r0, r2, lsl r8
    2610:	00050f00 	andeq	r0, r5, r0, lsl #30
    2614:	0001ef00 	andeq	lr, r1, r0, lsl #30
    2618:	50011300 	andpl	r1, r1, r0, lsl #6
    261c:	00007702 	andeq	r7, r0, r2, lsl #14
    2620:	00904814 	addseq	r4, r0, r4, lsl r8
    2624:	00051b00 	andeq	r1, r5, r0, lsl #22
    2628:	50011300 	andpl	r1, r1, r0, lsl #6
    262c:	00007702 	andeq	r7, r0, r2, lsl #14
    2630:	06d91500 	ldrbeq	r1, [r9], r0, lsl #10
    2634:	5d010000 	stcpl	0, cr0, [r1, #-0]
    2638:	00002505 	andeq	r2, r0, r5, lsl #10
    263c:	008fb800 	addeq	fp, pc, r0, lsl #16
    2640:	00003800 	andeq	r3, r0, r0, lsl #16
    2644:	8c9c0100 	ldfhis	f0, [ip], {0}
    2648:	0f000002 	svceq	0x00000002
    264c:	006e6970 	rsbeq	r6, lr, r0, ror r9
    2650:	2c185d01 	ldccs	13, cr5, [r8], {1}
    2654:	c0000000 	andgt	r0, r0, r0
    2658:	b800000e 	stmdalt	r0, {r1, r2, r3}
    265c:	1600000e 	strne	r0, [r0], -lr
    2660:	60010076 	andvs	r0, r1, r6, ror r0
    2664:	00002c0e 	andeq	r2, r0, lr, lsl #24
    2668:	000ef900 	andeq	pc, lr, r0, lsl #18
    266c:	000ef700 	andeq	pc, lr, r0, lsl #14
    2670:	022f1700 	eoreq	r1, pc, #0, 14
    2674:	61010000 	mrsvs	r0, (UNDEF: 1)
    2678:	00011b18 	andeq	r1, r1, r8, lsl fp
    267c:	20003400 	andcs	r3, r0, r0, lsl #8
    2680:	07281120 	streq	r1, [r8, -r0, lsr #2]!
    2684:	62010000 	andvs	r0, r1, #0, 0
    2688:	00002c0e 	andeq	r2, r0, lr, lsl #24
    268c:	000f0f00 	andeq	r0, pc, r0, lsl #30
    2690:	000f0d00 	andeq	r0, pc, r0, lsl #26
    2694:	072d1100 	streq	r1, [sp, -r0, lsl #2]!
    2698:	63010000 	movwvs	r0, #4096	; 0x1000
    269c:	00002c0e 	andeq	r2, r0, lr, lsl #24
    26a0:	000f2400 	andeq	r2, pc, r0, lsl #8
    26a4:	000f2200 	andeq	r2, pc, r0, lsl #4
    26a8:	8fd81400 	svchi	0x00d81400
    26ac:	050f0000 	streq	r0, [pc, #-0]	; 26b4 <__code_start__-0x594c>
    26b0:	01130000 	tsteq	r3, r0
    26b4:	340c0550 	strcc	r0, [ip], #-1360	; 0xfffffab0
    26b8:	00202000 	eoreq	r2, r0, r0
    26bc:	06f00e00 	ldrbteq	r0, [r0], r0, lsl #28
    26c0:	4e010000 	cdpmi	0, 0, cr0, cr1, cr0, {0}
    26c4:	008f6406 	addeq	r6, pc, r6, lsl #8
    26c8:	00005400 	andeq	r5, r0, r0, lsl #8
    26cc:	3f9c0100 	svccc	0x009c0100
    26d0:	0f000003 	svceq	0x00000003
    26d4:	006e6970 	rsbeq	r6, lr, r0, ror r9
    26d8:	2c1e4e01 	ldccs	14, cr4, [lr], {1}
    26dc:	41000000 	mrsmi	r0, (UNDEF: 0)
    26e0:	3b00000f 	blcc	2724 <__code_start__-0x58dc>
    26e4:	1100000f 	tstne	r0, pc
    26e8:	0000022f 	andeq	r0, r0, pc, lsr #4
    26ec:	1b185101 	blne	616af8 <__bss_end__+0x60d280>
    26f0:	6f000001 	svcvs	0x00000001
    26f4:	6d00000f 	stcvs	0, cr0, [r0, #-60]	; 0xffffffc4
    26f8:	1100000f 	tstne	r0, pc
    26fc:	000006d3 	ldrdeq	r0, [r0], -r3
    2700:	2c0e5201 	sfmcs	f5, 4, [lr], {1}
    2704:	84000000 	strhi	r0, [r0], #-0
    2708:	8200000f 	andhi	r0, r0, #15, 0
    270c:	1100000f 	tstne	r0, pc
    2710:	000006ab 	andeq	r0, r0, fp, lsr #13
    2714:	2c0e5401 	cfstrscs	mvf5, [lr], {1}
    2718:	99000000 	stmdbls	r0, {}	; <UNPREDICTABLE>
    271c:	9700000f 	strls	r0, [r0, -pc]
    2720:	1100000f 	tstne	r0, pc
    2724:	0000072d 	andeq	r0, r0, sp, lsr #14
    2728:	2c0e5501 	cfstr32cs	mvfx5, [lr], {1}
    272c:	ae000000 	cdpge	0, 0, cr0, cr0, cr0, {0}
    2730:	ac00000f 	stcge	0, cr0, [r0], {15}
    2734:	1100000f 	tstne	r0, pc
    2738:	000006cc 	andeq	r0, r0, ip, asr #13
    273c:	2c0e5701 	stccs	7, cr5, [lr], {1}
    2740:	c9000000 	stmdbgt	r0, {}	; <UNPREDICTABLE>
    2744:	c500000f 	strgt	r0, [r0, #-15]
    2748:	1200000f 	andne	r0, r0, #15, 0
    274c:	00008f94 	muleq	r0, r4, pc	; <UNPREDICTABLE>
    2750:	0000050f 	andeq	r0, r0, pc, lsl #10
    2754:	0000032e 	andeq	r0, r0, lr, lsr #6
    2758:	02500113 	subseq	r0, r0, #-1073741820	; 0xc0000004
    275c:	14000076 	strne	r0, [r0], #-118	; 0xffffff8a
    2760:	00008fb0 			; <UNDEFINED> instruction: 0x00008fb0
    2764:	0000051b 	andeq	r0, r0, fp, lsl r5
    2768:	02500113 	subseq	r0, r0, #-1073741820	; 0xc0000004
    276c:	00000076 	andeq	r0, r0, r6, ror r0
    2770:	0006950e 	andeq	r9, r6, lr, lsl #10
    2774:	06420100 	strbeq	r0, [r2], -r0, lsl #2
    2778:	00008f48 	andeq	r8, r0, r8, asr #30
    277c:	0000001c 	andeq	r0, r0, ip, lsl r0
    2780:	039a9c01 	orrseq	r9, sl, #256	; 0x100
    2784:	700f0000 	andvc	r0, pc, r0
    2788:	01006e69 	tsteq	r0, r9, ror #28
    278c:	002c1a42 	eoreq	r1, ip, r2, asr #20
    2790:	0ff70000 	svceq	0x00f70000
    2794:	0fef0000 	svceq	0x00ef0000
    2798:	760f0000 	strvc	r0, [pc], -r0
    279c:	28420100 	stmdacs	r2, {r8}^
    27a0:	0000002c 	andeq	r0, r0, ip, lsr #32
    27a4:	00001039 	andeq	r1, r0, r9, lsr r0
    27a8:	00001031 	andeq	r1, r0, r1, lsr r0
    27ac:	008f5812 	addeq	r5, pc, r2, lsl r8	; <UNPREDICTABLE>
    27b0:	0003f100 	andeq	pc, r3, r0, lsl #2
    27b4:	00039000 	andeq	r9, r3, r0
    27b8:	50011300 	andpl	r1, r1, r0, lsl #6
    27bc:	5001f303 	andpl	pc, r1, r3, lsl #6
    27c0:	8f601800 	svchi	0x00601800
    27c4:	039a0000 	orrseq	r0, sl, #0, 0
    27c8:	0e000000 	cdpeq	0, 0, cr0, cr0, cr0, {0}
    27cc:	000006ff 	strdeq	r0, [r0], -pc	; <UNPREDICTABLE>
    27d0:	24063901 	strcs	r3, [r6], #-2305	; 0xfffff6ff
    27d4:	2400008f 	strcs	r0, [r0], #-143	; 0xffffff71
    27d8:	01000000 	mrseq	r0, (UNDEF: 0)
    27dc:	0003f19c 	muleq	r3, ip, r1
    27e0:	69700f00 	ldmdbvs	r0!, {r8, r9, sl, fp}^
    27e4:	3901006e 	stmdbcc	r1, {r1, r2, r3, r5, r6}
    27e8:	00002c1c 	andeq	r2, r0, ip, lsl ip
    27ec:	00107700 	andseq	r7, r0, r0, lsl #14
    27f0:	00107300 	andseq	r7, r0, r0, lsl #6
    27f4:	022f1700 	eoreq	r1, pc, #0, 14
    27f8:	3b010000 	blcc	42800 <__bss_end__+0x38f88>
    27fc:	00011b18 	andeq	r1, r1, r8, lsl fp
    2800:	20002800 	andcs	r2, r0, r0, lsl #16
    2804:	8f401420 	svchi	0x00401420
    2808:	051b0000 	ldreq	r0, [fp, #-0]
    280c:	01130000 	tsteq	r3, r0
    2810:	280c0550 	stmdacs	ip, {r4, r6, r8, sl}
    2814:	13202000 	nopne	{0}	; <UNPREDICTABLE>
    2818:	31055101 	tstcc	r5, r1, lsl #2
    281c:	245001f3 	ldrbcs	r0, [r0], #-499	; 0xfffffe0d
    2820:	350e0000 	strcc	r0, [lr, #-0]
    2824:	01000007 	tsteq	r0, r7
    2828:	8f000630 	svchi	0x00000630
    282c:	00240000 	eoreq	r0, r4, r0
    2830:	9c010000 	stcls	0, cr0, [r1], {-0}
    2834:	00000448 	andeq	r0, r0, r8, asr #8
    2838:	6e69700f 	cdpvs	0, 6, cr7, cr9, cr15, {0}
    283c:	1b300100 	blne	c02c44 <__bss_end__+0xbf93cc>
    2840:	0000002c 	andeq	r0, r0, ip, lsr #32
    2844:	0000109c 	muleq	r0, ip, r0
    2848:	00001098 	muleq	r0, r8, r0
    284c:	00022f17 	andeq	r2, r2, r7, lsl pc
    2850:	18320100 	ldmdane	r2!, {r8}
    2854:	0000011b 	andeq	r0, r0, fp, lsl r1
    2858:	2020001c 	eorcs	r0, r0, ip, lsl r0
    285c:	008f1c14 	addeq	r1, pc, r4, lsl ip	; <UNPREDICTABLE>
    2860:	00051b00 	andeq	r1, r5, r0, lsl #22
    2864:	50011300 	andpl	r1, r1, r0, lsl #6
    2868:	001c0c05 	andseq	r0, ip, r5, lsl #24
    286c:	01132020 	tsteq	r3, r0, lsr #32
    2870:	f3310551 	vqrshl.u64	q0, <illegal reg q0.5>, <illegal reg q0.5>
    2874:	00245001 	eoreq	r5, r4, r1
    2878:	070c0e00 	streq	r0, [ip, -r0, lsl #28]
    287c:	1e010000 	cdpne	0, 0, cr0, cr1, cr0, {0}
    2880:	008ea406 	addeq	sl, lr, r6, lsl #8
    2884:	00005c00 	andeq	r5, r0, r0, lsl #24
    2888:	0f9c0100 	svceq	0x009c0100
    288c:	0f000005 	svceq	0x00000005
    2890:	006e6970 	rsbeq	r6, lr, r0, ror r9
    2894:	2c1f1e01 	ldccs	14, cr1, [pc], {1}
    2898:	c3000000 	movwgt	r0, #0
    289c:	bd000010 	stclt	0, cr0, [r0, #-64]	; 0xffffffc0
    28a0:	11000010 	tstne	r0, r0, lsl r0
    28a4:	0000022f 	andeq	r0, r0, pc, lsr #4
    28a8:	1b182301 	blne	60b4b4 <__bss_end__+0x601c3c>
    28ac:	f1000001 	cps	#1
    28b0:	ef000010 	svc	0x00000010
    28b4:	11000010 	tstne	r0, r0, lsl r0
    28b8:	000006d3 	ldrdeq	r0, [r0], -r3
    28bc:	2c0e2401 	cfstrscs	mvf2, [lr], {1}
    28c0:	06000000 	streq	r0, [r0], -r0
    28c4:	04000011 	streq	r0, [r0], #-17	; 0xffffffef
    28c8:	11000011 	tstne	r0, r1, lsl r0
    28cc:	000006ab 	andeq	r0, r0, fp, lsr #13
    28d0:	2c0e2601 	stccs	6, cr2, [lr], {1}
    28d4:	1b000000 	blne	28dc <__code_start__-0x5724>
    28d8:	19000011 	stmdbne	r0, {r0, r4}
    28dc:	11000011 	tstne	r0, r1, lsl r0
    28e0:	0000072d 	andeq	r0, r0, sp, lsr #14
    28e4:	2c0e2701 	stccs	7, cr2, [lr], {1}
    28e8:	30000000 	andcc	r0, r0, r0
    28ec:	2e000011 	mcrcs	0, 0, r0, cr0, cr1, {0}
    28f0:	11000011 	tstne	r0, r1, lsl r0
    28f4:	000006cc 	andeq	r0, r0, ip, asr #13
    28f8:	2c0e2901 			; <UNDEFINED> instruction: 0x2c0e2901
    28fc:	49000000 	stmdbmi	r0, {}	; <UNPREDICTABLE>
    2900:	47000011 	smladmi	r0, r1, r0, r0
    2904:	11000011 	tstne	r0, r1, lsl r0
    2908:	000006be 			; <UNDEFINED> instruction: 0x000006be
    290c:	2c0e2a01 			; <UNDEFINED> instruction: 0x2c0e2a01
    2910:	5e000000 	cdppl	0, 0, cr0, cr0, cr0, {0}
    2914:	5c000011 	stcpl	0, cr0, [r0], {17}
    2918:	12000011 	andne	r0, r0, #17, 0
    291c:	00008ed4 	ldrdeq	r8, [r0], -r4
    2920:	0000050f 	andeq	r0, r0, pc, lsl #10
    2924:	000004fe 	strdeq	r0, [r0], -lr
    2928:	02500113 	subseq	r0, r0, #-1073741820	; 0xc0000004
    292c:	14000076 	strne	r0, [r0], #-118	; 0xffffff8a
    2930:	00008ef8 	strdeq	r8, [r0], -r8	; <UNPREDICTABLE>
    2934:	0000051b 	andeq	r0, r0, fp, lsl r5
    2938:	02500113 	subseq	r0, r0, #-1073741820	; 0xc0000004
    293c:	00000076 	andeq	r0, r0, r6, ror r0
    2940:	00067b19 	andeq	r7, r6, r9, lsl fp
    2944:	00067b00 	andeq	r7, r6, r0, lsl #22
    2948:	0bb10200 	bleq	fec43150 <__bss_end__+0xfec398d8>
    294c:	0005e719 	andeq	lr, r5, r9, lsl r7
    2950:	0005e700 	andeq	lr, r5, r0, lsl #14
    2954:	06a50200 	strteq	r0, [r5], r0, lsl #4
    2958:	00013700 	andeq	r3, r1, r0, lsl #14
    295c:	49000400 	stmdbmi	r0, {sl}
    2960:	0400000e 	streq	r0, [r0], #-14
    2964:	0000c001 	andeq	ip, r0, r1
    2968:	07460c00 	strbeq	r0, [r6, -r0, lsl #24]
    296c:	02710000 	rsbseq	r0, r1, #0, 0
    2970:	90500000 	subsls	r0, r0, r0
    2974:	00340000 	eorseq	r0, r4, r0
    2978:	120a0000 	andne	r0, sl, #0, 0
    297c:	04020000 	streq	r0, [r2], #-0
    2980:	746e6905 	strbtvc	r6, [lr], #-2309	; 0xfffff6fb
    2984:	07040300 	streq	r0, [r4, -r0, lsl #6]
    2988:	0000003c 	andeq	r0, r0, ip, lsr r0
    298c:	0a060103 	beq	182da0 <__bss_end__+0x179528>
    2990:	03000000 	movweq	r0, #0
    2994:	009f0502 	addseq	r0, pc, r2, lsl #10
    2998:	04030000 	streq	r0, [r3], #-0
    299c:	00004e05 	andeq	r4, r0, r5, lsl #28
    29a0:	05080300 	streq	r0, [r8, #-768]	; 0xfffffd00
    29a4:	00000049 	andeq	r0, r0, r9, asr #32
    29a8:	08080103 	stmdaeq	r8, {r0, r1, r8}
    29ac:	03000000 	movweq	r0, #0
    29b0:	00160702 	andseq	r0, r6, r2, lsl #14
    29b4:	04030000 	streq	r0, [r3], #-0
    29b8:	00003707 	andeq	r3, r0, r7, lsl #14
    29bc:	07080300 	streq	r0, [r8, -r0, lsl #6]
    29c0:	00000032 	andeq	r0, r0, r2, lsr r0
    29c4:	00002504 	andeq	r2, r0, r4, lsl #10
    29c8:	00007a00 	andeq	r7, r0, r0, lsl #20
    29cc:	00250500 	eoreq	r0, r5, r0, lsl #10
    29d0:	06000000 	streq	r0, [r0], -r0
    29d4:	00000057 	andeq	r0, r0, r7, asr r0
    29d8:	860e1c02 	strhi	r1, [lr], -r2, lsl #24
    29dc:	07000000 	streq	r0, [r0, -r0]
    29e0:	00006b04 	andeq	r6, r0, r4, lsl #22
    29e4:	00250400 	eoreq	r0, r5, r0, lsl #8
    29e8:	009b0000 	addseq	r0, fp, r0
    29ec:	9b050000 	blls	1429f4 <__bss_end__+0x13917c>
    29f0:	00000000 	andeq	r0, r0, r0
    29f4:	00a80407 	adceq	r0, r8, r7, lsl #8
    29f8:	01030000 	mrseq	r0, (UNDEF: 3)
    29fc:	00001108 	andeq	r1, r0, r8, lsl #2
    2a00:	00a10800 	adceq	r0, r1, r0, lsl #16
    2a04:	d9060000 	stmdble	r6, {}	; <UNPREDICTABLE>
    2a08:	02000002 	andeq	r0, r0, #2, 0
    2a0c:	00b90e21 	adcseq	r0, r9, r1, lsr #28
    2a10:	04070000 	streq	r0, [r7], #-0
    2a14:	0000008c 	andeq	r0, r0, ip, lsl #1
    2a18:	00037609 	andeq	r7, r3, r9, lsl #12
    2a1c:	07040100 	streq	r0, [r4, -r0, lsl #2]
    2a20:	00000134 	andeq	r0, r0, r4, lsr r1
    2a24:	00009050 	andeq	r9, r0, r0, asr r0
    2a28:	00000034 	andeq	r0, r0, r4, lsr r0
    2a2c:	01349c01 	teqeq	r4, r1, lsl #24
    2a30:	410a0000 	mrsmi	r0, (UNDEF: 10)
    2a34:	01000007 	tsteq	r0, r7
    2a38:	01341504 	teqeq	r4, r4, lsl #10
    2a3c:	50010000 	andpl	r0, r1, r0
    2a40:	6372730b 	cmnvs	r2, #738197504	; 0x2c000000
    2a44:	27040100 	strcs	r0, [r4, -r0, lsl #2]
    2a48:	0000009b 	muleq	r0, fp, r0
    2a4c:	00001179 	andeq	r1, r0, r9, ror r1
    2a50:	00001175 	andeq	r1, r0, r5, ror r1
    2a54:	0031730c 	eorseq	r7, r1, ip, lsl #6
    2a58:	340b0501 	strcc	r0, [fp], #-1281	; 0xfffffaff
    2a5c:	a4000001 	strge	r0, [r0], #-1
    2a60:	9a000011 	bls	2aac <__code_start__-0x5554>
    2a64:	0c000011 	stceq	0, cr0, [r0], {17}
    2a68:	01003273 	tsteq	r0, r3, ror r2
    2a6c:	009b1106 	addseq	r1, fp, r6, lsl #2
    2a70:	11e90000 	mvnne	r0, r0
    2a74:	11e50000 	mvnne	r0, r0
    2a78:	630c0000 	movwvs	r0, #49152	; 0xc000
    2a7c:	0a070100 	beq	1c2e84 <__bss_end__+0x1b960c>
    2a80:	000000a1 	andeq	r0, r0, r1, lsr #1
    2a84:	0000120d 	andeq	r1, r0, sp, lsl #4
    2a88:	00001209 	andeq	r1, r0, r9, lsl #4
    2a8c:	a1040700 	tstge	r4, r0, lsl #14
    2a90:	00000000 	andeq	r0, r0, r0
    2a94:	000000f7 	strdeq	r0, [r0], -r7
    2a98:	0eff0004 	cdpeq	0, 15, cr0, cr15, cr4, {0}
    2a9c:	01040000 	mrseq	r0, (UNDEF: 4)
    2aa0:	000000c0 	andeq	r0, r0, r0, asr #1
    2aa4:	0007560c 	andeq	r5, r7, ip, lsl #12
    2aa8:	00027100 	andeq	r7, r2, r0, lsl #2
    2aac:	00908400 	addseq	r8, r0, r0, lsl #8
    2ab0:	00002c00 	andeq	r2, r0, r0, lsl #24
    2ab4:	0012f700 	andseq	pc, r2, r0, lsl #14
    2ab8:	05040200 	streq	r0, [r4, #-512]	; 0xfffffe00
    2abc:	00746e69 	rsbseq	r6, r4, r9, ror #28
    2ac0:	3c070403 	cfstrscc	mvf0, [r7], {3}
    2ac4:	03000000 	movweq	r0, #0
    2ac8:	000a0601 	andeq	r0, sl, r1, lsl #12
    2acc:	02030000 	andeq	r0, r3, #0, 0
    2ad0:	00009f05 	andeq	r9, r0, r5, lsl #30
    2ad4:	05040300 	streq	r0, [r4, #-768]	; 0xfffffd00
    2ad8:	0000004e 	andeq	r0, r0, lr, asr #32
    2adc:	49050803 	stmdbmi	r5, {r0, r1, fp}
    2ae0:	03000000 	movweq	r0, #0
    2ae4:	00080801 	andeq	r0, r8, r1, lsl #16
    2ae8:	02030000 	andeq	r0, r3, #0, 0
    2aec:	00001607 	andeq	r1, r0, r7, lsl #12
    2af0:	07040300 	streq	r0, [r4, -r0, lsl #6]
    2af4:	00000037 	andeq	r0, r0, r7, lsr r0
    2af8:	32070803 	andcc	r0, r7, #196608	; 0x30000
    2afc:	04000000 	streq	r0, [r0], #-0
    2b00:	00000025 	andeq	r0, r0, r5, lsr #32
    2b04:	0000007a 	andeq	r0, r0, sl, ror r0
    2b08:	00002505 	andeq	r2, r0, r5, lsl #10
    2b0c:	57060000 	strpl	r0, [r6, -r0]
    2b10:	02000000 	andeq	r0, r0, #0, 0
    2b14:	00860e1c 	addeq	r0, r6, ip, lsl lr
    2b18:	04070000 	streq	r0, [r7], #-0
    2b1c:	0000006b 	andeq	r0, r0, fp, rrx
    2b20:	00002504 	andeq	r2, r0, r4, lsl #10
    2b24:	00009b00 	andeq	r9, r0, r0, lsl #22
    2b28:	009b0500 	addseq	r0, fp, r0, lsl #10
    2b2c:	07000000 	streq	r0, [r0, -r0]
    2b30:	0000a804 	andeq	sl, r0, r4, lsl #16
    2b34:	08010300 	stmdaeq	r1, {r8, r9}
    2b38:	00000011 	andeq	r0, r0, r1, lsl r0
    2b3c:	0000a108 	andeq	sl, r0, r8, lsl #2
    2b40:	02d90600 	sbcseq	r0, r9, #0, 12
    2b44:	21020000 	mrscs	r0, (UNDEF: 2)
    2b48:	0000b90e 	andeq	fp, r0, lr, lsl #18
    2b4c:	8c040700 	stchi	7, cr0, [r4], {-0}
    2b50:	09000000 	stmdbeq	r0, {}	; <UNPREDICTABLE>
    2b54:	000003ac 	andeq	r0, r0, ip, lsr #7
    2b58:	25050301 	strcs	r0, [r5, #-769]	; 0xfffffcff
    2b5c:	84000000 	strhi	r0, [r0], #-0
    2b60:	2c000090 	stccs	0, cr0, [r0], {144}	; 0x90
    2b64:	01000000 	mrseq	r0, (UNDEF: 0)
    2b68:	00610a9c 	mlseq	r1, ip, sl, r0
    2b6c:	9b180301 	blls	603778 <__bss_end__+0x5f9f00>
    2b70:	2f000000 	svccs	0x00000000
    2b74:	2b000012 	blcs	2bc4 <__code_start__-0x543c>
    2b78:	0a000012 	beq	2bc8 <__code_start__-0x5438>
    2b7c:	03010062 	movweq	r0, #4194	; 0x1062
    2b80:	00009b27 	andeq	r9, r0, r7, lsr #22
    2b84:	00125100 	andseq	r5, r2, r0, lsl #2
    2b88:	00124d00 	andseq	r4, r2, r0, lsl #26
    2b8c:	0f000000 	svceq	0x00000000
    2b90:	04000001 	streq	r0, [r0], #-1
    2b94:	000f8e00 	andeq	r8, pc, r0, lsl #28
    2b98:	c0010400 	andgt	r0, r1, r0, lsl #8
    2b9c:	0c000000 	stceq	0, cr0, [r0], {-0}
    2ba0:	00000766 	andeq	r0, r0, r6, ror #14
    2ba4:	00000271 	andeq	r0, r0, r1, ror r2
    2ba8:	000090b0 	strheq	r9, [r0], -r0
    2bac:	00000020 	andeq	r0, r0, r0, lsr #32
    2bb0:	0000139d 	muleq	r0, sp, r3
    2bb4:	69050402 	stmdbvs	r5, {r1, sl}
    2bb8:	0300746e 	movweq	r7, #1134	; 0x46e
    2bbc:	003c0704 	eorseq	r0, ip, r4, lsl #14
    2bc0:	01030000 	mrseq	r0, (UNDEF: 3)
    2bc4:	00000a06 	andeq	r0, r0, r6, lsl #20
    2bc8:	05020300 	streq	r0, [r2, #-768]	; 0xfffffd00
    2bcc:	0000009f 	muleq	r0, pc, r0	; <UNPREDICTABLE>
    2bd0:	4e050403 	cdpmi	4, 0, cr0, cr5, cr3, {0}
    2bd4:	03000000 	movweq	r0, #0
    2bd8:	00490508 	subeq	r0, r9, r8, lsl #10
    2bdc:	01030000 	mrseq	r0, (UNDEF: 3)
    2be0:	00000808 	andeq	r0, r0, r8, lsl #16
    2be4:	07020300 	streq	r0, [r2, -r0, lsl #6]
    2be8:	00000016 	andeq	r0, r0, r6, lsl r0
    2bec:	37070403 	strcc	r0, [r7, -r3, lsl #8]
    2bf0:	03000000 	movweq	r0, #0
    2bf4:	00320708 	eorseq	r0, r2, r8, lsl #14
    2bf8:	25040000 	strcs	r0, [r4, #-0]
    2bfc:	7a000000 	bvc	2c04 <__code_start__-0x53fc>
    2c00:	05000000 	streq	r0, [r0, #-0]
    2c04:	00000025 	andeq	r0, r0, r5, lsr #32
    2c08:	00570600 	subseq	r0, r7, r0, lsl #12
    2c0c:	1c020000 	stcne	0, cr0, [r2], {-0}
    2c10:	0000860e 	andeq	r8, r0, lr, lsl #12
    2c14:	6b040700 	blvs	10481c <__bss_end__+0xfafa4>
    2c18:	04000000 	streq	r0, [r0], #-0
    2c1c:	00000025 	andeq	r0, r0, r5, lsr #32
    2c20:	0000009b 	muleq	r0, fp, r0
    2c24:	00009b05 	andeq	r9, r0, r5, lsl #22
    2c28:	04070000 	streq	r0, [r7], #-0
    2c2c:	000000a8 	andeq	r0, r0, r8, lsr #1
    2c30:	11080103 	tstne	r8, r3, lsl #2
    2c34:	08000000 	stmdaeq	r0, {}	; <UNPREDICTABLE>
    2c38:	000000a1 	andeq	r0, r0, r1, lsr #1
    2c3c:	0002d906 	andeq	sp, r2, r6, lsl #18
    2c40:	0e210200 	cdpeq	2, 2, cr0, cr1, cr0, {0}
    2c44:	000000b9 	strheq	r0, [r0], -r9
    2c48:	008c0407 	addeq	r0, ip, r7, lsl #8
    2c4c:	7d090000 	stcvc	0, cr0, [r9, #-0]
    2c50:	01000003 	tsteq	r0, r3
    2c54:	010c0703 	tsteq	ip, r3, lsl #14
    2c58:	90b00000 	adcsls	r0, r0, r0
    2c5c:	00200000 	eoreq	r0, r0, r0
    2c60:	9c010000 	stcls	0, cr0, [r1], {-0}
    2c64:	0000010c 	andeq	r0, r0, ip, lsl #2
    2c68:	0031730a 	eorseq	r7, r1, sl, lsl #6
    2c6c:	0c150301 	ldceq	3, cr0, [r5], {1}
    2c70:	01000001 	tsteq	r0, r1
    2c74:	32730b50 	rsbscc	r0, r3, #80, 22	; 0x14000
    2c78:	26030100 	strcs	r0, [r3], -r0, lsl #2
    2c7c:	0000009b 	muleq	r0, fp, r0
    2c80:	00001275 	andeq	r1, r0, r5, ror r2
    2c84:	0000126f 	andeq	r1, r0, pc, ror #4
    2c88:	0100730c 	tsteq	r0, ip, lsl #6
    2c8c:	010c1404 	tsteq	ip, r4, lsl #8
    2c90:	12a60000 	adcne	r0, r6, #0, 0
    2c94:	12a00000 	adcne	r0, r0, #0, 0
    2c98:	07000000 	streq	r0, [r0, -r0]
    2c9c:	0000a104 	andeq	sl, r0, r4, lsl #2
    2ca0:	014e0000 	mrseq	r0, (UNDEF: 78)
    2ca4:	00040000 	andeq	r0, r4, r0
    2ca8:	00001044 	andeq	r1, r0, r4, asr #32
    2cac:	00c00104 	sbceq	r0, r0, r4, lsl #2
    2cb0:	7d0c0000 	stcvc	0, cr0, [ip, #-0]
    2cb4:	71000007 	tstvc	r0, r7
    2cb8:	58000002 	stmdapl	r0, {r1}
    2cbc:	00000000 	andeq	r0, r0, r0
    2cc0:	41000000 	mrsmi	r0, (UNDEF: 0)
    2cc4:	02000014 	andeq	r0, r0, #20, 0
    2cc8:	6e690504 	cdpvs	5, 6, cr0, cr9, cr4, {0}
    2ccc:	76030074 			; <UNDEFINED> instruction: 0x76030074
    2cd0:	03000007 	movweq	r0, #7
    2cd4:	003817d1 	ldrsbteq	r1, [r8], -r1
    2cd8:	04040000 	streq	r0, [r4], #-0
    2cdc:	00003c07 	andeq	r3, r0, r7, lsl #24
    2ce0:	06010400 	streq	r0, [r1], -r0, lsl #8
    2ce4:	0000000a 	andeq	r0, r0, sl
    2ce8:	9f050204 	svcls	0x00050204
    2cec:	04000000 	streq	r0, [r0], #-0
    2cf0:	004e0504 	subeq	r0, lr, r4, lsl #10
    2cf4:	08040000 	stmdaeq	r4, {}	; <UNPREDICTABLE>
    2cf8:	00004905 	andeq	r4, r0, r5, lsl #18
    2cfc:	08010400 	stmdaeq	r1, {sl}
    2d00:	00000008 	andeq	r0, r0, r8
    2d04:	00005b05 	andeq	r5, r0, r5, lsl #22
    2d08:	07020400 	streq	r0, [r2, -r0, lsl #8]
    2d0c:	00000016 	andeq	r0, r0, r6, lsl r0
    2d10:	37070404 	strcc	r0, [r7, -r4, lsl #8]
    2d14:	04000000 	streq	r0, [r0], #-0
    2d18:	00320708 	eorseq	r0, r2, r8, lsl #14
    2d1c:	25060000 	strcs	r0, [r6, #-0]
    2d20:	8b000000 	blhi	2d28 <__code_start__-0x52d8>
    2d24:	07000000 	streq	r0, [r0, -r0]
    2d28:	00000025 	andeq	r0, r0, r5, lsr #32
    2d2c:	00570800 	subseq	r0, r7, r0, lsl #16
    2d30:	1c020000 	stcne	0, cr0, [r2], {-0}
    2d34:	0000970e 	andeq	r9, r0, lr, lsl #14
    2d38:	7c040900 			; <UNDEFINED> instruction: 0x7c040900
    2d3c:	06000000 	streq	r0, [r0], -r0
    2d40:	00000025 	andeq	r0, r0, r5, lsr #32
    2d44:	000000ac 	andeq	r0, r0, ip, lsr #1
    2d48:	0000ac07 	andeq	sl, r0, r7, lsl #24
    2d4c:	04090000 	streq	r0, [r9], #-0
    2d50:	000000b9 	strheq	r0, [r0], -r9
    2d54:	11080104 	tstne	r8, r4, lsl #2
    2d58:	05000000 	streq	r0, [r0, #-0]
    2d5c:	000000b2 	strheq	r0, [r0], -r2
    2d60:	0002d908 	andeq	sp, r2, r8, lsl #18
    2d64:	0e210200 	cdpeq	2, 2, cr0, cr1, cr0, {0}
    2d68:	000000ca 	andeq	r0, r0, sl, asr #1
    2d6c:	009d0409 	addseq	r0, sp, r9, lsl #8
    2d70:	d40a0000 	strle	r0, [sl], #-0
    2d74:	01000003 	tsteq	r0, r3
    2d78:	00250504 	eoreq	r0, r5, r4, lsl #10
    2d7c:	90d00000 	sbcsls	r0, r0, r0
    2d80:	002c0000 	eoreq	r0, ip, r0
    2d84:	9c010000 	stcls	0, cr0, [r1], {-0}
    2d88:	0000014b 	andeq	r0, r0, fp, asr #2
    2d8c:	31735f0b 	cmncc	r3, fp, lsl #30
    2d90:	19040100 	stmdbne	r4, {r8}
    2d94:	000000ac 	andeq	r0, r0, ip, lsr #1
    2d98:	000012d5 	ldrdeq	r1, [r0], -r5
    2d9c:	000012d1 	ldrdeq	r1, [r0], -r1	; <UNPREDICTABLE>
    2da0:	32735f0b 	rsbscc	r5, r3, #11, 30	; 0x2c
    2da4:	2a040100 	bcs	1031ac <__bss_end__+0xf9934>
    2da8:	000000ac 	andeq	r0, r0, ip, lsr #1
    2dac:	000012fa 	strdeq	r1, [r0], -sl
    2db0:	000012f6 	strdeq	r1, [r0], -r6
    2db4:	01006e0b 	tsteq	r0, fp, lsl #28
    2db8:	002c3604 	eoreq	r3, ip, r4, lsl #12
    2dbc:	13210000 			; <UNDEFINED> instruction: 0x13210000
    2dc0:	131b0000 	tstne	fp, #0, 0
    2dc4:	730c0000 	movwvc	r0, #49152	; 0xc000
    2dc8:	05010031 	streq	r0, [r1, #-49]	; 0xffffffcf
    2dcc:	00014b1a 	andeq	r4, r1, sl, lsl fp
    2dd0:	00135400 	andseq	r5, r3, r0, lsl #8
    2dd4:	00134c00 	andseq	r4, r3, r0, lsl #24
    2dd8:	32730c00 	rsbscc	r0, r3, #0, 24
    2ddc:	2c050100 	stfcss	f0, [r5], {-0}
    2de0:	0000014b 	andeq	r0, r0, fp, asr #2
    2de4:	00001390 	muleq	r0, r0, r3
    2de8:	0000138a 	andeq	r1, r0, sl, lsl #7
    2dec:	62040900 	andvs	r0, r4, #0, 18
    2df0:	00000000 	andeq	r0, r0, r0

Disassembly of section .debug_abbrev:

00000000 <.debug_abbrev>:
       0:	25011101 	strcs	r1, [r1, #-257]	; 0xfffffeff
       4:	030b130e 	movweq	r1, #45838	; 0xb30e
       8:	110e1b0e 	tstne	lr, lr, lsl #22
       c:	10061201 	andne	r1, r6, r1, lsl #4
      10:	02000017 	andeq	r0, r0, #23, 0
      14:	0b0b0024 	bleq	2c00ac <__bss_end__+0x2b6834>
      18:	08030b3e 	stmdaeq	r3, {r1, r2, r3, r4, r5, r8, r9, fp}
      1c:	24030000 	strcs	r0, [r3], #-0
      20:	3e0b0b00 	vmlacc.f64	d0, d11, d0
      24:	000e030b 	andeq	r0, lr, fp, lsl #6
      28:	01150400 	tsteq	r5, r0, lsl #8
      2c:	13491927 	movtne	r1, #39207	; 0x9927
      30:	00001301 	andeq	r1, r0, r1, lsl #6
      34:	49000505 	stmdbmi	r0, {r0, r2, r8, sl}
      38:	06000013 			; <UNDEFINED> instruction: 0x06000013
      3c:	0e030034 	mcreq	0, 0, r0, cr3, cr4, {1}
      40:	0b3b0b3a 	bleq	ec2d30 <__bss_end__+0xeb94b8>
      44:	13490b39 	movtne	r0, #39737	; 0x9b39
      48:	193c193f 	ldmdbne	ip!, {r0, r1, r2, r3, r4, r5, r8, fp, ip}
      4c:	0f070000 	svceq	0x00070000
      50:	490b0b00 	stmdbmi	fp, {r8, r9, fp}
      54:	08000013 	stmdaeq	r0, {r0, r1, r4}
      58:	13490026 	movtne	r0, #36902	; 0x9026
      5c:	2e090000 	cdpcs	0, 0, cr0, cr9, cr0, {0}
      60:	03193f01 	tsteq	r9, #1, 30
      64:	3b0b3a0e 	blcc	2ce8a4 <__bss_end__+0x2c502c>
      68:	270b390b 	strcs	r3, [fp, -fp, lsl #18]
      6c:	12011119 	andne	r1, r1, #1073741830	; 0x40000006
      70:	97184006 	ldrls	r4, [r8, -r6]
      74:	13011942 	movwne	r1, #6466	; 0x1942
      78:	890a0000 	stmdbhi	sl, {}	; <UNPREDICTABLE>
      7c:	11010182 	smlabbne	r1, r2, r1, r0
      80:	01133101 	tsteq	r3, r1, lsl #2
      84:	0b000013 	bleq	d8 <__code_start__-0x7f28>
      88:	0001828a 	andeq	r8, r1, sl, lsl #5
      8c:	42911802 	addsmi	r1, r1, #131072	; 0x20000
      90:	0c000018 	stceq	0, cr0, [r0], {24}
      94:	01018289 	smlabbeq	r1, r9, r2, r8
      98:	13310111 	teqne	r1, #1073741828	; 0x40000004
      9c:	2e0d0000 	cdpcs	0, 0, cr0, cr13, cr0, {0}
      a0:	3c193f00 	ldccc	15, cr3, [r9], {-0}
      a4:	030e6e19 	movweq	r6, #60953	; 0xee19
      a8:	3b0b3a0e 	blcc	2ce8e8 <__bss_end__+0x2c5070>
      ac:	000b390b 	andeq	r3, fp, fp, lsl #18
      b0:	11010000 	mrsne	r0, (UNDEF: 1)
      b4:	130e2501 	movwne	r2, #58625	; 0xe501
      b8:	1b0e030b 	blne	380cec <__bss_end__+0x377474>
      bc:	1201110e 	andne	r1, r1, #-2147483645	; 0x80000003
      c0:	00171006 	andseq	r1, r7, r6
      c4:	00240200 	eoreq	r0, r4, r0, lsl #4
      c8:	0b3e0b0b 	bleq	f82cfc <__bss_end__+0xf79484>
      cc:	00000803 	andeq	r0, r0, r3, lsl #16
      d0:	0b002403 	bleq	90e4 <strncmp+0x14>
      d4:	030b3e0b 	movweq	r3, #48651	; 0xbe0b
      d8:	0400000e 	streq	r0, [r0], #-14
      dc:	19270115 	stmdbne	r7!, {r0, r2, r4, r8}
      e0:	13011349 	movwne	r1, #4937	; 0x1349
      e4:	05050000 	streq	r0, [r5, #-0]
      e8:	00134900 	andseq	r4, r3, r0, lsl #18
      ec:	00340600 	eorseq	r0, r4, r0, lsl #12
      f0:	0b3a0e03 	bleq	e83904 <__bss_end__+0xe7a08c>
      f4:	0b390b3b 	bleq	e42de8 <__bss_end__+0xe39570>
      f8:	193f1349 	ldmdbne	pc!, {r0, r3, r6, r8, r9, ip}	; <UNPREDICTABLE>
      fc:	0000193c 	andeq	r1, r0, ip, lsr r9
     100:	0b000f07 	bleq	3d24 <__code_start__-0x42dc>
     104:	0013490b 	andseq	r4, r3, fp, lsl #18
     108:	00260800 	eoreq	r0, r6, r0, lsl #16
     10c:	00001349 	andeq	r1, r0, r9, asr #6
     110:	03003409 	movweq	r3, #1033	; 0x409
     114:	3b0b3a0e 	blcc	2ce954 <__bss_end__+0x2c50dc>
     118:	490b390b 	stmdbmi	fp, {r0, r1, r3, r8, fp, ip, sp}
     11c:	00180213 	andseq	r0, r8, r3, lsl r2
     120:	00340a00 	eorseq	r0, r4, r0, lsl #20
     124:	0b3a0e03 	bleq	e83938 <__bss_end__+0xe7a0c0>
     128:	0b390b3b 	bleq	e42e1c <__bss_end__+0xe395a4>
     12c:	193f1349 	ldmdbne	pc!, {r0, r3, r6, r8, r9, ip}	; <UNPREDICTABLE>
     130:	00001802 	andeq	r1, r0, r2, lsl #16
     134:	0b000f0b 	bleq	3d68 <__code_start__-0x4298>
     138:	0c00000b 	stceq	0, cr0, [r0], {11}
     13c:	193f012e 	ldmdbne	pc!, {r1, r2, r3, r5, r8}	; <UNPREDICTABLE>
     140:	0b3a0e03 	bleq	e83954 <__bss_end__+0xe7a0dc>
     144:	0b390b3b 	bleq	e42e38 <__bss_end__+0xe395c0>
     148:	13491927 	movtne	r1, #39207	; 0x9927
     14c:	06120111 			; <UNDEFINED> instruction: 0x06120111
     150:	42971840 	addsmi	r1, r7, #64, 16	; 0x400000
     154:	00130119 	andseq	r0, r3, r9, lsl r1
     158:	00340d00 	eorseq	r0, r4, r0, lsl #26
     15c:	13490e03 	movtne	r0, #40451	; 0x9e03
     160:	18021934 	stmdane	r2, {r2, r4, r5, r8, fp, ip}
     164:	890e0000 	stmdbhi	lr, {}	; <UNPREDICTABLE>
     168:	11010182 	smlabbne	r1, r2, r1, r0
     16c:	01133101 	tsteq	r3, r1, lsl #2
     170:	0f000013 	svceq	0x00000013
     174:	0001828a 	andeq	r8, r1, sl, lsl #5
     178:	42911802 	addsmi	r1, r1, #131072	; 0x20000
     17c:	10000018 	andne	r0, r0, r8, lsl r0
     180:	00018289 	andeq	r8, r1, r9, lsl #5
     184:	13310111 	teqne	r1, #1073741828	; 0x40000004
     188:	01110000 	tsteq	r1, r0
     18c:	01134901 	tsteq	r3, r1, lsl #18
     190:	12000013 	andne	r0, r0, #19, 0
     194:	13490021 	movtne	r0, #36897	; 0x9021
     198:	00000b2f 	andeq	r0, r0, pc, lsr #22
     19c:	3f012e13 	svccc	0x00012e13
     1a0:	3a0e0319 	bcc	380e0c <__bss_end__+0x377594>
     1a4:	390b3b0b 	stmdbcc	fp, {r0, r1, r3, r8, r9, fp, ip, sp}
     1a8:	1119270b 	tstne	r9, fp, lsl #14
     1ac:	40061201 	andmi	r1, r6, r1, lsl #4
     1b0:	19429718 	stmdbne	r2, {r3, r4, r8, r9, sl, ip, pc}^
     1b4:	00001301 	andeq	r1, r0, r1, lsl #6
     1b8:	03000514 	movweq	r0, #1300	; 0x514
     1bc:	3b0b3a0e 	blcc	2ce9fc <__bss_end__+0x2c5184>
     1c0:	490b390b 	stmdbmi	fp, {r0, r1, r3, r8, fp, ip, sp}
     1c4:	b7170213 			; <UNDEFINED> instruction: 0xb7170213
     1c8:	00001742 	andeq	r1, r0, r2, asr #14
     1cc:	31011d15 	tstcc	r1, r5, lsl sp
     1d0:	b8015213 	stmdalt	r1, {r0, r1, r4, r9, ip, lr}
     1d4:	17550b42 	ldrbne	r0, [r5, -r2, asr #22]
     1d8:	0b590b58 	bleq	1642f40 <__bss_end__+0x16396c8>
     1dc:	13010b57 	movwne	r0, #6999	; 0x1b57
     1e0:	05160000 	ldreq	r0, [r6, #-0]
     1e4:	02133100 	andseq	r3, r3, #0
     1e8:	1742b717 	smlaldne	fp, r2, r7, r7
     1ec:	0b170000 	bleq	5c01f4 <__bss_end__+0x5b697c>
     1f0:	00175500 	andseq	r5, r7, r0, lsl #10
     1f4:	00051800 	andeq	r1, r5, r0, lsl #16
     1f8:	00001331 	andeq	r1, r0, r1, lsr r3
     1fc:	01828919 	orreq	r8, r2, r9, lsl r9
     200:	31011101 	tstcc	r1, r1, lsl #2
     204:	1a000013 	bne	258 <__code_start__-0x7da8>
     208:	1331011d 	teqne	r1, #1073741831	; 0x40000007
     20c:	42b80152 	adcsmi	r0, r8, #-2147483628	; 0x80000014
     210:	1201110b 	andne	r1, r1, #-1073741822	; 0xc0000002
     214:	590b5806 	stmdbpl	fp, {r1, r2, fp, ip, lr}
     218:	010b570b 	tsteq	fp, fp, lsl #14
     21c:	1b000013 	blne	270 <__code_start__-0x7d90>
     220:	08030034 	stmdaeq	r3, {r2, r4, r5}
     224:	0b3b0b3a 	bleq	ec2f14 <__bss_end__+0xeb969c>
     228:	13490b39 	movtne	r0, #39737	; 0x9b39
     22c:	42b71702 	adcsmi	r1, r7, #524288	; 0x80000
     230:	1c000017 	stcne	0, cr0, [r0], {23}
     234:	0e03012e 	adfeqsp	f0, f3, #0.5
     238:	0b3b0b3a 	bleq	ec2f28 <__bss_end__+0xeb96b0>
     23c:	19270b39 	stmdbne	r7!, {r0, r3, r4, r5, r8, r9, fp}
     240:	0b201349 	bleq	804f6c <__bss_end__+0x7fb6f4>
     244:	00001301 	andeq	r1, r0, r1, lsl #6
     248:	0300051d 	movweq	r0, #1309	; 0x51d
     24c:	3b0b3a08 	blcc	2cea74 <__bss_end__+0x2c51fc>
     250:	490b390b 	stmdbmi	fp, {r0, r1, r3, r8, fp, ip, sp}
     254:	1e000013 	mcrne	0, 0, r0, cr0, cr3, {0}
     258:	0e030034 	mcreq	0, 0, r0, cr3, cr4, {1}
     25c:	19341349 	ldmdbne	r4!, {r0, r3, r6, r8, r9, ip}
     260:	2e1f0000 	cdpcs	0, 1, cr0, cr15, cr0, {0}
     264:	3c193f00 	ldccc	15, cr3, [r9], {-0}
     268:	030e6e19 	movweq	r6, #60953	; 0xee19
     26c:	3b0b3a0e 	blcc	2ceaac <__bss_end__+0x2c5234>
     270:	000b390b 	andeq	r3, fp, fp, lsl #18
     274:	11010000 	mrsne	r0, (UNDEF: 1)
     278:	130e2501 	movwne	r2, #58625	; 0xe501
     27c:	1b0e030b 	blne	380eb0 <__bss_end__+0x377638>
     280:	1201110e 	andne	r1, r1, #-2147483645	; 0x80000003
     284:	00171006 	andseq	r1, r7, r6
     288:	00160200 	andseq	r0, r6, r0, lsl #4
     28c:	0b3a0e03 	bleq	e83aa0 <__bss_end__+0xe7a228>
     290:	0b390b3b 	bleq	e42f84 <__bss_end__+0xe3970c>
     294:	00001349 	andeq	r1, r0, r9, asr #6
     298:	03011303 	movweq	r1, #4867	; 0x1303
     29c:	3a0b0b0e 	bcc	2c2edc <__bss_end__+0x2b9664>
     2a0:	010b3b0b 	tsteq	fp, fp, lsl #22
     2a4:	04000013 	streq	r0, [r0], #-19	; 0xffffffed
     2a8:	0e03000d 	cdpeq	0, 0, cr0, cr3, cr13, {0}
     2ac:	0b381349 	bleq	e04fd8 <__bss_end__+0xdfb760>
     2b0:	00001934 	andeq	r1, r0, r4, lsr r9
     2b4:	0b000f05 	bleq	3ed0 <__code_start__-0x4130>
     2b8:	0600000b 	streq	r0, [r0], -fp
     2bc:	0b0b0024 	bleq	2c0354 <__bss_end__+0x2b6adc>
     2c0:	08030b3e 	stmdaeq	r3, {r1, r2, r3, r4, r5, r8, r9, fp}
     2c4:	24070000 	strcs	r0, [r7], #-0
     2c8:	3e0b0b00 	vmlacc.f64	d0, d11, d0
     2cc:	000e030b 	andeq	r0, lr, fp, lsl #6
     2d0:	01150800 	tsteq	r5, r0, lsl #16
     2d4:	13491927 	movtne	r1, #39207	; 0x9927
     2d8:	00001301 	andeq	r1, r0, r1, lsl #6
     2dc:	49000509 	stmdbmi	r0, {r0, r3, r8, sl}
     2e0:	0a000013 	beq	334 <__code_start__-0x7ccc>
     2e4:	0e030034 	mcreq	0, 0, r0, cr3, cr4, {1}
     2e8:	0b3b0b3a 	bleq	ec2fd8 <__bss_end__+0xeb9760>
     2ec:	13490b39 	movtne	r0, #39737	; 0x9b39
     2f0:	193c193f 	ldmdbne	ip!, {r0, r1, r2, r3, r4, r5, r8, fp, ip}
     2f4:	0f0b0000 	svceq	0x000b0000
     2f8:	490b0b00 	stmdbmi	fp, {r8, r9, fp}
     2fc:	0c000013 	stceq	0, cr0, [r0], {19}
     300:	13490026 	movtne	r0, #36902	; 0x9026
     304:	2e0d0000 	cdpcs	0, 0, cr0, cr13, cr0, {0}
     308:	03193f01 	tsteq	r9, #1, 30
     30c:	3b0b3a0e 	blcc	2ceb4c <__bss_end__+0x2c52d4>
     310:	270b390b 	strcs	r3, [fp, -fp, lsl #18]
     314:	11134919 	tstne	r3, r9, lsl r9
     318:	40061201 	andmi	r1, r6, r1, lsl #4
     31c:	19429718 	stmdbne	r2, {r3, r4, r8, r9, sl, ip, pc}^
     320:	00001301 	andeq	r1, r0, r1, lsl #6
     324:	0300050e 	movweq	r0, #1294	; 0x50e
     328:	3b0b3a08 	blcc	2ceb50 <__bss_end__+0x2c52d8>
     32c:	490b390b 	stmdbmi	fp, {r0, r1, r3, r8, fp, ip, sp}
     330:	00180213 	andseq	r0, r8, r3, lsl r2
     334:	00180f00 	andseq	r0, r8, r0, lsl #30
     338:	34100000 	ldrcc	r0, [r0], #-0
     33c:	3a080300 	bcc	200f44 <__bss_end__+0x1f76cc>
     340:	390b3b0b 	stmdbcc	fp, {r0, r1, r3, r8, r9, fp, ip, sp}
     344:	0213490b 	andseq	r4, r3, #180224	; 0x2c000
     348:	11000018 	tstne	r0, r8, lsl r0
     34c:	0e030034 	mcreq	0, 0, r0, cr3, cr4, {1}
     350:	0b3b0b3a 	bleq	ec3040 <__bss_end__+0xeb97c8>
     354:	13490b39 	movtne	r0, #39737	; 0x9b39
     358:	00001802 	andeq	r1, r0, r2, lsl #16
     35c:	03003412 	movweq	r3, #1042	; 0x412
     360:	3b0b3a08 	blcc	2ceb88 <__bss_end__+0x2c5310>
     364:	490b390b 	stmdbmi	fp, {r0, r1, r3, r8, fp, ip, sp}
     368:	b7170213 			; <UNDEFINED> instruction: 0xb7170213
     36c:	00001742 	andeq	r1, r0, r2, asr #14
     370:	01828913 	orreq	r8, r2, r3, lsl r9
     374:	31011101 	tstcc	r1, r1, lsl #2
     378:	00130113 	andseq	r0, r3, r3, lsl r1
     37c:	828a1400 	addhi	r1, sl, #0, 8
     380:	18020001 	stmdane	r2, {r0}
     384:	00184291 	mulseq	r8, r1, r2
     388:	82891500 	addhi	r1, r9, #0, 10
     38c:	01110101 	tsteq	r1, r1, lsl #2
     390:	01160000 	tsteq	r6, r0
     394:	01134901 	tsteq	r3, r1, lsl #18
     398:	17000013 	smladne	r0, r3, r0, r0
     39c:	13490021 	movtne	r0, #36897	; 0x9021
     3a0:	0000052f 	andeq	r0, r0, pc, lsr #10
     3a4:	3f002e18 	svccc	0x00002e18
     3a8:	6e193c19 	mrcvs	12, 0, r3, cr9, cr9, {0}
     3ac:	3a0e030e 	bcc	380fec <__bss_end__+0x377774>
     3b0:	390b3b0b 	stmdbcc	fp, {r0, r1, r3, r8, r9, fp, ip, sp}
     3b4:	0000000b 	andeq	r0, r0, fp
     3b8:	25011101 	strcs	r1, [r1, #-257]	; 0xfffffeff
     3bc:	030b130e 	movweq	r1, #45838	; 0xb30e
     3c0:	110e1b0e 	tstne	lr, lr, lsl #22
     3c4:	10061201 	andne	r1, r6, r1, lsl #4
     3c8:	02000017 	andeq	r0, r0, #23, 0
     3cc:	0b0b0024 	bleq	2c0464 <__bss_end__+0x2b6bec>
     3d0:	08030b3e 	stmdaeq	r3, {r1, r2, r3, r4, r5, r8, r9, fp}
     3d4:	24030000 	strcs	r0, [r3], #-0
     3d8:	3e0b0b00 	vmlacc.f64	d0, d11, d0
     3dc:	000e030b 	andeq	r0, lr, fp, lsl #6
     3e0:	01150400 	tsteq	r5, r0, lsl #8
     3e4:	13491927 	movtne	r1, #39207	; 0x9927
     3e8:	00001301 	andeq	r1, r0, r1, lsl #6
     3ec:	49000505 	stmdbmi	r0, {r0, r2, r8, sl}
     3f0:	06000013 			; <UNDEFINED> instruction: 0x06000013
     3f4:	0e030034 	mcreq	0, 0, r0, cr3, cr4, {1}
     3f8:	0b3b0b3a 	bleq	ec30e8 <__bss_end__+0xeb9870>
     3fc:	13490b39 	movtne	r0, #39737	; 0x9b39
     400:	193c193f 	ldmdbne	ip!, {r0, r1, r2, r3, r4, r5, r8, fp, ip}
     404:	0f070000 	svceq	0x00070000
     408:	490b0b00 	stmdbmi	fp, {r8, r9, fp}
     40c:	08000013 	stmdaeq	r0, {r0, r1, r4}
     410:	13490026 	movtne	r0, #36902	; 0x9026
     414:	34090000 	strcc	r0, [r9], #-0
     418:	3a134700 	bcc	4d2020 <__bss_end__+0x4c87a8>
     41c:	390b3b0b 	stmdbcc	fp, {r0, r1, r3, r8, r9, fp, ip, sp}
     420:	0018020b 	andseq	r0, r8, fp, lsl #4
     424:	012e0a00 			; <UNDEFINED> instruction: 0x012e0a00
     428:	0e03193f 			; <UNDEFINED> instruction: 0x0e03193f
     42c:	0b3b0b3a 	bleq	ec311c <__bss_end__+0xeb98a4>
     430:	19270b39 	stmdbne	r7!, {r0, r3, r4, r5, r8, r9, fp}
     434:	06120111 			; <UNDEFINED> instruction: 0x06120111
     438:	42971840 	addsmi	r1, r7, #64, 16	; 0x400000
     43c:	00130119 	andseq	r0, r3, r9, lsl r1
     440:	00050b00 	andeq	r0, r5, r0, lsl #22
     444:	0b3a0803 	bleq	e82458 <__bss_end__+0xe78be0>
     448:	0b390b3b 	bleq	e4313c <__bss_end__+0xe398c4>
     44c:	18021349 	stmdane	r2, {r0, r3, r6, r8, r9, ip}
     450:	2e0c0000 	cdpcs	0, 0, cr0, cr12, cr0, {0}
     454:	03193f00 	tsteq	r9, #0, 30
     458:	3b0b3a0e 	blcc	2cec98 <__bss_end__+0x2c5420>
     45c:	270b390b 	strcs	r3, [fp, -fp, lsl #18]
     460:	12011119 	andne	r1, r1, #1073741830	; 0x40000006
     464:	97184006 	ldrls	r4, [r8, -r6]
     468:	00001942 	andeq	r1, r0, r2, asr #18
     46c:	03012e0d 	movweq	r2, #7693	; 0x1e0d
     470:	3b0b3a0e 	blcc	2cecb0 <__bss_end__+0x2c5438>
     474:	270b390b 	strcs	r3, [fp, -fp, lsl #18]
     478:	11134919 	tstne	r3, r9, lsl r9
     47c:	40061201 	andmi	r1, r6, r1, lsl #4
     480:	19429718 	stmdbne	r2, {r3, r4, r8, r9, sl, ip, pc}^
     484:	00001301 	andeq	r1, r0, r1, lsl #6
     488:	0300050e 	movweq	r0, #1294	; 0x50e
     48c:	3b0b3a08 	blcc	2cecb4 <__bss_end__+0x2c543c>
     490:	490b390b 	stmdbmi	fp, {r0, r1, r3, r8, fp, ip, sp}
     494:	b7170213 			; <UNDEFINED> instruction: 0xb7170213
     498:	00001742 	andeq	r1, r0, r2, asr #14
     49c:	0182890f 	orreq	r8, r2, pc, lsl #18
     4a0:	31011101 	tstcc	r1, r1, lsl #2
     4a4:	10000013 	andne	r0, r0, r3, lsl r0
     4a8:	0001828a 	andeq	r8, r1, sl, lsl #5
     4ac:	42911802 	addsmi	r1, r1, #131072	; 0x20000
     4b0:	11000018 	tstne	r0, r8, lsl r0
     4b4:	193f002e 	ldmdbne	pc!, {r1, r2, r3, r5}	; <UNPREDICTABLE>
     4b8:	0e6e193c 			; <UNDEFINED> instruction: 0x0e6e193c
     4bc:	0b3a0e03 	bleq	e83cd0 <__bss_end__+0xe7a458>
     4c0:	0b390b3b 	bleq	e431b4 <__bss_end__+0xe3993c>
     4c4:	01000000 	mrseq	r0, (UNDEF: 0)
     4c8:	0e250111 	mcreq	1, 1, r0, cr5, cr1, {0}
     4cc:	0e030b13 	vmoveq.32	d3[0], r0
     4d0:	01110e1b 	tsteq	r1, fp, lsl lr
     4d4:	17100612 			; <UNDEFINED> instruction: 0x17100612
     4d8:	24020000 	strcs	r0, [r2], #-0
     4dc:	3e0b0b00 	vmlacc.f64	d0, d11, d0
     4e0:	0008030b 	andeq	r0, r8, fp, lsl #6
     4e4:	00240300 	eoreq	r0, r4, r0, lsl #6
     4e8:	0b3e0b0b 	bleq	f8311c <__bss_end__+0xf798a4>
     4ec:	00000e03 	andeq	r0, r0, r3, lsl #28
     4f0:	27011504 	strcs	r1, [r1, -r4, lsl #10]
     4f4:	01134919 	tsteq	r3, r9, lsl r9
     4f8:	05000013 	streq	r0, [r0, #-19]	; 0xffffffed
     4fc:	13490005 	movtne	r0, #36869	; 0x9005
     500:	34060000 	strcc	r0, [r6], #-0
     504:	3a0e0300 	bcc	38110c <__bss_end__+0x377894>
     508:	390b3b0b 	stmdbcc	fp, {r0, r1, r3, r8, r9, fp, ip, sp}
     50c:	3f13490b 	svccc	0x0013490b
     510:	00193c19 	andseq	r3, r9, r9, lsl ip
     514:	000f0700 	andeq	r0, pc, r0, lsl #14
     518:	13490b0b 	movtne	r0, #39691	; 0x9b0b
     51c:	26080000 	strcs	r0, [r8], -r0
     520:	00134900 	andseq	r4, r3, r0, lsl #18
     524:	00340900 	eorseq	r0, r4, r0, lsl #18
     528:	0b3a1347 	bleq	e8524c <__bss_end__+0xe7b9d4>
     52c:	0b390b3b 	bleq	e43220 <__bss_end__+0xe399a8>
     530:	00001802 	andeq	r1, r0, r2, lsl #16
     534:	3f012e0a 	svccc	0x00012e0a
     538:	3a0e0319 	bcc	3811a4 <__bss_end__+0x37792c>
     53c:	390b3b0b 	stmdbcc	fp, {r0, r1, r3, r8, r9, fp, ip, sp}
     540:	4919270b 	ldmdbmi	r9, {r0, r1, r3, r8, r9, sl, sp}
     544:	12011113 	andne	r1, r1, #-1073741820	; 0xc0000004
     548:	96184006 	ldrls	r4, [r8], -r6
     54c:	00001942 	andeq	r1, r0, r2, asr #18
     550:	0300050b 	movweq	r0, #1291	; 0x50b
     554:	3b0b3a08 	blcc	2ced7c <__bss_end__+0x2c5504>
     558:	490b390b 	stmdbmi	fp, {r0, r1, r3, r8, fp, ip, sp}
     55c:	b7170213 			; <UNDEFINED> instruction: 0xb7170213
     560:	00001742 	andeq	r1, r0, r2, asr #14
     564:	01110100 	tsteq	r1, r0, lsl #2
     568:	0b130e25 	bleq	4c3e04 <__bss_end__+0x4ba58c>
     56c:	0e1b0e03 	cdpeq	14, 1, cr0, cr11, cr3, {0}
     570:	06120111 			; <UNDEFINED> instruction: 0x06120111
     574:	00001710 	andeq	r1, r0, r0, lsl r7
     578:	0b002402 	bleq	9588 <buf.3928+0x114>
     57c:	030b3e0b 	movweq	r3, #48651	; 0xbe0b
     580:	03000008 	movweq	r0, #8
     584:	0b0b0024 	bleq	2c061c <__bss_end__+0x2b6da4>
     588:	0e030b3e 	vmoveq.16	d3[0], r0
     58c:	16040000 	strne	r0, [r4], -r0
     590:	3a0e0300 	bcc	381198 <__bss_end__+0x377920>
     594:	390b3b0b 	stmdbcc	fp, {r0, r1, r3, r8, r9, fp, ip, sp}
     598:	0013490b 	andseq	r4, r3, fp, lsl #18
     59c:	01150500 	tsteq	r5, r0, lsl #10
     5a0:	13491927 	movtne	r1, #39207	; 0x9927
     5a4:	00001301 	andeq	r1, r0, r1, lsl #6
     5a8:	49000506 	stmdbmi	r0, {r1, r2, r8, sl}
     5ac:	07000013 	smladeq	r0, r3, r0, r0
     5b0:	0e030034 	mcreq	0, 0, r0, cr3, cr4, {1}
     5b4:	0b3b0b3a 	bleq	ec32a4 <__bss_end__+0xeb9a2c>
     5b8:	13490b39 	movtne	r0, #39737	; 0x9b39
     5bc:	193c193f 	ldmdbne	ip!, {r0, r1, r2, r3, r4, r5, r8, fp, ip}
     5c0:	0f080000 	svceq	0x00080000
     5c4:	490b0b00 	stmdbmi	fp, {r8, r9, fp}
     5c8:	09000013 	stmdbeq	r0, {r0, r1, r4}
     5cc:	13490026 	movtne	r0, #36902	; 0x9026
     5d0:	130a0000 	movwne	r0, #40960	; 0xa000
     5d4:	0b0e0301 	bleq	3811e0 <__bss_end__+0x377968>
     5d8:	3b0b3a0b 	blcc	2cee0c <__bss_end__+0x2c5594>
     5dc:	0013010b 	andseq	r0, r3, fp, lsl #2
     5e0:	000d0b00 	andeq	r0, sp, r0, lsl #22
     5e4:	13490e03 	movtne	r0, #40451	; 0x9e03
     5e8:	19340b38 	ldmdbne	r4!, {r3, r4, r5, r8, r9, fp}
     5ec:	0f0c0000 	svceq	0x000c0000
     5f0:	000b0b00 	andeq	r0, fp, r0, lsl #22
     5f4:	012e0d00 			; <UNDEFINED> instruction: 0x012e0d00
     5f8:	0e03193f 			; <UNDEFINED> instruction: 0x0e03193f
     5fc:	0b3b0b3a 	bleq	ec32ec <__bss_end__+0xeb9a74>
     600:	19270b39 	stmdbne	r7!, {r0, r3, r4, r5, r8, r9, fp}
     604:	01111349 	tsteq	r1, r9, asr #6
     608:	18400612 	stmdane	r0, {r1, r4, r9, sl}^
     60c:	01194297 			; <UNDEFINED> instruction: 0x01194297
     610:	0e000013 	mcreq	0, 0, r0, cr0, cr3, {0}
     614:	08030005 	stmdaeq	r3, {r0, r2}
     618:	0b3b0b3a 	bleq	ec3308 <__bss_end__+0xeb9a90>
     61c:	13490b39 	movtne	r0, #39737	; 0x9b39
     620:	42b71702 	adcsmi	r1, r7, #524288	; 0x80000
     624:	0f000017 	svceq	0x00000017
     628:	0e030005 	cdpeq	0, 0, cr0, cr3, cr5, {0}
     62c:	0b3b0b3a 	bleq	ec331c <__bss_end__+0xeb9aa4>
     630:	13490b39 	movtne	r0, #39737	; 0x9b39
     634:	00001802 	andeq	r1, r0, r2, lsl #16
     638:	03003410 	movweq	r3, #1040	; 0x410
     63c:	3b0b3a08 	blcc	2cee64 <__bss_end__+0x2c55ec>
     640:	490b390b 	stmdbmi	fp, {r0, r1, r3, r8, fp, ip, sp}
     644:	b7170213 			; <UNDEFINED> instruction: 0xb7170213
     648:	00001742 	andeq	r1, r0, r2, asr #14
     64c:	03003411 	movweq	r3, #1041	; 0x411
     650:	3b0b3a08 	blcc	2cee78 <__bss_end__+0x2c5600>
     654:	490b390b 	stmdbmi	fp, {r0, r1, r3, r8, fp, ip, sp}
     658:	12000013 	andne	r0, r0, #19, 0
     65c:	0e030034 	mcreq	0, 0, r0, cr3, cr4, {1}
     660:	0b3b0b3a 	bleq	ec3350 <__bss_end__+0xeb9ad8>
     664:	13490b39 	movtne	r0, #39737	; 0x9b39
     668:	42b71702 	adcsmi	r1, r7, #524288	; 0x80000
     66c:	13000017 	movwne	r0, #23
     670:	0e030034 	mcreq	0, 0, r0, cr3, cr4, {1}
     674:	19341349 	ldmdbne	r4!, {r0, r3, r6, r8, r9, ip}
     678:	00001802 	andeq	r1, r0, r2, lsl #16
     67c:	11010b14 	tstne	r1, r4, lsl fp
     680:	00061201 	andeq	r1, r6, r1, lsl #4
     684:	00341500 	eorseq	r1, r4, r0, lsl #10
     688:	0b3a0803 	bleq	e8269c <__bss_end__+0xe78e24>
     68c:	0b390b3b 	bleq	e43380 <__bss_end__+0xe39b08>
     690:	18021349 	stmdane	r2, {r0, r3, r6, r8, r9, ip}
     694:	34160000 	ldrcc	r0, [r6], #-0
     698:	3a0e0300 	bcc	3812a0 <__bss_end__+0x377a28>
     69c:	390b3b0b 	stmdbcc	fp, {r0, r1, r3, r8, r9, fp, ip, sp}
     6a0:	0213490b 	andseq	r4, r3, #180224	; 0x2c000
     6a4:	17000018 	smladne	r0, r8, r0, r0
     6a8:	0111010b 	tsteq	r1, fp, lsl #2
     6ac:	13010612 	movwne	r0, #5650	; 0x1612
     6b0:	89180000 	ldmdbhi	r8, {}	; <UNPREDICTABLE>
     6b4:	11010182 	smlabbne	r1, r2, r1, r0
     6b8:	01133101 	tsteq	r3, r1, lsl #2
     6bc:	19000013 	stmdbne	r0, {r0, r1, r4}
     6c0:	0001828a 	andeq	r8, r1, sl, lsl #5
     6c4:	42911802 	addsmi	r1, r1, #131072	; 0x20000
     6c8:	1a000018 	bne	730 <__code_start__-0x78d0>
     6cc:	00018289 	andeq	r8, r1, r9, lsl #5
     6d0:	13310111 	teqne	r1, #1073741828	; 0x40000004
     6d4:	891b0000 	ldmdbhi	fp, {}	; <UNPREDICTABLE>
     6d8:	11010182 	smlabbne	r1, r2, r1, r0
     6dc:	00130101 	andseq	r0, r3, r1, lsl #2
     6e0:	01011c00 	tsteq	r1, r0, lsl #24
     6e4:	13011349 	movwne	r1, #4937	; 0x1349
     6e8:	211d0000 	tstcs	sp, r0
     6ec:	2f134900 	svccs	0x00134900
     6f0:	1e00000b 	cdpne	0, 0, cr0, cr0, cr11, {0}
     6f4:	0e03012e 	adfeqsp	f0, f3, #0.5
     6f8:	0b3b0b3a 	bleq	ec33e8 <__bss_end__+0xeb9b70>
     6fc:	19270b39 	stmdbne	r7!, {r0, r3, r4, r5, r8, r9, fp}
     700:	01111349 	tsteq	r1, r9, asr #6
     704:	18400612 	stmdane	r0, {r1, r4, r9, sl}^
     708:	01194297 			; <UNDEFINED> instruction: 0x01194297
     70c:	1f000013 	svcne	0x00000013
     710:	0e030005 	cdpeq	0, 0, cr0, cr3, cr5, {0}
     714:	0b3b0b3a 	bleq	ec3404 <__bss_end__+0xeb9b8c>
     718:	13490b39 	movtne	r0, #39737	; 0x9b39
     71c:	42b71702 	adcsmi	r1, r7, #524288	; 0x80000
     720:	20000017 	andcs	r0, r0, r7, lsl r0
     724:	0803012e 	stmdaeq	r3, {r1, r2, r3, r5, r8}
     728:	0b3b0b3a 	bleq	ec3418 <__bss_end__+0xeb9ba0>
     72c:	19270b39 	stmdbne	r7!, {r0, r3, r4, r5, r8, r9, fp}
     730:	01111349 	tsteq	r1, r9, asr #6
     734:	18400612 	stmdane	r0, {r1, r4, r9, sl}^
     738:	01194297 			; <UNDEFINED> instruction: 0x01194297
     73c:	21000013 	tstcs	r0, r3, lsl r0
     740:	193f012e 	ldmdbne	pc!, {r1, r2, r3, r5, r8}	; <UNPREDICTABLE>
     744:	0b3a0e03 	bleq	e83f58 <__bss_end__+0xe7a6e0>
     748:	0b390b3b 	bleq	e4343c <__bss_end__+0xe39bc4>
     74c:	01111927 	tsteq	r1, r7, lsr #18
     750:	18400612 	stmdane	r0, {r1, r4, r9, sl}^
     754:	01194297 			; <UNDEFINED> instruction: 0x01194297
     758:	22000013 	andcs	r0, r0, #19, 0
     75c:	193f002e 	ldmdbne	pc!, {r1, r2, r3, r5}	; <UNPREDICTABLE>
     760:	0e6e193c 			; <UNDEFINED> instruction: 0x0e6e193c
     764:	0b3a0e03 	bleq	e83f78 <__bss_end__+0xe7a700>
     768:	0b390b3b 	bleq	e4345c <__bss_end__+0xe39be4>
     76c:	01000000 	mrseq	r0, (UNDEF: 0)
     770:	0e250111 	mcreq	1, 1, r0, cr5, cr1, {0}
     774:	0e030b13 	vmoveq.32	d3[0], r0
     778:	01110e1b 	tsteq	r1, fp, lsl lr
     77c:	17100612 			; <UNDEFINED> instruction: 0x17100612
     780:	24020000 	strcs	r0, [r2], #-0
     784:	3e0b0b00 	vmlacc.f64	d0, d11, d0
     788:	0008030b 	andeq	r0, r8, fp, lsl #6
     78c:	00240300 	eoreq	r0, r4, r0, lsl #6
     790:	0b3e0b0b 	bleq	f833c4 <__bss_end__+0xf79b4c>
     794:	00000e03 	andeq	r0, r0, r3, lsl #28
     798:	27011504 	strcs	r1, [r1, -r4, lsl #10]
     79c:	01134919 	tsteq	r3, r9, lsl r9
     7a0:	05000013 	streq	r0, [r0, #-19]	; 0xffffffed
     7a4:	13490005 	movtne	r0, #36869	; 0x9005
     7a8:	34060000 	strcc	r0, [r6], #-0
     7ac:	3a0e0300 	bcc	3813b4 <__bss_end__+0x377b3c>
     7b0:	390b3b0b 	stmdbcc	fp, {r0, r1, r3, r8, r9, fp, ip, sp}
     7b4:	3f13490b 	svccc	0x0013490b
     7b8:	00193c19 	andseq	r3, r9, r9, lsl ip
     7bc:	000f0700 	andeq	r0, pc, r0, lsl #14
     7c0:	13490b0b 	movtne	r0, #39691	; 0x9b0b
     7c4:	26080000 	strcs	r0, [r8], -r0
     7c8:	00134900 	andseq	r4, r3, r0, lsl #18
     7cc:	012e0900 			; <UNDEFINED> instruction: 0x012e0900
     7d0:	0e03193f 			; <UNDEFINED> instruction: 0x0e03193f
     7d4:	0b3b0b3a 	bleq	ec34c4 <__bss_end__+0xeb9c4c>
     7d8:	19270b39 	stmdbne	r7!, {r0, r3, r4, r5, r8, r9, fp}
     7dc:	11190187 	tstne	r9, r7, lsl #3
     7e0:	40061201 	andmi	r1, r6, r1, lsl #4
     7e4:	19429718 	stmdbne	r2, {r3, r4, r8, r9, sl, ip, pc}^
     7e8:	00001301 	andeq	r1, r0, r1, lsl #6
     7ec:	0182890a 	orreq	r8, r2, sl, lsl #18
     7f0:	01011101 	tsteq	r1, r1, lsl #2
     7f4:	0b000013 	bleq	848 <__code_start__-0x77b8>
     7f8:	0001828a 	andeq	r8, r1, sl, lsl #5
     7fc:	42911802 	addsmi	r1, r1, #131072	; 0x20000
     800:	0c000018 	stceq	0, cr0, [r0], {24}
     804:	00018289 	andeq	r8, r1, r9, lsl #5
     808:	13310111 	teqne	r1, #1073741828	; 0x40000004
     80c:	890d0000 	stmdbhi	sp, {}	; <UNPREDICTABLE>
     810:	11010182 	smlabbne	r1, r2, r1, r0
     814:	01133101 	tsteq	r3, r1, lsl #2
     818:	0e000013 	mcreq	0, 0, r0, cr0, cr3, {0}
     81c:	193f002e 	ldmdbne	pc!, {r1, r2, r3, r5}	; <UNPREDICTABLE>
     820:	0e6e193c 			; <UNDEFINED> instruction: 0x0e6e193c
     824:	0b3a0e03 	bleq	e84038 <__bss_end__+0xe7a7c0>
     828:	0b390b3b 	bleq	e4351c <__bss_end__+0xe39ca4>
     82c:	01000000 	mrseq	r0, (UNDEF: 0)
     830:	0e250111 	mcreq	1, 1, r0, cr5, cr1, {0}
     834:	0e030b13 	vmoveq.32	d3[0], r0
     838:	01110e1b 	tsteq	r1, fp, lsl lr
     83c:	17100612 			; <UNDEFINED> instruction: 0x17100612
     840:	24020000 	strcs	r0, [r2], #-0
     844:	3e0b0b00 	vmlacc.f64	d0, d11, d0
     848:	0008030b 	andeq	r0, r8, fp, lsl #6
     84c:	00240300 	eoreq	r0, r4, r0, lsl #6
     850:	0b3e0b0b 	bleq	f83484 <__bss_end__+0xf79c0c>
     854:	00000e03 	andeq	r0, r0, r3, lsl #28
     858:	27011504 	strcs	r1, [r1, -r4, lsl #10]
     85c:	01134919 	tsteq	r3, r9, lsl r9
     860:	05000013 	streq	r0, [r0, #-19]	; 0xffffffed
     864:	13490005 	movtne	r0, #36869	; 0x9005
     868:	34060000 	strcc	r0, [r6], #-0
     86c:	3a0e0300 	bcc	381474 <__bss_end__+0x377bfc>
     870:	390b3b0b 	stmdbcc	fp, {r0, r1, r3, r8, r9, fp, ip, sp}
     874:	3f13490b 	svccc	0x0013490b
     878:	00193c19 	andseq	r3, r9, r9, lsl ip
     87c:	000f0700 	andeq	r0, pc, r0, lsl #14
     880:	13490b0b 	movtne	r0, #39691	; 0x9b0b
     884:	26080000 	strcs	r0, [r8], -r0
     888:	00134900 	andseq	r4, r3, r0, lsl #18
     88c:	012e0900 			; <UNDEFINED> instruction: 0x012e0900
     890:	0e03193f 			; <UNDEFINED> instruction: 0x0e03193f
     894:	0b3b0b3a 	bleq	ec3584 <__bss_end__+0xeb9d0c>
     898:	01110b39 	tsteq	r1, r9, lsr fp
     89c:	18400612 	stmdane	r0, {r1, r4, r9, sl}^
     8a0:	01194297 			; <UNDEFINED> instruction: 0x01194297
     8a4:	0a000013 	beq	8f8 <__code_start__-0x7708>
     8a8:	193f002e 	ldmdbne	pc!, {r1, r2, r3, r5}	; <UNPREDICTABLE>
     8ac:	0b3a0e03 	bleq	e840c0 <__bss_end__+0xe7a848>
     8b0:	0b390b3b 	bleq	e435a4 <__bss_end__+0xe39d2c>
     8b4:	193c1927 	ldmdbne	ip!, {r0, r1, r2, r5, r8, fp, ip}
     8b8:	340b0000 	strcc	r0, [fp], #-0
     8bc:	3a080300 	bcc	2014c4 <__bss_end__+0x1f7c4c>
     8c0:	390b3b0b 	stmdbcc	fp, {r0, r1, r3, r8, r9, fp, ip, sp}
     8c4:	0213490b 	andseq	r4, r3, #180224	; 0x2c000
     8c8:	1742b717 	smlaldne	fp, r2, r7, r7
     8cc:	340c0000 	strcc	r0, [ip], #-0
     8d0:	3a0e0300 	bcc	3814d8 <__bss_end__+0x377c60>
     8d4:	390b3b0b 	stmdbcc	fp, {r0, r1, r3, r8, r9, fp, ip, sp}
     8d8:	0013490b 	andseq	r4, r3, fp, lsl #18
     8dc:	82890d00 	addhi	r0, r9, #0, 26
     8e0:	01110001 	tsteq	r1, r1
     8e4:	00001331 	andeq	r1, r0, r1, lsr r3
     8e8:	3f002e0e 	svccc	0x00002e0e
     8ec:	6e193c19 	mrcvs	12, 0, r3, cr9, cr9, {0}
     8f0:	3a0e030e 	bcc	381530 <__bss_end__+0x377cb8>
     8f4:	390b3b0b 	stmdbcc	fp, {r0, r1, r3, r8, r9, fp, ip, sp}
     8f8:	0000000b 	andeq	r0, r0, fp
     8fc:	25011101 	strcs	r1, [r1, #-257]	; 0xfffffeff
     900:	030b130e 	movweq	r1, #45838	; 0xb30e
     904:	550e1b0e 	strpl	r1, [lr, #-2830]	; 0xfffff4f2
     908:	10011117 	andne	r1, r1, r7, lsl r1
     90c:	02000017 	andeq	r0, r0, #23, 0
     910:	0b0b0024 	bleq	2c09a8 <__bss_end__+0x2b7130>
     914:	08030b3e 	stmdaeq	r3, {r1, r2, r3, r4, r5, r8, r9, fp}
     918:	26030000 	strcs	r0, [r3], -r0
     91c:	00134900 	andseq	r4, r3, r0, lsl #18
     920:	00240400 	eoreq	r0, r4, r0, lsl #8
     924:	0b3e0b0b 	bleq	f83558 <__bss_end__+0xf79ce0>
     928:	00000e03 	andeq	r0, r0, r3, lsl #28
     92c:	27011505 	strcs	r1, [r1, -r5, lsl #10]
     930:	01134919 	tsteq	r3, r9, lsl r9
     934:	06000013 			; <UNDEFINED> instruction: 0x06000013
     938:	13490005 	movtne	r0, #36869	; 0x9005
     93c:	34070000 	strcc	r0, [r7], #-0
     940:	3a0e0300 	bcc	381548 <__bss_end__+0x377cd0>
     944:	390b3b0b 	stmdbcc	fp, {r0, r1, r3, r8, r9, fp, ip, sp}
     948:	3f13490b 	svccc	0x0013490b
     94c:	00193c19 	andseq	r3, r9, r9, lsl ip
     950:	000f0800 	andeq	r0, pc, r0, lsl #16
     954:	13490b0b 	movtne	r0, #39691	; 0x9b0b
     958:	34090000 	strcc	r0, [r9], #-0
     95c:	3a0e0300 	bcc	381564 <__bss_end__+0x377cec>
     960:	390b3b0b 	stmdbcc	fp, {r0, r1, r3, r8, r9, fp, ip, sp}
     964:	0013490b 	andseq	r4, r3, fp, lsl #18
     968:	012e0a00 			; <UNDEFINED> instruction: 0x012e0a00
     96c:	0e03193f 			; <UNDEFINED> instruction: 0x0e03193f
     970:	0b3b0b3a 	bleq	ec3660 <__bss_end__+0xeb9de8>
     974:	19270b39 	stmdbne	r7!, {r0, r3, r4, r5, r8, r9, fp}
     978:	11190187 	tstne	r9, r7, lsl #3
     97c:	40061201 	andmi	r1, r6, r1, lsl #4
     980:	19429718 	stmdbne	r2, {r3, r4, r8, r9, sl, ip, pc}^
     984:	00001301 	andeq	r1, r0, r1, lsl #6
     988:	0300340b 	movweq	r3, #1035	; 0x40b
     98c:	3b0b3a0e 	blcc	2cf1cc <__bss_end__+0x2c5954>
     990:	490b390b 	stmdbmi	fp, {r0, r1, r3, r8, fp, ip, sp}
     994:	b7170213 			; <UNDEFINED> instruction: 0xb7170213
     998:	00001742 	andeq	r1, r0, r2, asr #14
     99c:	0182890c 	orreq	r8, r2, ip, lsl #18
     9a0:	31011100 	mrscc	r1, (UNDEF: 17)
     9a4:	0d000013 	stceq	0, cr0, [r0, #-76]	; 0xffffffb4
     9a8:	01018289 	smlabbeq	r1, r9, r2, r8
     9ac:	13310111 	teqne	r1, #1073741828	; 0x40000004
     9b0:	00001301 	andeq	r1, r0, r1, lsl #6
     9b4:	01828a0e 	orreq	r8, r2, lr, lsl #20
     9b8:	91180200 	tstls	r8, r0, lsl #4
     9bc:	00001842 	andeq	r1, r0, r2, asr #16
     9c0:	3f012e0f 	svccc	0x00012e0f
     9c4:	3a0e0319 	bcc	381630 <__bss_end__+0x377db8>
     9c8:	390b3b0b 	stmdbcc	fp, {r0, r1, r3, r8, r9, fp, ip, sp}
     9cc:	1119270b 	tstne	r9, fp, lsl #14
     9d0:	40061201 	andmi	r1, r6, r1, lsl #4
     9d4:	19429718 	stmdbne	r2, {r3, r4, r8, r9, sl, ip, pc}^
     9d8:	00001301 	andeq	r1, r0, r1, lsl #6
     9dc:	3f012e10 	svccc	0x00012e10
     9e0:	3a0e0319 	bcc	38164c <__bss_end__+0x377dd4>
     9e4:	390b3b0b 	stmdbcc	fp, {r0, r1, r3, r8, r9, fp, ip, sp}
     9e8:	4919270b 	ldmdbmi	r9, {r0, r1, r3, r8, r9, sl, sp}
     9ec:	12011113 	andne	r1, r1, #-1073741820	; 0xc0000004
     9f0:	97184006 	ldrls	r4, [r8, -r6]
     9f4:	13011942 	movwne	r1, #6466	; 0x1942
     9f8:	2e110000 	cdpcs	0, 1, cr0, cr1, cr0, {0}
     9fc:	3c193f00 	ldccc	15, cr3, [r9], {-0}
     a00:	030e6e19 	movweq	r6, #60953	; 0xee19
     a04:	3b0b3a0e 	blcc	2cf244 <__bss_end__+0x2c59cc>
     a08:	000b390b 	andeq	r3, fp, fp, lsl #18
     a0c:	11010000 	mrsne	r0, (UNDEF: 1)
     a10:	130e2501 	movwne	r2, #58625	; 0xe501
     a14:	1b0e030b 	blne	381648 <__bss_end__+0x377dd0>
     a18:	1201110e 	andne	r1, r1, #-2147483645	; 0x80000003
     a1c:	00171006 	andseq	r1, r7, r6
     a20:	00240200 	eoreq	r0, r4, r0, lsl #4
     a24:	0b3e0b0b 	bleq	f83658 <__bss_end__+0xf79de0>
     a28:	00000803 	andeq	r0, r0, r3, lsl #16
     a2c:	0b002403 	bleq	9a40 <__bss_end__+0x1c8>
     a30:	030b3e0b 	movweq	r3, #48651	; 0xbe0b
     a34:	0400000e 	streq	r0, [r0], #-14
     a38:	19270115 	stmdbne	r7!, {r0, r2, r4, r8}
     a3c:	13011349 	movwne	r1, #4937	; 0x1349
     a40:	05050000 	streq	r0, [r5, #-0]
     a44:	00134900 	andseq	r4, r3, r0, lsl #18
     a48:	00340600 	eorseq	r0, r4, r0, lsl #12
     a4c:	0b3a0e03 	bleq	e84260 <__bss_end__+0xe7a9e8>
     a50:	0b390b3b 	bleq	e43744 <__bss_end__+0xe39ecc>
     a54:	193f1349 	ldmdbne	pc!, {r0, r3, r6, r8, r9, ip}	; <UNPREDICTABLE>
     a58:	0000193c 	andeq	r1, r0, ip, lsr r9
     a5c:	0b000f07 	bleq	4680 <__code_start__-0x3980>
     a60:	0013490b 	andseq	r4, r3, fp, lsl #18
     a64:	00260800 	eoreq	r0, r6, r0, lsl #16
     a68:	00001349 	andeq	r1, r0, r9, asr #6
     a6c:	3f012e09 	svccc	0x00012e09
     a70:	3a0e0319 	bcc	3816dc <__bss_end__+0x377e64>
     a74:	390b3b0b 	stmdbcc	fp, {r0, r1, r3, r8, r9, fp, ip, sp}
     a78:	1119270b 	tstne	r9, fp, lsl #14
     a7c:	40061201 	andmi	r1, r6, r1, lsl #4
     a80:	19429718 	stmdbne	r2, {r3, r4, r8, r9, sl, ip, pc}^
     a84:	00001301 	andeq	r1, r0, r1, lsl #6
     a88:	0300050a 	movweq	r0, #1290	; 0x50a
     a8c:	3b0b3a08 	blcc	2cf2b4 <__bss_end__+0x2c5a3c>
     a90:	490b390b 	stmdbmi	fp, {r0, r1, r3, r8, fp, ip, sp}
     a94:	b7170213 			; <UNDEFINED> instruction: 0xb7170213
     a98:	00001742 	andeq	r1, r0, r2, asr #14
     a9c:	0182890b 	orreq	r8, r2, fp, lsl #18
     aa0:	31011101 	tstcc	r1, r1, lsl #2
     aa4:	0c000013 	stceq	0, cr0, [r0], {19}
     aa8:	0001828a 	andeq	r8, r1, sl, lsl #5
     aac:	42911802 	addsmi	r1, r1, #131072	; 0x20000
     ab0:	0d000018 	stceq	0, cr0, [r0, #-96]	; 0xffffffa0
     ab4:	08030034 	stmdaeq	r3, {r2, r4, r5}
     ab8:	0b3b0b3a 	bleq	ec37a8 <__bss_end__+0xeb9f30>
     abc:	13490b39 	movtne	r0, #39737	; 0x9b39
     ac0:	42b71702 	adcsmi	r1, r7, #524288	; 0x80000
     ac4:	0e000017 	mcreq	0, 0, r0, cr0, cr7, {0}
     ac8:	0111010b 	tsteq	r1, fp, lsl #2
     acc:	13010612 	movwne	r0, #5650	; 0x1612
     ad0:	890f0000 	stmdbhi	pc, {}	; <UNPREDICTABLE>
     ad4:	11000182 	smlabbne	r0, r2, r1, r0
     ad8:	00133101 	andseq	r3, r3, r1, lsl #2
     adc:	012e1000 			; <UNDEFINED> instruction: 0x012e1000
     ae0:	0e03193f 			; <UNDEFINED> instruction: 0x0e03193f
     ae4:	0b3b0b3a 	bleq	ec37d4 <__bss_end__+0xeb9f5c>
     ae8:	19270b39 	stmdbne	r7!, {r0, r3, r4, r5, r8, r9, fp}
     aec:	01111349 	tsteq	r1, r9, asr #6
     af0:	18400612 	stmdane	r0, {r1, r4, r9, sl}^
     af4:	01194297 			; <UNDEFINED> instruction: 0x01194297
     af8:	11000013 	tstne	r0, r3, lsl r0
     afc:	193f002e 	ldmdbne	pc!, {r1, r2, r3, r5}	; <UNPREDICTABLE>
     b00:	0e6e193c 			; <UNDEFINED> instruction: 0x0e6e193c
     b04:	0b3a0e03 	bleq	e84318 <__bss_end__+0xe7aaa0>
     b08:	0b390b3b 	bleq	e437fc <__bss_end__+0xe39f84>
     b0c:	01000000 	mrseq	r0, (UNDEF: 0)
     b10:	0e250111 	mcreq	1, 1, r0, cr5, cr1, {0}
     b14:	0e030b13 	vmoveq.32	d3[0], r0
     b18:	01110e1b 	tsteq	r1, fp, lsl lr
     b1c:	17100612 			; <UNDEFINED> instruction: 0x17100612
     b20:	24020000 	strcs	r0, [r2], #-0
     b24:	3e0b0b00 	vmlacc.f64	d0, d11, d0
     b28:	0008030b 	andeq	r0, r8, fp, lsl #6
     b2c:	00240300 	eoreq	r0, r4, r0, lsl #6
     b30:	0b3e0b0b 	bleq	f83764 <__bss_end__+0xf79eec>
     b34:	00000e03 	andeq	r0, r0, r3, lsl #28
     b38:	49003504 	stmdbmi	r0, {r2, r8, sl, ip, sp}
     b3c:	05000013 	streq	r0, [r0, #-19]	; 0xffffffed
     b40:	0e030016 	mcreq	0, 0, r0, cr3, cr6, {0}
     b44:	0b3b0b3a 	bleq	ec3834 <__bss_end__+0xeb9fbc>
     b48:	13490b39 	movtne	r0, #39737	; 0x9b39
     b4c:	15060000 	strne	r0, [r6, #-0]
     b50:	49192701 	ldmdbmi	r9, {r0, r8, r9, sl, sp}
     b54:	00130113 	andseq	r0, r3, r3, lsl r1
     b58:	00050700 	andeq	r0, r5, r0, lsl #14
     b5c:	00001349 	andeq	r1, r0, r9, asr #6
     b60:	03003408 	movweq	r3, #1032	; 0x408
     b64:	3b0b3a0e 	blcc	2cf3a4 <__bss_end__+0x2c5b2c>
     b68:	490b390b 	stmdbmi	fp, {r0, r1, r3, r8, fp, ip, sp}
     b6c:	3c193f13 	ldccc	15, cr3, [r9], {19}
     b70:	09000019 	stmdbeq	r0, {r0, r3, r4}
     b74:	0b0b000f 	bleq	2c0bb8 <__bss_end__+0x2b7340>
     b78:	00001349 	andeq	r1, r0, r9, asr #6
     b7c:	4900260a 	stmdbmi	r0, {r1, r3, r9, sl, sp}
     b80:	0b000013 	bleq	bd4 <__code_start__-0x742c>
     b84:	0b3e0104 	bleq	f80f9c <__bss_end__+0xf77724>
     b88:	13490b0b 	movtne	r0, #39691	; 0x9b0b
     b8c:	0b3b0b3a 	bleq	ec387c <__bss_end__+0xeba004>
     b90:	13010b39 	movwne	r0, #6969	; 0x1b39
     b94:	280c0000 	stmdacs	ip, {}	; <UNPREDICTABLE>
     b98:	1c0e0300 	stcne	3, cr0, [lr], {-0}
     b9c:	0d00000b 	stceq	0, cr0, [r0, #-44]	; 0xffffffd4
     ba0:	0e030113 	mcreq	1, 0, r0, cr3, cr3, {0}
     ba4:	0b3a0b0b 	bleq	e837d8 <__bss_end__+0xe79f60>
     ba8:	0b390b3b 	bleq	e4389c <__bss_end__+0xe3a024>
     bac:	00001301 	andeq	r1, r0, r1, lsl #6
     bb0:	03000d0e 	movweq	r0, #3342	; 0xd0e
     bb4:	3b0b3a08 	blcc	2cf3dc <__bss_end__+0x2c5b64>
     bb8:	490b390b 	stmdbmi	fp, {r0, r1, r3, r8, fp, ip, sp}
     bbc:	000b3813 	andeq	r3, fp, r3, lsl r8
     bc0:	000d0f00 	andeq	r0, sp, r0, lsl #30
     bc4:	0b3a0e03 	bleq	e843d8 <__bss_end__+0xe7ab60>
     bc8:	0b390b3b 	bleq	e438bc <__bss_end__+0xe3a044>
     bcc:	0b381349 	bleq	e058f8 <__bss_end__+0xdfc080>
     bd0:	34100000 	ldrcc	r0, [r0], #-0
     bd4:	3a0e0300 	bcc	3817dc <__bss_end__+0x377f64>
     bd8:	390b3b0b 	stmdbcc	fp, {r0, r1, r3, r8, r9, fp, ip, sp}
     bdc:	1c13490b 			; <UNDEFINED> instruction: 0x1c13490b
     be0:	11000006 	tstne	r0, r6
     be4:	193f012e 	ldmdbne	pc!, {r1, r2, r3, r5, r8}	; <UNPREDICTABLE>
     be8:	0b3a0e03 	bleq	e843fc <__bss_end__+0xe7ab84>
     bec:	0b390b3b 	bleq	e438e0 <__bss_end__+0xe3a068>
     bf0:	01111927 	tsteq	r1, r7, lsr #18
     bf4:	18400612 	stmdane	r0, {r1, r4, r9, sl}^
     bf8:	01194297 			; <UNDEFINED> instruction: 0x01194297
     bfc:	12000013 	andne	r0, r0, #19, 0
     c00:	00018289 	andeq	r8, r1, r9, lsl #5
     c04:	13310111 	teqne	r1, #1073741828	; 0x40000004
     c08:	2e130000 	cdpcs	0, 1, cr0, cr3, cr0, {0}
     c0c:	03193f01 	tsteq	r9, #1, 30
     c10:	3b0b3a0e 	blcc	2cf450 <__bss_end__+0x2c5bd8>
     c14:	270b390b 	strcs	r3, [fp, -fp, lsl #18]
     c18:	11134919 	tstne	r3, r9, lsl r9
     c1c:	40061201 	andmi	r1, r6, r1, lsl #4
     c20:	19429718 	stmdbne	r2, {r3, r4, r8, r9, sl, ip, pc}^
     c24:	00001301 	andeq	r1, r0, r1, lsl #6
     c28:	01828914 	orreq	r8, r2, r4, lsl r9
     c2c:	31011101 	tstcc	r1, r1, lsl #2
     c30:	15000013 	strne	r0, [r0, #-19]	; 0xffffffed
     c34:	0001828a 	andeq	r8, r1, sl, lsl #5
     c38:	42911802 	addsmi	r1, r1, #131072	; 0x20000
     c3c:	16000018 			; <UNDEFINED> instruction: 0x16000018
     c40:	08030005 	stmdaeq	r3, {r0, r2}
     c44:	0b3b0b3a 	bleq	ec3934 <__bss_end__+0xeba0bc>
     c48:	13490b39 	movtne	r0, #39737	; 0x9b39
     c4c:	42b71702 	adcsmi	r1, r7, #524288	; 0x80000
     c50:	17000017 	smladne	r0, r7, r0, r0
     c54:	01018289 	smlabbeq	r1, r9, r2, r8
     c58:	13310111 	teqne	r1, #1073741828	; 0x40000004
     c5c:	00001301 	andeq	r1, r0, r1, lsl #6
     c60:	03003418 	movweq	r3, #1048	; 0x418
     c64:	3b0b3a08 	blcc	2cf48c <__bss_end__+0x2c5c14>
     c68:	490b390b 	stmdbmi	fp, {r0, r1, r3, r8, fp, ip, sp}
     c6c:	b7170213 			; <UNDEFINED> instruction: 0xb7170213
     c70:	00001742 	andeq	r1, r0, r2, asr #14
     c74:	03003419 	movweq	r3, #1049	; 0x419
     c78:	3b0b3a0e 	blcc	2cf4b8 <__bss_end__+0x2c5c40>
     c7c:	490b390b 	stmdbmi	fp, {r0, r1, r3, r8, fp, ip, sp}
     c80:	00051c13 	andeq	r1, r5, r3, lsl ip
     c84:	012e1a00 			; <UNDEFINED> instruction: 0x012e1a00
     c88:	0b3a0e03 	bleq	e8449c <__bss_end__+0xe7ac24>
     c8c:	0b390b3b 	bleq	e43980 <__bss_end__+0xe3a108>
     c90:	01111927 	tsteq	r1, r7, lsr #18
     c94:	18400612 	stmdane	r0, {r1, r4, r9, sl}^
     c98:	01194297 			; <UNDEFINED> instruction: 0x01194297
     c9c:	1b000013 	blne	cf0 <__code_start__-0x7310>
     ca0:	0e030005 	cdpeq	0, 0, cr0, cr3, cr5, {0}
     ca4:	0b3b0b3a 	bleq	ec3994 <__bss_end__+0xeba11c>
     ca8:	13490b39 	movtne	r0, #39737	; 0x9b39
     cac:	42b71702 	adcsmi	r1, r7, #524288	; 0x80000
     cb0:	1c000017 	stcne	0, cr0, [r0], {23}
     cb4:	00000035 	andeq	r0, r0, r5, lsr r0
     cb8:	3f002e1d 	svccc	0x00002e1d
     cbc:	6e193c19 	mrcvs	12, 0, r3, cr9, cr9, {0}
     cc0:	3a0e030e 	bcc	381900 <__bss_end__+0x378088>
     cc4:	390b3b0b 	stmdbcc	fp, {r0, r1, r3, r8, r9, fp, ip, sp}
     cc8:	0000000b 	andeq	r0, r0, fp
     ccc:	25011101 	strcs	r1, [r1, #-257]	; 0xfffffeff
     cd0:	030b130e 	movweq	r1, #45838	; 0xb30e
     cd4:	110e1b0e 	tstne	lr, lr, lsl #22
     cd8:	10061201 	andne	r1, r6, r1, lsl #4
     cdc:	02000017 	andeq	r0, r0, #23, 0
     ce0:	0b0b0024 	bleq	2c0d78 <__bss_end__+0x2b7500>
     ce4:	08030b3e 	stmdaeq	r3, {r1, r2, r3, r4, r5, r8, r9, fp}
     ce8:	24030000 	strcs	r0, [r3], #-0
     cec:	3e0b0b00 	vmlacc.f64	d0, d11, d0
     cf0:	000e030b 	andeq	r0, lr, fp, lsl #6
     cf4:	00350400 	eorseq	r0, r5, r0, lsl #8
     cf8:	00001349 	andeq	r1, r0, r9, asr #6
     cfc:	27011505 	strcs	r1, [r1, -r5, lsl #10]
     d00:	01134919 	tsteq	r3, r9, lsl r9
     d04:	06000013 			; <UNDEFINED> instruction: 0x06000013
     d08:	13490005 	movtne	r0, #36869	; 0x9005
     d0c:	34070000 	strcc	r0, [r7], #-0
     d10:	3a0e0300 	bcc	381918 <__bss_end__+0x3780a0>
     d14:	390b3b0b 	stmdbcc	fp, {r0, r1, r3, r8, r9, fp, ip, sp}
     d18:	3f13490b 	svccc	0x0013490b
     d1c:	00193c19 	andseq	r3, r9, r9, lsl ip
     d20:	000f0800 	andeq	r0, pc, r0, lsl #16
     d24:	13490b0b 	movtne	r0, #39691	; 0x9b0b
     d28:	26090000 	strcs	r0, [r9], -r0
     d2c:	00134900 	andseq	r4, r3, r0, lsl #18
     d30:	01040a00 	tsteq	r4, r0, lsl #20
     d34:	0b0b0b3e 	bleq	2c3a34 <__bss_end__+0x2ba1bc>
     d38:	0b3a1349 	bleq	e85a64 <__bss_end__+0xe7c1ec>
     d3c:	0b390b3b 	bleq	e43a30 <__bss_end__+0xe3a1b8>
     d40:	00001301 	andeq	r1, r0, r1, lsl #6
     d44:	0300280b 	movweq	r2, #2059	; 0x80b
     d48:	000b1c0e 	andeq	r1, fp, lr, lsl #24
     d4c:	00160c00 	andseq	r0, r6, r0, lsl #24
     d50:	0b3a0e03 	bleq	e84564 <__bss_end__+0xe7acec>
     d54:	0b390b3b 	bleq	e43a48 <__bss_end__+0xe3a1d0>
     d58:	00001349 	andeq	r1, r0, r9, asr #6
     d5c:	0300340d 	movweq	r3, #1037	; 0x40d
     d60:	3b0b3a0e 	blcc	2cf5a0 <__bss_end__+0x2c5d28>
     d64:	490b390b 	stmdbmi	fp, {r0, r1, r3, r8, fp, ip, sp}
     d68:	0e000013 	mcreq	0, 0, r0, cr0, cr3, {0}
     d6c:	193f012e 	ldmdbne	pc!, {r1, r2, r3, r5, r8}	; <UNPREDICTABLE>
     d70:	0b3a0e03 	bleq	e84584 <__bss_end__+0xe7ad0c>
     d74:	0b390b3b 	bleq	e43a68 <__bss_end__+0xe3a1f0>
     d78:	01111927 	tsteq	r1, r7, lsr #18
     d7c:	18400612 	stmdane	r0, {r1, r4, r9, sl}^
     d80:	01194297 			; <UNDEFINED> instruction: 0x01194297
     d84:	0f000013 	svceq	0x00000013
     d88:	08030005 	stmdaeq	r3, {r0, r2}
     d8c:	0b3b0b3a 	bleq	ec3a7c <__bss_end__+0xeba204>
     d90:	13490b39 	movtne	r0, #39737	; 0x9b39
     d94:	42b71702 	adcsmi	r1, r7, #524288	; 0x80000
     d98:	10000017 	andne	r0, r0, r7, lsl r0
     d9c:	0e030005 	cdpeq	0, 0, cr0, cr3, cr5, {0}
     da0:	0b3b0b3a 	bleq	ec3a90 <__bss_end__+0xeba218>
     da4:	13490b39 	movtne	r0, #39737	; 0x9b39
     da8:	42b71702 	adcsmi	r1, r7, #524288	; 0x80000
     dac:	11000017 	tstne	r0, r7, lsl r0
     db0:	0e030034 	mcreq	0, 0, r0, cr3, cr4, {1}
     db4:	0b3b0b3a 	bleq	ec3aa4 <__bss_end__+0xeba22c>
     db8:	13490b39 	movtne	r0, #39737	; 0x9b39
     dbc:	42b71702 	adcsmi	r1, r7, #524288	; 0x80000
     dc0:	12000017 	andne	r0, r0, #23, 0
     dc4:	01018289 	smlabbeq	r1, r9, r2, r8
     dc8:	13310111 	teqne	r1, #1073741828	; 0x40000004
     dcc:	00001301 	andeq	r1, r0, r1, lsl #6
     dd0:	01828a13 	orreq	r8, r2, r3, lsl sl
     dd4:	91180200 	tstls	r8, r0, lsl #4
     dd8:	00001842 	andeq	r1, r0, r2, asr #16
     ddc:	01828914 	orreq	r8, r2, r4, lsl r9
     de0:	31011101 	tstcc	r1, r1, lsl #2
     de4:	15000013 	strne	r0, [r0, #-19]	; 0xffffffed
     de8:	193f012e 	ldmdbne	pc!, {r1, r2, r3, r5, r8}	; <UNPREDICTABLE>
     dec:	0b3a0e03 	bleq	e84600 <__bss_end__+0xe7ad88>
     df0:	0b390b3b 	bleq	e43ae4 <__bss_end__+0xe3a26c>
     df4:	13491927 	movtne	r1, #39207	; 0x9927
     df8:	06120111 			; <UNDEFINED> instruction: 0x06120111
     dfc:	42971840 	addsmi	r1, r7, #64, 16	; 0x400000
     e00:	00130119 	andseq	r0, r3, r9, lsl r1
     e04:	00341600 	eorseq	r1, r4, r0, lsl #12
     e08:	0b3a0803 	bleq	e82e1c <__bss_end__+0xe795a4>
     e0c:	0b390b3b 	bleq	e43b00 <__bss_end__+0xe3a288>
     e10:	17021349 	strne	r1, [r2, -r9, asr #6]
     e14:	001742b7 			; <UNDEFINED> instruction: 0x001742b7
     e18:	00341700 	eorseq	r1, r4, r0, lsl #14
     e1c:	0b3a0e03 	bleq	e84630 <__bss_end__+0xe7adb8>
     e20:	0b390b3b 	bleq	e43b14 <__bss_end__+0xe3a29c>
     e24:	061c1349 	ldreq	r1, [ip], -r9, asr #6
     e28:	89180000 	ldmdbhi	r8, {}	; <UNPREDICTABLE>
     e2c:	11000182 	smlabbne	r0, r2, r1, r0
     e30:	00133101 	andseq	r3, r3, r1, lsl #2
     e34:	002e1900 	eoreq	r1, lr, r0, lsl #18
     e38:	193c193f 	ldmdbne	ip!, {r0, r1, r2, r3, r4, r5, r8, fp, ip}
     e3c:	0e030e6e 	cdpeq	14, 0, cr0, cr3, cr14, {3}
     e40:	0b3b0b3a 	bleq	ec3b30 <__bss_end__+0xeba2b8>
     e44:	00000b39 	andeq	r0, r0, r9, lsr fp
     e48:	01110100 	tsteq	r1, r0, lsl #2
     e4c:	0b130e25 	bleq	4c46e8 <__bss_end__+0x4bae70>
     e50:	0e1b0e03 	cdpeq	14, 1, cr0, cr11, cr3, {0}
     e54:	06120111 			; <UNDEFINED> instruction: 0x06120111
     e58:	00001710 	andeq	r1, r0, r0, lsl r7
     e5c:	0b002402 	bleq	9e6c <__bss_end__+0x5f4>
     e60:	030b3e0b 	movweq	r3, #48651	; 0xbe0b
     e64:	03000008 	movweq	r0, #8
     e68:	0b0b0024 	bleq	2c0f00 <__bss_end__+0x2b7688>
     e6c:	0e030b3e 	vmoveq.16	d3[0], r0
     e70:	15040000 	strne	r0, [r4, #-0]
     e74:	49192701 	ldmdbmi	r9, {r0, r8, r9, sl, sp}
     e78:	00130113 	andseq	r0, r3, r3, lsl r1
     e7c:	00050500 	andeq	r0, r5, r0, lsl #10
     e80:	00001349 	andeq	r1, r0, r9, asr #6
     e84:	03003406 	movweq	r3, #1030	; 0x406
     e88:	3b0b3a0e 	blcc	2cf6c8 <__bss_end__+0x2c5e50>
     e8c:	490b390b 	stmdbmi	fp, {r0, r1, r3, r8, fp, ip, sp}
     e90:	3c193f13 	ldccc	15, cr3, [r9], {19}
     e94:	07000019 	smladeq	r0, r9, r0, r0
     e98:	0b0b000f 	bleq	2c0edc <__bss_end__+0x2b7664>
     e9c:	00001349 	andeq	r1, r0, r9, asr #6
     ea0:	49002608 	stmdbmi	r0, {r3, r9, sl, sp}
     ea4:	09000013 	stmdbeq	r0, {r0, r1, r4}
     ea8:	193f012e 	ldmdbne	pc!, {r1, r2, r3, r5, r8}	; <UNPREDICTABLE>
     eac:	0b3a0e03 	bleq	e846c0 <__bss_end__+0xe7ae48>
     eb0:	0b390b3b 	bleq	e43ba4 <__bss_end__+0xe3a32c>
     eb4:	13491927 	movtne	r1, #39207	; 0x9927
     eb8:	06120111 			; <UNDEFINED> instruction: 0x06120111
     ebc:	42971840 	addsmi	r1, r7, #64, 16	; 0x400000
     ec0:	00130119 	andseq	r0, r3, r9, lsl r1
     ec4:	00050a00 	andeq	r0, r5, r0, lsl #20
     ec8:	0b3a0e03 	bleq	e846dc <__bss_end__+0xe7ae64>
     ecc:	0b390b3b 	bleq	e43bc0 <__bss_end__+0xe3a348>
     ed0:	18021349 	stmdane	r2, {r0, r3, r6, r8, r9, ip}
     ed4:	050b0000 	streq	r0, [fp, #-0]
     ed8:	3a080300 	bcc	201ae0 <__bss_end__+0x1f8268>
     edc:	390b3b0b 	stmdbcc	fp, {r0, r1, r3, r8, r9, fp, ip, sp}
     ee0:	0213490b 	andseq	r4, r3, #180224	; 0x2c000
     ee4:	1742b717 	smlaldne	fp, r2, r7, r7
     ee8:	340c0000 	strcc	r0, [ip], #-0
     eec:	3a080300 	bcc	201af4 <__bss_end__+0x1f827c>
     ef0:	390b3b0b 	stmdbcc	fp, {r0, r1, r3, r8, r9, fp, ip, sp}
     ef4:	0213490b 	andseq	r4, r3, #180224	; 0x2c000
     ef8:	1742b717 	smlaldne	fp, r2, r7, r7
     efc:	01000000 	mrseq	r0, (UNDEF: 0)
     f00:	0e250111 	mcreq	1, 1, r0, cr5, cr1, {0}
     f04:	0e030b13 	vmoveq.32	d3[0], r0
     f08:	01110e1b 	tsteq	r1, fp, lsl lr
     f0c:	17100612 			; <UNDEFINED> instruction: 0x17100612
     f10:	24020000 	strcs	r0, [r2], #-0
     f14:	3e0b0b00 	vmlacc.f64	d0, d11, d0
     f18:	0008030b 	andeq	r0, r8, fp, lsl #6
     f1c:	00240300 	eoreq	r0, r4, r0, lsl #6
     f20:	0b3e0b0b 	bleq	f83b54 <__bss_end__+0xf7a2dc>
     f24:	00000e03 	andeq	r0, r0, r3, lsl #28
     f28:	27011504 	strcs	r1, [r1, -r4, lsl #10]
     f2c:	01134919 	tsteq	r3, r9, lsl r9
     f30:	05000013 	streq	r0, [r0, #-19]	; 0xffffffed
     f34:	13490005 	movtne	r0, #36869	; 0x9005
     f38:	34060000 	strcc	r0, [r6], #-0
     f3c:	3a0e0300 	bcc	381b44 <__bss_end__+0x3782cc>
     f40:	390b3b0b 	stmdbcc	fp, {r0, r1, r3, r8, r9, fp, ip, sp}
     f44:	3f13490b 	svccc	0x0013490b
     f48:	00193c19 	andseq	r3, r9, r9, lsl ip
     f4c:	000f0700 	andeq	r0, pc, r0, lsl #14
     f50:	13490b0b 	movtne	r0, #39691	; 0x9b0b
     f54:	26080000 	strcs	r0, [r8], -r0
     f58:	00134900 	andseq	r4, r3, r0, lsl #18
     f5c:	012e0900 			; <UNDEFINED> instruction: 0x012e0900
     f60:	0e03193f 			; <UNDEFINED> instruction: 0x0e03193f
     f64:	0b3b0b3a 	bleq	ec3c54 <__bss_end__+0xeba3dc>
     f68:	19270b39 	stmdbne	r7!, {r0, r3, r4, r5, r8, r9, fp}
     f6c:	01111349 	tsteq	r1, r9, asr #6
     f70:	18400612 	stmdane	r0, {r1, r4, r9, sl}^
     f74:	00194297 	mulseq	r9, r7, r2
     f78:	00050a00 	andeq	r0, r5, r0, lsl #20
     f7c:	0b3a0803 	bleq	e82f90 <__bss_end__+0xe79718>
     f80:	0b390b3b 	bleq	e43c74 <__bss_end__+0xe3a3fc>
     f84:	17021349 	strne	r1, [r2, -r9, asr #6]
     f88:	001742b7 			; <UNDEFINED> instruction: 0x001742b7
     f8c:	11010000 	mrsne	r0, (UNDEF: 1)
     f90:	130e2501 	movwne	r2, #58625	; 0xe501
     f94:	1b0e030b 	blne	381bc8 <__bss_end__+0x378350>
     f98:	1201110e 	andne	r1, r1, #-2147483645	; 0x80000003
     f9c:	00171006 	andseq	r1, r7, r6
     fa0:	00240200 	eoreq	r0, r4, r0, lsl #4
     fa4:	0b3e0b0b 	bleq	f83bd8 <__bss_end__+0xf7a360>
     fa8:	00000803 	andeq	r0, r0, r3, lsl #16
     fac:	0b002403 	bleq	9fc0 <__bss_end__+0x748>
     fb0:	030b3e0b 	movweq	r3, #48651	; 0xbe0b
     fb4:	0400000e 	streq	r0, [r0], #-14
     fb8:	19270115 	stmdbne	r7!, {r0, r2, r4, r8}
     fbc:	13011349 	movwne	r1, #4937	; 0x1349
     fc0:	05050000 	streq	r0, [r5, #-0]
     fc4:	00134900 	andseq	r4, r3, r0, lsl #18
     fc8:	00340600 	eorseq	r0, r4, r0, lsl #12
     fcc:	0b3a0e03 	bleq	e847e0 <__bss_end__+0xe7af68>
     fd0:	0b390b3b 	bleq	e43cc4 <__bss_end__+0xe3a44c>
     fd4:	193f1349 	ldmdbne	pc!, {r0, r3, r6, r8, r9, ip}	; <UNPREDICTABLE>
     fd8:	0000193c 	andeq	r1, r0, ip, lsr r9
     fdc:	0b000f07 	bleq	4c00 <__code_start__-0x3400>
     fe0:	0013490b 	andseq	r4, r3, fp, lsl #18
     fe4:	00260800 	eoreq	r0, r6, r0, lsl #16
     fe8:	00001349 	andeq	r1, r0, r9, asr #6
     fec:	3f012e09 	svccc	0x00012e09
     ff0:	3a0e0319 	bcc	381c5c <__bss_end__+0x3783e4>
     ff4:	390b3b0b 	stmdbcc	fp, {r0, r1, r3, r8, r9, fp, ip, sp}
     ff8:	4919270b 	ldmdbmi	r9, {r0, r1, r3, r8, r9, sl, sp}
     ffc:	12011113 	andne	r1, r1, #-1073741820	; 0xc0000004
    1000:	97184006 	ldrls	r4, [r8, -r6]
    1004:	13011942 	movwne	r1, #6466	; 0x1942
    1008:	050a0000 	streq	r0, [sl, #-0]
    100c:	3a080300 	bcc	201c14 <__bss_end__+0x1f839c>
    1010:	390b3b0b 	stmdbcc	fp, {r0, r1, r3, r8, r9, fp, ip, sp}
    1014:	0213490b 	andseq	r4, r3, #180224	; 0x2c000
    1018:	0b000018 	bleq	1080 <__code_start__-0x6f80>
    101c:	08030005 	stmdaeq	r3, {r0, r2}
    1020:	0b3b0b3a 	bleq	ec3d10 <__bss_end__+0xeba498>
    1024:	13490b39 	movtne	r0, #39737	; 0x9b39
    1028:	42b71702 	adcsmi	r1, r7, #524288	; 0x80000
    102c:	0c000017 	stceq	0, cr0, [r0], {23}
    1030:	08030034 	stmdaeq	r3, {r2, r4, r5}
    1034:	0b3b0b3a 	bleq	ec3d24 <__bss_end__+0xeba4ac>
    1038:	13490b39 	movtne	r0, #39737	; 0x9b39
    103c:	42b71702 	adcsmi	r1, r7, #524288	; 0x80000
    1040:	00000017 	andeq	r0, r0, r7, lsl r0
    1044:	25011101 	strcs	r1, [r1, #-257]	; 0xfffffeff
    1048:	030b130e 	movweq	r1, #45838	; 0xb30e
    104c:	550e1b0e 	strpl	r1, [lr, #-2830]	; 0xfffff4f2
    1050:	10011117 	andne	r1, r1, r7, lsl r1
    1054:	02000017 	andeq	r0, r0, #23, 0
    1058:	0b0b0024 	bleq	2c10f0 <__bss_end__+0x2b7878>
    105c:	08030b3e 	stmdaeq	r3, {r1, r2, r3, r4, r5, r8, r9, fp}
    1060:	16030000 	strne	r0, [r3], -r0
    1064:	3a0e0300 	bcc	381c6c <__bss_end__+0x3783f4>
    1068:	390b3b0b 	stmdbcc	fp, {r0, r1, r3, r8, r9, fp, ip, sp}
    106c:	0013490b 	andseq	r4, r3, fp, lsl #18
    1070:	00240400 	eoreq	r0, r4, r0, lsl #8
    1074:	0b3e0b0b 	bleq	f83ca8 <__bss_end__+0xf7a430>
    1078:	00000e03 	andeq	r0, r0, r3, lsl #28
    107c:	49002605 	stmdbmi	r0, {r0, r2, r9, sl, sp}
    1080:	06000013 			; <UNDEFINED> instruction: 0x06000013
    1084:	19270115 	stmdbne	r7!, {r0, r2, r4, r8}
    1088:	13011349 	movwne	r1, #4937	; 0x1349
    108c:	05070000 	streq	r0, [r7, #-0]
    1090:	00134900 	andseq	r4, r3, r0, lsl #18
    1094:	00340800 	eorseq	r0, r4, r0, lsl #16
    1098:	0b3a0e03 	bleq	e848ac <__bss_end__+0xe7b034>
    109c:	0b390b3b 	bleq	e43d90 <__bss_end__+0xe3a518>
    10a0:	193f1349 	ldmdbne	pc!, {r0, r3, r6, r8, r9, ip}	; <UNPREDICTABLE>
    10a4:	0000193c 	andeq	r1, r0, ip, lsr r9
    10a8:	0b000f09 	bleq	4cd4 <__code_start__-0x332c>
    10ac:	0013490b 	andseq	r4, r3, fp, lsl #18
    10b0:	012e0a00 			; <UNDEFINED> instruction: 0x012e0a00
    10b4:	0e03193f 			; <UNDEFINED> instruction: 0x0e03193f
    10b8:	0b3b0b3a 	bleq	ec3da8 <__bss_end__+0xeba530>
    10bc:	19270b39 	stmdbne	r7!, {r0, r3, r4, r5, r8, r9, fp}
    10c0:	01111349 	tsteq	r1, r9, asr #6
    10c4:	18400612 	stmdane	r0, {r1, r4, r9, sl}^
    10c8:	01194297 			; <UNDEFINED> instruction: 0x01194297
    10cc:	0b000013 	bleq	1120 <__code_start__-0x6ee0>
    10d0:	08030005 	stmdaeq	r3, {r0, r2}
    10d4:	0b3b0b3a 	bleq	ec3dc4 <__bss_end__+0xeba54c>
    10d8:	13490b39 	movtne	r0, #39737	; 0x9b39
    10dc:	42b71702 	adcsmi	r1, r7, #524288	; 0x80000
    10e0:	0c000017 	stceq	0, cr0, [r0], {23}
    10e4:	08030034 	stmdaeq	r3, {r2, r4, r5}
    10e8:	0b3b0b3a 	bleq	ec3dd8 <__bss_end__+0xeba560>
    10ec:	13490b39 	movtne	r0, #39737	; 0x9b39
    10f0:	42b71702 	adcsmi	r1, r7, #524288	; 0x80000
    10f4:	00000017 	andeq	r0, r0, r7, lsl r0

Disassembly of section .debug_aranges:

00000000 <.debug_aranges>:
   0:	0000001c 	andeq	r0, r0, ip, lsl r0
   4:	00000002 	andeq	r0, r0, r2
   8:	00040000 	andeq	r0, r4, r0
   c:	00000000 	andeq	r0, r0, r0
  10:	00008020 	andeq	r8, r0, r0, lsr #32
  14:	0000009c 	muleq	r0, ip, r0
	...
  20:	0000001c 	andeq	r0, r0, ip, lsl r0
  24:	02130002 	andseq	r0, r3, #2, 0
  28:	00040000 	andeq	r0, r4, r0
  2c:	00000000 	andeq	r0, r0, r0
  30:	000080bc 	strheq	r8, [r0], -ip
  34:	000002fc 	strdeq	r0, [r0], -ip
	...
  40:	0000001c 	andeq	r0, r0, ip, lsl r0
  44:	09580002 	ldmdbeq	r8, {r1}^
  48:	00040000 	andeq	r0, r4, r0
  4c:	00000000 	andeq	r0, r0, r0
  50:	000083b8 			; <UNDEFINED> instruction: 0x000083b8
  54:	00000058 	andeq	r0, r0, r8, asr r0
	...
  60:	0000001c 	andeq	r0, r0, ip, lsl r0
  64:	0af90002 	beq	ffe40074 <__bss_end__+0xffe367fc>
  68:	00040000 	andeq	r0, r4, r0
  6c:	00000000 	andeq	r0, r0, r0
  70:	00008410 	andeq	r8, r0, r0, lsl r4
  74:	0000003c 	andeq	r0, r0, ip, lsr r0
	...
  80:	0000001c 	andeq	r0, r0, ip, lsl r0
  84:	0c460002 	mcrreq	0, 0, r0, r6, cr2
  88:	00040000 	andeq	r0, r4, r0
  8c:	00000000 	andeq	r0, r0, r0
  90:	0000844c 	andeq	r8, r0, ip, asr #8
  94:	00000034 	andeq	r0, r0, r4, lsr r0
	...
  a0:	0000001c 	andeq	r0, r0, ip, lsl r0
  a4:	0d3d0002 	ldceq	0, cr0, [sp, #-8]!
  a8:	00040000 	andeq	r0, r4, r0
  ac:	00000000 	andeq	r0, r0, r0
  b0:	00008480 	andeq	r8, r0, r0, lsl #9
  b4:	00000720 	andeq	r0, r0, r0, lsr #14
	...
  c0:	0000001c 	andeq	r0, r0, ip, lsl r0
  c4:	17d60002 	ldrbne	r0, [r6, r2]
  c8:	00040000 	andeq	r0, r4, r0
  cc:	00000000 	andeq	r0, r0, r0
  d0:	00008ba0 	andeq	r8, r0, r0, lsr #23
  d4:	0000002c 	andeq	r0, r0, ip, lsr #32
	...
  e0:	0000001c 	andeq	r0, r0, ip, lsl r0
  e4:	19090002 	stmdbne	r9, {r1}
  e8:	00040000 	andeq	r0, r4, r0
  ec:	00000000 	andeq	r0, r0, r0
  f0:	00008bcc 	andeq	r8, r0, ip, asr #23
  f4:	0000002c 	andeq	r0, r0, ip, lsr #32
	...
 100:	0000001c 	andeq	r0, r0, ip, lsl r0
 104:	1a500002 	bne	1400114 <__bss_end__+0x13f689c>
 108:	00040000 	andeq	r0, r4, r0
 10c:	00000000 	andeq	r0, r0, r0
 110:	00008bf8 	strdeq	r8, [r0], -r8	; <UNPREDICTABLE>
 114:	0000007c 	andeq	r0, r0, ip, ror r0
	...
 120:	0000001c 	andeq	r0, r0, ip, lsl r0
 124:	1c740002 	ldclne	0, cr0, [r4], #-8
 128:	00040000 	andeq	r0, r4, r0
 12c:	00000000 	andeq	r0, r0, r0
 130:	00008c74 	andeq	r8, r0, r4, ror ip
 134:	00000084 	andeq	r0, r0, r4, lsl #1
	...
 140:	0000001c 	andeq	r0, r0, ip, lsl r0
 144:	1ec50002 	cdpne	0, 12, cr0, cr5, cr2, {0}
 148:	00040000 	andeq	r0, r4, r0
 14c:	00000000 	andeq	r0, r0, r0
 150:	00008cf8 	strdeq	r8, [r0], -r8	; <UNPREDICTABLE>
 154:	000001ac 	andeq	r0, r0, ip, lsr #3
	...
 160:	0000001c 	andeq	r0, r0, ip, lsl r0
 164:	24310002 	ldrtcs	r0, [r1], #-2
 168:	00040000 	andeq	r0, r4, r0
 16c:	00000000 	andeq	r0, r0, r0
 170:	00008ea4 	andeq	r8, r0, r4, lsr #29
 174:	000001ac 	andeq	r0, r0, ip, lsr #3
	...
 180:	0000001c 	andeq	r0, r0, ip, lsl r0
 184:	29590002 	ldmdbcs	r9, {r1}^
 188:	00040000 	andeq	r0, r4, r0
 18c:	00000000 	andeq	r0, r0, r0
 190:	00009050 	andeq	r9, r0, r0, asr r0
 194:	00000034 	andeq	r0, r0, r4, lsr r0
	...
 1a0:	0000001c 	andeq	r0, r0, ip, lsl r0
 1a4:	2a940002 	bcs	fe5001b4 <__bss_end__+0xfe4f693c>
 1a8:	00040000 	andeq	r0, r4, r0
 1ac:	00000000 	andeq	r0, r0, r0
 1b0:	00009084 	andeq	r9, r0, r4, lsl #1
 1b4:	0000002c 	andeq	r0, r0, ip, lsr #32
	...
 1c0:	0000001c 	andeq	r0, r0, ip, lsl r0
 1c4:	2b8f0002 	blcs	fe3c01d4 <__bss_end__+0xfe3b695c>
 1c8:	00040000 	andeq	r0, r4, r0
 1cc:	00000000 	andeq	r0, r0, r0
 1d0:	000090b0 	strheq	r9, [r0], -r0
 1d4:	00000020 	andeq	r0, r0, r0, lsr #32
	...
 1e0:	0000001c 	andeq	r0, r0, ip, lsl r0
 1e4:	2ca20002 	stccs	0, cr0, [r2], #8
 1e8:	00040000 	andeq	r0, r4, r0
 1ec:	00000000 	andeq	r0, r0, r0
 1f0:	000090d0 	ldrdeq	r9, [r0], -r0
 1f4:	0000002c 	andeq	r0, r0, ip, lsr #32
	...

Disassembly of section .debug_line:

00000000 <.debug_line>:
       0:	00000087 	andeq	r0, r0, r7, lsl #1
       4:	00570003 	subseq	r0, r7, r3
       8:	01020000 	mrseq	r0, (UNDEF: 2)
       c:	000d0efb 	strdeq	r0, [sp], -fp
      10:	01010101 	tsteq	r1, r1, lsl #2
      14:	01000000 	mrseq	r0, (UNDEF: 0)
      18:	2f010000 	svccs	0x00010000
      1c:	72657355 	rsbvc	r7, r5, #1409286145	; 0x54000001
      20:	64612f73 	strbtvs	r2, [r1], #-3955	; 0xfffff08d
      24:	2f6e696d 	svccs	0x006e696d
      28:	342d5343 	strtcc	r5, [sp], #-835	; 0xfffffcbd
      2c:	632f4e39 			; <UNDEFINED> instruction: 0x632f4e39
      30:	6e393473 	mrcvs	4, 1, r3, cr9, cr3, {3}
      34:	6131322d 	teqvs	r1, sp, lsr #4
      38:	2f2f7475 	svccs	0x002f7475
      3c:	7062696c 	rsbvc	r6, r2, ip, ror #18
      40:	6e692f69 	cdpvs	15, 6, cr2, cr9, cr9, {3}
      44:	64756c63 	ldrbtvs	r6, [r5], #-3171	; 0xfffff39d
      48:	30000065 	andcc	r0, r0, r5, rrx
      4c:	7365742d 	cmnvc	r5, #754974720	; 0x2d000000
      50:	00632e74 	rsbeq	r2, r3, r4, ror lr
      54:	72000000 	andvc	r0, r0, #0, 0
      58:	682e6970 	stmdavs	lr!, {r4, r5, r6, r8, fp, sp, lr}
      5c:	00000100 	andeq	r0, r0, r0, lsl #2
      60:	00140500 	andseq	r0, r4, r0, lsl #10
      64:	80200205 	eorhi	r0, r0, r5, lsl #4
      68:	05140000 	ldreq	r0, [r4, #-0]
      6c:	66012f05 	strvs	r2, [r1], -r5, lsl #30
      70:	014b134a 	cmpeq	fp, sl, asr #6
      74:	0113ba4a 	tsteq	r3, sl, asr #20
      78:	01139e4a 	tsteq	r3, sl, asr #28
      7c:	01149e4a 	tsteq	r4, sl, asr #28
      80:	01054a4a 	tsteq	r5, sl, asr #20
      84:	0a021306 	beq	84ca4 <__bss_end__+0x7b42c>
      88:	ce010100 	adfgts	f0, f1, f0
      8c:	03000002 	movweq	r0, #2
      90:	00005800 	andeq	r5, r0, r0, lsl #16
      94:	fb010200 	blx	4089e <__bss_end__+0x37026>
      98:	01000d0e 	tsteq	r0, lr, lsl #26
      9c:	00010101 	andeq	r0, r1, r1, lsl #2
      a0:	00010000 	andeq	r0, r1, r0
      a4:	552f0100 	strpl	r0, [pc, #-256]!	; ffffffac <__bss_end__+0xffff6734>
      a8:	73726573 	cmnvc	r2, #482344960	; 0x1cc00000
      ac:	6d64612f 	stfvse	f6, [r4, #-188]!	; 0xffffff44
      b0:	432f6e69 			; <UNDEFINED> instruction: 0x432f6e69
      b4:	39342d53 	ldmdbcc	r4!, {r0, r1, r4, r6, r8, sl, fp, sp}
      b8:	73632f4e 	cmnvc	r3, #312	; 0x138
      bc:	2d6e3934 			; <UNDEFINED> instruction: 0x2d6e3934
      c0:	75613132 	strbvc	r3, [r1, #-306]!	; 0xfffffece
      c4:	6c2f2f74 	stcvs	15, cr2, [pc], #-464	; fffffefc <__bss_end__+0xffff6684>
      c8:	69706269 	ldmdbvs	r0!, {r0, r3, r5, r6, r9, sp, lr}^
      cc:	636e692f 	cmnvs	lr, #770048	; 0xbc000
      d0:	6564756c 	strbvs	r7, [r4, #-1388]!	; 0xfffffa94
      d4:	6d6b0000 	stclvs	0, cr0, [fp, #-0]
      d8:	6f6c6c61 	svcvs	0x006c6c61
      dc:	00632e63 	rsbeq	r2, r3, r3, ror #28
      e0:	72000000 	andvc	r0, r0, #0, 0
      e4:	682e6970 	stmdavs	lr!, {r4, r5, r6, r8, fp, sp, lr}
      e8:	00000100 	andeq	r0, r0, r0, lsl #2
      ec:	00200500 	eoreq	r0, r0, r0, lsl #10
      f0:	80bc0205 	adcshi	r0, ip, r5, lsl #4
      f4:	33030000 	movwcc	r0, #12288	; 0x3000
      f8:	05010601 	streq	r0, [r1, #-1537]	; 0xfffff9ff
      fc:	014b0605 	cmpeq	fp, r5, lsl #12
     100:	02002e06 	andeq	r2, r0, #96	; 0x60
     104:	2e060204 	cdpcs	2, 0, cr0, cr6, cr4, {0}
     108:	02040200 	andeq	r0, r4, #0, 4
     10c:	04020001 	streq	r0, [r2], #-1
     110:	02001302 	andeq	r1, r0, #134217728	; 0x8000000
     114:	82010204 	andhi	r0, r1, #4, 4	; 0x40000000
     118:	03180513 	tsteq	r8, #79691776	; 0x4c00000
     11c:	0505016b 	streq	r0, [r5, #-363]	; 0xfffffe95
     120:	01060113 	tsteq	r6, r3, lsl r1
     124:	01150f06 	tsteq	r5, r6, lsl #30
     128:	060e0513 			; <UNDEFINED> instruction: 0x060e0513
     12c:	2e160501 	cfmul32cs	mvfx0, mvfx6, mvfx1
     130:	0605052e 	streq	r0, [r5], -lr, lsr #10
     134:	05011403 	streq	r1, [r1, #-1027]	; 0xfffffbfd
     138:	0501060e 	streq	r0, [r1, #-1550]	; 0xfffff9f2
     13c:	054b0605 	strbeq	r0, [fp, #-1541]	; 0xfffff9fb
     140:	2e01060a 	cfmadd32cs	mvax0, mvfx0, mvfx1, mvfx10
     144:	2f060505 	svccs	0x00060505
     148:	03180501 	tsteq	r8, #4194304	; 0x400000
     14c:	0505015f 	streq	r0, [r5, #-351]	; 0xfffffea1
     150:	03010613 	movweq	r0, #5651	; 0x1613
     154:	02000120 	andeq	r0, r0, #8
     158:	4a060204 	bmi	180970 <__bss_end__+0x1770f8>
     15c:	02040200 	andeq	r0, r4, #0, 4
     160:	04020001 	streq	r0, [r2], #-1
     164:	01051302 	tsteq	r5, r2, lsl #6
     168:	02040200 	andeq	r0, r4, #0, 4
     16c:	05051306 	streq	r1, [r5, #-774]	; 0xfffffcfa
     170:	01040200 	mrseq	r0, R12_usr
     174:	4a790306 	bmi	1e40d94 <__bss_end__+0x1e3751c>
     178:	01040200 	mrseq	r0, R12_usr
     17c:	04020001 	streq	r0, [r2], #-1
     180:	00ba0601 	adcseq	r0, sl, r1, lsl #12
     184:	06010402 	streq	r0, [r1], -r2, lsl #8
     188:	0402002e 	streq	r0, [r2], #-46	; 0xffffffd2
     18c:	02002f01 	andeq	r2, r0, #1, 30
     190:	002e0104 	eoreq	r0, lr, r4, lsl #2
     194:	d6010402 	strle	r0, [r1], -r2, lsl #8
     198:	01040200 	mrseq	r0, R12_usr
     19c:	04020032 	streq	r0, [r2], #-50	; 0xffffffce
     1a0:	02000101 	andeq	r0, r0, #1073741824	; 0x40000000
     1a4:	ba060104 	blt	1805bc <__bss_end__+0x176d44>
     1a8:	01040200 	mrseq	r0, R12_usr
     1ac:	3c052e06 	stccc	14, cr2, [r5], {6}
     1b0:	01064408 	tsteq	r6, r8, lsl #8
     1b4:	4b060505 	blmi	1815d0 <__bss_end__+0x177d58>
     1b8:	04020001 	streq	r0, [r2], #-1
     1bc:	02004a02 	andeq	r4, r0, #8192	; 0x2000
     1c0:	00010204 	andeq	r0, r1, r4, lsl #4
     1c4:	13020402 	movwne	r0, #9218	; 0x2402
     1c8:	02040200 	andeq	r0, r4, #0, 4
     1cc:	01138201 	tsteq	r3, r1, lsl #4
     1d0:	5a031805 	bpl	c61ec <__bss_end__+0xbc974>
     1d4:	13050501 	movwne	r0, #21761	; 0x5501
     1d8:	01061105 	tsteq	r6, r5, lsl #2
     1dc:	0305052e 	movweq	r0, #21806	; 0x552e
     1e0:	02000125 	andeq	r0, r0, #1073741833	; 0x40000009
     1e4:	4a060204 	bmi	1809fc <__bss_end__+0x177184>
     1e8:	02040200 	andeq	r0, r4, #0, 4
     1ec:	00070514 	andeq	r0, r7, r4, lsl r5
     1f0:	06020402 	streq	r0, [r2], -r2, lsl #8
     1f4:	06050501 	streq	r0, [r5], -r1, lsl #10
     1f8:	1805014d 	stmdane	r5, {r0, r2, r3, r6, r8}
     1fc:	054a4f03 	strbeq	r4, [sl, #-3843]	; 0xfffff0fd
     200:	19051305 	stmdbne	r5, {r0, r2, r8, r9, ip}
     204:	052e0106 	streq	r0, [lr, #-262]!	; 0xfffffefa
     208:	01300305 	teqeq	r0, r5, lsl #6
     20c:	054c0105 	strbeq	r0, [ip, #-261]	; 0xfffffefb
     210:	04020005 	streq	r0, [r2], #-5
     214:	77030601 	strvc	r0, [r3, -r1, lsl #12]
     218:	0402004a 	streq	r0, [r2], #-74	; 0xffffffb6
     21c:	02000101 	andeq	r0, r0, #1073741824	; 0x40000000
     220:	9e060104 	adflss	f0, f6, f4
     224:	01040200 	mrseq	r0, R12_usr
     228:	0402002e 	streq	r0, [r2], #-46	; 0xffffffd2
     22c:	002e0601 	eoreq	r0, lr, r1, lsl #12
     230:	2f010402 	svccs	0x00010402
     234:	01040200 	mrseq	r0, R12_usr
     238:	0402002e 	streq	r0, [r2], #-46	; 0xffffffd2
     23c:	0200d601 	andeq	sp, r0, #1048576	; 0x100000
     240:	002f0104 	eoreq	r0, pc, r4, lsl #2
     244:	2e010402 	cdpcs	4, 0, cr0, cr1, cr2, {0}
     248:	01040200 	mrseq	r0, R12_usr
     24c:	310905d6 	ldrdcc	r0, [r9, -r6]
     250:	01061005 	tsteq	r6, r5
     254:	0005052e 	andeq	r0, r5, lr, lsr #10
     258:	06010402 	streq	r0, [r1], -r2, lsl #8
     25c:	04020030 	streq	r0, [r2], #-48	; 0xffffffd0
     260:	02000101 	andeq	r0, r0, #1073741824	; 0x40000000
     264:	05d60104 	ldrbeq	r0, [r6, #260]	; 0x104
     268:	080c0319 	stmdaeq	ip, {r0, r3, r4, r8, r9}
     26c:	13050574 	movwne	r0, #21876	; 0x5574
     270:	01060805 	tsteq	r6, r5, lsl #16
     274:	054a0705 	strbeq	r0, [sl, #-1797]	; 0xfffff8fb
     278:	05054919 	streq	r4, [r5, #-2329]	; 0xfffff6e7
     27c:	0c053106 	stfeqs	f3, [r5], {6}
     280:	05050106 	streq	r0, [r5, #-262]	; 0xfffffefa
     284:	18056706 	stmdane	r5, {r1, r2, r8, r9, sl, sp, lr}
     288:	05014803 	streq	r4, [r1, #-2051]	; 0xfffff7fd
     28c:	06011305 	streq	r1, [r1], -r5, lsl #6
     290:	150f0601 	strne	r0, [pc, #-1537]	; fffffc97 <__bss_end__+0xffff641f>
     294:	0e051301 	cdpeq	3, 0, cr1, cr5, cr1, {0}
     298:	16050106 	strne	r0, [r5], -r6, lsl #2
     29c:	0a052e2e 	beq	14bb5c <__bss_end__+0x1422e4>
     2a0:	05013603 	streq	r3, [r1, #-1539]	; 0xfffff9fd
     2a4:	054b0605 	strbeq	r0, [fp, #-1541]	; 0xfffff9fb
     2a8:	054b0601 	strbeq	r0, [fp, #-1537]	; 0xfffff9ff
     2ac:	06a4062d 	strteq	r0, [r4], sp, lsr #12
     2b0:	06050501 	streq	r0, [r5], -r1, lsl #10
     2b4:	0200014b 	andeq	r0, r0, #-1073741806	; 0xc0000012
     2b8:	00820204 	addeq	r0, r2, r4, lsl #4
     2bc:	13020402 	movwne	r0, #9218	; 0x2402
     2c0:	02000c05 	andeq	r0, r0, #1280	; 0x500
     2c4:	01060204 	tsteq	r6, r4, lsl #4
     2c8:	02000505 	andeq	r0, r0, #20971520	; 0x1400000
     2cc:	67060204 	strvs	r0, [r6, -r4, lsl #4]
     2d0:	02001805 	andeq	r1, r0, #327680	; 0x50000
     2d4:	bd030204 	sfmlt	f0, 4, [r3, #-16]
     2d8:	0505017f 	streq	r0, [r5, #-383]	; 0xfffffe81
     2dc:	02040200 	andeq	r0, r4, #0, 4
     2e0:	04020013 	streq	r0, [r2], #-19	; 0xffffffed
     2e4:	02000102 	andeq	r0, r0, #-2147483648	; 0x80000000
     2e8:	01060204 	tsteq	r6, r4, lsl #4
     2ec:	02040200 	andeq	r0, r4, #0, 4
     2f0:	02000f06 	andeq	r0, r0, #6, 30
     2f4:	00150204 	andseq	r0, r5, r4, lsl #4
     2f8:	01020402 	tsteq	r2, r2, lsl #8
     2fc:	02040200 	andeq	r0, r4, #0, 4
     300:	000e0513 	andeq	r0, lr, r3, lsl r5
     304:	06020402 	streq	r0, [r2], -r2, lsl #8
     308:	00160501 	andseq	r0, r6, r1, lsl #10
     30c:	2e020402 	cdpcs	4, 0, cr0, cr2, cr2, {0}
     310:	02040200 	andeq	r0, r4, #0, 4
     314:	000a052e 	andeq	r0, sl, lr, lsr #10
     318:	03020402 	movweq	r0, #9218	; 0x2402
     31c:	050100c1 	streq	r0, [r1, #-193]	; 0xffffff3f
     320:	04020005 	streq	r0, [r2], #-5
     324:	004b0602 	subeq	r0, fp, r2, lsl #12
     328:	06020402 	streq	r0, [r2], -r2, lsl #8
     32c:	0001052e 	andeq	r0, r1, lr, lsr #10
     330:	2f020402 	svccs	0x00020402
     334:	02000505 	andeq	r0, r0, #20971520	; 0x1400000
     338:	46060104 	strmi	r0, [r6], -r4, lsl #2
     33c:	01040200 	mrseq	r0, R12_usr
     340:	0402002e 	streq	r0, [r2], #-46	; 0xffffffd2
     344:	1605d601 	strne	sp, [r5], -r1, lsl #12
     348:	05f20b03 	ldrbeq	r0, [r2, #2819]!	; 0xb03
     34c:	9e012f05 	cdpls	15, 0, cr2, cr1, cr5, {0}
     350:	058a1e05 	streq	r1, [sl, #3589]	; 0xe05
     354:	9e012f05 	cdpls	15, 0, cr2, cr1, cr5, {0}
     358:	01000802 	tsteq	r0, r2, lsl #16
     35c:	00011501 	andeq	r1, r1, r1, lsl #10
     360:	e3000300 	movw	r0, #768	; 0x300
     364:	02000000 	andeq	r0, r0, #0, 0
     368:	0d0efb01 	vstreq	d15, [lr, #-4]
     36c:	01010100 	mrseq	r0, (UNDEF: 17)
     370:	00000001 	andeq	r0, r0, r1
     374:	01000001 	tsteq	r0, r1
     378:	696c2f2e 	stmdbvs	ip!, {r1, r2, r3, r5, r8, r9, sl, fp, sp}^
     37c:	2f006362 	svccs	0x00006362
     380:	2f74706f 	svccs	0x0074706f
     384:	656d6f68 	strbvs	r6, [sp, #-3944]!	; 0xfffff098
     388:	77657262 	strbvc	r7, [r5, -r2, ror #4]!
     38c:	6c65432f 	stclvs	3, cr4, [r5], #-188	; 0xffffff44
     390:	2f72616c 	svccs	0x0072616c
     394:	2d6d7261 	sfmcs	f7, 2, [sp, #-388]!	; 0xfffffe7c
     398:	656e6f6e 	strbvs	r6, [lr, #-3950]!	; 0xfffff092
     39c:	6261652d 	rsbvs	r6, r1, #188743680	; 0xb400000
     3a0:	65742d69 	ldrbvs	r2, [r4, #-3433]!	; 0xfffff297
     3a4:	392f7473 	stmdbcc	pc!, {r0, r1, r4, r5, r6, sl, ip, sp, lr}	; <UNPREDICTABLE>
     3a8:	3130322d 	teqcc	r0, sp, lsr #4
     3ac:	2d347139 	ldfcss	f7, [r4, #-228]!	; 0xffffff1c
     3b0:	30317363 	eorscc	r7, r1, r3, ror #6
     3b4:	6c2f6537 	cfstr32vs	mvfx6, [pc], #-220	; 2e0 <__code_start__-0x7d20>
     3b8:	672f6269 	strvs	r6, [pc, -r9, ror #4]!
     3bc:	612f6363 			; <UNDEFINED> instruction: 0x612f6363
     3c0:	6e2d6d72 	mcrvs	13, 1, r6, cr13, cr2, {3}
     3c4:	2d656e6f 	stclcs	14, cr6, [r5, #-444]!	; 0xfffffe44
     3c8:	69626165 	stmdbvs	r2!, {r0, r2, r5, r6, r8, sp, lr}^
     3cc:	322e392f 	eorcc	r3, lr, #770048	; 0xbc000
     3d0:	692f312e 	stmdbvs	pc!, {r1, r2, r3, r5, r8, ip, sp}	; <UNPREDICTABLE>
     3d4:	756c636e 	strbvc	r6, [ip, #-878]!	; 0xfffffc92
     3d8:	2f006564 	svccs	0x00006564
     3dc:	72657355 	rsbvc	r7, r5, #1409286145	; 0x54000001
     3e0:	64612f73 	strbtvs	r2, [r1], #-3955	; 0xfffff08d
     3e4:	2f6e696d 	svccs	0x006e696d
     3e8:	342d5343 	strtcc	r5, [sp], #-835	; 0xfffffcbd
     3ec:	632f4e39 			; <UNDEFINED> instruction: 0x632f4e39
     3f0:	6e393473 	mrcvs	4, 1, r3, cr9, cr3, {3}
     3f4:	6131322d 	teqvs	r1, sp, lsr #4
     3f8:	2f2f7475 	svccs	0x002f7475
     3fc:	7062696c 	rsbvc	r6, r2, ip, ror #18
     400:	6e692f69 	cdpvs	15, 6, cr2, cr9, cr9, {3}
     404:	64756c63 	ldrbtvs	r6, [r5], #-3171	; 0xfffff39d
     408:	70000065 	andvc	r0, r0, r5, rrx
     40c:	746e6972 	strbtvc	r6, [lr], #-2418	; 0xfffff68e
     410:	00632e6b 	rsbeq	r2, r3, fp, ror #28
     414:	73000001 	movwvc	r0, #1
     418:	72616474 	rsbvc	r6, r1, #116, 8	; 0x74000000
     41c:	00682e67 	rsbeq	r2, r8, r7, ror #28
     420:	72000002 	andvc	r0, r0, #2, 0
     424:	682e6970 	stmdavs	lr!, {r4, r5, r6, r8, fp, sp, lr}
     428:	00000300 	andeq	r0, r0, r0, lsl #6
     42c:	6975623c 	ldmdbvs	r5!, {r2, r3, r4, r5, r9, sp, lr}^
     430:	692d746c 	pushvs	{r2, r3, r5, r6, sl, ip, sp, lr}
     434:	00003e6e 	andeq	r3, r0, lr, ror #28
     438:	61760000 	cmnvs	r6, r0
     43c:	6972702d 	ldmdbvs	r2!, {r0, r2, r3, r5, ip, sp, lr}^
     440:	2e6b746e 	cdpcs	4, 6, cr7, cr11, cr14, {3}
     444:	00010068 	andeq	r0, r1, r8, rrx
     448:	22050000 	andcs	r0, r5, #0, 0
     44c:	b8020500 	stmdalt	r2, {r8, sl}
     450:	17000083 	strne	r0, [r0, -r3, lsl #1]
     454:	05050106 	streq	r0, [r5, #-262]	; 0xfffffefa
     458:	14136806 	ldrne	r6, [r3], #-2054	; 0xfffff7fa
     45c:	054b0905 	strbeq	r0, [fp, #-2309]	; 0xfffff6fb
     460:	05010612 	streq	r0, [r1, #-1554]	; 0xfffff9ee
     464:	16bb0605 	ldrtne	r0, [fp], r5, lsl #12
     468:	34066606 	strcc	r6, [r6], #-1542	; 0xfffff9fa
     46c:	13060105 	movwne	r0, #24837	; 0x6105
     470:	00080266 	andeq	r0, r8, r6, ror #4
     474:	009d0101 	addseq	r0, sp, r1, lsl #2
     478:	00030000 	andeq	r0, r3, r0
     47c:	0000005f 	andeq	r0, r0, pc, asr r0
     480:	0efb0102 	cdpeq	1, 15, cr0, cr11, cr2, {0}
     484:	0101000d 	tsteq	r1, sp
     488:	00000101 	andeq	r0, r0, r1, lsl #2
     48c:	00000100 	andeq	r0, r0, r0, lsl #2
     490:	6c2f2e01 	stcvs	14, cr2, [pc], #-4	; 494 <__code_start__-0x7b6c>
     494:	00636269 	rsbeq	r6, r3, r9, ror #4
     498:	6573552f 	ldrbvs	r5, [r3, #-1327]!	; 0xfffffad1
     49c:	612f7372 			; <UNDEFINED> instruction: 0x612f7372
     4a0:	6e696d64 	cdpvs	13, 6, cr6, cr9, cr4, {3}
     4a4:	2d53432f 	ldclcs	3, cr4, [r3, #-188]	; 0xffffff44
     4a8:	2f4e3934 	svccs	0x004e3934
     4ac:	39347363 	ldmdbcc	r4!, {r0, r1, r5, r6, r8, r9, ip, sp, lr}
     4b0:	31322d6e 	teqcc	r2, lr, ror #26
     4b4:	2f747561 	svccs	0x00747561
     4b8:	62696c2f 	rsbvs	r6, r9, #12032	; 0x2f00
     4bc:	692f6970 	stmdbvs	pc!, {r4, r5, r6, r8, fp, sp, lr}	; <UNPREDICTABLE>
     4c0:	756c636e 	strbvc	r6, [ip, #-878]!	; 0xfffffc92
     4c4:	00006564 	andeq	r6, r0, r4, ror #10
     4c8:	63747570 	cmnvs	r4, #112, 10	; 0x1c000000
     4cc:	2e726168 	rpwcssz	f6, f2, #0.0
     4d0:	00010063 	andeq	r0, r1, r3, rrx
     4d4:	69707200 	ldmdbvs	r0!, {r9, ip, sp, lr}^
     4d8:	0200682e 	andeq	r6, r0, #3014656	; 0x2e0000
     4dc:	05000000 	streq	r0, [r0, #-0]
     4e0:	02050024 	andeq	r0, r5, #36, 0	; 0x24
     4e4:	00008410 	andeq	r8, r0, r0, lsl r4
     4e8:	05010614 	streq	r0, [r1, #-1556]	; 0xfffff9ec
     4ec:	054a0626 	strbeq	r0, [sl, #-1574]	; 0xfffff9da
     4f0:	01052e34 	tsteq	r5, r4, lsr lr
     4f4:	1b050106 	blne	140914 <__bss_end__+0x13709c>
     4f8:	05054f06 	streq	r4, [r5, #-3846]	; 0xfffff0fa
     4fc:	06110513 			; <UNDEFINED> instruction: 0x06110513
     500:	67010501 	strvs	r0, [r1, -r1, lsl #10]
     504:	67062305 	strvs	r2, [r6, -r5, lsl #6]
     508:	05130505 	ldreq	r0, [r3, #-1285]	; 0xfffffafb
     50c:	05010611 	streq	r0, [r1, #-1553]	; 0xfffff9ef
     510:	04024b01 	streq	r4, [r2], #-2817	; 0xfffff4ff
     514:	aa010100 	bge	4091c <__bss_end__+0x370a4>
     518:	03000000 	movweq	r0, #0
     51c:	00005c00 	andeq	r5, r0, r0, lsl #24
     520:	fb010200 	blx	40d2a <__bss_end__+0x374b2>
     524:	01000d0e 	tsteq	r0, lr, lsl #26
     528:	00010101 	andeq	r0, r1, r1, lsl #2
     52c:	00010000 	andeq	r0, r1, r0
     530:	2f2e0100 	svccs	0x002e0100
     534:	6362696c 	cmnvs	r2, #108, 18	; 0x1b0000
     538:	73552f00 	cmpvc	r5, #0, 30
     53c:	2f737265 	svccs	0x00737265
     540:	696d6461 	stmdbvs	sp!, {r0, r5, r6, sl, sp, lr}^
     544:	53432f6e 	movtpl	r2, #16238	; 0x3f6e
     548:	4e39342d 	cdpmi	4, 3, cr3, cr9, cr13, {1}
     54c:	3473632f 	ldrbtcc	r6, [r3], #-815	; 0xfffffcd1
     550:	322d6e39 	eorcc	r6, sp, #912	; 0x390
     554:	74756131 	ldrbtvc	r6, [r5], #-305	; 0xfffffecf
     558:	696c2f2f 	stmdbvs	ip!, {r0, r1, r2, r3, r5, r8, r9, sl, fp, sp}^
     55c:	2f697062 	svccs	0x00697062
     560:	6c636e69 	stclvs	14, cr6, [r3], #-420	; 0xfffffe5c
     564:	00656475 	rsbeq	r6, r5, r5, ror r4
     568:	74757000 	ldrbtvc	r7, [r5], #-0
     56c:	00632e6b 	rsbeq	r2, r3, fp, ror #28
     570:	72000001 	andvc	r0, r0, #1, 0
     574:	682e6970 	stmdavs	lr!, {r4, r5, r6, r8, fp, sp, lr}
     578:	00000200 	andeq	r0, r0, r0, lsl #4
     57c:	00220500 	eoreq	r0, r2, r0, lsl #10
     580:	844c0205 	strbhi	r0, [ip], #-517	; 0xfffffdfb
     584:	06150000 	ldreq	r0, [r5], -r0
     588:	06050501 	streq	r0, [r5], -r1, lsl #10
     58c:	000b054b 	andeq	r0, fp, fp, asr #10
     590:	01010402 	tsteq	r1, r2, lsl #8
     594:	02000505 	andeq	r0, r0, #20971520	; 0x1400000
     598:	2e060104 	adfcss	f0, f6, f4
     59c:	02000905 	andeq	r0, r0, #81920	; 0x14000
     5a0:	4b060204 	blmi	180db8 <__bss_end__+0x177540>
     5a4:	02000f05 	andeq	r0, r0, #5, 30
     5a8:	05650204 	strbeq	r0, [r5, #-516]!	; 0xfffffdfc
     5ac:	04020010 	streq	r0, [r2], #-16
     5b0:	00010602 	andeq	r0, r1, r2, lsl #12
     5b4:	2e020402 	cdpcs	4, 0, cr0, cr2, cr2, {0}
     5b8:	32060505 	andcc	r0, r6, #20971520	; 0x1400000
     5bc:	13060105 	movwne	r0, #24837	; 0x6105
     5c0:	01000602 	tsteq	r0, r2, lsl #12
     5c4:	0005f501 	andeq	pc, r5, r1, lsl #10
     5c8:	f9000300 			; <UNDEFINED> instruction: 0xf9000300
     5cc:	02000000 	andeq	r0, r0, #0, 0
     5d0:	0d0efb01 	vstreq	d15, [lr, #-4]
     5d4:	01010100 	mrseq	r0, (UNDEF: 17)
     5d8:	00000001 	andeq	r0, r0, r1
     5dc:	01000001 	tsteq	r0, r1
     5e0:	696c2f2e 	stmdbvs	ip!, {r1, r2, r3, r5, r8, r9, sl, fp, sp}^
     5e4:	2f006362 	svccs	0x00006362
     5e8:	2f74706f 	svccs	0x0074706f
     5ec:	656d6f68 	strbvs	r6, [sp, #-3944]!	; 0xfffff098
     5f0:	77657262 	strbvc	r7, [r5, -r2, ror #4]!
     5f4:	6c65432f 	stclvs	3, cr4, [r5], #-188	; 0xffffff44
     5f8:	2f72616c 	svccs	0x0072616c
     5fc:	2d6d7261 	sfmcs	f7, 2, [sp, #-388]!	; 0xfffffe7c
     600:	656e6f6e 	strbvs	r6, [lr, #-3950]!	; 0xfffff092
     604:	6261652d 	rsbvs	r6, r1, #188743680	; 0xb400000
     608:	65742d69 	ldrbvs	r2, [r4, #-3433]!	; 0xfffff297
     60c:	392f7473 	stmdbcc	pc!, {r0, r1, r4, r5, r6, sl, ip, sp, lr}	; <UNPREDICTABLE>
     610:	3130322d 	teqcc	r0, sp, lsr #4
     614:	2d347139 	ldfcss	f7, [r4, #-228]!	; 0xffffff1c
     618:	30317363 	eorscc	r7, r1, r3, ror #6
     61c:	6c2f6537 	cfstr32vs	mvfx6, [pc], #-220	; 548 <__code_start__-0x7ab8>
     620:	672f6269 	strvs	r6, [pc, -r9, ror #4]!
     624:	612f6363 			; <UNDEFINED> instruction: 0x612f6363
     628:	6e2d6d72 	mcrvs	13, 1, r6, cr13, cr2, {3}
     62c:	2d656e6f 	stclcs	14, cr6, [r5, #-444]!	; 0xfffffe44
     630:	69626165 	stmdbvs	r2!, {r0, r2, r5, r6, r8, sp, lr}^
     634:	322e392f 	eorcc	r3, lr, #770048	; 0xbc000
     638:	692f312e 	stmdbvs	pc!, {r1, r2, r3, r5, r8, ip, sp}	; <UNPREDICTABLE>
     63c:	756c636e 	strbvc	r6, [ip, #-878]!	; 0xfffffc92
     640:	2f006564 	svccs	0x00006564
     644:	72657355 	rsbvc	r7, r5, #1409286145	; 0x54000001
     648:	64612f73 	strbtvs	r2, [r1], #-3955	; 0xfffff08d
     64c:	2f6e696d 	svccs	0x006e696d
     650:	342d5343 	strtcc	r5, [sp], #-835	; 0xfffffcbd
     654:	632f4e39 			; <UNDEFINED> instruction: 0x632f4e39
     658:	6e393473 	mrcvs	4, 1, r3, cr9, cr3, {3}
     65c:	6131322d 	teqvs	r1, sp, lsr #4
     660:	2f2f7475 	svccs	0x002f7475
     664:	7062696c 	rsbvc	r6, r2, ip, ror #18
     668:	6e692f69 	cdpvs	15, 6, cr2, cr9, cr9, {3}
     66c:	64756c63 	ldrbtvs	r6, [r5], #-3171	; 0xfffff39d
     670:	76000065 	strvc	r0, [r0], -r5, rrx
     674:	72702d61 	rsbsvc	r2, r0, #6208	; 0x1840
     678:	6b746e69 	blvs	1d1c024 <__bss_end__+0x1d127ac>
     67c:	0100632e 	tsteq	r0, lr, lsr #6
     680:	74730000 	ldrbtvc	r0, [r3], #-0
     684:	746e6964 	strbtvc	r6, [lr], #-2404	; 0xfffff69c
     688:	6363672d 	cmnvs	r3, #11796480	; 0xb40000
     68c:	0200682e 	andeq	r6, r0, #3014656	; 0x2e0000
     690:	70720000 	rsbsvc	r0, r2, r0
     694:	00682e69 	rsbeq	r2, r8, r9, ror #28
     698:	72000003 	andvc	r0, r0, #3, 0
     69c:	692d6970 	pushvs	{r4, r5, r6, r8, fp, sp, lr}
     6a0:	7265746e 	rsbvc	r7, r5, #1845493760	; 0x6e000000
     6a4:	2e6c616e 	powcsez	f6, f4, #0.5
     6a8:	00030068 	andeq	r0, r3, r8, rrx
     6ac:	64747300 	ldrbtvs	r7, [r4], #-768	; 0xfffffd00
     6b0:	2e677261 	cdpcs	2, 6, cr7, cr7, cr1, {3}
     6b4:	00020068 	andeq	r0, r2, r8, rrx
     6b8:	75623c00 	strbvc	r3, [r2, #-3072]!	; 0xfffff400
     6bc:	2d746c69 	ldclcs	12, cr6, [r4, #-420]!	; 0xfffffe5c
     6c0:	003e6e69 	eorseq	r6, lr, r9, ror #28
     6c4:	00000000 	andeq	r0, r0, r0
     6c8:	05001b05 	streq	r1, [r0, #-2821]	; 0xfffff4fb
     6cc:	00848002 	addeq	r8, r4, r2
     6d0:	01260300 			; <UNDEFINED> instruction: 0x01260300
     6d4:	05011d05 	streq	r1, [r1, #-3333]	; 0xfffff2fb
     6d8:	0501062d 	streq	r0, [r1, #-1581]	; 0xfffff9d3
     6dc:	054a2e01 	strbeq	r2, [sl, #-3585]	; 0xfffff1ff
     6e0:	05510633 	ldrbeq	r0, [r1, #-1587]	; 0xfffff9cd
     6e4:	06051302 	streq	r1, [r5], -r2, lsl #6
     6e8:	02050106 	andeq	r0, r5, #-2147483647	; 0x80000001
     6ec:	08053006 	stmdaeq	r5, {r1, r2, ip, sp}
     6f0:	01040200 	mrseq	r0, R12_usr
     6f4:	00020501 	andeq	r0, r2, r1, lsl #10
     6f8:	06010402 	streq	r0, [r1], -r2, lsl #8
     6fc:	00030501 	andeq	r0, r3, r1, lsl #10
     700:	06020402 	streq	r0, [r2], -r2, lsl #8
     704:	0008052f 	andeq	r0, r8, pc, lsr #10
     708:	06020402 	streq	r0, [r2], -r2, lsl #8
     70c:	00150501 	andseq	r0, r5, r1, lsl #10
     710:	06020402 	streq	r0, [r2], -r2, lsl #8
     714:	00180549 	andseq	r0, r8, r9, asr #10
     718:	06020402 	streq	r0, [r2], -r2, lsl #8
     71c:	04020001 	streq	r0, [r2], #-1
     720:	02052e02 	andeq	r2, r5, #2, 28
     724:	05053006 	streq	r3, [r5, #-6]
     728:	02050106 	andeq	r0, r5, #-2147483647	; 0x80000001
     72c:	01054b06 	tsteq	r5, r6, lsl #22
     730:	3e051306 	cdpcc	3, 0, cr1, cr5, cr6, {0}
     734:	02053106 	andeq	r3, r5, #-2147483647	; 0x80000001
     738:	060e0514 			; <UNDEFINED> instruction: 0x060e0514
     73c:	2e060501 	cfsh32cs	mvfx0, mvfx6, #1
     740:	2f060205 	svccs	0x00060205
     744:	01060405 	tsteq	r6, r5, lsl #8
     748:	2f060305 	svccs	0x00060305
     74c:	01061105 	tsteq	r6, r5, lsl #2
     750:	052e0905 	streq	r0, [lr, #-2309]!	; 0xfffff6fb
     754:	15300602 	ldrne	r0, [r0, #-1538]!	; 0xfffff9fe
     758:	01060705 	tsteq	r6, r5, lsl #14
     75c:	052e0205 	streq	r0, [lr, #-517]!	; 0xfffffdfb
     760:	0402000b 	streq	r0, [r2], #-11
     764:	052e0601 	streq	r0, [lr, #-1537]!	; 0xfffff9ff
     768:	04020002 	streq	r0, [r2], #-2
     76c:	05010601 	streq	r0, [r1, #-1537]	; 0xfffff9ff
     770:	04020003 	streq	r0, [r2], #-3
     774:	052f0603 	streq	r0, [pc, #-1539]!	; 179 <__code_start__-0x7e87>
     778:	0402000c 	streq	r0, [r2], #-12
     77c:	05010603 	streq	r0, [r1, #-1539]	; 0xfffff9fd
     780:	0402000a 	streq	r0, [r2], #-10
     784:	17052e03 	strne	r2, [r5, -r3, lsl #28]
     788:	03040200 	movweq	r0, #16896	; 0x4200
     78c:	02002d06 	andeq	r2, r0, #384	; 0x180
     790:	01060304 	tsteq	r6, r4, lsl #6
     794:	30060205 	andcc	r0, r6, r5, lsl #4
     798:	01060905 	tsteq	r6, r5, lsl #18
     79c:	0602052e 	streq	r0, [r2], -lr, lsr #10
     7a0:	06010530 			; <UNDEFINED> instruction: 0x06010530
     7a4:	06490513 			; <UNDEFINED> instruction: 0x06490513
     7a8:	05010631 	streq	r0, [r1, #-1585]	; 0xfffff9cf
     7ac:	05a00602 	streq	r0, [r0, #1538]!	; 0x602
     7b0:	05010604 	streq	r0, [r1, #-1540]	; 0xfffff9fc
     7b4:	052f0603 	streq	r0, [pc, #-1539]!	; 1b9 <__code_start__-0x7e47>
     7b8:	05010609 	streq	r0, [r1, #-1545]	; 0xfffff9f7
     7bc:	13300602 	teqne	r0, #2097152	; 0x200000
     7c0:	01060b05 	tsteq	r6, r5, lsl #22
     7c4:	30060205 	andcc	r0, r6, r5, lsl #4
     7c8:	04052e06 	streq	r2, [r5], #-3590	; 0xfffff1fa
     7cc:	15240206 	strne	r0, [r4, #-518]!	; 0xfffffdfa
     7d0:	060f0513 			; <UNDEFINED> instruction: 0x060f0513
     7d4:	06052e01 	streq	r2, [r5], -r1, lsl #28
     7d8:	0605054a 	streq	r0, [r5], -sl, asr #10
     7dc:	0905134b 	stmdbeq	r5, {r0, r1, r3, r6, r8, r9, ip}
     7e0:	05050106 	streq	r0, [r5, #-262]	; 0xfffffefa
     7e4:	0b052f06 	bleq	14c404 <__bss_end__+0x142b8c>
     7e8:	0d051006 	stceq	0, cr1, [r5, #-24]	; 0xffffffe8
     7ec:	01040200 	mrseq	r0, R12_usr
     7f0:	0004052c 	andeq	r0, r4, ip, lsr #10
     7f4:	06010402 	streq	r0, [r1], -r2, lsl #8
     7f8:	00050534 	andeq	r0, r5, r4, lsr r5
     7fc:	13010402 	movwne	r0, #5122	; 0x1402
     800:	02001b05 	andeq	r1, r0, #5120	; 0x1400
     804:	01060104 	tsteq	r6, r4, lsl #2
     808:	02000705 	andeq	r0, r0, #1310720	; 0x140000
     80c:	05d60104 	ldrbeq	r0, [r6, #260]	; 0x104
     810:	04020018 	streq	r0, [r2], #-24	; 0xffffffe8
     814:	0a052e01 	beq	14c020 <__bss_end__+0x1427a8>
     818:	01040200 	mrseq	r0, R12_usr
     81c:	000b054a 	andeq	r0, fp, sl, asr #10
     820:	06010402 	streq	r0, [r1], -r2, lsl #8
     824:	000e052f 	andeq	r0, lr, pc, lsr #10
     828:	06010402 	streq	r0, [r1], -r2, lsl #8
     82c:	0004052e 	andeq	r0, r4, lr, lsr #10
     830:	2e010402 	cdpcs	4, 0, cr0, cr1, cr2, {0}
     834:	06054b06 	streq	r4, [r5], -r6, lsl #22
     838:	05050106 	streq	r0, [r5, #-262]	; 0xfffffefa
     83c:	0a052f06 	beq	14c45c <__bss_end__+0x142be4>
     840:	07050106 	streq	r0, [r5, -r6, lsl #2]
     844:	0d052e4a 	stceq	14, cr2, [r5, #-296]	; 0xfffffed8
     848:	4a2e7603 	bmi	b9e05c <__bss_end__+0xb947e4>
     84c:	050d0b05 	streq	r0, [sp, #-2821]	; 0xfffff4fb
     850:	0402000d 	streq	r0, [r2], #-13
     854:	14030601 	strne	r0, [r3], #-1537	; 0xfffff9ff
     858:	0011052e 	andseq	r0, r1, lr, lsr #10
     85c:	13010402 	movwne	r0, #5122	; 0x1402
     860:	02002d05 	andeq	r2, r0, #320	; 0x140
     864:	01060104 	tsteq	r6, r4, lsl #2
     868:	02002a05 	andeq	r2, r0, #20480	; 0x5000
     86c:	052e0104 	streq	r0, [lr, #-260]!	; 0xfffffefc
     870:	04020016 	streq	r0, [r2], #-22	; 0xffffffea
     874:	14054a01 	strne	r4, [r5], #-2561	; 0xfffff5ff
     878:	01040200 	mrseq	r0, R12_usr
     87c:	0d054b06 	vstreq	d4, [r5, #-24]	; 0xffffffe8
     880:	01040200 	mrseq	r0, R12_usr
     884:	02000106 	andeq	r0, r0, #-2147483647	; 0x80000001
     888:	064a0104 	strbeq	r0, [sl], -r4, lsl #2
     88c:	0612052f 	ldreq	r0, [r2], -pc, lsr #10
     890:	0d054a01 	vstreq	s8, [r5, #-4]
     894:	12052f06 	andne	r2, r5, #6, 30
     898:	19050106 	stmdbne	r5, {r1, r2, r8}
     89c:	04054b06 	streq	r4, [r5], #-2822	; 0xfffff4fa
     8a0:	02040200 	andeq	r0, r4, #0, 4
     8a4:	00011103 	andeq	r1, r1, r3, lsl #2
     8a8:	01020402 	tsteq	r2, r2, lsl #8
     8ac:	02000205 	andeq	r0, r0, #1342177280	; 0x50000000
     8b0:	05150204 	ldreq	r0, [r5, #-516]	; 0xfffffdfc
     8b4:	04020009 	streq	r0, [r2], #-9
     8b8:	00010602 	andeq	r0, r1, r2, lsl #12
     8bc:	4a020402 	bmi	818cc <__bss_end__+0x78054>
     8c0:	02000105 	andeq	r0, r0, #1073741825	; 0x40000001
     8c4:	059f0204 	ldreq	r0, [pc, #516]	; ad0 <__code_start__-0x7530>
     8c8:	6e030604 	cfmadd32vs	mvax0, mvfx0, mvfx3, mvfx4
     8cc:	0609054a 	streq	r0, [r9], -sl, asr #10
     8d0:	06040501 	streq	r0, [r4], -r1, lsl #10
     8d4:	0606052f 	streq	r0, [r6], -pc, lsr #10
     8d8:	2f040511 	svccs	0x00040511
     8dc:	63030b05 	movwvs	r0, #15109	; 0x3b05
     8e0:	0019052e 	andseq	r0, r9, lr, lsr #10
     8e4:	06010402 	streq	r0, [r1], -r2, lsl #8
     8e8:	052e2403 	streq	r2, [lr, #-1027]!	; 0xfffffbfd
     8ec:	0402001a 	streq	r0, [r2], #-26	; 0xffffffe6
     8f0:	28051301 	stmdacs	r5, {r0, r8, r9, ip}
     8f4:	01040200 	mrseq	r0, R12_usr
     8f8:	25050106 	strcs	r0, [r5, #-262]	; 0xfffffefa
     8fc:	01040200 	mrseq	r0, R12_usr
     900:	001f052e 	andseq	r0, pc, lr, lsr #10
     904:	4a010402 	bmi	41914 <__bss_end__+0x3809c>
     908:	02000b05 	andeq	r0, r0, #5120	; 0x1400
     90c:	4b060104 	blmi	180d24 <__bss_end__+0x1774ac>
     910:	02000405 	andeq	r0, r0, #83886080	; 0x5000000
     914:	01060104 	tsteq	r6, r4, lsl #2
     918:	01040200 	mrseq	r0, R12_usr
     91c:	0402004a 	streq	r0, [r2], #-74	; 0xffffffb6
     920:	004e0601 	subeq	r0, lr, r1, lsl #12
     924:	01010402 	tsteq	r1, r2, lsl #8
     928:	01040200 	mrseq	r0, R12_usr
     92c:	04020001 	streq	r0, [r2], #-1
     930:	02000101 	andeq	r0, r0, #1073741824	; 0x40000000
     934:	2e060104 	adfcss	f0, f6, f4
     938:	01040200 	mrseq	r0, R12_usr
     93c:	04020066 	streq	r0, [r2], #-102	; 0xffffff9a
     940:	02002e01 	andeq	r2, r0, #1, 28
     944:	4a060104 	bmi	180d5c <__bss_end__+0x1774e4>
     948:	a6034805 	strge	r4, [r3], -r5, lsl #16
     94c:	0520087f 	streq	r0, [r0, #-2175]!	; 0xfffff781
     950:	06011305 	streq	r1, [r1], -r5, lsl #6
     954:	0402002e 	streq	r0, [r2], #-46	; 0xffffffd2
     958:	002e0602 	eoreq	r0, lr, r2, lsl #12
     95c:	01020402 	tsteq	r2, r2, lsl #8
     960:	02040200 	andeq	r0, r4, #0, 4
     964:	00110513 	andseq	r0, r1, r3, lsl r5
     968:	06020402 	streq	r0, [r2], -r2, lsl #8
     96c:	00050501 	andeq	r0, r5, r1, lsl #10
     970:	06020402 	streq	r0, [r2], -r2, lsl #8
     974:	0007054b 	andeq	r0, r7, fp, asr #10
     978:	06020402 	streq	r0, [r2], -r2, lsl #8
     97c:	06090501 	streq	r0, [r9], -r1, lsl #10
     980:	060e054b 	streq	r0, [lr], -fp, asr #10
     984:	00480501 	subeq	r0, r8, r1, lsl #10
     988:	62010402 	andvs	r0, r1, #33554432	; 0x2000000
     98c:	02000505 	andeq	r0, r0, #20971520	; 0x1400000
     990:	4b060104 	blmi	180da8 <__bss_end__+0x177530>
     994:	01040200 	mrseq	r0, R12_usr
     998:	04020001 	streq	r0, [r2], #-1
     99c:	009e0601 	addseq	r0, lr, r1, lsl #12
     9a0:	2e010402 	cdpcs	4, 0, cr0, cr1, cr2, {0}
     9a4:	01040200 	mrseq	r0, R12_usr
     9a8:	40052e06 	andmi	r2, r5, r6, lsl #28
     9ac:	d600e103 	strle	lr, [r0], -r3, lsl #2
     9b0:	02050106 	andeq	r0, r5, #-2147483647	; 0x80000001
     9b4:	1e059f06 	cdpne	15, 0, cr9, cr5, cr6, {0}
     9b8:	12050106 	andne	r0, r5, #-2147483647	; 0x80000001
     9bc:	0605052e 	streq	r0, [r5], -lr, lsr #10
     9c0:	1402052f 	strne	r0, [r2], #-1327	; 0xfffffad1
     9c4:	01060905 	tsteq	r6, r5, lsl #18
     9c8:	4b060505 	blmi	181de4 <__bss_end__+0x17856c>
     9cc:	05130205 	ldreq	r0, [r3, #-517]	; 0xfffffdfb
     9d0:	050d0608 	streq	r0, [sp, #-1544]	; 0xfffff9f8
     9d4:	04053302 	streq	r3, [r5], #-770	; 0xfffffcfe
     9d8:	0f054c06 	svceq	0x00054c06
     9dc:	09050106 	stmdbeq	r5, {r1, r2, r8}
     9e0:	0608052e 	streq	r0, [r8], -lr, lsr #10
     9e4:	0602052c 	streq	r0, [r2], -ip, lsr #10
     9e8:	000d052e 	andeq	r0, sp, lr, lsr #10
     9ec:	4a010402 	bmi	419fc <__bss_end__+0x38184>
     9f0:	4b060305 	blmi	18160c <__bss_end__+0x177d94>
     9f4:	01060505 	tsteq	r6, r5, lsl #10
     9f8:	4d060805 	stcmi	8, cr0, [r6, #-20]	; 0xffffffec
     9fc:	01060e05 	tsteq	r6, r5, lsl #28
     a00:	052e0a05 	streq	r0, [lr, #-2565]!	; 0xfffff5fb
     a04:	052f0604 	streq	r0, [pc, #-1540]!	; 408 <__code_start__-0x7bf8>
     a08:	05010609 	streq	r0, [r1, #-1545]	; 0xfffff9f7
     a0c:	052f0604 	streq	r0, [pc, #-1540]!	; 410 <__code_start__-0x7bf0>
     a10:	2e010607 	cfmadd32cs	mvax0, mvfx0, mvfx1, mvfx7
     a14:	30060405 	andcc	r0, r6, r5, lsl #8
     a18:	01060705 	tsteq	r6, r5, lsl #14
     a1c:	30060405 	andcc	r0, r6, r5, lsl #8
     a20:	0d051413 	cfstrseq	mvf1, [r5, #-76]	; 0xffffffb4
     a24:	09051006 	stmdbeq	r5, {r1, r2, ip}
     a28:	12053006 	andne	r3, r5, #6, 0
     a2c:	0a050106 	beq	140e4c <__bss_end__+0x1375d4>
     a30:	6609052e 	strvs	r0, [r9], -lr, lsr #10
     a34:	4b060505 	blmi	181e50 <__bss_end__+0x1785d8>
     a38:	01061205 	tsteq	r6, r5, lsl #4
     a3c:	052e1605 	streq	r1, [lr, #-1541]!	; 0xfffff9fb
     a40:	05052e0b 	streq	r2, [r5, #-3595]	; 0xfffff1f5
     a44:	08052f06 	stmdaeq	r5, {r1, r2, r8, r9, sl, fp, sp}
     a48:	052e0106 	streq	r0, [lr, #-262]!	; 0xfffffefa
     a4c:	01300604 	teqeq	r0, r4, lsl #12
     a50:	0015014a 	andseq	r0, r5, sl, asr #2
     a54:	02010402 	andeq	r0, r1, #33554432	; 0x2000000
     a58:	02000f36 	andeq	r0, r0, #216	; 0xd8
     a5c:	00010104 	andeq	r0, r1, r4, lsl #2
     a60:	d6010402 	strle	r0, [r1], -r2, lsl #8
     a64:	13341105 	teqne	r4, #1073741825	; 0x40000001
     a68:	04020001 	streq	r0, [r2], #-1
     a6c:	00ba0602 	adcseq	r0, sl, r2, lsl #12
     a70:	06030402 	streq	r0, [r3], -r2, lsl #8
     a74:	040200ba 	streq	r0, [r2], #-186	; 0xffffff46
     a78:	02000103 	andeq	r0, r0, #-1073741824	; 0xc0000000
     a7c:	05140304 	ldreq	r0, [r4, #-772]	; 0xfffffcfc
     a80:	04020015 	streq	r0, [r2], #-21	; 0xffffffeb
     a84:	05010603 	streq	r0, [r1, #-1539]	; 0xfffff9fd
     a88:	04020011 	streq	r0, [r2], #-17	; 0xffffffef
     a8c:	052f0603 	streq	r0, [pc, #-1539]!	; 491 <__code_start__-0x7b6f>
     a90:	0402001a 	streq	r0, [r2], #-26	; 0xffffffe6
     a94:	05010603 	streq	r0, [r1, #-1539]	; 0xfffff9fd
     a98:	04020011 	streq	r0, [r2], #-17	; 0xffffffef
     a9c:	00d70603 	sbcseq	r0, r7, r3, lsl #12
     aa0:	13030402 	movwne	r0, #13314	; 0x3402
     aa4:	03040200 	movweq	r0, #16896	; 0x4200
     aa8:	00140517 	andseq	r0, r4, r7, lsl r5
     aac:	06030402 	streq	r0, [r3], -r2, lsl #8
     ab0:	00130501 	andseq	r0, r3, r1, lsl #10
     ab4:	82030402 	andhi	r0, r3, #33554432	; 0x2000000
     ab8:	4e061805 	cdpmi	8, 0, cr1, cr6, cr5, {0}
     abc:	01061b05 	tsteq	r6, r5, lsl #22
     ac0:	05821a05 	streq	r1, [r2, #2565]	; 0xa05
     ac4:	054b0609 	strbeq	r0, [fp, #-1545]	; 0xfffff9f7
     ac8:	2e01060d 	cfmadd32cs	mvax0, mvfx0, mvfx1, mvfx13
     acc:	f3060905 	vmls.i8	d0, d6, d5
     ad0:	1505ba06 	strne	fp, [r5, #-2566]	; 0xfffff5fa
     ad4:	18053006 	stmdane	r5, {r1, r2, ip, sp}
     ad8:	17050106 	strne	r0, [r5, -r6, lsl #2]
     adc:	06190566 	ldreq	r0, [r9], -r6, ror #10
     ae0:	0615054b 	ldreq	r0, [r5], -fp, asr #10
     ae4:	05666f03 	strbeq	r6, [r6, #-3843]!	; 0xfffff0fd
     ae8:	01480611 	cmpeq	r8, r1, lsl r6
     aec:	030905d6 	movweq	r0, #38358	; 0x95d6
     af0:	0d052e0b 	stceq	14, cr2, [r5, #-44]	; 0xffffffd4
     af4:	052e0106 	streq	r0, [lr, #-262]!	; 0xfffffefa
     af8:	06f30609 	ldrbteq	r0, [r3], r9, lsl #12
     afc:	061505ba 			; <UNDEFINED> instruction: 0x061505ba
     b00:	7503062f 	strvc	r0, [r3, #-1583]	; 0xfffff9d1
     b04:	06190566 	ldreq	r0, [r9], -r6, ror #10
     b08:	054a1303 	strbeq	r1, [sl, #-771]	; 0xfffffcfd
     b0c:	6d030615 	stcvs	6, cr0, [r3, #-84]	; 0xffffffac
     b10:	15030666 	strne	r0, [r3, #-1638]	; 0xfffff99a
     b14:	06ba014a 	ldrteq	r0, [sl], sl, asr #2
     b18:	0605052e 	streq	r0, [r5], -lr, lsr #10
     b1c:	2e9e011a 	mrccs	1, 4, r0, cr14, cr10, {0}
     b20:	05010e03 	streq	r0, [r1, #-3587]	; 0xfffff1fd
     b24:	05010609 	streq	r0, [r1, #-1545]	; 0xfffff9f7
     b28:	75080605 	strvc	r0, [r8, #-1541]	; 0xfffff9fb
     b2c:	18030405 	stmdane	r3, {r0, r2, sl}
     b30:	06070501 	streq	r0, [r7], -r1, lsl #10
     b34:	06040501 	streq	r0, [r4], -r1, lsl #10
     b38:	03050531 	movweq	r0, #21809	; 0x5531
     b3c:	1c052e67 	stcne	14, cr2, [r5], {103}	; 0x67
     b40:	09050106 	stmdbeq	r5, {r1, r2, r8}
     b44:	06050582 	streq	r0, [r5], -r2, lsl #11
     b48:	1c0531f3 	stfnes	f3, [r5], {243}	; 0xf3
     b4c:	09050106 	stmdbeq	r5, {r1, r2, r8}
     b50:	06050582 	streq	r0, [r5], -r2, lsl #11
     b54:	1b0530f3 	blne	14cf28 <__bss_end__+0x1436b0>
     b58:	09050106 	stmdbeq	r5, {r1, r2, r8}
     b5c:	06050582 	streq	r0, [r5], -r2, lsl #11
     b60:	070530f3 			; <UNDEFINED> instruction: 0x070530f3
     b64:	05050106 	streq	r0, [r5, #-262]	; 0xfffffefa
     b68:	05308306 	ldreq	r8, [r0, #-774]!	; 0xfffffcfa
     b6c:	05010609 	streq	r0, [r1, #-1545]	; 0xfffff9f7
     b70:	75080605 	strvc	r0, [r8, #-1541]	; 0xfffff9fb
     b74:	05301105 	ldreq	r1, [r0, #-261]!	; 0xfffffefb
     b78:	05010622 	streq	r0, [r1, #-1570]	; 0xfffff9de
     b7c:	054b0605 	strbeq	r0, [fp, #-1541]	; 0xfffff9fb
     b80:	05058311 	streq	r8, [r5, #-785]	; 0xfffffcef
     b84:	359e0183 	ldrcc	r0, [lr, #387]	; 0x183
     b88:	01060e05 	tsteq	r6, r5, lsl #28
     b8c:	062e0a05 	strteq	r0, [lr], -r5, lsl #20
     b90:	0604052d 	streq	r0, [r4], -sp, lsr #10
     b94:	00130501 	andseq	r0, r3, r1, lsl #10
     b98:	4a010402 	bmi	41ba8 <__bss_end__+0x38330>
     b9c:	02001005 	andeq	r1, r0, #5, 0
     ba0:	002e0104 	eoreq	r0, lr, r4, lsl #2
     ba4:	66010402 	strvs	r0, [r1], -r2, lsl #8
     ba8:	16060205 	strne	r0, [r6], -r5, lsl #4
     bac:	01060705 	tsteq	r6, r5, lsl #14
     bb0:	4b060205 	blmi	1813cc <__bss_end__+0x177b54>
     bb4:	13060105 	movwne	r0, #24837	; 0x6105
     bb8:	001a0266 	andseq	r0, sl, r6, ror #4
     bbc:	00840101 	addeq	r0, r4, r1, lsl #2
     bc0:	00030000 	andeq	r0, r3, r0
     bc4:	00000069 	andeq	r0, r0, r9, rrx
     bc8:	0efb0102 	cdpeq	1, 15, cr0, cr11, cr2, {0}
     bcc:	0101000d 	tsteq	r1, sp
     bd0:	00000101 	andeq	r0, r0, r1, lsl #2
     bd4:	00000100 	andeq	r0, r0, r0, lsl #2
     bd8:	732f2e01 			; <UNDEFINED> instruction: 0x732f2e01
     bdc:	66666174 			; <UNDEFINED> instruction: 0x66666174
     be0:	6372732d 	cmnvs	r2, #-1275068416	; 0xb4000000
     be4:	73552f00 	cmpvc	r5, #0, 30
     be8:	2f737265 	svccs	0x00737265
     bec:	696d6461 	stmdbvs	sp!, {r0, r5, r6, sl, sp, lr}^
     bf0:	53432f6e 	movtpl	r2, #16238	; 0x3f6e
     bf4:	4e39342d 	cdpmi	4, 3, cr3, cr9, cr13, {1}
     bf8:	3473632f 	ldrbtcc	r6, [r3], #-815	; 0xfffffcd1
     bfc:	322d6e39 	eorcc	r6, sp, #912	; 0x390
     c00:	74756131 	ldrbtvc	r6, [r5], #-305	; 0xfffffecf
     c04:	696c2f2f 	stmdbvs	ip!, {r0, r1, r2, r3, r5, r8, r9, sl, fp, sp}^
     c08:	2f697062 	svccs	0x00697062
     c0c:	6c636e69 	stclvs	14, cr6, [r3], #-420	; 0xfffffe5c
     c10:	00656475 	rsbeq	r6, r5, r5, ror r4
     c14:	656c6300 	strbvs	r6, [ip, #-768]!	; 0xfffffd00
     c18:	722d6e61 	eorvc	r6, sp, #1552	; 0x610
     c1c:	6f6f6265 	svcvs	0x006f6265
     c20:	00632e74 	rsbeq	r2, r3, r4, ror lr
     c24:	72000001 	andvc	r0, r0, #1, 0
     c28:	682e6970 	stmdavs	lr!, {r4, r5, r6, r8, fp, sp, lr}
     c2c:	00000200 	andeq	r0, r0, r0, lsl #4
     c30:	00190500 	andseq	r0, r9, r0, lsl #10
     c34:	8ba00205 	blhi	fe801450 <__bss_end__+0xfe7f7bd8>
     c38:	05150000 	ldreq	r0, [r5, #-0]
     c3c:	2f832f05 	svccs	0x00832f05
     c40:	0006024b 	andeq	r0, r6, fp, asr #4
     c44:	00980101 	addseq	r0, r8, r1, lsl #2
     c48:	00030000 	andeq	r0, r3, r0
     c4c:	00000063 	andeq	r0, r0, r3, rrx
     c50:	0efb0102 	cdpeq	1, 15, cr0, cr11, cr2, {0}
     c54:	0101000d 	tsteq	r1, sp
     c58:	00000101 	andeq	r0, r0, r1, lsl #2
     c5c:	00000100 	andeq	r0, r0, r0, lsl #2
     c60:	732f2e01 			; <UNDEFINED> instruction: 0x732f2e01
     c64:	66666174 			; <UNDEFINED> instruction: 0x66666174
     c68:	6372732d 	cmnvs	r2, #-1275068416	; 0xb4000000
     c6c:	73552f00 	cmpvc	r5, #0, 30
     c70:	2f737265 	svccs	0x00737265
     c74:	696d6461 	stmdbvs	sp!, {r0, r5, r6, sl, sp, lr}^
     c78:	53432f6e 	movtpl	r2, #16238	; 0x3f6e
     c7c:	4e39342d 	cdpmi	4, 3, cr3, cr9, cr13, {1}
     c80:	3473632f 	ldrbtcc	r6, [r3], #-815	; 0xfffffcd1
     c84:	322d6e39 	eorcc	r6, sp, #912	; 0x390
     c88:	74756131 	ldrbtvc	r6, [r5], #-305	; 0xfffffecf
     c8c:	696c2f2f 	stmdbvs	ip!, {r0, r1, r2, r3, r5, r8, r9, sl, fp, sp}^
     c90:	2f697062 	svccs	0x00697062
     c94:	6c636e69 	stclvs	14, cr6, [r3], #-420	; 0xfffffe5c
     c98:	00656475 	rsbeq	r6, r5, r5, ror r4
     c9c:	74736300 	ldrbtvc	r6, [r3], #-768	; 0xfffffd00
     ca0:	2e747261 	cdpcs	2, 7, cr7, cr4, cr1, {3}
     ca4:	00010063 	andeq	r0, r1, r3, rrx
     ca8:	69707200 	ldmdbvs	r0!, {r9, ip, sp, lr}^
     cac:	0200682e 	andeq	r6, r0, #3014656	; 0x2e0000
     cb0:	05000000 	streq	r0, [r0, #-0]
     cb4:	02050010 	andeq	r0, r5, #16, 0
     cb8:	00008bcc 	andeq	r8, r0, ip, asr #23
     cbc:	2f050514 	svccs	0x00050514
     cc0:	05130205 	ldreq	r0, [r3, #-517]	; 0xfffffdfb
     cc4:	14131405 	ldrne	r1, [r3], #-1029	; 0xfffffbfb
     cc8:	0f060a05 	svceq	0x00060a05
     ccc:	09053106 	stmdbeq	r5, {r1, r2, r8, ip, sp}
     cd0:	0610054b 	ldreq	r0, [r0], -fp, asr #10
     cd4:	05054a01 	streq	r4, [r5, #-2561]	; 0xfffff5ff
     cd8:	02053006 	andeq	r3, r5, #6, 0
     cdc:	0006022f 	andeq	r0, r6, pc, lsr #4
     ce0:	00d30101 	sbcseq	r0, r3, r1, lsl #2
     ce4:	00030000 	andeq	r0, r3, r0
     ce8:	00000063 	andeq	r0, r0, r3, rrx
     cec:	0efb0102 	cdpeq	1, 15, cr0, cr11, cr2, {0}
     cf0:	0101000d 	tsteq	r1, sp
     cf4:	00000101 	andeq	r0, r0, r1, lsl #2
     cf8:	00000100 	andeq	r0, r0, r0, lsl #2
     cfc:	732f2e01 			; <UNDEFINED> instruction: 0x732f2e01
     d00:	66666174 			; <UNDEFINED> instruction: 0x66666174
     d04:	6372732d 	cmnvs	r2, #-1275068416	; 0xb4000000
     d08:	73552f00 	cmpvc	r5, #0, 30
     d0c:	2f737265 	svccs	0x00737265
     d10:	696d6461 	stmdbvs	sp!, {r0, r5, r6, sl, sp, lr}^
     d14:	53432f6e 	movtpl	r2, #16238	; 0x3f6e
     d18:	4e39342d 	cdpmi	4, 3, cr3, cr9, cr13, {1}
     d1c:	3473632f 	ldrbtcc	r6, [r3], #-815	; 0xfffffcd1
     d20:	322d6e39 	eorcc	r6, sp, #912	; 0x390
     d24:	74756131 	ldrbtvc	r6, [r5], #-305	; 0xfffffecf
     d28:	696c2f2f 	stmdbvs	ip!, {r0, r1, r2, r3, r5, r8, r9, sl, fp, sp}^
     d2c:	2f697062 	svccs	0x00697062
     d30:	6c636e69 	stclvs	14, cr6, [r3], #-420	; 0xfffffe5c
     d34:	00656475 	rsbeq	r6, r5, r5, ror r4
     d38:	62657200 	rsbvs	r7, r5, #0, 4
     d3c:	2e746f6f 	cdpcs	15, 7, cr6, cr4, cr15, {3}
     d40:	00010063 	andeq	r0, r1, r3, rrx
     d44:	69707200 	ldmdbvs	r0!, {r9, ip, sp, lr}^
     d48:	0200682e 	andeq	r6, r0, #3014656	; 0x2e0000
     d4c:	05000000 	streq	r0, [r0, #-0]
     d50:	02050019 	andeq	r0, r5, #25, 0
     d54:	00008bf8 	strdeq	r8, [r0], -r8	; <UNPREDICTABLE>
     d58:	05010d03 	streq	r0, [r1, #-3331]	; 0xfffff2fd
     d5c:	31131305 	tstcc	r3, r5, lsl #6
     d60:	01061305 	tsteq	r6, r5, lsl #6
     d64:	052f0105 	streq	r0, [pc, #-261]!	; c67 <__code_start__-0x7399>
     d68:	0585061b 	streq	r0, [r5, #1563]	; 0x61b
     d6c:	05141305 	ldreq	r1, [r4, #-773]	; 0xfffffcfb
     d70:	16052f09 	strne	r2, [r5], -r9, lsl #30
     d74:	0e050106 	adfeqs	f0, f5, f6
     d78:	0605052e 	streq	r0, [r5], -lr, lsr #10
     d7c:	0601052f 	streq	r0, [r1], -pc, lsr #10
     d80:	0617052f 	ldreq	r0, [r7], -pc, lsr #10
     d84:	2f050530 	svccs	0x00050530
     d88:	01060805 	tsteq	r6, r5, lsl #16
     d8c:	052e0705 	streq	r0, [lr, #-1797]!	; 0xfffff8fb
     d90:	0b030605 	bleq	c25ac <__bss_end__+0xb8d34>
     d94:	134d2f4a 	movtne	r2, #57162	; 0xdf4a
     d98:	67151313 			; <UNDEFINED> instruction: 0x67151313
     d9c:	01040200 	mrseq	r0, R12_usr
     da0:	000d0567 	andeq	r0, sp, r7, ror #10
     da4:	01010402 	tsteq	r1, r2, lsl #8
     da8:	02000a05 	andeq	r0, r0, #20480	; 0x5000
     dac:	05010104 	streq	r0, [r1, #-260]	; 0xfffffefc
     db0:	2e6a0309 	cdpcs	3, 6, cr0, cr10, cr9, {0}
     db4:	01000c02 	tsteq	r0, r2, lsl #24
     db8:	0000d901 	andeq	sp, r0, r1, lsl #18
     dbc:	62000300 	andvs	r0, r0, #0, 6
     dc0:	02000000 	andeq	r0, r0, #0, 0
     dc4:	0d0efb01 	vstreq	d15, [lr, #-4]
     dc8:	01010100 	mrseq	r0, (UNDEF: 17)
     dcc:	00000001 	andeq	r0, r0, r1
     dd0:	01000001 	tsteq	r0, r1
     dd4:	74732f2e 	ldrbtvc	r2, [r3], #-3886	; 0xfffff0d2
     dd8:	2d666661 	stclcs	6, cr6, [r6, #-388]!	; 0xfffffe7c
     ddc:	00637273 	rsbeq	r7, r3, r3, ror r2
     de0:	6573552f 	ldrbvs	r5, [r3, #-1327]!	; 0xfffffad1
     de4:	612f7372 			; <UNDEFINED> instruction: 0x612f7372
     de8:	6e696d64 	cdpvs	13, 6, cr6, cr9, cr4, {3}
     dec:	2d53432f 	ldclcs	3, cr4, [r3, #-188]	; 0xffffff44
     df0:	2f4e3934 	svccs	0x004e3934
     df4:	39347363 	ldmdbcc	r4!, {r0, r1, r5, r6, r8, r9, ip, sp, lr}
     df8:	31322d6e 	teqcc	r2, lr, ror #26
     dfc:	2f747561 	svccs	0x00747561
     e00:	62696c2f 	rsbvs	r6, r9, #12032	; 0x2f00
     e04:	692f6970 	stmdbvs	pc!, {r4, r5, r6, r8, fp, sp, lr}	; <UNPREDICTABLE>
     e08:	756c636e 	strbvc	r6, [ip, #-878]!	; 0xfffffc92
     e0c:	00006564 	andeq	r6, r0, r4, ror #10
     e10:	656d6974 	strbvs	r6, [sp, #-2420]!	; 0xfffff68c
     e14:	00632e72 	rsbeq	r2, r3, r2, ror lr
     e18:	72000001 	andvc	r0, r0, #1, 0
     e1c:	682e6970 	stmdavs	lr!, {r4, r5, r6, r8, fp, sp, lr}
     e20:	00000200 	andeq	r0, r0, r0, lsl #4
     e24:	00230500 	eoreq	r0, r3, r0, lsl #10
     e28:	8c740205 	lfmhi	f0, 2, [r4], #-20	; 0xffffffec
     e2c:	05150000 	ldreq	r0, [r5, #-0]
     e30:	0c052f05 	stceq	15, cr2, [r5], {5}
     e34:	01050106 	tsteq	r5, r6, lsl #2
     e38:	061f054b 	ldreq	r0, [pc], -fp, asr #10
     e3c:	3105054d 	tstcc	r5, sp, asr #10
     e40:	0612052f 	ldreq	r0, [r2], -pc, lsr #10
     e44:	06050501 	streq	r0, [r5], -r1, lsl #10
     e48:	01052f4b 	tsteq	r5, fp, asr #30
     e4c:	1c051306 	stcne	3, cr1, [r5], {6}
     e50:	01064c06 	tsteq	r6, r6, lsl #24
     e54:	4b060505 	blmi	182270 <__bss_end__+0x1789f8>
     e58:	01061305 	tsteq	r6, r5, lsl #6
     e5c:	0605052e 	streq	r0, [r5], -lr, lsr #10
     e60:	1309052f 	movwne	r0, #38191	; 0x952f
     e64:	01061705 	tsteq	r6, r5, lsl #14
     e68:	2f060905 	svccs	0x00060905
     e6c:	01061105 	tsteq	r6, r5, lsl #2
     e70:	052e0c05 	streq	r0, [lr, #-3077]!	; 0xfffff3fb
     e74:	066b061c 			; <UNDEFINED> instruction: 0x066b061c
     e78:	06050501 	streq	r0, [r5], -r1, lsl #10
     e7c:	054a062f 	strbeq	r0, [sl, #-1583]	; 0xfffff9d1
     e80:	1e054b01 	vmlane.f64	d4, d5, d1
     e84:	01062f06 	tsteq	r6, r6, lsl #30
     e88:	2f060505 	svccs	0x00060505
     e8c:	01054a06 	tsteq	r5, r6, lsl #20
     e90:	0002024b 	andeq	r0, r2, fp, asr #4
     e94:	01b50101 			; <UNDEFINED> instruction: 0x01b50101
     e98:	00030000 	andeq	r0, r3, r0
     e9c:	0000009e 	muleq	r0, lr, r0
     ea0:	0efb0102 	cdpeq	1, 15, cr0, cr11, cr2, {0}
     ea4:	0101000d 	tsteq	r1, sp
     ea8:	00000101 	andeq	r0, r0, r1, lsl #2
     eac:	00000100 	andeq	r0, r0, r0, lsl #2
     eb0:	6f682f01 	svcvs	0x00682f01
     eb4:	652f656d 	strvs	r6, [pc, #-1389]!	; 94f <__code_start__-0x76b1>
     eb8:	656c676e 	strbvs	r6, [ip, #-1902]!	; 0xfffff892
     ebc:	6c632f72 	stclvs	15, cr2, [r3], #-456	; 0xfffffe38
     ec0:	2f737361 	svccs	0x00737361
     ec4:	34317363 	ldrtcc	r7, [r1], #-867	; 0xfffffc9d
     ec8:	322d6530 	eorcc	r6, sp, #48, 10	; 0xc000000
     ecc:	72707331 	rsbsvc	r7, r0, #-1006632960	; 0xc4000000
     ed0:	696c2f2f 	stmdbvs	ip!, {r0, r1, r2, r3, r5, r8, r9, sl, fp, sp}^
     ed4:	2f697062 	svccs	0x00697062
     ed8:	6c636e69 	stclvs	14, cr6, [r3], #-420	; 0xfffffe5c
     edc:	00656475 	rsbeq	r6, r5, r5, ror r4
     ee0:	7273752f 	rsbsvc	r7, r3, #197132288	; 0xbc00000
     ee4:	62696c2f 	rsbvs	r6, r9, #12032	; 0x2f00
     ee8:	6363672f 	cmnvs	r3, #12320768	; 0xbc0000
     eec:	6d72612f 	ldfvse	f6, [r2, #-188]!	; 0xffffff44
     ef0:	6e6f6e2d 	cdpvs	14, 6, cr6, cr15, cr13, {1}
     ef4:	61652d65 	cmnvs	r5, r5, ror #26
     ef8:	392f6962 	stmdbcc	pc!, {r1, r5, r6, r8, fp, sp, lr}	; <UNPREDICTABLE>
     efc:	312e322e 			; <UNDEFINED> instruction: 0x312e322e
     f00:	636e692f 	cmnvs	lr, #770048	; 0xbc000
     f04:	6564756c 	strbvs	r7, [r4, #-1388]!	; 0xfffffa94
     f08:	61750000 	cmnvs	r5, r0
     f0c:	632e7472 			; <UNDEFINED> instruction: 0x632e7472
     f10:	00000000 	andeq	r0, r0, r0
     f14:	2e697072 	mcrcs	0, 3, r7, cr9, cr2, {3}
     f18:	00010068 	andeq	r0, r1, r8, rrx
     f1c:	72617500 	rsbvc	r7, r1, #0, 10
     f20:	00682e74 	rsbeq	r2, r8, r4, ror lr
     f24:	67000001 	strvs	r0, [r0, -r1]
     f28:	2e6f6970 			; <UNDEFINED> instruction: 0x2e6f6970
     f2c:	00010068 	andeq	r0, r1, r8, rrx
     f30:	64747300 	ldrbtvs	r7, [r4], #-768	; 0xfffffd00
     f34:	2e746e69 	cdpcs	14, 7, cr6, cr4, cr9, {3}
     f38:	00020068 	andeq	r0, r2, r8, rrx
     f3c:	38050000 	stmdacc	r5, {}	; <UNPREDICTABLE>
     f40:	f8020500 			; <UNDEFINED> instruction: 0xf8020500
     f44:	0300008c 	movweq	r0, #140	; 0x8c
     f48:	0106012d 	tsteq	r6, sp, lsr #2
     f4c:	67060505 	strvs	r0, [r6, -r5, lsl #10]
     f50:	01061105 	tsteq	r6, r5, lsl #2
     f54:	052e0505 	streq	r0, [lr, #-1285]!	; 0xfffffafb
     f58:	16056701 	strne	r6, [r5], -r1, lsl #14
     f5c:	2e0b0306 	cdpcs	3, 0, cr0, cr11, cr6, {0}
     f60:	67350505 	ldrvs	r0, [r5, -r5, lsl #10]!
     f64:	03683568 	cmneq	r8, #104, 10	; 0x1a000000
     f68:	6b852e0c 	blvs	fe14c7a0 <__bss_end__+0xfe142f28>
     f6c:	0c036969 			; <UNDEFINED> instruction: 0x0c036969
     f70:	676b1366 	strbvs	r1, [fp, -r6, ror #6]!
     f74:	2f060105 	svccs	0x00060105
     f78:	08061905 	stmdaeq	r6, {r0, r2, r8, fp, ip}
     f7c:	34050525 	strcc	r0, [r5], #-1317	; 0xfffffadb
     f80:	01060d05 	tsteq	r6, r5, lsl #26
     f84:	054c0105 	strbeq	r0, [ip, #-261]	; 0xfffffefb
     f88:	05670619 	strbeq	r0, [r7, #-1561]!	; 0xfffff9e7
     f8c:	0d053605 	stceq	6, cr3, [r5, #-20]	; 0xffffffec
     f90:	28050106 	stmdacs	r5, {r1, r2, r8}
     f94:	3001054a 	andcc	r0, r1, sl, asr #10
     f98:	87061505 	strhi	r1, [r6, -r5, lsl #10]
     f9c:	2f2f0505 	svccs	0x002f0505
     fa0:	02000905 	andeq	r0, r0, #81920	; 0x14000
     fa4:	05130104 	ldreq	r0, [r3, #-260]	; 0xfffffefc
     fa8:	0402000a 	streq	r0, [r2], #-10
     fac:	0c051101 	stfeqs	f1, [r5], {1}
     fb0:	01040200 	mrseq	r0, R12_usr
     fb4:	0a050106 	beq	1413d4 <__bss_end__+0x137b5c>
     fb8:	01040200 	mrseq	r0, R12_usr
     fbc:	0605052e 	streq	r0, [r5], -lr, lsr #10
     fc0:	060e054c 	streq	r0, [lr], -ip, asr #10
     fc4:	4a090501 	bmi	2423d0 <__bss_end__+0x238b58>
     fc8:	2f060505 	svccs	0x00060505
     fcc:	0601052f 	streq	r0, [r1], -pc, lsr #10
     fd0:	061c0513 			; <UNDEFINED> instruction: 0x061c0513
     fd4:	05010667 	streq	r0, [r1, #-1639]	; 0xfffff999
     fd8:	2f4b0605 	svccs	0x004b0605
     fdc:	02000905 	andeq	r0, r0, #81920	; 0x14000
     fe0:	05130104 	ldreq	r0, [r3, #-260]	; 0xfffffefc
     fe4:	0402000a 	streq	r0, [r2], #-10
     fe8:	0c051101 	stfeqs	f1, [r5], {1}
     fec:	01040200 	mrseq	r0, R12_usr
     ff0:	0a050106 	beq	141410 <__bss_end__+0x137b98>
     ff4:	01040200 	mrseq	r0, R12_usr
     ff8:	0605052e 	streq	r0, [r5], -lr, lsr #10
     ffc:	0105674c 	tsteq	r5, ip, asr #14
    1000:	19052f06 	stmdbne	r5, {r1, r2, r8, r9, sl, fp, sp}
    1004:	1b054c06 	blne	154024 <__bss_end__+0x14a7ac>
    1008:	2e2a052e 	cfsh64cs	mvdx0, mvdx10, #30
    100c:	01063105 	tsteq	r6, r5, lsl #2
    1010:	052e0105 	streq	r0, [lr, #-261]!	; 0xfffffefb
    1014:	0531061c 	ldreq	r0, [r1, #-1564]!	; 0xfffff9e4
    1018:	09032f05 	stmdbeq	r3, {r0, r2, r8, r9, sl, fp, sp}
    101c:	060e052e 	streq	r0, [lr], -lr, lsr #10
    1020:	4a210501 	bmi	84242c <__bss_end__+0x838bb4>
    1024:	0a030105 	beq	c1440 <__bss_end__+0xb7bc8>
    1028:	061a052e 	ldreq	r0, [sl], -lr, lsr #10
    102c:	00090568 	andeq	r0, r9, r8, ror #10
    1030:	30010402 	andcc	r0, r1, r2, lsl #8
    1034:	02000a05 	andeq	r0, r0, #20480	; 0x5000
    1038:	05110104 	ldreq	r0, [r1, #-260]	; 0xfffffefc
    103c:	0402000c 	streq	r0, [r2], #-12
    1040:	05010601 	streq	r0, [r1, #-1537]	; 0xfffff9ff
    1044:	0402000a 	streq	r0, [r2], #-10
    1048:	06022e01 	streq	r2, [r2], -r1, lsl #28
    104c:	b7010100 	strlt	r0, [r1, -r0, lsl #2]
    1050:	03000001 	movweq	r0, #1
    1054:	00006500 	andeq	r6, r0, r0, lsl #10
    1058:	fb010200 	blx	41862 <__bss_end__+0x37fea>
    105c:	01000d0e 	tsteq	r0, lr, lsl #26
    1060:	00010101 	andeq	r0, r1, r1, lsl #2
    1064:	00010000 	andeq	r0, r1, r0
    1068:	2f2e0100 	svccs	0x002e0100
    106c:	00637273 	rsbeq	r7, r3, r3, ror r2
    1070:	6573552f 	ldrbvs	r5, [r3, #-1327]!	; 0xfffffad1
    1074:	612f7372 			; <UNDEFINED> instruction: 0x612f7372
    1078:	6e696d64 	cdpvs	13, 6, cr6, cr9, cr4, {3}
    107c:	2d53432f 	ldclcs	3, cr4, [r3, #-188]	; 0xffffff44
    1080:	2f4e3934 	svccs	0x004e3934
    1084:	39347363 	ldmdbcc	r4!, {r0, r1, r5, r6, r8, r9, ip, sp, lr}
    1088:	31322d6e 	teqcc	r2, lr, ror #26
    108c:	2f747561 	svccs	0x00747561
    1090:	62696c2f 	rsbvs	r6, r9, #12032	; 0x2f00
    1094:	692f6970 	stmdbvs	pc!, {r4, r5, r6, r8, fp, sp, lr}	; <UNPREDICTABLE>
    1098:	756c636e 	strbvc	r6, [ip, #-878]!	; 0xfffffc92
    109c:	00006564 	andeq	r6, r0, r4, ror #10
    10a0:	6f697067 	svcvs	0x00697067
    10a4:	0100632e 	tsteq	r0, lr, lsr #6
    10a8:	70720000 	rsbsvc	r0, r2, r0
    10ac:	00682e69 	rsbeq	r2, r8, r9, ror #28
    10b0:	67000002 	strvs	r0, [r0, -r2]
    10b4:	2e6f6970 			; <UNDEFINED> instruction: 0x2e6f6970
    10b8:	00020068 	andeq	r0, r2, r8, rrx
    10bc:	24050000 	strcs	r0, [r5], #-0
    10c0:	a4020500 	strge	r0, [r2], #-1280	; 0xfffffb00
    10c4:	0300008e 	movweq	r0, #142	; 0x8e
    10c8:	0505011d 	streq	r0, [r5, #-285]	; 0xfffffee3
    10cc:	06080513 			; <UNDEFINED> instruction: 0x06080513
    10d0:	49240501 	stmdbmi	r4!, {r0, r8, sl}
    10d4:	4f060505 	svcmi	0x00060505
    10d8:	01063005 	tsteq	r6, r5
    10dc:	05662a05 	strbeq	r2, [r6, #-2565]!	; 0xfffff5fb
    10e0:	05052e18 	streq	r2, [r5, #-3608]	; 0xfffff1e8
    10e4:	16054b06 	strne	r4, [r5], -r6, lsl #22
    10e8:	052e0106 	streq	r0, [lr, #-262]!	; 0xfffffefa
    10ec:	05300605 	ldreq	r0, [r0, #-1541]!	; 0xfffff9fb
    10f0:	05010627 	streq	r0, [r1, #-1575]	; 0xfffff9d9
    10f4:	05054a0e 	streq	r4, [r5, #-2574]	; 0xfffff5f2
    10f8:	05142f06 	ldreq	r2, [r4, #-3846]	; 0xfffff0fa
    10fc:	0501060e 	streq	r0, [r1, #-1550]	; 0xfffff9f2
    1100:	144b0605 	strbne	r0, [fp], #-1541	; 0xfffff9fb
    1104:	01056606 	tsteq	r5, r6, lsl #12
    1108:	0620052f 	strteq	r0, [r0], -pc, lsr #10
    110c:	1405054d 	strne	r0, [r5], #-1357	; 0xfffffab3
    1110:	06080513 			; <UNDEFINED> instruction: 0x06080513
    1114:	47200501 	strmi	r0, [r0, -r1, lsl #10]!
    1118:	33060505 	movwcc	r0, #25861	; 0x6505
    111c:	01056606 	tsteq	r5, r6, lsl #12
    1120:	0621052f 	strteq	r0, [r1], -pc, lsr #10
    1124:	1405054d 	strne	r0, [r5], #-1357	; 0xfffffab3
    1128:	06080513 			; <UNDEFINED> instruction: 0x06080513
    112c:	47210501 	strmi	r0, [r1, -r1, lsl #10]!
    1130:	33060505 	movwcc	r0, #25861	; 0x6505
    1134:	01056606 	tsteq	r5, r6, lsl #12
    1138:	062b052f 	strteq	r0, [fp], -pc, lsr #10
    113c:	0501064d 	streq	r0, [r1, #-1613]	; 0xfffff9b3
    1140:	052f0605 	streq	r0, [pc, #-1541]!	; b43 <__code_start__-0x74bd>
    1144:	05010608 	streq	r0, [r1, #-1544]	; 0xfffff9f8
    1148:	064b0609 	strbeq	r0, [fp], -r9, lsl #12
    114c:	0530062e 	ldreq	r0, [r0, #-1582]!	; 0xfffff9d2
    1150:	052f0601 	streq	r0, [pc, #-1537]!	; b57 <__code_start__-0x74a9>
    1154:	05350623 	ldreq	r0, [r5, #-1571]!	; 0xfffff9dd
    1158:	08051305 	stmdaeq	r5, {r0, r2, r8, r9, ip}
    115c:	23050106 	movwcs	r0, #20742	; 0x5106
    1160:	06050549 	streq	r0, [r5], -r9, asr #10
    1164:	0630054d 	ldrteq	r0, [r0], -sp, asr #10
    1168:	662a0501 	strtvs	r0, [sl], -r1, lsl #10
    116c:	052e1805 	streq	r1, [lr, #-2053]!	; 0xfffff7fb
    1170:	054b0605 	strbeq	r0, [fp, #-1541]	; 0xfffff9fb
    1174:	2e010616 	mcrcs	6, 0, r0, cr1, cr6, {0}
    1178:	30060505 	andcc	r0, r6, r5, lsl #10
    117c:	01062705 	tsteq	r6, r5, lsl #14
    1180:	054a0e05 	strbeq	r0, [sl, #-3589]	; 0xfffff1fb
    1184:	142f0605 	strtne	r0, [pc], #-1541	; 118c <__code_start__-0x6e74>
    1188:	2e4a0614 	mcrcs	6, 2, r0, cr10, cr4, {0}
    118c:	052f0105 	streq	r0, [pc, #-261]!	; 108f <__code_start__-0x6f71>
    1190:	054d061d 	strbeq	r0, [sp, #-1565]	; 0xfffff9e3
    1194:	08051305 	stmdaeq	r5, {r0, r2, r8, r9, ip}
    1198:	10050106 	andne	r0, r5, r6, lsl #2
    119c:	3501054b 	strcc	r0, [r1, #-1355]	; 0xfffffab5
    11a0:	77031d05 	strvc	r1, [r3, -r5, lsl #26]
    11a4:	0605052e 	streq	r0, [r5], -lr, lsr #10
    11a8:	0513134d 	ldreq	r1, [r3, #-845]	; 0xfffffcb3
    11ac:	2e010615 	mcrcs	6, 0, r0, cr1, cr5, {0}
    11b0:	2f060505 	svccs	0x00060505
    11b4:	061b0513 			; <UNDEFINED> instruction: 0x061b0513
    11b8:	05056601 	streq	r6, [r5, #-1537]	; 0xfffff9ff
    11bc:	01052f06 	tsteq	r5, r6, lsl #30
    11c0:	3c051306 	stccc	3, cr1, [r5], {6}
    11c4:	05054c06 	streq	r4, [r5, #-3078]	; 0xfffff3fa
    11c8:	06080513 			; <UNDEFINED> instruction: 0x06080513
    11cc:	653c0501 	ldrvs	r0, [ip, #-1281]!	; 0xfffffaff
    11d0:	69060505 	stmdbvs	r6, {r0, r2, r8, sl}
    11d4:	01063005 	tsteq	r6, r5
    11d8:	05662a05 	strbeq	r2, [r6, #-2565]!	; 0xfffff5fb
    11dc:	05052e18 	streq	r2, [r5, #-3608]	; 0xfffff1e8
    11e0:	16054b06 	strne	r4, [r5], -r6, lsl #22
    11e4:	052e0106 	streq	r0, [lr, #-262]!	; 0xfffffefa
    11e8:	05300605 	ldreq	r0, [r0, #-1541]!	; 0xfffff9fb
    11ec:	05010627 	streq	r0, [r1, #-1575]	; 0xfffff9d9
    11f0:	05054a0e 	streq	r4, [r5, #-2574]	; 0xfffff5f2
    11f4:	05142f06 	ldreq	r2, [r4, #-3846]	; 0xfffff0fa
    11f8:	0501060e 	streq	r0, [r1, #-1550]	; 0xfffff9f2
    11fc:	064c0605 	strbeq	r0, [ip], -r5, lsl #12
    1200:	01052e2e 	tsteq	r5, lr, lsr #28
    1204:	00040230 	andeq	r0, r4, r0, lsr r2
    1208:	00e90101 	rsceq	r0, r9, r1, lsl #2
    120c:	00030000 	andeq	r0, r3, r0
    1210:	0000005e 	andeq	r0, r0, lr, asr r0
    1214:	0efb0102 	cdpeq	1, 15, cr0, cr11, cr2, {0}
    1218:	0101000d 	tsteq	r1, sp
    121c:	00000101 	andeq	r0, r0, r1, lsl #2
    1220:	00000100 	andeq	r0, r0, r0, lsl #2
    1224:	6c2f2e01 	stcvs	14, cr2, [pc], #-4	; 1228 <__code_start__-0x6dd8>
    1228:	00636269 	rsbeq	r6, r3, r9, ror #4
    122c:	6573552f 	ldrbvs	r5, [r3, #-1327]!	; 0xfffffad1
    1230:	612f7372 			; <UNDEFINED> instruction: 0x612f7372
    1234:	6e696d64 	cdpvs	13, 6, cr6, cr9, cr4, {3}
    1238:	2d53432f 	ldclcs	3, cr4, [r3, #-188]	; 0xffffff44
    123c:	2f4e3934 	svccs	0x004e3934
    1240:	39347363 	ldmdbcc	r4!, {r0, r1, r5, r6, r8, r9, ip, sp, lr}
    1244:	31322d6e 	teqcc	r2, lr, ror #26
    1248:	2f747561 	svccs	0x00747561
    124c:	62696c2f 	rsbvs	r6, r9, #12032	; 0x2f00
    1250:	692f6970 	stmdbvs	pc!, {r4, r5, r6, r8, fp, sp, lr}	; <UNPREDICTABLE>
    1254:	756c636e 	strbvc	r6, [ip, #-878]!	; 0xfffffc92
    1258:	00006564 	andeq	r6, r0, r4, ror #10
    125c:	63727473 	cmnvs	r2, #1929379840	; 0x73000000
    1260:	632e7461 			; <UNDEFINED> instruction: 0x632e7461
    1264:	00000100 	andeq	r0, r0, r0, lsl #2
    1268:	2e697072 	mcrcs	0, 3, r7, cr9, cr2, {3}
    126c:	00020068 	andeq	r0, r2, r8, rrx
    1270:	2c050000 	stccs	0, cr0, [r5], {-0}
    1274:	50020500 	andpl	r0, r2, r0, lsl #10
    1278:	15000090 	strne	r0, [r0, #-144]	; 0xffffff70
    127c:	13130505 	tstne	r3, #20971520	; 0x1400000
    1280:	11060b05 	tstne	r6, r5, lsl #22
    1284:	02000505 	andeq	r0, r0, #20971520	; 0x1400000
    1288:	30060104 	andcc	r0, r6, r4, lsl #2
    128c:	01040200 	mrseq	r0, R12_usr
    1290:	00090515 	andeq	r0, r9, r5, lsl r5
    1294:	13010402 	movwne	r0, #5122	; 0x1402
    1298:	02001005 	andeq	r1, r0, #5, 0
    129c:	2e060104 	adfcss	f0, f6, f4
    12a0:	02000b05 	andeq	r0, r0, #5120	; 0x1400
    12a4:	002e0104 	eoreq	r0, lr, r4, lsl #2
    12a8:	06010402 	streq	r0, [r1], -r2, lsl #8
    12ac:	0005052f 	andeq	r0, r5, pc, lsr #10
    12b0:	06010402 	streq	r0, [r1], -r2, lsl #8
    12b4:	054e0601 	strbeq	r0, [lr, #-1537]	; 0xfffff9ff
    12b8:	05010608 	streq	r0, [r1, #-1544]	; 0xfffff9f8
    12bc:	04020005 	streq	r0, [r2], #-5
    12c0:	052f0601 	streq	r0, [pc, #-1537]!	; cc7 <__code_start__-0x7339>
    12c4:	04020009 	streq	r0, [r2], #-9
    12c8:	0b051301 	bleq	145ed4 <__bss_end__+0x13c65c>
    12cc:	01040200 	mrseq	r0, R12_usr
    12d0:	09050106 	stmdbeq	r5, {r1, r2, r8}
    12d4:	01040200 	mrseq	r0, R12_usr
    12d8:	0f054b06 	svceq	0x00054b06
    12dc:	01040200 	mrseq	r0, R12_usr
    12e0:	0d050106 	stfeqs	f0, [r5, #-24]	; 0xffffffe8
    12e4:	01040200 	mrseq	r0, R12_usr
    12e8:	05052f06 	streq	r2, [r5, #-3846]	; 0xfffff0fa
    12ec:	01040200 	mrseq	r0, R12_usr
    12f0:	06020106 	streq	r0, [r2], -r6, lsl #2
    12f4:	a2010100 	andge	r0, r1, #0
    12f8:	03000000 	movweq	r0, #0
    12fc:	00005e00 	andeq	r5, r0, r0, lsl #28
    1300:	fb010200 	blx	41b0a <__bss_end__+0x38292>
    1304:	01000d0e 	tsteq	r0, lr, lsl #26
    1308:	00010101 	andeq	r0, r1, r1, lsl #2
    130c:	00010000 	andeq	r0, r1, r0
    1310:	2f2e0100 	svccs	0x002e0100
    1314:	6362696c 	cmnvs	r2, #108, 18	; 0x1b0000
    1318:	73552f00 	cmpvc	r5, #0, 30
    131c:	2f737265 	svccs	0x00737265
    1320:	696d6461 	stmdbvs	sp!, {r0, r5, r6, sl, sp, lr}^
    1324:	53432f6e 	movtpl	r2, #16238	; 0x3f6e
    1328:	4e39342d 	cdpmi	4, 3, cr3, cr9, cr13, {1}
    132c:	3473632f 	ldrbtcc	r6, [r3], #-815	; 0xfffffcd1
    1330:	322d6e39 	eorcc	r6, sp, #912	; 0x390
    1334:	74756131 	ldrbtvc	r6, [r5], #-305	; 0xfffffecf
    1338:	696c2f2f 	stmdbvs	ip!, {r0, r1, r2, r3, r5, r8, r9, sl, fp, sp}^
    133c:	2f697062 	svccs	0x00697062
    1340:	6c636e69 	stclvs	14, cr6, [r3], #-420	; 0xfffffe5c
    1344:	00656475 	rsbeq	r6, r5, r5, ror r4
    1348:	72747300 	rsbsvc	r7, r4, #0, 6
    134c:	2e706d63 	cdpcs	13, 7, cr6, cr0, cr3, {3}
    1350:	00010063 	andeq	r0, r1, r3, rrx
    1354:	69707200 	ldmdbvs	r0!, {r9, ip, sp, lr}^
    1358:	0200682e 	andeq	r6, r0, #3014656	; 0x2e0000
    135c:	05000000 	streq	r0, [r0, #-0]
    1360:	0205002a 	andeq	r0, r5, #42, 0	; 0x2a
    1364:	00009084 	andeq	r9, r0, r4, lsl #1
    1368:	13090514 	movwne	r0, #38164	; 0x9514
    136c:	05010f05 	streq	r0, [r1, #-3845]	; 0xfffff0fb
    1370:	05010610 	streq	r0, [r1, #-1552]	; 0xfffff9f0
    1374:	1c052e0f 	stcne	14, cr2, [r5], {15}
    1378:	01040200 	mrseq	r0, R12_usr
    137c:	0013054a 	andseq	r0, r3, sl, asr #10
    1380:	2e010402 	cdpcs	4, 0, cr0, cr1, cr2, {0}
    1384:	2f061105 	svccs	0x00061105
    1388:	2e061605 	cfmadd32cs	mvax0, mvfx1, mvfx6, mvfx5
    138c:	0609052e 	streq	r0, [r9], -lr, lsr #10
    1390:	0615052f 	ldreq	r0, [r5], -pc, lsr #10
    1394:	2f010501 	svccs	0x00010501
    1398:	01000402 	tsteq	r0, r2, lsl #8
    139c:	0000a001 	andeq	sl, r0, r1
    13a0:	5e000300 	cdppl	3, 0, cr0, cr0, cr0, {0}
    13a4:	02000000 	andeq	r0, r0, #0, 0
    13a8:	0d0efb01 	vstreq	d15, [lr, #-4]
    13ac:	01010100 	mrseq	r0, (UNDEF: 17)
    13b0:	00000001 	andeq	r0, r0, r1
    13b4:	01000001 	tsteq	r0, r1
    13b8:	696c2f2e 	stmdbvs	ip!, {r1, r2, r3, r5, r8, r9, sl, fp, sp}^
    13bc:	2f006362 	svccs	0x00006362
    13c0:	72657355 	rsbvc	r7, r5, #1409286145	; 0x54000001
    13c4:	64612f73 	strbtvs	r2, [r1], #-3955	; 0xfffff08d
    13c8:	2f6e696d 	svccs	0x006e696d
    13cc:	342d5343 	strtcc	r5, [sp], #-835	; 0xfffffcbd
    13d0:	632f4e39 			; <UNDEFINED> instruction: 0x632f4e39
    13d4:	6e393473 	mrcvs	4, 1, r3, cr9, cr3, {3}
    13d8:	6131322d 	teqvs	r1, sp, lsr #4
    13dc:	2f2f7475 	svccs	0x002f7475
    13e0:	7062696c 	rsbvc	r6, r2, ip, ror #18
    13e4:	6e692f69 	cdpvs	15, 6, cr2, cr9, cr9, {3}
    13e8:	64756c63 	ldrbtvs	r6, [r5], #-3171	; 0xfffff39d
    13ec:	73000065 	movwvc	r0, #101	; 0x65
    13f0:	70637274 	rsbvc	r7, r3, r4, ror r2
    13f4:	00632e79 	rsbeq	r2, r3, r9, ror lr
    13f8:	72000001 	andvc	r0, r0, #1, 0
    13fc:	682e6970 	stmdavs	lr!, {r4, r5, r6, r8, fp, sp, lr}
    1400:	00000200 	andeq	r0, r0, r0, lsl #4
    1404:	002a0500 	eoreq	r0, sl, r0, lsl #10
    1408:	90b00205 	adcsls	r0, r0, r5, lsl #4
    140c:	05140000 	ldreq	r0, [r4, #-0]
    1410:	05131305 	ldreq	r1, [r3, #-773]	; 0xfffffcfb
    1414:	05110614 	ldreq	r0, [r1, #-1556]	; 0xfffff9ec
    1418:	04020022 	streq	r0, [r2], #-34	; 0xffffffde
    141c:	052f0601 	streq	r0, [pc, #-1537]!	; e23 <__code_start__-0x71dd>
    1420:	0402000b 	streq	r0, [r2], #-11
    1424:	15050101 	strne	r0, [r5, #-257]	; 0xfffffeff
    1428:	01040200 	mrseq	r0, R12_usr
    142c:	13050106 	movwne	r0, #20742	; 0x5106
    1430:	01040200 	mrseq	r0, R12_usr
    1434:	000b054a 	andeq	r0, fp, sl, asr #10
    1438:	4a010402 	bmi	42448 <__bss_end__+0x38bd0>
    143c:	01000602 	tsteq	r0, r2, lsl #12
    1440:	00010301 	andeq	r0, r1, r1, lsl #6
    1444:	c7000300 	strgt	r0, [r0, -r0, lsl #6]
    1448:	02000000 	andeq	r0, r0, #0, 0
    144c:	0d0efb01 	vstreq	d15, [lr, #-4]
    1450:	01010100 	mrseq	r0, (UNDEF: 17)
    1454:	00000001 	andeq	r0, r0, r1
    1458:	01000001 	tsteq	r0, r1
    145c:	696c2f2e 	stmdbvs	ip!, {r1, r2, r3, r5, r8, r9, sl, fp, sp}^
    1460:	2f006362 	svccs	0x00006362
    1464:	72657355 	rsbvc	r7, r5, #1409286145	; 0x54000001
    1468:	64612f73 	strbtvs	r2, [r1], #-3955	; 0xfffff08d
    146c:	2f6e696d 	svccs	0x006e696d
    1470:	342d5343 	strtcc	r5, [sp], #-835	; 0xfffffcbd
    1474:	632f4e39 			; <UNDEFINED> instruction: 0x632f4e39
    1478:	6e393473 	mrcvs	4, 1, r3, cr9, cr3, {3}
    147c:	6131322d 	teqvs	r1, sp, lsr #4
    1480:	2f2f7475 	svccs	0x002f7475
    1484:	7062696c 	rsbvc	r6, r2, ip, ror #18
    1488:	6e692f69 	cdpvs	15, 6, cr2, cr9, cr9, {3}
    148c:	64756c63 	ldrbtvs	r6, [r5], #-3171	; 0xfffff39d
    1490:	6f2f0065 	svcvs	0x002f0065
    1494:	682f7470 	stmdavs	pc!, {r4, r5, r6, sl, ip, sp, lr}	; <UNPREDICTABLE>
    1498:	62656d6f 	rsbvs	r6, r5, #7104	; 0x1bc0
    149c:	2f776572 	svccs	0x00776572
    14a0:	6c6c6543 	cfstr64vs	mvdx6, [ip], #-268	; 0xfffffef4
    14a4:	612f7261 			; <UNDEFINED> instruction: 0x612f7261
    14a8:	6e2d6d72 	mcrvs	13, 1, r6, cr13, cr2, {3}
    14ac:	2d656e6f 	stclcs	14, cr6, [r5, #-444]!	; 0xfffffe44
    14b0:	69626165 	stmdbvs	r2!, {r0, r2, r5, r6, r8, sp, lr}^
    14b4:	7365742d 	cmnvc	r5, #754974720	; 0x2d000000
    14b8:	2d392f74 	ldccs	15, cr2, [r9, #-464]!	; 0xfffffe30
    14bc:	39313032 	ldmdbcc	r1!, {r1, r4, r5, ip, sp}
    14c0:	632d3471 			; <UNDEFINED> instruction: 0x632d3471
    14c4:	37303173 			; <UNDEFINED> instruction: 0x37303173
    14c8:	696c2f65 	stmdbvs	ip!, {r0, r2, r5, r6, r8, r9, sl, fp, sp}^
    14cc:	63672f62 	cmnvs	r7, #392	; 0x188
    14d0:	72612f63 	rsbvc	r2, r1, #396	; 0x18c
    14d4:	6f6e2d6d 	svcvs	0x006e2d6d
    14d8:	652d656e 	strvs	r6, [sp, #-1390]!	; 0xfffffa92
    14dc:	2f696261 	svccs	0x00696261
    14e0:	2e322e39 	mrccs	14, 1, r2, cr2, cr9, {1}
    14e4:	6e692f31 	mcrvs	15, 3, r2, cr9, cr1, {1}
    14e8:	64756c63 	ldrbtvs	r6, [r5], #-3171	; 0xfffff39d
    14ec:	73000065 	movwvc	r0, #101	; 0x65
    14f0:	636e7274 	cmnvs	lr, #116, 4	; 0x40000007
    14f4:	632e706d 			; <UNDEFINED> instruction: 0x632e706d
    14f8:	00000100 	andeq	r0, r0, r0, lsl #2
    14fc:	2e697072 	mcrcs	0, 3, r7, cr9, cr2, {3}
    1500:	00020068 	andeq	r0, r2, r8, rrx
    1504:	64747300 	ldrbtvs	r7, [r4], #-768	; 0xfffffd00
    1508:	2e666564 	cdpcs	5, 6, cr6, cr6, cr4, {3}
    150c:	00030068 	andeq	r0, r3, r8, rrx
    1510:	39050000 	stmdbcc	r5, {}	; <UNPREDICTABLE>
    1514:	d0020500 	andle	r0, r2, r0, lsl #10
    1518:	15000090 	strne	r0, [r0, #-144]	; 0xffffff70
    151c:	13130505 	tstne	r3, #20971520	; 0x1400000
    1520:	06010a05 	streq	r0, [r1], -r5, lsl #20
    1524:	09054a01 	stmdbeq	r5, {r0, r9, fp, lr}
    1528:	0c052f06 	stceq	15, cr2, [r5], {6}
    152c:	13050106 	movwne	r0, #20742	; 0x5106
    1530:	2e0b052e 	cfsh32cs	mvfx0, mvfx11, #30
    1534:	4b060d05 	blmi	184950 <__bss_end__+0x17b0d8>
    1538:	01061b05 	tsteq	r6, r5, lsl #22
    153c:	300c052e 	andcc	r0, ip, lr, lsr #10
    1540:	022f0105 	eoreq	r0, pc, #1073741825	; 0x40000001
    1544:	01010002 	tsteq	r1, r2

Disassembly of section .debug_str:

00000000 <.debug_str>:
   0:	6d746f6e 	ldclvs	15, cr6, [r4, #-440]!	; 0xfffffe48
   4:	006e6961 	rsbeq	r6, lr, r1, ror #18
   8:	69736e75 	ldmdbvs	r3!, {r0, r2, r4, r5, r6, r9, sl, fp, sp, lr}^
   c:	64656e67 	strbtvs	r6, [r5], #-3687	; 0xfffff199
  10:	61686320 	cmnvs	r8, r0, lsr #6
  14:	68730072 	ldmdavs	r3!, {r1, r4, r5, r6}^
  18:	2074726f 	rsbscs	r7, r4, pc, ror #4
  1c:	69736e75 	ldmdbvs	r3!, {r0, r2, r4, r5, r6, r9, sl, fp, sp, lr}^
  20:	64656e67 	strbtvs	r6, [r5], #-3687	; 0xfffff199
  24:	746e6920 	strbtvc	r6, [lr], #-2336	; 0xfffff6e0
  28:	742d3000 	strtvc	r3, [sp], #-0
  2c:	2e747365 	cdpcs	3, 7, cr7, cr4, cr5, {3}
  30:	6f6c0063 	svcvs	0x006c0063
  34:	6c20676e 	stcvs	7, cr6, [r0], #-440	; 0xfffffe48
  38:	20676e6f 	rsbcs	r6, r7, pc, ror #28
  3c:	69736e75 	ldmdbvs	r3!, {r0, r2, r4, r5, r6, r9, sl, fp, sp, lr}^
  40:	64656e67 	strbtvs	r6, [r5], #-3687	; 0xfffff199
  44:	746e6920 	strbtvc	r6, [lr], #-2336	; 0xfffff6e0
  48:	6e6f6c00 	cdpvs	12, 6, cr6, cr15, cr0, {0}
  4c:	6f6c2067 	svcvs	0x006c2067
  50:	6920676e 	stmdbvs	r0!, {r1, r2, r3, r5, r6, r8, r9, sl, sp, lr}
  54:	7200746e 	andvc	r7, r0, #1845493760	; 0x6e000000
  58:	705f6970 	subsvc	r6, pc, r0, ror r9	; <UNPREDICTABLE>
  5c:	68637475 	stmdavs	r3!, {r0, r2, r4, r5, r6, sl, ip, sp, lr}^
  60:	2f007261 	svccs	0x00007261
  64:	72657355 	rsbvc	r7, r5, #1409286145	; 0x54000001
  68:	64612f73 	strbtvs	r2, [r1], #-3955	; 0xfffff08d
  6c:	2f6e696d 	svccs	0x006e696d
  70:	342d5343 	strtcc	r5, [sp], #-835	; 0xfffffcbd
  74:	632f4e39 			; <UNDEFINED> instruction: 0x632f4e39
  78:	6e393473 	mrcvs	4, 1, r3, cr9, cr3, {3}
  7c:	6131322d 	teqvs	r1, sp, lsr #4
  80:	6c2f7475 	cfstrsvs	mvf7, [pc], #-468	; fffffeb4 <__bss_end__+0xffff663c>
  84:	2f736261 	svccs	0x00736261
  88:	6e692d35 	mcrvs	13, 3, r2, cr9, cr5, {1}
  8c:	72726574 	rsbsvc	r6, r2, #116, 10	; 0x1d000000
  90:	73747075 	cmnvc	r4, #117, 0	; 0x75
  94:	6b2d302f 	blvs	b4c158 <__bss_end__+0xb428e0>
  98:	6c6c616d 	stfvse	f6, [ip], #-436	; 0xfffffe4c
  9c:	7300636f 	movwvc	r6, #879	; 0x36f
  a0:	74726f68 	ldrbtvc	r6, [r2], #-3944	; 0xfffff098
  a4:	746e6920 	strbtvc	r6, [lr], #-2336	; 0xfffff6e0
  a8:	616d6b00 	cmnvs	sp, r0, lsl #22
  ac:	636f6c6c 	cmnvs	pc, #108, 24	; 0x6c00
  b0:	696e695f 	stmdbvs	lr!, {r0, r1, r2, r3, r4, r6, r8, fp, sp, lr}^
  b4:	65735f74 	ldrbvs	r5, [r3, #-3956]!	; 0xfffff08c
  b8:	74735f74 	ldrbtvc	r5, [r3], #-3956	; 0xfffff08c
  bc:	00747261 	rsbseq	r7, r4, r1, ror #4
  c0:	20554e47 	subscs	r4, r5, r7, asr #28
  c4:	20393943 	eorscs	r3, r9, r3, asr #18
  c8:	2e322e39 	mrccs	14, 1, r2, cr2, cr9, {1}
  cc:	30322031 	eorscc	r2, r2, r1, lsr r0
  d0:	30313931 	eorscc	r3, r1, r1, lsr r9
  d4:	28203532 	stmdacs	r0!, {r1, r4, r5, r8, sl, ip, sp}
  d8:	656c6572 	strbvs	r6, [ip, #-1394]!	; 0xfffffa8e
  dc:	29657361 	stmdbcs	r5!, {r0, r5, r6, r8, r9, ip, sp, lr}^
  e0:	52415b20 	subpl	r5, r1, #32, 22	; 0x8000
  e4:	72612f4d 	rsbvc	r2, r1, #308	; 0x134
  e8:	2d392d6d 	ldccs	13, cr2, [r9, #-436]!	; 0xfffffe4c
  ec:	6e617262 	cdpvs	2, 6, cr7, cr1, cr2, {3}
  f0:	72206863 	eorvc	r6, r0, #6488064	; 0x630000
  f4:	73697665 	cmnvc	r9, #105906176	; 0x6500000
  f8:	206e6f69 	rsbcs	r6, lr, r9, ror #30
  fc:	35373732 	ldrcc	r3, [r7, #-1842]!	; 0xfffff8ce
 100:	205d3939 	subscs	r3, sp, r9, lsr r9
 104:	70636d2d 	rsbvc	r6, r3, sp, lsr #26
 108:	72613d75 	rsbvc	r3, r1, #7488	; 0x1d40
 10c:	3731316d 	ldrcc	r3, [r1, -sp, ror #2]!
 110:	667a6a36 			; <UNDEFINED> instruction: 0x667a6a36
 114:	2d20732d 	stccs	3, cr7, [r0, #-180]!	; 0xffffff4c
 118:	6e75746d 	cdpvs	4, 7, cr7, cr5, cr13, {3}
 11c:	72613d65 	rsbvc	r3, r1, #6464	; 0x1940
 120:	3731316d 	ldrcc	r3, [r1, -sp, ror #2]!
 124:	667a6a36 			; <UNDEFINED> instruction: 0x667a6a36
 128:	2d20732d 	stccs	3, cr7, [r0, #-180]!	; 0xffffff4c
 12c:	6f6c666d 	svcvs	0x006c666d
 130:	612d7461 			; <UNDEFINED> instruction: 0x612d7461
 134:	733d6962 	teqvc	sp, #1605632	; 0x188000
 138:	2074666f 	rsbscs	r6, r4, pc, ror #12
 13c:	72616d2d 	rsbvc	r6, r1, #2880	; 0xb40
 140:	6d2d206d 	stcvs	0, cr2, [sp, #-436]!	; 0xfffffe4c
 144:	68637261 	stmdavs	r3!, {r0, r5, r6, r9, ip, sp, lr}^
 148:	6d72613d 	ldfvse	f6, [r2, #-244]!	; 0xffffff0c
 14c:	7a6b3676 	bvc	1acdb2c <__bss_end__+0x1ac42b4>
 150:	67672d20 	strbvs	r2, [r7, -r0, lsr #26]!
 154:	2d206264 	sfmcs	f6, 4, [r0, #-400]!	; 0xfffffe70
 158:	2d20674f 	stccs	7, cr6, [r0, #-316]!	; 0xfffffec4
 15c:	3d647473 	cfstrdcc	mvd7, [r4, #-460]!	; 0xfffffe34
 160:	39756e67 	ldmdbcc	r5!, {r0, r1, r2, r5, r6, r9, sl, fp, sp, lr}^
 164:	662d2039 			; <UNDEFINED> instruction: 0x662d2039
 168:	65657266 	strbvs	r7, [r5, #-614]!	; 0xfffffd9a
 16c:	6e617473 	mcrvs	4, 3, r7, cr1, cr3, {3}
 170:	676e6964 	strbvs	r6, [lr, -r4, ror #18]!
 174:	5f736900 	svcpl	0x00736900
 178:	67696c61 	strbvs	r6, [r9, -r1, ror #24]!
 17c:	0064656e 	rsbeq	r6, r4, lr, ror #10
 180:	6c616d6b 	stclvs	13, cr6, [r1], #-428	; 0xfffffe54
 184:	5f636f6c 	svcpl	0x00636f6c
 188:	74696e69 	strbtvc	r6, [r9], #-3689	; 0xfffff197
 18c:	72666b00 	rsbvc	r6, r6, #0, 22
 190:	615f6565 	cmpvs	pc, r5, ror #10
 194:	69006c6c 	stmdbvs	r0, {r2, r3, r5, r6, sl, fp, sp, lr}
 198:	5f74696e 	svcpl	0x0074696e
 19c:	73690070 	cmnvc	r9, #112, 0	; 0x70
 1a0:	776f705f 			; <UNDEFINED> instruction: 0x776f705f
 1a4:	6c610032 	stclvs	0, cr0, [r1], #-200	; 0xffffff38
 1a8:	6d6e6769 	stclvs	7, cr6, [lr, #-420]!	; 0xfffffe5c
 1ac:	00746e65 	rsbseq	r6, r4, r5, ror #28
 1b0:	5f697072 	svcpl	0x00697072
 1b4:	65736572 	ldrbvs	r6, [r3, #-1394]!	; 0xfffffa8e
 1b8:	75705f74 	ldrbvc	r5, [r0, #-3956]!	; 0xfffff08c
 1bc:	72006374 	andvc	r6, r0, #116, 6	; 0xd0000001
 1c0:	646e756f 	strbtvs	r7, [lr], #-1391	; 0xfffffa91
 1c4:	64007075 	strvs	r7, [r0], #-117	; 0xffffff8b
 1c8:	6c62756f 	cfstr64vs	mvdx7, [r2], #-444	; 0xfffffe44
 1cc:	5f5f0065 	svcpl	0x005f0065
 1d0:	434e5546 	movtmi	r5, #58694	; 0xe546
 1d4:	4e4f4954 			; <UNDEFINED> instruction: 0x4e4f4954
 1d8:	68005f5f 	stmdavs	r0, {r0, r1, r2, r3, r4, r6, r8, r9, sl, fp, ip, lr}
 1dc:	00706165 	rsbseq	r6, r0, r5, ror #2
 1e0:	6c616d6b 	stclvs	13, cr6, [r1], #-428	; 0xfffffe54
 1e4:	2e636f6c 	cdpcs	15, 6, cr6, cr3, cr12, {3}
 1e8:	6c630063 	stclvs	0, cr0, [r3], #-396	; 0xfffffe74
 1ec:	5f6e6165 	svcpl	0x006e6165
 1f0:	6f626572 	svcvs	0x00626572
 1f4:	6b00746f 	blvs	1d3b8 <__bss_end__+0x13b40>
 1f8:	6c6c616d 	stfvse	f6, [ip], #-436	; 0xfffffe4c
 1fc:	615f636f 	cmpvs	pc, pc, ror #6
 200:	6e67696c 	vnmulvs.f16	s13, s14, s25	; <UNPREDICTABLE>
 204:	6b006465 	blvs	193a0 <__bss_end__+0xfb28>
 208:	6c6c616d 	stfvse	f6, [ip], #-436	; 0xfffffe4c
 20c:	685f636f 	ldmdavs	pc, {r0, r1, r2, r3, r5, r6, r8, r9, sp, lr}^	; <UNPREDICTABLE>
 210:	5f706165 	svcpl	0x00706165
 214:	00727470 	rsbseq	r7, r2, r0, ror r4
 218:	65685f5f 	strbvs	r5, [r8, #-3935]!	; 0xfffff0a1
 21c:	735f7061 	cmpvc	pc, #97, 0	; 0x61
 220:	74726174 	ldrbtvc	r6, [r2], #-372	; 0xfffffe8c
 224:	6e005f5f 	mcrvs	15, 0, r5, cr0, cr15, {2}
 228:	65747962 	ldrbvs	r7, [r4, #-2402]!	; 0xfffff69e
 22c:	615f0073 	cmpvs	pc, r3, ror r0	; <UNPREDICTABLE>
 230:	00726464 	rsbseq	r6, r2, r4, ror #8
 234:	73677261 	cmnvc	r7, #268435462	; 0x10000006
 238:	5f617600 	svcpl	0x00617600
 23c:	6e697270 	mcrvs	2, 3, r7, cr9, cr0, {3}
 240:	5f006b74 	svcpl	0x00006b74
 244:	756e675f 	strbvc	r6, [lr, #-1887]!	; 0xfffff8a1
 248:	61765f63 	cmnvs	r6, r3, ror #30
 24c:	73696c5f 	cmnvc	r9, #24320	; 0x5f00
 250:	5f5f0074 	svcpl	0x005f0074
 254:	2e007061 	cdpcs	0, 0, cr7, cr0, cr1, {3}
 258:	62696c2f 	rsbvs	r6, r9, #12032	; 0x2f00
 25c:	72702f63 	rsbsvc	r2, r0, #396	; 0x18c
 260:	6b746e69 	blvs	1d1bc0c <__bss_end__+0x1d12394>
 264:	5f00632e 	svcpl	0x0000632e
 268:	5f61765f 	svcpl	0x0061765f
 26c:	7473696c 	ldrbtvc	r6, [r3], #-2412	; 0xfffff694
 270:	73552f00 	cmpvc	r5, #0, 30
 274:	2f737265 	svccs	0x00737265
 278:	696d6461 	stmdbvs	sp!, {r0, r5, r6, sl, sp, lr}^
 27c:	53432f6e 	movtpl	r2, #16238	; 0x3f6e
 280:	4e39342d 	cdpmi	4, 3, cr3, cr9, cr13, {1}
 284:	3473632f 	ldrbtcc	r6, [r3], #-815	; 0xfffffcd1
 288:	322d6e39 	eorcc	r6, sp, #912	; 0x390
 28c:	74756131 	ldrbtvc	r6, [r5], #-305	; 0xfffffecf
 290:	62696c2f 	rsbvs	r6, r9, #12032	; 0x2f00
 294:	69006970 	stmdbvs	r0, {r4, r5, r6, r8, fp, sp, lr}
 298:	7265746e 	rsbvc	r7, r5, #1845493760	; 0x6e000000
 29c:	5f6c616e 	svcpl	0x006c616e
 2a0:	63747570 	cmnvs	r4, #112, 10	; 0x1c000000
 2a4:	00726168 	rsbseq	r6, r2, r8, ror #2
 2a8:	5f697072 	svcpl	0x00697072
 2ac:	5f746573 	svcpl	0x00746573
 2b0:	63747570 	cmnvs	r4, #112, 10	; 0x1c000000
 2b4:	6c2f2e00 	stcvs	14, cr2, [pc], #-0	; 2bc <__code_start__-0x7d44>
 2b8:	2f636269 	svccs	0x00636269
 2bc:	63747570 	cmnvs	r4, #112, 10	; 0x1c000000
 2c0:	2e726168 	rpwcssz	f6, f2, #0.0
 2c4:	61750063 	cmnvs	r5, r3, rrx
 2c8:	705f7472 	subsvc	r7, pc, r2, ror r4	; <UNPREDICTABLE>
 2cc:	00637475 	rsbeq	r7, r3, r5, ror r4
 2d0:	65746e69 	ldrbvs	r6, [r4, #-3689]!	; 0xfffff197
 2d4:	6c616e72 	stclvs	14, cr6, [r1], #-456	; 0xfffffe38
 2d8:	7475705f 	ldrbtvc	r7, [r5], #-95	; 0xffffffa1
 2dc:	2f2e006b 	svccs	0x002e006b
 2e0:	6362696c 	cmnvs	r2, #108, 18	; 0x1b0000
 2e4:	7475702f 	ldrbtvc	r7, [r5], #-47	; 0xffffffd1
 2e8:	00632e6b 	rsbeq	r2, r3, fp, ror #28
 2ec:	69647369 	stmdbvs	r4!, {r0, r3, r5, r6, r8, r9, ip, sp, lr}^
 2f0:	00746967 	rsbseq	r6, r4, r7, ror #18
 2f4:	746e6975 	strbtvc	r6, [lr], #-2421	; 0xfffff68b
 2f8:	745f3436 	ldrbvc	r3, [pc], #-1078	; 300 <__code_start__-0x7d00>
 2fc:	6c2f2e00 	stcvs	14, cr2, [pc], #-0	; 304 <__code_start__-0x7cfc>
 300:	2f636269 	svccs	0x00636269
 304:	702d6176 	eorvc	r6, sp, r6, ror r1
 308:	746e6972 	strbtvc	r6, [lr], #-2418	; 0xfffff68e
 30c:	00632e6b 	rsbeq	r2, r3, fp, ror #28
 310:	6f635f5f 	svcvs	0x00635f5f
 314:	735f6564 	cmpvc	pc, #100, 10	; 0x19000000
 318:	74726174 	ldrbtvc	r6, [r2], #-372	; 0xfffffe8c
 31c:	5f005f5f 	svcpl	0x00005f5f
 320:	7373625f 	cmnvc	r3, #-268435451	; 0xf0000005
 324:	6174735f 	cmnvs	r4, pc, asr r3
 328:	5f5f7472 	svcpl	0x005f7472
 32c:	64697700 	strbtvs	r7, [r9], #-1792	; 0xfffff900
 330:	5f006874 	svcpl	0x00006874
 334:	7461645f 	strbtvc	r6, [r1], #-1119	; 0xfffffba1
 338:	6e655f61 	cdpvs	15, 6, cr5, cr5, cr1, {3}
 33c:	005f5f64 	subseq	r5, pc, r4, ror #30
 340:	63747570 	cmnvs	r4, #112, 10	; 0x1c000000
 344:	0070665f 	rsbseq	r6, r0, pc, asr r6
 348:	73625f5f 	cmnvc	r2, #380	; 0x17c
 34c:	6e655f73 	mcrvs	15, 3, r5, cr5, cr3, {3}
 350:	005f5f64 	subseq	r5, pc, r4, ror #30
 354:	746e6975 	strbtvc	r6, [lr], #-2421	; 0xfffff68b
 358:	745f3233 	ldrbvc	r3, [pc], #-563	; 360 <__code_start__-0x7ca0>
 35c:	69707200 	ldmdbvs	r0!, {r9, ip, sp, lr}^
 360:	7465735f 	strbtvc	r7, [r5], #-863	; 0xfffffca1
 364:	74756f5f 	ldrbtvc	r6, [r5], #-3935	; 0xfffff0a1
 368:	00747570 	rsbseq	r7, r4, r0, ror r5
 36c:	5f746d66 	svcpl	0x00746d66
 370:	72617473 	rsbvc	r7, r1, #1929379840	; 0x73000000
 374:	74730074 	ldrbtvc	r0, [r3], #-116	; 0xffffff8c
 378:	74616372 	strbtvc	r6, [r1], #-882	; 0xfffffc8e
 37c:	72747300 	rsbsvc	r7, r4, #0, 6
 380:	00797063 	rsbseq	r7, r9, r3, rrx
 384:	5f67656e 	svcpl	0x0067656e
 388:	5f5f0070 	svcpl	0x005f0070
 38c:	65646f63 	strbvs	r6, [r4, #-3939]!	; 0xfffff09d
 390:	646e655f 	strbtvs	r6, [lr], #-1375	; 0xfffffaa1
 394:	65005f5f 	strvs	r5, [r0, #-3935]	; 0xfffff0a1
 398:	0074696d 	rsbseq	r6, r4, sp, ror #18
 39c:	73747570 	cmnvc	r4, #112, 10	; 0x1c000000
 3a0:	0070665f 	rsbseq	r6, r0, pc, asr r6
 3a4:	65766572 	ldrbvs	r6, [r6, #-1394]!	; 0xfffffa8e
 3a8:	00657372 	rsbeq	r7, r5, r2, ror r3
 3ac:	63727473 	cmnvs	r2, #1929379840	; 0x73000000
 3b0:	5f00706d 	svcpl	0x0000706d
 3b4:	7461645f 	strbtvc	r6, [r1], #-1119	; 0xfffffba1
 3b8:	74735f61 	ldrbtvc	r5, [r3], #-3937	; 0xfffff09f
 3bc:	5f747261 	svcpl	0x00747261
 3c0:	5f5f005f 	svcpl	0x005f005f
 3c4:	676f7270 			; <UNDEFINED> instruction: 0x676f7270
 3c8:	646e655f 	strbtvs	r6, [lr], #-1375	; 0xfffffaa1
 3cc:	6e005f5f 	mcrvs	15, 0, r5, cr0, cr15, {2}
 3d0:	00316d75 	eorseq	r6, r1, r5, ror sp
 3d4:	6e727473 	mrcvs	4, 3, r7, cr2, cr3, {3}
 3d8:	00706d63 	rsbseq	r6, r0, r3, ror #26
 3dc:	65736162 	ldrbvs	r6, [r3, #-354]!	; 0xfffffe9e
 3e0:	67697300 	strbvs	r7, [r9, -r0, lsl #6]!
 3e4:	5f64656e 	svcpl	0x0064656e
 3e8:	70720070 	rsbsvc	r0, r2, r0, ror r0
 3ec:	65725f69 	ldrbvs	r5, [r2, #-3945]!	; 0xfffff097
 3f0:	746f6f62 	strbtvc	r6, [pc], #-3938	; 3f8 <__code_start__-0x7c08>
 3f4:	6c656400 	cfstrdvs	mvd6, [r5], #-0
 3f8:	6d5f7961 	vldrvs.16	s15, [pc, #-194]	; 33e <__code_start__-0x7cc2>	; <UNPREDICTABLE>
 3fc:	2f2e0073 	svccs	0x002e0073
 400:	66617473 			; <UNDEFINED> instruction: 0x66617473
 404:	72732d66 	rsbsvc	r2, r3, #6528	; 0x1980
 408:	6c632f63 	stclvs	15, cr2, [r3], #-396	; 0xfffffe74
 40c:	2d6e6165 	stfcse	f6, [lr, #-404]!	; 0xfffffe6c
 410:	6f626572 	svcvs	0x00626572
 414:	632e746f 			; <UNDEFINED> instruction: 0x632e746f
 418:	72617500 	rsbvc	r7, r1, #0, 10
 41c:	6c665f74 	stclvs	15, cr5, [r6], #-464	; 0xfffffe30
 420:	5f687375 	svcpl	0x00687375
 424:	5f007874 	svcpl	0x00007874
 428:	61747363 	cmnvs	r4, r3, ror #6
 42c:	62007472 	andvs	r7, r0, #1912602624	; 0x72000000
 430:	655f7373 	ldrbvs	r7, [pc, #-883]	; c5 <__code_start__-0x7f3b>
 434:	2e00646e 	cdpcs	4, 0, cr6, cr0, cr14, {3}
 438:	6174732f 	cmnvs	r4, pc, lsr #6
 43c:	732d6666 			; <UNDEFINED> instruction: 0x732d6666
 440:	632f6372 			; <UNDEFINED> instruction: 0x632f6372
 444:	72617473 	rsbvc	r7, r1, #1929379840	; 0x73000000
 448:	00632e74 	rsbeq	r2, r3, r4, ror lr
 44c:	575f4d50 			; <UNDEFINED> instruction: 0x575f4d50
 450:	00474f44 	subeq	r4, r7, r4, asr #30
 454:	33545550 	cmpcc	r4, #80, 10	; 0x14000000
 458:	65730032 	ldrbvs	r0, [r3, #-50]!	; 0xffffffce
 45c:	73755f74 	cmnvc	r5, #116, 30	; 0x1d0
 460:	6c5f7265 	lfmvs	f7, 2, [pc], {101}	; 0x65
 464:	6c657665 	stclvs	6, cr7, [r5], #-404	; 0xfffffe6c
 468:	732f2e00 			; <UNDEFINED> instruction: 0x732f2e00
 46c:	66666174 			; <UNDEFINED> instruction: 0x66666174
 470:	6372732d 	cmnvs	r2, #-1275068416	; 0xb4000000
 474:	6265722f 	rsbvs	r7, r5, #-268435454	; 0xf0000002
 478:	2e746f6f 	cdpcs	15, 7, cr6, cr4, cr15, {3}
 47c:	4d500063 	ldclmi	0, cr0, [r0, #-396]	; 0xfffffe74
 480:	5341505f 	movtpl	r5, #4191	; 0x105f
 484:	524f5753 	subpl	r5, pc, #21757952	; 0x14c0000
 488:	74610044 	strbtvc	r0, [r1], #-68	; 0xffffffbc
 48c:	6573755f 	ldrbvs	r7, [r3, #-1375]!	; 0xfffffaa1
 490:	656c5f72 	strbvs	r5, [ip, #-3954]!	; 0xfffff08e
 494:	006c6576 	rsbeq	r6, ip, r6, ror r5
 498:	525f4d50 	subspl	r4, pc, #80, 26	; 0x1400
 49c:	5f435453 	svcpl	0x00435453
 4a0:	46435257 			; <UNDEFINED> instruction: 0x46435257
 4a4:	55465f47 	strbpl	r5, [r6, #-3911]	; 0xfffff0b9
 4a8:	525f4c4c 	subspl	r4, pc, #76, 24	; 0x4c00
 4ac:	54455345 	strbpl	r5, [r5], #-837	; 0xfffffcbb
 4b0:	5f4d5000 	svcpl	0x004d5000
 4b4:	43545352 	cmpmi	r4, #1207959553	; 0x48000001
 4b8:	73706300 	cmnvc	r0, #0, 6
 4bc:	65640072 	strbvs	r0, [r4, #-114]!	; 0xffffff8e
 4c0:	61625f76 	smcvs	9718	; 0x25f6
 4c4:	65697272 	strbvs	r7, [r9, #-626]!	; 0xfffffd8e
 4c8:	65640072 	strbvs	r0, [r4, #-114]!	; 0xffffff8e
 4cc:	5f79616c 	svcpl	0x0079616c
 4d0:	00636573 	rsbeq	r6, r3, r3, ror r5
 4d4:	74732f2e 	ldrbtvc	r2, [r3], #-3886	; 0xfffff0d2
 4d8:	2d666661 	stclcs	6, cr6, [r6, #-388]!	; 0xfffffe7c
 4dc:	2f637273 	svccs	0x00637273
 4e0:	656d6974 	strbvs	r6, [sp, #-2420]!	; 0xfffff68c
 4e4:	00632e72 	rsbeq	r2, r3, r2, ror lr
 4e8:	33544547 	cmpcc	r4, #297795584	; 0x11c00000
 4ec:	69740032 	ldmdbvs	r4!, {r1, r4, r5}^
 4f0:	5f72656d 	svcpl	0x0072656d
 4f4:	5f746567 	svcpl	0x00746567
 4f8:	63657375 	cmnvs	r5, #-738197503	; 0xd4000001
 4fc:	6c656400 	cfstrdvs	mvd6, [r5], #-0
 500:	755f7961 	ldrbvc	r7, [pc, #-2401]	; fffffba7 <__bss_end__+0xffff632f>
 504:	69740073 	ldmdbvs	r4!, {r0, r1, r4, r5, r6}^
 508:	5f72656d 	svcpl	0x0072656d
 50c:	5f746567 	svcpl	0x00746567
 510:	63657375 	cmnvs	r5, #-738197503	; 0xd4000001
 514:	7761725f 			; <UNDEFINED> instruction: 0x7761725f
 518:	61747300 	cmnvs	r4, r0, lsl #6
 51c:	61750074 	cmnvs	r5, r4, ror r0
 520:	635f7472 	cmpvs	pc, #1912602624	; 0x72000000
 524:	675f6e61 	ldrbvs	r6, [pc, -r1, ror #28]
 528:	00637465 	rsbeq	r7, r3, r5, ror #8
 52c:	4f495047 	svcmi	0x00495047
 530:	4e55465f 	mrcmi	6, 2, r4, cr5, cr15, {2}
 534:	554f5f43 	strbpl	r5, [pc, #-3907]	; fffff5f9 <__bss_end__+0xffff5d81>
 538:	54555054 	ldrbpl	r5, [r5], #-84	; 0xffffffac
 53c:	78756100 	ldmdavc	r5!, {r8, sp, lr}^
 540:	7265705f 	rsbvc	r7, r5, #95, 0	; 0x5f
 544:	73687069 	cmnvc	r8, #105, 0	; 0x69
 548:	72617500 	rsbvc	r7, r1, #0, 10
 54c:	00632e74 	rsbeq	r2, r3, r4, ror lr
 550:	74726175 	ldrbtvc	r6, [r2], #-373	; 0xfffffe8b
 554:	6e61635f 	mcrvs	3, 3, r6, cr1, cr15, {2}
 558:	7475705f 	ldrbtvc	r7, [r5], #-95	; 0xffffffa1
 55c:	682f0063 	stmdavs	pc!, {r0, r1, r5, r6}	; <UNPREDICTABLE>
 560:	2f656d6f 	svccs	0x00656d6f
 564:	6c676e65 	stclvs	14, cr6, [r7], #-404	; 0xfffffe6c
 568:	632f7265 			; <UNDEFINED> instruction: 0x632f7265
 56c:	7373616c 	cmnvc	r3, #27
 570:	3173632f 	cmncc	r3, pc, lsr #6
 574:	2d653034 	stclcs	0, cr3, [r5, #-208]!	; 0xffffff30
 578:	70733132 	rsbsvc	r3, r3, r2, lsr r1
 57c:	696c2f72 	stmdbvs	ip!, {r1, r4, r5, r6, r8, r9, sl, fp, sp}^
 580:	2f697062 	svccs	0x00697062
 584:	66617473 			; <UNDEFINED> instruction: 0x66617473
 588:	72702d66 	rsbsvc	r2, r0, #6528	; 0x1980
 58c:	74617669 	strbtvc	r7, [r1], #-1641	; 0xfffff997
 590:	61750065 	cmnvs	r5, r5, rrx
 594:	695f7472 	ldmdbvs	pc, {r1, r4, r5, r6, sl, ip, sp, lr}^	; <UNPREDICTABLE>
 598:	0074696e 	rsbseq	r6, r4, lr, ror #18
 59c:	4f495047 	svcmi	0x00495047
 5a0:	4e55465f 	mrcmi	6, 2, r4, cr5, cr15, {2}
 5a4:	4c415f43 	mcrrmi	15, 4, r5, r1, cr3
 5a8:	47003054 	smlsdmi	r0, r4, r0, r3
 5ac:	5f4f4950 	svcpl	0x004f4950
 5b0:	434e5546 	movtmi	r5, #58694	; 0xe546
 5b4:	544c415f 	strbpl	r4, [ip], #-351	; 0xfffffea1
 5b8:	50470031 	subpl	r0, r7, r1, lsr r0
 5bc:	465f4f49 	ldrbmi	r4, [pc], -r9, asr #30
 5c0:	5f434e55 	svcpl	0x00434e55
 5c4:	32544c41 	subscc	r4, r4, #16640	; 0x4100
 5c8:	49504700 	ldmdbmi	r0, {r8, r9, sl, lr}^
 5cc:	55465f4f 	strbpl	r5, [r6, #-3919]	; 0xfffff0b1
 5d0:	415f434e 	cmpmi	pc, lr, asr #6
 5d4:	0033544c 	eorseq	r5, r3, ip, asr #8
 5d8:	4f495047 	svcmi	0x00495047
 5dc:	4e55465f 	mrcmi	6, 2, r4, cr5, cr15, {2}
 5e0:	4c415f43 	mcrrmi	15, 4, r5, r1, cr3
 5e4:	70003554 	andvc	r3, r0, r4, asr r5
 5e8:	32337475 	eorscc	r7, r3, #1962934272	; 0x75000000
 5ec:	75616200 	strbvc	r6, [r1, #-512]!	; 0xfffffe00
 5f0:	75610064 	strbvc	r0, [r1, #-100]!	; 0xffffff9c
 5f4:	6e655f78 	mcrvs	15, 3, r5, cr5, cr8, {3}
 5f8:	656c6261 	strbvs	r6, [ip, #-609]!	; 0xfffffd9f
 5fc:	61750073 	cmnvs	r5, r3, ror r0
 600:	675f7472 			; <UNDEFINED> instruction: 0x675f7472
 604:	00637465 	rsbeq	r7, r3, r5, ror #8
 608:	74726175 	ldrbtvc	r6, [r2], #-373	; 0xfffffe8b
 60c:	5f78745f 	svcpl	0x0078745f
 610:	655f7369 	ldrbvs	r7, [pc, #-873]	; 2af <__code_start__-0x7d51>
 614:	7974706d 	ldmdbvc	r4!, {r0, r2, r3, r5, r6, ip, sp, lr}^
 618:	75616200 	strbvc	r6, [r1, #-512]!	; 0xfffffe00
 61c:	61765f64 	cmnvs	r6, r4, ror #30
 620:	6e63006c 	cdpvs	0, 6, cr0, cr3, cr12, {3}
 624:	75006c74 	strvc	r6, [r0, #-3188]	; 0xfffff38c
 628:	5f747261 	svcpl	0x00747261
 62c:	5f736168 	svcpl	0x00736168
 630:	61746164 	cmnvs	r4, r4, ror #2
 634:	49504700 	ldmdbmi	r0, {r8, r9, sl, lr}^
 638:	55465f4f 	strbpl	r5, [r6, #-3919]	; 0xfffff0b1
 63c:	415f434e 	cmpmi	pc, lr, asr #6
 640:	0034544c 	eorseq	r5, r4, ip, asr #8
 644:	695f726f 	ldmdbvs	pc, {r0, r1, r2, r3, r5, r6, r9, ip, sp, lr}^	; <UNPREDICTABLE>
 648:	0032336e 	eorseq	r3, r2, lr, ror #6
 64c:	61726373 	cmnvs	r2, r3, ror r3
 650:	00686374 	rsbeq	r6, r8, r4, ror r3
 654:	74726175 	ldrbtvc	r6, [r2], #-373	; 0xfffffe8b
 658:	49504700 	ldmdbmi	r0, {r8, r9, sl, lr}^
 65c:	55465f4f 	strbpl	r5, [r6, #-3919]	; 0xfffff0b1
 660:	495f434e 	ldmdbmi	pc, {r1, r2, r3, r6, r8, r9, lr}^	; <UNPREDICTABLE>
 664:	5455504e 	ldrbpl	r5, [r5], #-78	; 0xffffffb2
 668:	69706700 	ldmdbvs	r0!, {r8, r9, sl, sp, lr}^
 66c:	65735f6f 	ldrbvs	r5, [r3, #-3951]!	; 0xfffff091
 670:	75665f74 	strbvc	r5, [r6, #-3956]!	; 0xfffff08c
 674:	6974636e 	ldmdbvs	r4!, {r1, r2, r3, r5, r6, r8, r9, sp, lr}^
 678:	67006e6f 	strvs	r6, [r0, -pc, ror #28]
 67c:	32337465 	eorscc	r7, r3, #1694498816	; 0x65000000
 680:	69706700 	ldmdbvs	r0!, {r8, r9, sl, sp, lr}^
 684:	6c635f6f 	stclvs	15, cr5, [r3], #-444	; 0xfffffe44
 688:	67003072 	smlsdxvs	r0, r2, r0, r3
 68c:	5f6f6970 	svcpl	0x006f6970
 690:	30746573 	rsbscc	r6, r4, r3, ror r5
 694:	69706700 	ldmdbvs	r0!, {r8, r9, sl, sp, lr}^
 698:	72775f6f 	rsbsvc	r5, r7, #444	; 0x1bc
 69c:	00657469 	rsbeq	r7, r5, r9, ror #8
 6a0:	6f697067 	svcvs	0x00697067
 6a4:	6573665f 	ldrbvs	r6, [r3, #-1631]!	; 0xfffff9a1
 6a8:	6600306c 	strvs	r3, [r0], -ip, rrx
 6ac:	74737269 	ldrbtvc	r7, [r3], #-617	; 0xfffffd97
 6b0:	7469625f 	strbtvc	r6, [r9], #-607	; 0xfffffda1
 6b4:	636f6c5f 	cmnvs	pc, #24320	; 0x5f00
 6b8:	6f697461 	svcvs	0x00697461
 6bc:	6962006e 	stmdbvs	r2!, {r1, r2, r3, r5, r6}^
 6c0:	745f7374 	ldrbvc	r7, [pc], #-884	; 6c8 <__code_start__-0x7938>
 6c4:	72775f6f 	rsbsvc	r5, r7, #444	; 0x1bc
 6c8:	00657469 	rsbeq	r7, r5, r9, ror #8
 6cc:	6b73616d 	blvs	1cd8c88 <__bss_end__+0x1ccf410>
 6d0:	765f6465 	ldrbvc	r6, [pc], -r5, ror #8
 6d4:	65756c61 	ldrbvs	r6, [r5, #-3169]!	; 0xfffff39f
 6d8:	69706700 	ldmdbvs	r0!, {r8, r9, sl, sp, lr}^
 6dc:	65725f6f 	ldrbvs	r5, [r2, #-3951]!	; 0xfffff091
 6e0:	2e006461 	cdpcs	4, 0, cr6, cr0, cr1, {3}
 6e4:	6372732f 	cmnvs	r2, #-1140850688	; 0xbc000000
 6e8:	6970672f 	ldmdbvs	r0!, {r0, r1, r2, r3, r5, r8, r9, sl, sp, lr}^
 6ec:	00632e6f 	rsbeq	r2, r3, pc, ror #28
 6f0:	6f697067 	svcvs	0x00697067
 6f4:	7465735f 	strbtvc	r7, [r5], #-863	; 0xfffffca1
 6f8:	706e695f 	rsbvc	r6, lr, pc, asr r9
 6fc:	67007475 	smlsdxvs	r0, r5, r4, r7
 700:	5f6f6970 	svcpl	0x006f6970
 704:	5f746573 	svcpl	0x00746573
 708:	0066666f 	rsbeq	r6, r6, pc, ror #12
 70c:	6f697067 	svcvs	0x00697067
 710:	7465735f 	strbtvc	r7, [r5], #-863	; 0xfffffca1
 714:	74756f5f 	ldrbtvc	r6, [r5], #-3935	; 0xfffff0a1
 718:	00747570 	rsbseq	r7, r4, r0, ror r5
 71c:	6f697067 	svcvs	0x00697067
 720:	6e75665f 	mrcvs	6, 3, r6, cr5, cr15, {2}
 724:	00745f63 	rsbseq	r5, r4, r3, ror #30
 728:	73746962 	cmnvc	r4, #1605632	; 0x188000
 72c:	74696200 	strbtvc	r6, [r9], #-512	; 0xfffffe00
 730:	6b73616d 	blvs	1cd8cec <__bss_end__+0x1ccf474>
 734:	69706700 	ldmdbvs	r0!, {r8, r9, sl, sp, lr}^
 738:	65735f6f 	ldrbvs	r5, [r3, #-3951]!	; 0xfffff091
 73c:	6e6f5f74 	mcrvs	15, 3, r5, cr15, cr4, {3}
 740:	73656400 	cmnvc	r5, #0, 8
 744:	2f2e0074 	svccs	0x002e0074
 748:	6362696c 	cmnvs	r2, #108, 18	; 0x1b0000
 74c:	7274732f 	rsbsvc	r7, r4, #-1140850688	; 0xbc000000
 750:	2e746163 	rpwcssz	f6, f4, f3
 754:	2f2e0063 	svccs	0x002e0063
 758:	6362696c 	cmnvs	r2, #108, 18	; 0x1b0000
 75c:	7274732f 	rsbsvc	r7, r4, #-1140850688	; 0xbc000000
 760:	2e706d63 	cdpcs	13, 7, cr6, cr0, cr3, {3}
 764:	2f2e0063 	svccs	0x002e0063
 768:	6362696c 	cmnvs	r2, #108, 18	; 0x1b0000
 76c:	7274732f 	rsbsvc	r7, r4, #-1140850688	; 0xbc000000
 770:	2e797063 	cdpcs	0, 7, cr7, cr9, cr3, {3}
 774:	69730063 	ldmdbvs	r3!, {r0, r1, r5, r6}^
 778:	745f657a 	ldrbvc	r6, [pc], #-1402	; 780 <__code_start__-0x7880>
 77c:	6c2f2e00 	stcvs	14, cr2, [pc], #-0	; 784 <__code_start__-0x787c>
 780:	2f636269 	svccs	0x00636269
 784:	6e727473 	mrcvs	4, 3, r7, cr2, cr3, {3}
 788:	2e706d63 	cdpcs	13, 7, cr6, cr0, cr3, {3}
 78c:	Address 0x000000000000078c is out of bounds.


Disassembly of section .debug_frame:

00000000 <.debug_frame>:
   0:	0000000c 	andeq	r0, r0, ip
   4:	ffffffff 			; <UNDEFINED> instruction: 0xffffffff
   8:	7c020001 	stcvc	0, cr0, [r2], {1}
   c:	000d0c0e 	andeq	r0, sp, lr, lsl #24
  10:	00000018 	andeq	r0, r0, r8, lsl r0
  14:	00000000 	andeq	r0, r0, r0
  18:	00008020 	andeq	r8, r0, r0, lsr #32
  1c:	0000009c 	muleq	r0, ip, r0
  20:	84100e42 	ldrhi	r0, [r0], #-3650	; 0xfffff1be
  24:	86038504 	strhi	r8, [r3], -r4, lsl #10
  28:	00018e02 	andeq	r8, r1, r2, lsl #28
  2c:	0000000c 	andeq	r0, r0, ip
  30:	ffffffff 			; <UNDEFINED> instruction: 0xffffffff
  34:	7c020001 	stcvc	0, cr0, [r2], {1}
  38:	000d0c0e 	andeq	r0, sp, lr, lsl #24
  3c:	0000001c 	andeq	r0, r0, ip, lsl r0
  40:	0000002c 	andeq	r0, r0, ip, lsr #32
  44:	000080bc 	strheq	r8, [r0], -ip
  48:	000000d0 	ldrdeq	r0, [r0], -r0	; <UNPREDICTABLE>
  4c:	8e040e42 	cdphi	14, 0, cr0, cr4, cr2, {2}
  50:	100e4201 	andne	r4, lr, r1, lsl #4
  54:	040e0a5e 	streq	r0, [lr], #-2654	; 0xfffff5a2
  58:	00000b42 	andeq	r0, r0, r2, asr #22
  5c:	0000001c 	andeq	r0, r0, ip, lsl r0
  60:	0000002c 	andeq	r0, r0, ip, lsr #32
  64:	0000818c 	andeq	r8, r0, ip, lsl #3
  68:	0000010c 	andeq	r0, r0, ip, lsl #2
  6c:	8e040e42 	cdphi	14, 0, cr0, cr4, cr2, {2}
  70:	100e4201 	andne	r4, lr, r1, lsl #4
  74:	040e0a62 	streq	r0, [lr], #-2658	; 0xfffff59e
  78:	00000b42 	andeq	r0, r0, r2, asr #22
  7c:	00000014 	andeq	r0, r0, r4, lsl r0
  80:	0000002c 	andeq	r0, r0, ip, lsr #32
  84:	00008298 	muleq	r0, r8, r2
  88:	0000004c 	andeq	r0, r0, ip, asr #32
  8c:	84080e4a 	strhi	r0, [r8], #-3658	; 0xfffff1b6
  90:	00018e02 	andeq	r8, r1, r2, lsl #28
  94:	0000001c 	andeq	r0, r0, ip, lsl r0
  98:	0000002c 	andeq	r0, r0, ip, lsr #32
  9c:	000082e4 	andeq	r8, r0, r4, ror #5
  a0:	00000084 	andeq	r0, r0, r4, lsl #1
  a4:	8e040e42 	cdphi	14, 0, cr0, cr4, cr2, {2}
  a8:	100e4201 	andne	r4, lr, r1, lsl #4
  ac:	040e0a5c 	streq	r0, [lr], #-2652	; 0xfffff5a4
  b0:	00000b42 	andeq	r0, r0, r2, asr #22
  b4:	00000014 	andeq	r0, r0, r4, lsl r0
  b8:	0000002c 	andeq	r0, r0, ip, lsr #32
  bc:	00008368 	andeq	r8, r0, r8, ror #6
  c0:	00000028 	andeq	r0, r0, r8, lsr #32
  c4:	84080e42 	strhi	r0, [r8], #-3650	; 0xfffff1be
  c8:	00018e02 	andeq	r8, r1, r2, lsl #28
  cc:	00000014 	andeq	r0, r0, r4, lsl r0
  d0:	0000002c 	andeq	r0, r0, ip, lsr #32
  d4:	00008390 	muleq	r0, r0, r3
  d8:	00000028 	andeq	r0, r0, r8, lsr #32
  dc:	84080e42 	strhi	r0, [r8], #-3650	; 0xfffff1be
  e0:	00018e02 	andeq	r8, r1, r2, lsl #28
  e4:	0000000c 	andeq	r0, r0, ip
  e8:	ffffffff 			; <UNDEFINED> instruction: 0xffffffff
  ec:	7c020001 	stcvc	0, cr0, [r2], {1}
  f0:	000d0c0e 	andeq	r0, sp, lr, lsl #24
  f4:	00000034 	andeq	r0, r0, r4, lsr r0
  f8:	000000e4 	andeq	r0, r0, r4, ror #1
  fc:	000083b8 			; <UNDEFINED> instruction: 0x000083b8
 100:	00000058 	andeq	r0, r0, r8, asr r0
 104:	80100e42 	andshi	r0, r0, r2, asr #28
 108:	82038104 	andhi	r8, r3, #1
 10c:	42018302 	andmi	r8, r1, #134217728	; 0x8000000
 110:	07841c0e 	streq	r1, [r4, lr, lsl #24]
 114:	058e0685 	streq	r0, [lr, #1669]	; 0x685
 118:	5c280e42 	stcpl	14, cr0, [r8], #-264	; 0xfffffef8
 11c:	ce421c0e 	cdpgt	12, 4, cr1, cr2, cr14, {0}
 120:	100ec4c5 	andne	ip, lr, r5, asr #9
 124:	c1c2c342 	bicgt	ip, r2, r2, asr #6
 128:	00000ec0 	andeq	r0, r0, r0, asr #29
 12c:	0000000c 	andeq	r0, r0, ip
 130:	ffffffff 			; <UNDEFINED> instruction: 0xffffffff
 134:	7c020001 	stcvc	0, cr0, [r2], {1}
 138:	000d0c0e 	andeq	r0, sp, lr, lsl #24
 13c:	00000014 	andeq	r0, r0, r4, lsl r0
 140:	0000012c 	andeq	r0, r0, ip, lsr #2
 144:	00008410 	andeq	r8, r0, r0, lsl r4
 148:	00000014 	andeq	r0, r0, r4, lsl r0
 14c:	84080e42 	strhi	r0, [r8], #-3650	; 0xfffff1be
 150:	00018e02 	andeq	r8, r1, r2, lsl #28
 154:	0000000c 	andeq	r0, r0, ip
 158:	0000012c 	andeq	r0, r0, ip, lsr #2
 15c:	00008424 	andeq	r8, r0, r4, lsr #8
 160:	00000018 	andeq	r0, r0, r8, lsl r0
 164:	0000000c 	andeq	r0, r0, ip
 168:	0000012c 	andeq	r0, r0, ip, lsr #2
 16c:	0000843c 	andeq	r8, r0, ip, lsr r4
 170:	00000010 	andeq	r0, r0, r0, lsl r0
 174:	0000000c 	andeq	r0, r0, ip
 178:	ffffffff 			; <UNDEFINED> instruction: 0xffffffff
 17c:	7c020001 	stcvc	0, cr0, [r2], {1}
 180:	000d0c0e 	andeq	r0, sp, lr, lsl #24
 184:	00000014 	andeq	r0, r0, r4, lsl r0
 188:	00000174 	andeq	r0, r0, r4, ror r1
 18c:	0000844c 	andeq	r8, r0, ip, asr #8
 190:	00000034 	andeq	r0, r0, r4, lsr r0
 194:	84080e42 	strhi	r0, [r8], #-3650	; 0xfffff1be
 198:	00018e02 	andeq	r8, r1, r2, lsl #28
 19c:	0000000c 	andeq	r0, r0, ip
 1a0:	ffffffff 			; <UNDEFINED> instruction: 0xffffffff
 1a4:	7c020001 	stcvc	0, cr0, [r2], {1}
 1a8:	000d0c0e 	andeq	r0, sp, lr, lsl #24
 1ac:	0000000c 	andeq	r0, r0, ip
 1b0:	0000019c 	muleq	r0, ip, r1
 1b4:	00008480 	andeq	r8, r0, r0, lsl #9
 1b8:	00000014 	andeq	r0, r0, r4, lsl r0
 1bc:	0000000c 	andeq	r0, r0, ip
 1c0:	0000019c 	muleq	r0, ip, r1
 1c4:	00008494 	muleq	r0, r4, r4
 1c8:	00000024 	andeq	r0, r0, r4, lsr #32
 1cc:	0000000c 	andeq	r0, r0, ip
 1d0:	0000019c 	muleq	r0, ip, r1
 1d4:	000084b8 			; <UNDEFINED> instruction: 0x000084b8
 1d8:	00000038 	andeq	r0, r0, r8, lsr r0
 1dc:	00000024 	andeq	r0, r0, r4, lsr #32
 1e0:	0000019c 	muleq	r0, ip, r1
 1e4:	000084f0 	strdeq	r8, [r0], -r0
 1e8:	000001b4 			; <UNDEFINED> instruction: 0x000001b4
 1ec:	84140e42 	ldrhi	r0, [r4], #-3650	; 0xfffff1be
 1f0:	86048505 	strhi	r8, [r4], -r5, lsl #10
 1f4:	8e028703 	cdphi	7, 0, cr8, cr2, cr3, {0}
 1f8:	600e4201 	andvs	r4, lr, r1, lsl #4
 1fc:	0e0a9a02 	vmlaeq.f32	s18, s20, s4
 200:	000b4214 	andeq	r4, fp, r4, lsl r2
 204:	00000014 	andeq	r0, r0, r4, lsl r0
 208:	0000019c 	muleq	r0, ip, r1
 20c:	000086a4 	andeq	r8, r0, r4, lsr #13
 210:	00000064 	andeq	r0, r0, r4, rrx
 214:	8e040e54 	mcrhi	14, 0, r0, cr4, cr4, {2}
 218:	100e4201 	andne	r4, lr, r1, lsl #4
 21c:	0000002c 	andeq	r0, r0, ip, lsr #32
 220:	0000019c 	muleq	r0, ip, r1
 224:	00008708 	andeq	r8, r0, r8, lsl #14
 228:	00000498 	muleq	r0, r8, r4
 22c:	84240e42 	strthi	r0, [r4], #-3650	; 0xfffff1be
 230:	86088509 	strhi	r8, [r8], -r9, lsl #10
 234:	88068707 	stmdahi	r6, {r0, r1, r2, r8, r9, sl, pc}
 238:	8a048905 	bhi	122654 <__bss_end__+0x118ddc>
 23c:	8e028b03 	vmlahi.f64	d8, d2, d3
 240:	b80e4201 	stmdalt	lr, {r0, r9, lr}
 244:	022c0302 	eoreq	r0, ip, #134217728	; 0x8000000
 248:	0000240e 	andeq	r2, r0, lr, lsl #8
 24c:	0000000c 	andeq	r0, r0, ip
 250:	ffffffff 			; <UNDEFINED> instruction: 0xffffffff
 254:	7c020001 	stcvc	0, cr0, [r2], {1}
 258:	000d0c0e 	andeq	r0, sp, lr, lsl #24
 25c:	00000014 	andeq	r0, r0, r4, lsl r0
 260:	0000024c 	andeq	r0, r0, ip, asr #4
 264:	00008ba0 	andeq	r8, r0, r0, lsr #23
 268:	0000002c 	andeq	r0, r0, ip, lsr #32
 26c:	84080e42 	strhi	r0, [r8], #-3650	; 0xfffff1be
 270:	00018e02 	andeq	r8, r1, r2, lsl #28
 274:	0000000c 	andeq	r0, r0, ip
 278:	ffffffff 			; <UNDEFINED> instruction: 0xffffffff
 27c:	7c020001 	stcvc	0, cr0, [r2], {1}
 280:	000d0c0e 	andeq	r0, sp, lr, lsl #24
 284:	00000014 	andeq	r0, r0, r4, lsl r0
 288:	00000274 	andeq	r0, r0, r4, ror r2
 28c:	00008bcc 	andeq	r8, r0, ip, asr #23
 290:	0000002c 	andeq	r0, r0, ip, lsr #32
 294:	84080e42 	strhi	r0, [r8], #-3650	; 0xfffff1be
 298:	00018e02 	andeq	r8, r1, r2, lsl #28
 29c:	0000000c 	andeq	r0, r0, ip
 2a0:	ffffffff 			; <UNDEFINED> instruction: 0xffffffff
 2a4:	7c020001 	stcvc	0, cr0, [r2], {1}
 2a8:	000d0c0e 	andeq	r0, sp, lr, lsl #24
 2ac:	0000000c 	andeq	r0, r0, ip
 2b0:	0000029c 	muleq	r0, ip, r2
 2b4:	00008bf8 	strdeq	r8, [r0], -r8	; <UNPREDICTABLE>
 2b8:	00000018 	andeq	r0, r0, r8, lsl r0
 2bc:	0000000c 	andeq	r0, r0, ip
 2c0:	0000029c 	muleq	r0, ip, r2
 2c4:	00008c10 	andeq	r8, r0, r0, lsl ip
 2c8:	00000014 	andeq	r0, r0, r4, lsl r0
 2cc:	00000014 	andeq	r0, r0, r4, lsl r0
 2d0:	0000029c 	muleq	r0, ip, r2
 2d4:	00008c24 	andeq	r8, r0, r4, lsr #24
 2d8:	00000050 	andeq	r0, r0, r0, asr r0
 2dc:	84080e42 	strhi	r0, [r8], #-3650	; 0xfffff1be
 2e0:	00018e02 	andeq	r8, r1, r2, lsl #28
 2e4:	0000000c 	andeq	r0, r0, ip
 2e8:	ffffffff 			; <UNDEFINED> instruction: 0xffffffff
 2ec:	7c020001 	stcvc	0, cr0, [r2], {1}
 2f0:	000d0c0e 	andeq	r0, sp, lr, lsl #24
 2f4:	00000014 	andeq	r0, r0, r4, lsl r0
 2f8:	000002e4 	andeq	r0, r0, r4, ror #5
 2fc:	00008c74 	andeq	r8, r0, r4, ror ip
 300:	00000014 	andeq	r0, r0, r4, lsl r0
 304:	84080e42 	strhi	r0, [r8], #-3650	; 0xfffff1be
 308:	00018e02 	andeq	r8, r1, r2, lsl #28
 30c:	00000014 	andeq	r0, r0, r4, lsl r0
 310:	000002e4 	andeq	r0, r0, r4, ror #5
 314:	00008c88 	andeq	r8, r0, r8, lsl #25
 318:	0000001c 	andeq	r0, r0, ip, lsl r0
 31c:	84080e42 	strhi	r0, [r8], #-3650	; 0xfffff1be
 320:	00018e02 	andeq	r8, r1, r2, lsl #28
 324:	00000018 	andeq	r0, r0, r8, lsl r0
 328:	000002e4 	andeq	r0, r0, r4, ror #5
 32c:	00008ca4 	andeq	r8, r0, r4, lsr #25
 330:	00000024 	andeq	r0, r0, r4, lsr #32
 334:	84100e42 	ldrhi	r0, [r0], #-3650	; 0xfffff1be
 338:	86038504 	strhi	r8, [r3], -r4, lsl #10
 33c:	00018e02 	andeq	r8, r1, r2, lsl #28
 340:	00000014 	andeq	r0, r0, r4, lsl r0
 344:	000002e4 	andeq	r0, r0, r4, ror #5
 348:	00008cc8 	andeq	r8, r0, r8, asr #25
 34c:	00000018 	andeq	r0, r0, r8, lsl r0
 350:	84080e42 	strhi	r0, [r8], #-3650	; 0xfffff1be
 354:	00018e02 	andeq	r8, r1, r2, lsl #28
 358:	00000014 	andeq	r0, r0, r4, lsl r0
 35c:	000002e4 	andeq	r0, r0, r4, ror #5
 360:	00008ce0 	andeq	r8, r0, r0, ror #25
 364:	00000018 	andeq	r0, r0, r8, lsl r0
 368:	84080e42 	strhi	r0, [r8], #-3650	; 0xfffff1be
 36c:	00018e02 	andeq	r8, r1, r2, lsl #28
 370:	0000000c 	andeq	r0, r0, ip
 374:	ffffffff 			; <UNDEFINED> instruction: 0xffffffff
 378:	7c020001 	stcvc	0, cr0, [r2], {1}
 37c:	000d0c0e 	andeq	r0, sp, lr, lsl #24
 380:	00000018 	andeq	r0, r0, r8, lsl r0
 384:	00000370 	andeq	r0, r0, r0, ror r3
 388:	00008cf8 	strdeq	r8, [r0], -r8	; <UNPREDICTABLE>
 38c:	00000020 	andeq	r0, r0, r0, lsr #32
 390:	84100e42 	ldrhi	r0, [r0], #-3650	; 0xfffff1be
 394:	86038504 	strhi	r8, [r3], -r4, lsl #10
 398:	00018e02 	andeq	r8, r1, r2, lsl #28
 39c:	00000014 	andeq	r0, r0, r4, lsl r0
 3a0:	00000370 	andeq	r0, r0, r0, ror r3
 3a4:	00008d18 	andeq	r8, r0, r8, lsl sp
 3a8:	000000b0 	strheq	r0, [r0], -r0	; <UNPREDICTABLE>
 3ac:	84080e42 	strhi	r0, [r8], #-3650	; 0xfffff1be
 3b0:	00018e02 	andeq	r8, r1, r2, lsl #28
 3b4:	00000014 	andeq	r0, r0, r4, lsl r0
 3b8:	00000370 	andeq	r0, r0, r0, ror r3
 3bc:	00008dc8 	andeq	r8, r0, r8, asr #27
 3c0:	00000018 	andeq	r0, r0, r8, lsl r0
 3c4:	84080e42 	strhi	r0, [r8], #-3650	; 0xfffff1be
 3c8:	00018e02 	andeq	r8, r1, r2, lsl #28
 3cc:	00000014 	andeq	r0, r0, r4, lsl r0
 3d0:	00000370 	andeq	r0, r0, r0, ror r3
 3d4:	00008de0 	andeq	r8, r0, r0, ror #27
 3d8:	00000020 	andeq	r0, r0, r0, lsr #32
 3dc:	84080e42 	strhi	r0, [r8], #-3650	; 0xfffff1be
 3e0:	00018e02 	andeq	r8, r1, r2, lsl #28
 3e4:	00000014 	andeq	r0, r0, r4, lsl r0
 3e8:	00000370 	andeq	r0, r0, r0, ror r3
 3ec:	00008e00 	andeq	r8, r0, r0, lsl #28
 3f0:	00000030 	andeq	r0, r0, r0, lsr r0
 3f4:	84080e42 	strhi	r0, [r8], #-3650	; 0xfffff1be
 3f8:	00018e02 	andeq	r8, r1, r2, lsl #28
 3fc:	00000014 	andeq	r0, r0, r4, lsl r0
 400:	00000370 	andeq	r0, r0, r0, ror r3
 404:	00008e30 	andeq	r8, r0, r0, lsr lr
 408:	00000030 	andeq	r0, r0, r0, lsr r0
 40c:	84080e42 	strhi	r0, [r8], #-3650	; 0xfffff1be
 410:	00018e02 	andeq	r8, r1, r2, lsl #28
 414:	00000014 	andeq	r0, r0, r4, lsl r0
 418:	00000370 	andeq	r0, r0, r0, ror r3
 41c:	00008e60 	andeq	r8, r0, r0, ror #28
 420:	00000010 	andeq	r0, r0, r0, lsl r0
 424:	84080e42 	strhi	r0, [r8], #-3650	; 0xfffff1be
 428:	00018e02 	andeq	r8, r1, r2, lsl #28
 42c:	00000014 	andeq	r0, r0, r4, lsl r0
 430:	00000370 	andeq	r0, r0, r0, ror r3
 434:	00008e70 	andeq	r8, r0, r0, ror lr
 438:	00000020 	andeq	r0, r0, r0, lsr #32
 43c:	84080e42 	strhi	r0, [r8], #-3650	; 0xfffff1be
 440:	00018e02 	andeq	r8, r1, r2, lsl #28
 444:	00000014 	andeq	r0, r0, r4, lsl r0
 448:	00000370 	andeq	r0, r0, r0, ror r3
 44c:	00008e90 	muleq	r0, r0, lr
 450:	00000014 	andeq	r0, r0, r4, lsl r0
 454:	84080e42 	strhi	r0, [r8], #-3650	; 0xfffff1be
 458:	00018e02 	andeq	r8, r1, r2, lsl #28
 45c:	0000000c 	andeq	r0, r0, ip
 460:	ffffffff 			; <UNDEFINED> instruction: 0xffffffff
 464:	7c020001 	stcvc	0, cr0, [r2], {1}
 468:	000d0c0e 	andeq	r0, sp, lr, lsl #24
 46c:	0000001c 	andeq	r0, r0, ip, lsl r0
 470:	0000045c 	andeq	r0, r0, ip, asr r4
 474:	00008ea4 	andeq	r8, r0, r4, lsr #29
 478:	0000005c 	andeq	r0, r0, ip, asr r0
 47c:	84180e46 	ldrhi	r0, [r8], #-3654	; 0xfffff1ba
 480:	86058506 	strhi	r8, [r5], -r6, lsl #10
 484:	88038704 	stmdahi	r3, {r2, r8, r9, sl, pc}
 488:	00018e02 	andeq	r8, r1, r2, lsl #28
 48c:	00000014 	andeq	r0, r0, r4, lsl r0
 490:	0000045c 	andeq	r0, r0, ip, asr r4
 494:	00008f00 	andeq	r8, r0, r0, lsl #30
 498:	00000024 	andeq	r0, r0, r4, lsr #32
 49c:	84080e46 	strhi	r0, [r8], #-3654	; 0xfffff1ba
 4a0:	00018e02 	andeq	r8, r1, r2, lsl #28
 4a4:	00000014 	andeq	r0, r0, r4, lsl r0
 4a8:	0000045c 	andeq	r0, r0, ip, asr r4
 4ac:	00008f24 	andeq	r8, r0, r4, lsr #30
 4b0:	00000024 	andeq	r0, r0, r4, lsr #32
 4b4:	84080e46 	strhi	r0, [r8], #-3654	; 0xfffff1ba
 4b8:	00018e02 	andeq	r8, r1, r2, lsl #28
 4bc:	00000014 	andeq	r0, r0, r4, lsl r0
 4c0:	0000045c 	andeq	r0, r0, ip, asr r4
 4c4:	00008f48 	andeq	r8, r0, r8, asr #30
 4c8:	0000001c 	andeq	r0, r0, ip, lsl r0
 4cc:	84080e42 	strhi	r0, [r8], #-3650	; 0xfffff1be
 4d0:	00018e02 	andeq	r8, r1, r2, lsl #28
 4d4:	0000001c 	andeq	r0, r0, ip, lsl r0
 4d8:	0000045c 	andeq	r0, r0, ip, asr r4
 4dc:	00008f64 	andeq	r8, r0, r4, ror #30
 4e0:	00000054 	andeq	r0, r0, r4, asr r0
 4e4:	84180e46 	ldrhi	r0, [r8], #-3654	; 0xfffff1ba
 4e8:	86058506 	strhi	r8, [r5], -r6, lsl #10
 4ec:	88038704 	stmdahi	r3, {r2, r8, r9, sl, pc}
 4f0:	00018e02 	andeq	r8, r1, r2, lsl #28
 4f4:	00000014 	andeq	r0, r0, r4, lsl r0
 4f8:	0000045c 	andeq	r0, r0, ip, asr r4
 4fc:	00008fb8 			; <UNDEFINED> instruction: 0x00008fb8
 500:	00000038 	andeq	r0, r0, r8, lsr r0
 504:	84080e4a 	strhi	r0, [r8], #-3658	; 0xfffff1b6
 508:	00018e02 	andeq	r8, r1, r2, lsl #28
 50c:	0000001c 	andeq	r0, r0, ip, lsl r0
 510:	0000045c 	andeq	r0, r0, ip, asr r4
 514:	00008ff0 	strdeq	r8, [r0], -r0
 518:	00000060 	andeq	r0, r0, r0, rrx
 51c:	84180e48 	ldrhi	r0, [r8], #-3656	; 0xfffff1b8
 520:	86058506 	strhi	r8, [r5], -r6, lsl #10
 524:	88038704 	stmdahi	r3, {r2, r8, r9, sl, pc}
 528:	00018e02 	andeq	r8, r1, r2, lsl #28
 52c:	0000000c 	andeq	r0, r0, ip
 530:	ffffffff 			; <UNDEFINED> instruction: 0xffffffff
 534:	7c020001 	stcvc	0, cr0, [r2], {1}
 538:	000d0c0e 	andeq	r0, sp, lr, lsl #24
 53c:	0000000c 	andeq	r0, r0, ip
 540:	0000052c 	andeq	r0, r0, ip, lsr #10
 544:	00009050 	andeq	r9, r0, r0, asr r0
 548:	00000034 	andeq	r0, r0, r4, lsr r0
 54c:	0000000c 	andeq	r0, r0, ip
 550:	ffffffff 			; <UNDEFINED> instruction: 0xffffffff
 554:	7c020001 	stcvc	0, cr0, [r2], {1}
 558:	000d0c0e 	andeq	r0, sp, lr, lsl #24
 55c:	0000000c 	andeq	r0, r0, ip
 560:	0000054c 	andeq	r0, r0, ip, asr #10
 564:	00009084 	andeq	r9, r0, r4, lsl #1
 568:	0000002c 	andeq	r0, r0, ip, lsr #32
 56c:	0000000c 	andeq	r0, r0, ip
 570:	ffffffff 			; <UNDEFINED> instruction: 0xffffffff
 574:	7c020001 	stcvc	0, cr0, [r2], {1}
 578:	000d0c0e 	andeq	r0, sp, lr, lsl #24
 57c:	0000000c 	andeq	r0, r0, ip
 580:	0000056c 	andeq	r0, r0, ip, ror #10
 584:	000090b0 	strheq	r9, [r0], -r0
 588:	00000020 	andeq	r0, r0, r0, lsr #32
 58c:	0000000c 	andeq	r0, r0, ip
 590:	ffffffff 			; <UNDEFINED> instruction: 0xffffffff
 594:	7c020001 	stcvc	0, cr0, [r2], {1}
 598:	000d0c0e 	andeq	r0, sp, lr, lsl #24
 59c:	0000000c 	andeq	r0, r0, ip
 5a0:	0000058c 	andeq	r0, r0, ip, lsl #11
 5a4:	000090d0 	ldrdeq	r9, [r0], -r0
 5a8:	0000002c 	andeq	r0, r0, ip, lsr #32

Disassembly of section .debug_loc:

00000000 <.debug_loc>:
	...
       8:	02280000 	eoreq	r0, r8, #0, 0
       c:	02500000 	subseq	r0, r0, #0, 0
      10:	00010000 	andeq	r0, r1, r0
      14:	00025050 	andeq	r5, r2, r0, asr r0
      18:	00026000 	andeq	r6, r2, r0
      1c:	70000300 	andvc	r0, r0, r0, lsl #6
      20:	02609f7d 	rsbeq	r9, r0, #500	; 0x1f4
      24:	026c0000 	rsbeq	r0, ip, #0, 0
      28:	00040000 	andeq	r0, r4, r0
      2c:	9f5001f3 	svcls	0x005001f3
      30:	0000026c 	andeq	r0, r0, ip, ror #4
      34:	0000026f 	andeq	r0, r0, pc, ror #4
      38:	6f500001 	svcvs	0x00500001
      3c:	ac000002 	stcge	0, cr0, [r0], {2}
      40:	04000002 	streq	r0, [r0], #-2
      44:	5001f300 	andpl	pc, r1, r0, lsl #6
      48:	0000009f 	muleq	r0, pc, r0	; <UNPREDICTABLE>
      4c:	00000000 	andeq	r0, r0, r0
      50:	4c000100 	stfmis	f0, [r0], {-0}
      54:	54000002 	strpl	r0, [r0], #-2
      58:	02000002 	andeq	r0, r0, #2, 0
      5c:	009f3400 	addseq	r3, pc, r0, lsl #8
      60:	00000000 	andeq	r0, r0, r0
      64:	01000000 	mrseq	r0, (UNDEF: 0)
      68:	4c000000 	stcmi	0, cr0, [r0], {-0}
      6c:	50000002 	andpl	r0, r0, r2
      70:	01000002 	tsteq	r0, r2
      74:	02505000 	subseq	r5, r0, #0, 0
      78:	02540000 	subseq	r0, r4, #0, 0
      7c:	00030000 	andeq	r0, r3, r0
      80:	009f7d70 	addseq	r7, pc, r0, ror sp	; <UNPREDICTABLE>
      84:	00000000 	andeq	r0, r0, r0
      88:	01000000 	mrseq	r0, (UNDEF: 0)
      8c:	0001fc00 	andeq	pc, r1, r0, lsl #24
      90:	00020400 	andeq	r0, r2, r0, lsl #8
      94:	34000200 	strcc	r0, [r0], #-512	; 0xfffffe00
      98:	0000009f 	muleq	r0, pc, r0	; <UNPREDICTABLE>
	...
      b4:	0000d000 	andeq	sp, r0, r0
      b8:	00010c00 	andeq	r0, r1, r0, lsl #24
      bc:	50000100 	andpl	r0, r0, r0, lsl #2
      c0:	0000010c 	andeq	r0, r0, ip, lsl #2
      c4:	00000120 	andeq	r0, r0, r0, lsr #2
      c8:	01f30004 	mvnseq	r0, r4
      cc:	01209f50 			; <UNDEFINED> instruction: 0x01209f50
      d0:	01380000 	teqeq	r8, r0
      d4:	00010000 	andeq	r0, r1, r0
      d8:	00013850 	andeq	r3, r1, r0, asr r8
      dc:	00014000 	andeq	r4, r1, r0
      e0:	f3000400 	vshl.u8	d0, d0, d0
      e4:	409f5001 	addsmi	r5, pc, r1
      e8:	43000001 	movwmi	r0, #1
      ec:	01000001 	tsteq	r0, r1
      f0:	01435000 	mrseq	r5, (UNDEF: 67)
      f4:	01640000 	cmneq	r4, r0
      f8:	00040000 	andeq	r0, r4, r0
      fc:	9f5001f3 	svcls	0x005001f3
     100:	00000164 	andeq	r0, r0, r4, ror #2
     104:	00000167 	andeq	r0, r0, r7, ror #2
     108:	67500001 	ldrbvs	r0, [r0, -r1]
     10c:	88000001 	stmdahi	r0, {r0}
     110:	04000001 	streq	r0, [r0], #-1
     114:	5001f300 	andpl	pc, r1, r0, lsl #6
     118:	0001889f 	muleq	r1, pc, r8	; <UNPREDICTABLE>
     11c:	00018b00 	andeq	r8, r1, r0, lsl #22
     120:	50000100 	andpl	r0, r0, r0, lsl #2
     124:	0000018b 	andeq	r0, r0, fp, lsl #3
     128:	000001dc 	ldrdeq	r0, [r0], -ip
     12c:	01f30004 	mvnseq	r0, r4
     130:	00009f50 	andeq	r9, r0, r0, asr pc
	...
     150:	000000d0 	ldrdeq	r0, [r0], -r0	; <UNPREDICTABLE>
     154:	00000110 	andeq	r0, r0, r0, lsl r1
     158:	10510001 	subsne	r0, r1, r1
     15c:	18000001 	stmdane	r0, {r0}
     160:	03000001 	movweq	r0, #1
     164:	9f017100 	svcls	0x00017100
     168:	00000118 	andeq	r0, r0, r8, lsl r1
     16c:	00000120 	andeq	r0, r0, r0, lsr #2
     170:	01f30004 	mvnseq	r0, r4
     174:	01209f51 			; <UNDEFINED> instruction: 0x01209f51
     178:	01340000 	teqeq	r4, r0
     17c:	00010000 	andeq	r0, r1, r0
     180:	00013451 	andeq	r3, r1, r1, asr r4
     184:	00014000 	andeq	r4, r1, r0
     188:	f3000400 	vshl.u8	d0, d0, d0
     18c:	409f5101 	addsmi	r5, pc, r1, lsl #2
     190:	43000001 	movwmi	r0, #1
     194:	01000001 	tsteq	r0, r1
     198:	01435100 	mrseq	r5, (UNDEF: 83)
     19c:	01640000 	cmneq	r4, r0
     1a0:	00040000 	andeq	r0, r4, r0
     1a4:	9f5101f3 	svcls	0x005101f3
     1a8:	00000164 	andeq	r0, r0, r4, ror #2
     1ac:	00000167 	andeq	r0, r0, r7, ror #2
     1b0:	67510001 	ldrbvs	r0, [r1, -r1]
     1b4:	88000001 	stmdahi	r0, {r0}
     1b8:	04000001 	streq	r0, [r0], #-1
     1bc:	5101f300 	mrspl	pc, SP_irq	; <UNPREDICTABLE>
     1c0:	0001889f 	muleq	r1, pc, r8	; <UNPREDICTABLE>
     1c4:	00018b00 	andeq	r8, r1, r0, lsl #22
     1c8:	51000100 	mrspl	r0, (UNDEF: 16)
     1cc:	0000018b 	andeq	r0, r0, fp, lsl #3
     1d0:	000001dc 	ldrdeq	r0, [r0], -ip
     1d4:	01f30004 	mvnseq	r0, r4
     1d8:	00009f51 	andeq	r9, r0, r1, asr pc
     1dc:	00000000 	andeq	r0, r0, r0
     1e0:	00030000 	andeq	r0, r3, r0
     1e4:	000000f0 	strdeq	r0, [r0], -r0	; <UNPREDICTABLE>
     1e8:	000000f4 	strdeq	r0, [r0], -r4
     1ec:	00510001 	subseq	r0, r1, r1
	...
     1f8:	00010c00 	andeq	r0, r1, r0, lsl #24
     1fc:	00011000 	andeq	r1, r1, r0
     200:	51000100 	mrspl	r0, (UNDEF: 16)
	...
     20c:	010c0000 	mrseq	r0, (UNDEF: 12)
     210:	01100000 	tsteq	r0, r0
     214:	00010000 	andeq	r0, r1, r0
     218:	00000050 	andeq	r0, r0, r0, asr r0
	...
     234:	24000000 	strcs	r0, [r0], #-0
     238:	01000000 	mrseq	r0, (UNDEF: 0)
     23c:	00245000 	eoreq	r5, r4, r0
     240:	00280000 	eoreq	r0, r8, r0
     244:	00030000 	andeq	r0, r3, r0
     248:	289f7d70 	ldmcs	pc, {r4, r5, r6, r8, sl, fp, ip, sp, lr}	; <UNPREDICTABLE>
     24c:	34000000 	strcc	r0, [r0], #-0
     250:	01000000 	mrseq	r0, (UNDEF: 0)
     254:	00345300 	eorseq	r5, r4, r0, lsl #6
     258:	00480000 	subeq	r0, r8, r0
     25c:	00090000 	andeq	r0, r9, r0
     260:	235001f3 	cmpcs	r0, #-1073741764	; 0xc000003c
     264:	1afc0903 	bne	fff02678 <__bss_end__+0xffef8e00>
     268:	0000489f 	muleq	r0, pc, r8	; <UNPREDICTABLE>
     26c:	00006000 	andeq	r6, r0, r0
     270:	50000100 	andpl	r0, r0, r0, lsl #2
     274:	00000060 	andeq	r0, r0, r0, rrx
     278:	00000068 	andeq	r0, r0, r8, rrx
     27c:	01f30004 	mvnseq	r0, r4
     280:	00689f50 	rsbeq	r9, r8, r0, asr pc
     284:	006b0000 	rsbeq	r0, fp, r0
     288:	00010000 	andeq	r0, r1, r0
     28c:	00006b50 	andeq	r6, r0, r0, asr fp
     290:	00008c00 	andeq	r8, r0, r0, lsl #24
     294:	f3000400 	vshl.u8	d0, d0, d0
     298:	8c9f5001 	ldchi	0, cr5, [pc], {1}
     29c:	d0000000 	andle	r0, r0, r0
     2a0:	09000000 	stmdbeq	r0, {}	; <UNPREDICTABLE>
     2a4:	5001f300 	andpl	pc, r1, r0, lsl #6
     2a8:	fc090323 	stc2	3, cr0, [r9], {35}	; 0x23
     2ac:	00009f1a 	andeq	r9, r0, sl, lsl pc
	...
     2b8:	00300000 	eorseq	r0, r0, r0
     2bc:	00480000 	subeq	r0, r8, r0
     2c0:	00010000 	andeq	r0, r1, r0
     2c4:	00008c50 	andeq	r8, r0, r0, asr ip
     2c8:	0000a400 	andeq	sl, r0, r0, lsl #8
     2cc:	50000100 	andpl	r0, r0, r0, lsl #2
	...
     2d8:	00200002 	eoreq	r0, r0, r2
     2dc:	00280000 	eoreq	r0, r8, r0
     2e0:	00020000 	andeq	r0, r2, r0
     2e4:	00009f34 	andeq	r9, r0, r4, lsr pc
     2e8:	00000000 	andeq	r0, r0, r0
     2ec:	00020000 	andeq	r0, r2, r0
     2f0:	00200000 	eoreq	r0, r0, r0
     2f4:	00240000 	eoreq	r0, r4, r0
     2f8:	00010000 	andeq	r0, r1, r0
     2fc:	00002450 	andeq	r2, r0, r0, asr r4
     300:	00002800 	andeq	r2, r0, r0, lsl #16
     304:	70000300 	andvc	r0, r0, r0, lsl #6
     308:	00009f7d 	andeq	r9, r0, sp, ror pc
     30c:	00000000 	andeq	r0, r0, r0
     310:	04020000 	streq	r0, [r2], #-0
     314:	00000038 	andeq	r0, r0, r8, lsr r0
     318:	00000038 	andeq	r0, r0, r8, lsr r0
     31c:	9f340002 	svcls	0x00340002
	...
     328:	00380402 	eorseq	r0, r8, r2, lsl #8
     32c:	00380000 	eorseq	r0, r8, r0
     330:	00010000 	andeq	r0, r1, r0
     334:	00000053 	andeq	r0, r0, r3, asr r0
	...
     340:	2c000000 	stccs	0, cr0, [r0], {-0}
     344:	38000000 	stmdacc	r0, {}	; <UNPREDICTABLE>
     348:	01000000 	mrseq	r0, (UNDEF: 0)
     34c:	00385000 	eorseq	r5, r8, r0
     350:	00480000 	subeq	r0, r8, r0
     354:	00010000 	andeq	r0, r1, r0
     358:	00004854 	andeq	r4, r0, r4, asr r8
     35c:	00005800 	andeq	r5, r0, r0, lsl #16
     360:	50000100 	andpl	r0, r0, r0, lsl #2
	...
     374:	0000000b 	andeq	r0, r0, fp
     378:	0b500001 	bleq	1400384 <__bss_end__+0x13f6b0c>
     37c:	14000000 	strne	r0, [r0], #-0
     380:	01000000 	mrseq	r0, (UNDEF: 0)
     384:	00005400 	andeq	r5, r0, r0, lsl #8
     388:	00000000 	andeq	r0, r0, r0
     38c:	01000000 	mrseq	r0, (UNDEF: 0)
     390:	00000001 	andeq	r0, r0, r1
     394:	00080000 	andeq	r0, r8, r0
     398:	00010000 	andeq	r0, r1, r0
     39c:	00000850 	andeq	r0, r0, r0, asr r8
     3a0:	00003400 	andeq	r3, r0, r0, lsl #8
     3a4:	54000100 	strpl	r0, [r0], #-256	; 0xffffff00
	...
     3b4:	02880000 	addeq	r0, r8, #0, 0
     3b8:	02b80000 	adcseq	r0, r8, #0, 0
     3bc:	00010000 	andeq	r0, r1, r0
     3c0:	0002b850 	andeq	fp, r2, r0, asr r8
     3c4:	0006ec00 	andeq	lr, r6, r0, lsl #24
     3c8:	59000100 	stmdbpl	r0, {r8}
     3cc:	000006ec 	andeq	r0, r0, ip, ror #13
     3d0:	00000720 	andeq	r0, r0, r0, lsr #14
     3d4:	01f30004 	mvnseq	r0, r4
     3d8:	00009f50 	andeq	r9, r0, r0, asr pc
	...
     3e8:	00000288 	andeq	r0, r0, r8, lsl #5
     3ec:	000002a0 	andeq	r0, r0, r0, lsr #5
     3f0:	a0510001 	subsge	r0, r1, r1
     3f4:	b8000002 	stmdalt	r0, {r1}
     3f8:	03000002 	movweq	r0, #2
     3fc:	9f017100 	svcls	0x00017100
     400:	000002b8 			; <UNDEFINED> instruction: 0x000002b8
     404:	00000720 	andeq	r0, r0, r0, lsr #14
     408:	01f30004 	mvnseq	r0, r4
     40c:	00009f51 	andeq	r9, r0, r1, asr pc
	...
     420:	02880000 	addeq	r0, r8, #0, 0
     424:	02b80000 	adcseq	r0, r8, #0, 0
     428:	00010000 	andeq	r0, r1, r0
     42c:	0002b852 	andeq	fp, r2, r2, asr r8
     430:	0003ec00 	andeq	lr, r3, r0, lsl #24
     434:	56000100 	strpl	r0, [r0], -r0, lsl #2
     438:	000003ec 	andeq	r0, r0, ip, ror #7
     43c:	000004a0 	andeq	r0, r0, r0, lsr #9
     440:	a05b0001 	subsge	r0, fp, r1
     444:	c0000004 	andgt	r0, r0, r4
     448:	01000004 	tsteq	r0, r4
     44c:	04c05600 	strbeq	r5, [r0], #1536	; 0x600
     450:	05440000 	strbeq	r0, [r4, #-0]
     454:	00010000 	andeq	r0, r1, r0
     458:	0005445b 	andeq	r4, r5, fp, asr r4
     45c:	0006ec00 	andeq	lr, r6, r0, lsl #24
     460:	56000100 	strpl	r0, [r0], -r0, lsl #2
	...
     46c:	00000001 	andeq	r0, r0, r1
     470:	01000000 	mrseq	r0, (UNDEF: 0)
     474:	00000001 	andeq	r0, r0, r1
     478:	02000000 	andeq	r0, r0, #0, 0
     47c:	00000002 	andeq	r0, r0, r2
     480:	0000029c 	muleq	r0, ip, r2
     484:	000002b8 			; <UNDEFINED> instruction: 0x000002b8
     488:	b8500001 	ldmdalt	r0, {r0}^
     48c:	bc000002 	stclt	0, cr0, [r0], {2}
     490:	01000002 	tsteq	r0, r2
     494:	02bc5400 	adcseq	r5, ip, #0, 8
     498:	02c00000 	sbceq	r0, r0, #0, 0
     49c:	00030000 	andeq	r0, r3, r0
     4a0:	c09f0174 	addsgt	r0, pc, r4, ror r1	; <UNPREDICTABLE>
     4a4:	e4000002 	str	r0, [r0], #-2
     4a8:	01000002 	tsteq	r0, r2
     4ac:	02e45400 	rsceq	r5, r4, #0, 8
     4b0:	02e80000 	rsceq	r0, r8, #0, 0
     4b4:	00030000 	andeq	r0, r3, r0
     4b8:	e89f0174 	ldm	pc, {r2, r4, r5, r6, r8}	; <UNPREDICTABLE>
     4bc:	bc000002 	stclt	0, cr0, [r0], {2}
     4c0:	01000006 	tsteq	r0, r6
     4c4:	06bc5400 	ldrteq	r5, [ip], r0, lsl #8
     4c8:	06c00000 	strbeq	r0, [r0], r0
     4cc:	00030000 	andeq	r0, r3, r0
     4d0:	c09f0174 	addsgt	r0, pc, r4, ror r1	; <UNPREDICTABLE>
     4d4:	d8000006 	stmdale	r0, {r1, r2}
     4d8:	01000006 	tsteq	r0, r6
     4dc:	06d85400 	ldrbeq	r5, [r8], r0, lsl #8
     4e0:	06e00000 	strbteq	r0, [r0], r0
     4e4:	00030000 	andeq	r0, r3, r0
     4e8:	e09f0174 	adds	r0, pc, r4, ror r1	; <UNPREDICTABLE>
     4ec:	ec000006 	stc	0, cr0, [r0], {6}
     4f0:	01000006 	tsteq	r0, r6
     4f4:	00005400 	andeq	r5, r0, r0, lsl #8
	...
     500:	02a40000 	adceq	r0, r4, #0, 0
     504:	06ec0000 	strbteq	r0, [ip], r0
     508:	00010000 	andeq	r0, r1, r0
     50c:	0006ec58 	andeq	lr, r6, r8, asr ip
     510:	00072000 	andeq	r2, r7, r0
     514:	f3000a00 	vpmax.u8	d0, d0, d0
     518:	01f35101 	mvnseq	r5, r1, lsl #2
     51c:	1c312250 	lfmne	f2, 4, [r1], #-320	; 0xfffffec0
     520:	0000009f 	muleq	r0, pc, r0	; <UNPREDICTABLE>
     524:	00000000 	andeq	r0, r0, r0
     528:	00000100 	andeq	r0, r0, r0, lsl #2
     52c:	08000000 	stmdaeq	r0, {}	; <UNPREDICTABLE>
     530:	5c000004 	stcpl	0, cr0, [r0], {4}
     534:	01000004 	tsteq	r0, r4
     538:	04c05700 	strbeq	r5, [r0], #1792	; 0x700
     53c:	04e40000 	strbteq	r0, [r4], #0
     540:	00010000 	andeq	r0, r1, r0
     544:	00052857 	andeq	r2, r5, r7, asr r8
     548:	00054400 	andeq	r4, r5, r0, lsl #8
     54c:	57000100 	strpl	r0, [r0, -r0, lsl #2]
	...
     558:	00000001 	andeq	r0, r0, r1
     55c:	000002ac 	andeq	r0, r0, ip, lsr #5
     560:	000002b8 			; <UNDEFINED> instruction: 0x000002b8
     564:	b8520001 	ldmdalt	r2, {r0}^
     568:	20000002 	andcs	r0, r0, r2
     56c:	03000007 	movweq	r0, #7
     570:	7dc89100 	stfvcp	f1, [r8]
	...
     584:	00010100 	andeq	r0, r1, r0, lsl #2
	...
     590:	045c0000 	ldrbeq	r0, [ip], #-0
     594:	04740000 	ldrbteq	r0, [r4], #-0
     598:	00010000 	andeq	r0, r1, r0
     59c:	00047450 	andeq	r7, r4, r0, asr r4
     5a0:	0004a000 	andeq	sl, r4, r0
     5a4:	57000100 	strpl	r0, [r0, -r0, lsl #2]
     5a8:	000004e4 	andeq	r0, r0, r4, ror #9
     5ac:	000004fc 	strdeq	r0, [r0], -ip
     5b0:	fc500001 	mrrc2	0, 0, r0, r0, cr1	; <UNPREDICTABLE>
     5b4:	28000004 	stmdacs	r0, {r2}
     5b8:	01000005 	tsteq	r0, r5
     5bc:	058c5700 	streq	r5, [ip, #1792]	; 0x700
     5c0:	058c0000 	streq	r0, [ip]
     5c4:	00010000 	andeq	r0, r1, r0
     5c8:	00058c50 	andeq	r8, r5, r0, asr ip
     5cc:	00059400 	andeq	r9, r5, r0, lsl #8
     5d0:	57000100 	strpl	r0, [r0, -r0, lsl #2]
     5d4:	000005c4 	andeq	r0, r0, r4, asr #11
     5d8:	000005c8 	andeq	r0, r0, r8, asr #11
     5dc:	f8500001 			; <UNDEFINED> instruction: 0xf8500001
     5e0:	fc000005 	stc2	0, cr0, [r0], {5}
     5e4:	01000005 	tsteq	r0, r5
     5e8:	062c5000 	strteq	r5, [ip], -r0
     5ec:	06300000 	ldrteq	r0, [r0], -r0
     5f0:	00010000 	andeq	r0, r1, r0
     5f4:	00067450 	andeq	r7, r6, r0, asr r4
     5f8:	00067800 	andeq	r7, r6, r0, lsl #16
     5fc:	50000100 	andpl	r0, r0, r0, lsl #2
     600:	000006b8 			; <UNDEFINED> instruction: 0x000006b8
     604:	000006d8 	ldrdeq	r0, [r0], -r8
     608:	00570001 	subseq	r0, r7, r1
     60c:	00000000 	andeq	r0, r0, r0
     610:	02000000 	andeq	r0, r0, #0, 0
     614:	00000000 	andeq	r0, r0, r0
     618:	0002f400 	andeq	pc, r2, r0, lsl #8
     61c:	0002f800 	andeq	pc, r2, r0, lsl #16
     620:	30000200 	andcc	r0, r0, r0, lsl #4
     624:	0002f89f 	muleq	r2, pc, r8	; <UNPREDICTABLE>
     628:	00031400 	andeq	r1, r3, r0, lsl #8
     62c:	55000100 	strpl	r0, [r0, #-256]	; 0xffffff00
     630:	0000031c 	andeq	r0, r0, ip, lsl r3
     634:	000006d8 	ldrdeq	r0, [r0], -r8
     638:	00550001 	subseq	r0, r5, r1
     63c:	00000000 	andeq	r0, r0, r0
     640:	01000000 	mrseq	r0, (UNDEF: 0)
	...
     64c:	0003b800 	andeq	fp, r3, r0, lsl #16
     650:	00043c00 	andeq	r3, r4, r0, lsl #24
     654:	56000100 	strpl	r0, [r0], -r0, lsl #2
     658:	0000043c 	andeq	r0, r0, ip, lsr r4
     65c:	000004a0 	andeq	r0, r0, r0, lsr #9
     660:	7e7b0003 	cdpvc	0, 7, cr0, cr11, cr3, {0}
     664:	0004a09f 	muleq	r4, pc, r0	; <UNPREDICTABLE>
     668:	0004c400 	andeq	ip, r4, r0, lsl #8
     66c:	56000100 	strpl	r0, [r0], -r0, lsl #2
     670:	000004c4 	andeq	r0, r0, r4, asr #9
     674:	00000528 	andeq	r0, r0, r8, lsr #10
     678:	7e7b0003 	cdpvc	0, 7, cr0, cr11, cr3, {0}
     67c:	0005289f 	muleq	r5, pc, r8	; <UNPREDICTABLE>
     680:	00054400 	andeq	r4, r5, r0, lsl #8
     684:	56000100 	strpl	r0, [r0], -r0, lsl #2
	...
     694:	00700000 	rsbseq	r0, r0, r0
     698:	00940000 	addseq	r0, r4, r0
     69c:	00010000 	andeq	r0, r1, r0
     6a0:	00009450 	andeq	r9, r0, r0, asr r4
     6a4:	0000fc00 	andeq	pc, r0, r0, lsl #24
     6a8:	70000300 	andvc	r0, r0, r0, lsl #6
     6ac:	00fc9f02 	rscseq	r9, ip, r2, lsl #30
     6b0:	02240000 	eoreq	r0, r4, #0, 0
     6b4:	00040000 	andeq	r0, r4, r0
     6b8:	9f5001f3 	svcls	0x005001f3
	...
     6d4:	00000070 	andeq	r0, r0, r0, ror r0
     6d8:	000000e0 	andeq	r0, r0, r0, ror #1
     6dc:	e0510001 	subs	r0, r1, r1
     6e0:	54000000 	strpl	r0, [r0], #-0
     6e4:	01000001 	tsteq	r0, r1
     6e8:	01545500 	cmpeq	r4, r0, lsl #10
     6ec:	01580000 	cmpeq	r8, r0
     6f0:	00010000 	andeq	r0, r1, r0
     6f4:	00015851 	andeq	r5, r1, r1, asr r8
     6f8:	0001b000 	andeq	fp, r1, r0
     6fc:	55000100 	strpl	r0, [r0, #-256]	; 0xffffff00
     700:	000001b0 			; <UNDEFINED> instruction: 0x000001b0
     704:	000001c0 	andeq	r0, r0, r0, asr #3
     708:	c0510001 	subsgt	r0, r1, r1
     70c:	e4000001 	str	r0, [r0], #-1
     710:	01000001 	tsteq	r0, r1
     714:	01e45500 	mvneq	r5, r0, lsl #10
     718:	01f80000 	mvnseq	r0, r0
     71c:	00010000 	andeq	r0, r1, r0
     720:	0001f851 	andeq	pc, r1, r1, asr r8	; <UNPREDICTABLE>
     724:	00022400 	andeq	r2, r2, r0, lsl #8
     728:	55000100 	strpl	r0, [r0, #-256]	; 0xffffff00
	...
     738:	00000070 	andeq	r0, r0, r0, ror r0
     73c:	00000084 	andeq	r0, r0, r4, lsl #1
     740:	84520001 	ldrbhi	r0, [r2], #-1
     744:	24000000 	strcs	r0, [r0], #-0
     748:	01000002 	tsteq	r0, r2
     74c:	00005400 	andeq	r5, r0, r0, lsl #8
	...
     758:	01000000 	mrseq	r0, (UNDEF: 0)
     75c:	00000000 	andeq	r0, r0, r0
     760:	00700000 	rsbseq	r0, r0, r0
     764:	00f40000 	rscseq	r0, r4, r0
     768:	00010000 	andeq	r0, r1, r0
     76c:	00014c53 	andeq	r4, r1, r3, asr ip
     770:	00018000 	andeq	r8, r1, r0
     774:	53000100 	movwpl	r0, #256	; 0x100
     778:	00000180 	andeq	r0, r0, r0, lsl #3
     77c:	0000018c 	andeq	r0, r0, ip, lsl #3
     780:	01f30004 	mvnseq	r0, r4
     784:	01b09f53 	asrseq	r9, r3, pc
     788:	01e80000 	mvneq	r0, r0
     78c:	00010000 	andeq	r0, r1, r0
     790:	0001e853 	andeq	lr, r1, r3, asr r8
     794:	0001ff00 	andeq	pc, r1, r0, lsl #30
     798:	5c000100 	stfpls	f0, [r0], {-0}
     79c:	000001ff 	strdeq	r0, [r0], -pc	; <UNPREDICTABLE>
     7a0:	00000224 	andeq	r0, r0, r4, lsr #4
     7a4:	01f30004 	mvnseq	r0, r4
     7a8:	00009f53 	andeq	r9, r0, r3, asr pc
	...
     7b8:	00000070 	andeq	r0, r0, r0, ror r0
     7bc:	0000008c 	andeq	r0, r0, ip, lsl #1
     7c0:	00910002 	addseq	r0, r1, r2
     7c4:	0000008c 	andeq	r0, r0, ip, lsl #1
     7c8:	00000193 	muleq	r0, r3, r1
     7cc:	b0520001 	subslt	r0, r2, r1
     7d0:	f4000001 	vst4.8	{d0-d3}, [r0], r1
     7d4:	01000001 	tsteq	r0, r1
     7d8:	00005200 	andeq	r5, r0, r0, lsl #4
     7dc:	00000000 	andeq	r0, r0, r0
     7e0:	00010000 	andeq	r0, r1, r0
     7e4:	00010100 	andeq	r0, r1, r0, lsl #2
     7e8:	00000000 	andeq	r0, r0, r0
     7ec:	01000000 	mrseq	r0, (UNDEF: 0)
     7f0:	00010101 	andeq	r0, r1, r1, lsl #2
     7f4:	00010100 	andeq	r0, r1, r0, lsl #2
	...
     800:	008c0000 	addeq	r0, ip, r0
     804:	00fc0000 	rscseq	r0, ip, r0
     808:	00040000 	andeq	r0, r4, r0
     80c:	9f7fa091 	svcls	0x007fa091
     810:	000000fc 	strdeq	r0, [r0], -ip
     814:	0000013c 	andeq	r0, r0, ip, lsr r1
     818:	3c500001 	mrrccc	0, 0, r0, r0, cr1	; <UNPREDICTABLE>
     81c:	48000001 	stmdami	r0, {r0}
     820:	03000001 	movweq	r0, #1
     824:	9f027100 	svcls	0x00027100
     828:	00000148 	andeq	r0, r0, r8, asr #2
     82c:	0000014c 	andeq	r0, r0, ip, asr #2
     830:	4c500001 	mrrcmi	0, 0, r0, r0, cr1	; <UNPREDICTABLE>
     834:	58000001 	stmdapl	r0, {r0}
     838:	04000001 	streq	r0, [r0], #-1
     83c:	7fa09100 	svcvc	0x00a09100
     840:	0001589f 	muleq	r1, pc, r8	; <UNPREDICTABLE>
     844:	00016c00 	andeq	r6, r1, r0, lsl #24
     848:	51000100 	mrspl	r0, (UNDEF: 16)
     84c:	0000016c 	andeq	r0, r0, ip, ror #2
     850:	00000178 	andeq	r0, r0, r8, ror r1
     854:	7f710003 	svcvc	0x00710003
     858:	0001789f 	muleq	r1, pc, r8	; <UNPREDICTABLE>
     85c:	00018400 	andeq	r8, r1, r0, lsl #8
     860:	71000300 	mrsvc	r0, LR_irq
     864:	01849f01 	orreq	r9, r4, r1, lsl #30
     868:	01930000 	orrseq	r0, r3, r0
     86c:	00010000 	andeq	r0, r1, r0
     870:	0001b050 	andeq	fp, r1, r0, asr r0
     874:	0001b000 	andeq	fp, r1, r0
     878:	91000400 	tstls	r0, r0, lsl #8
     87c:	b09f7fa0 	addslt	r7, pc, r0, lsr #31
     880:	b8000001 	stmdalt	r0, {r0}
     884:	04000001 	streq	r0, [r0], #-1
     888:	7fa19100 	svcvc	0x00a19100
     88c:	0001b89f 	muleq	r1, pc, r8	; <UNPREDICTABLE>
     890:	0001bc00 	andeq	fp, r1, r0, lsl #24
     894:	50000100 	andpl	r0, r0, r0, lsl #2
     898:	000001bc 			; <UNDEFINED> instruction: 0x000001bc
     89c:	000001c0 	andeq	r0, r0, r0, asr #3
     8a0:	a0910004 	addsge	r0, r1, r4
     8a4:	01c09f7f 	biceq	r9, r0, pc, ror pc
     8a8:	01d40000 	bicseq	r0, r4, r0
     8ac:	00010000 	andeq	r0, r1, r0
     8b0:	0001d450 	andeq	sp, r1, r0, asr r4
     8b4:	0001e400 	andeq	lr, r1, r0, lsl #8
     8b8:	70000300 	andvc	r0, r0, r0, lsl #6
     8bc:	01e49f7f 	mvneq	r9, pc, ror pc
     8c0:	02240000 	eoreq	r0, r4, #0, 0
     8c4:	00040000 	andeq	r0, r4, r0
     8c8:	9f7fa091 	svcls	0x007fa091
	...
     8d4:	01000000 	mrseq	r0, (UNDEF: 0)
     8d8:	00000001 	andeq	r0, r0, r1
	...
     8e8:	00000090 	muleq	r0, r0, r0
     8ec:	000000dc 	ldrdeq	r0, [r0], -ip
     8f0:	dc5c0001 	mrrcle	0, 0, r0, ip, cr1
     8f4:	f4000000 	vst4.8	{d0-d3}, [r0], r0
     8f8:	01000000 	mrseq	r0, (UNDEF: 0)
     8fc:	00f45300 	rscseq	r5, r4, r0, lsl #6
     900:	014c0000 	mrseq	r0, (UNDEF: 76)
     904:	00010000 	andeq	r0, r1, r0
     908:	00014c5c 	andeq	r4, r1, ip, asr ip
     90c:	00015800 	andeq	r5, r1, r0, lsl #16
     910:	53000100 	movwpl	r0, #256	; 0x100
     914:	00000158 	andeq	r0, r0, r8, asr r1
     918:	00000174 	andeq	r0, r0, r4, ror r1
     91c:	b05c0001 	subslt	r0, ip, r1
     920:	c0000001 	andgt	r0, r0, r1
     924:	01000001 	tsteq	r0, r1
     928:	01c05300 	biceq	r5, r0, r0, lsl #6
     92c:	01dc0000 	bicseq	r0, ip, r0
     930:	00010000 	andeq	r0, r1, r0
     934:	0001e45c 	andeq	lr, r1, ip, asr r4
     938:	0001e800 	andeq	lr, r1, r0, lsl #16
     93c:	53000100 	movwpl	r0, #256	; 0x100
     940:	000001e8 	andeq	r0, r0, r8, ror #3
     944:	000001ff 	strdeq	r0, [r0], -pc	; <UNPREDICTABLE>
     948:	ff5c0001 			; <UNDEFINED> instruction: 0xff5c0001
     94c:	24000001 	strcs	r0, [r0], #-1
     950:	04000002 	streq	r0, [r0], #-2
     954:	5301f300 	movwpl	pc, #4864	; 0x1300	; <UNPREDICTABLE>
     958:	0000009f 	muleq	r0, pc, r0	; <UNPREDICTABLE>
     95c:	00000000 	andeq	r0, r0, r0
     960:	01010100 	mrseq	r0, (UNDEF: 17)
     964:	00000000 	andeq	r0, r0, r0
     968:	0000dc00 	andeq	sp, r0, r0, lsl #24
     96c:	0000f000 	andeq	pc, r0, r0
     970:	30000200 	andcc	r0, r0, r0, lsl #4
     974:	0000f09f 	muleq	r0, pc, r0	; <UNPREDICTABLE>
     978:	0000f800 	andeq	pc, r0, r0, lsl #16
     97c:	31000200 	mrscc	r0, R8_usr
     980:	0000fc9f 	muleq	r0, pc, ip	; <UNPREDICTABLE>
     984:	00014c00 	andeq	r4, r1, r0, lsl #24
     988:	56000100 	strpl	r0, [r0], -r0, lsl #2
     98c:	0000014c 	andeq	r0, r0, ip, asr #2
     990:	00000154 	andeq	r0, r0, r4, asr r1
     994:	9f300002 	svcls	0x00300002
	...
     9a0:	01000000 	mrseq	r0, (UNDEF: 0)
     9a4:	01000001 	tsteq	r0, r1
     9a8:	00380001 	eorseq	r0, r8, r1
     9ac:	00540000 	subseq	r0, r4, r0
     9b0:	00010000 	andeq	r0, r1, r0
     9b4:	00005450 	andeq	r5, r0, r0, asr r4
     9b8:	00005800 	andeq	r5, r0, r0, lsl #16
     9bc:	52000100 	andpl	r0, r0, #0
     9c0:	00000058 	andeq	r0, r0, r8, asr r0
     9c4:	00000060 	andeq	r0, r0, r0, rrx
     9c8:	01720003 	cmneq	r2, r3
     9cc:	0000609f 	muleq	r0, pc, r0	; <UNPREDICTABLE>
     9d0:	00006400 	andeq	r6, r0, r0, lsl #8
     9d4:	52000100 	andpl	r0, r0, #0
     9d8:	00000064 	andeq	r0, r0, r4, rrx
     9dc:	00000070 	andeq	r0, r0, r0, ror r0
     9e0:	01720003 	cmneq	r2, r3
     9e4:	0000009f 	muleq	r0, pc, r0	; <UNPREDICTABLE>
	...
     9f0:	00003800 	andeq	r3, r0, r0, lsl #16
     9f4:	00005000 	andeq	r5, r0, r0
     9f8:	51000100 	mrspl	r0, (UNDEF: 16)
     9fc:	00000050 	andeq	r0, r0, r0, asr r0
     a00:	00000070 	andeq	r0, r0, r0, ror r0
     a04:	01f30004 	mvnseq	r0, r4
     a08:	00009f51 	andeq	r9, r0, r1, asr pc
	...
     a14:	01000000 	mrseq	r0, (UNDEF: 0)
     a18:	00380001 	eorseq	r0, r8, r1
     a1c:	00500000 	subseq	r0, r0, r0
     a20:	00010000 	andeq	r0, r1, r0
     a24:	00005052 	andeq	r5, r0, r2, asr r0
     a28:	00005c00 	andeq	r5, r0, r0, lsl #24
     a2c:	51000100 	mrspl	r0, (UNDEF: 16)
     a30:	0000005c 	andeq	r0, r0, ip, asr r0
     a34:	00000060 	andeq	r0, r0, r0, rrx
     a38:	01710003 	cmneq	r1, r3
     a3c:	0000609f 	muleq	r0, pc, r0	; <UNPREDICTABLE>
     a40:	00007000 	andeq	r7, r0, r0
     a44:	51000100 	mrspl	r0, (UNDEF: 16)
	...
     a54:	00000038 	andeq	r0, r0, r8, lsr r0
     a58:	0000004c 	andeq	r0, r0, ip, asr #32
     a5c:	4c530001 	mrrcmi	0, 0, r0, r3, cr1
     a60:	68000000 	stmdavs	r0, {}	; <UNPREDICTABLE>
     a64:	01000000 	mrseq	r0, (UNDEF: 0)
     a68:	00005300 	andeq	r5, r0, r0, lsl #6
	...
     a78:	00400000 	subeq	r0, r0, r0
     a7c:	00480000 	subeq	r0, r8, r0
     a80:	00010000 	andeq	r0, r1, r0
     a84:	0000485c 	andeq	r4, r0, ip, asr r8
     a88:	00004c00 	andeq	r4, r0, r0, lsl #24
     a8c:	72000800 	andvc	r0, r0, #0, 16
     a90:	1c007300 	stcne	3, cr7, [r0], {-0}
     a94:	4c9f0123 	ldfmis	f0, [pc], {35}	; 0x23
     a98:	54000000 	strpl	r0, [r0], #-0
     a9c:	09000000 	stmdbeq	r0, {}	; <UNPREDICTABLE>
     aa0:	f3007200 	vhsub.u8	d7, d0, d0
     aa4:	231c5301 	tstcs	ip, #67108864	; 0x4000000
     aa8:	00549f01 	subseq	r9, r4, r1, lsl #30
     aac:	00700000 	rsbseq	r0, r0, r0
     ab0:	000a0000 	andeq	r0, sl, r0
     ab4:	f35201f3 	vbsl	q8, q9, <illegal reg q9.5>
     ab8:	231c5301 	tstcs	ip, #67108864	; 0x4000000
     abc:	00009f01 	andeq	r9, r0, r1, lsl #30
     ac0:	00000000 	andeq	r0, r0, r0
     ac4:	00010000 	andeq	r0, r1, r0
     ac8:	0000004c 	andeq	r0, r0, ip, asr #32
     acc:	00000070 	andeq	r0, r0, r0, ror r0
     ad0:	00500001 	subseq	r0, r0, r1
	...
     adc:	00000101 	andeq	r0, r0, r1, lsl #2
     ae0:	00001400 	andeq	r1, r0, r0, lsl #8
     ae4:	00001c00 	andeq	r1, r0, r0, lsl #24
     ae8:	50000100 	andpl	r0, r0, r0, lsl #2
     aec:	0000001c 	andeq	r0, r0, ip, lsl r0
     af0:	00000024 	andeq	r0, r0, r4, lsr #32
     af4:	01700003 	cmneq	r0, r3
     af8:	0000249f 	muleq	r0, pc, r4	; <UNPREDICTABLE>
     afc:	00003800 	andeq	r3, r0, r0, lsl #16
     b00:	50000100 	andpl	r0, r0, r0, lsl #2
	...
     b10:	00000014 	andeq	r0, r0, r4, lsl r0
     b14:	00000018 	andeq	r0, r0, r8, lsl r0
     b18:	18510001 	ldmdane	r1, {r0}^
     b1c:	38000000 	stmdacc	r0, {}	; <UNPREDICTABLE>
     b20:	04000000 	streq	r0, [r0], #-0
     b24:	5101f300 	mrspl	pc, SP_irq	; <UNPREDICTABLE>
     b28:	0000009f 	muleq	r0, pc, r0	; <UNPREDICTABLE>
     b2c:	00000000 	andeq	r0, r0, r0
     b30:	18000000 	stmdane	r0, {}	; <UNPREDICTABLE>
     b34:	38000000 	stmdacc	r0, {}	; <UNPREDICTABLE>
     b38:	01000000 	mrseq	r0, (UNDEF: 0)
     b3c:	00005100 	andeq	r5, r0, r0, lsl #2
	...
     b50:	00000004 	andeq	r0, r0, r4
     b54:	04500001 	ldrbeq	r0, [r0], #-1
     b58:	0c000000 	stceq	0, cr0, [r0], {-0}
     b5c:	03000000 	movweq	r0, #0
     b60:	9f307000 	svcls	0x00307000
     b64:	0000000c 	andeq	r0, r0, ip
     b68:	00000014 	andeq	r0, r0, r4, lsl r0
     b6c:	01f30004 	mvnseq	r0, r4
     b70:	00009f50 	andeq	r9, r0, r0, asr pc
	...
     b7c:	02240000 	eoreq	r0, r4, #0, 0
     b80:	02680000 	rsbeq	r0, r8, #0, 0
     b84:	00010000 	andeq	r0, r1, r0
     b88:	00026850 	andeq	r6, r2, r0, asr r8
     b8c:	00028800 	andeq	r8, r2, r0, lsl #16
     b90:	f3000400 	vshl.u8	d0, d0, d0
     b94:	009f5001 	addseq	r5, pc, r1
	...
     ba0:	24000000 	strcs	r0, [r0], #-0
     ba4:	64000002 	strvs	r0, [r0], #-2
     ba8:	01000002 	tsteq	r0, r2
     bac:	02645100 	rsbeq	r5, r4, #0
     bb0:	02880000 	addeq	r0, r8, #0, 0
     bb4:	00040000 	andeq	r0, r4, r0
     bb8:	9f5101f3 	svcls	0x005101f3
	...
     bc4:	00010100 	andeq	r0, r1, r0, lsl #2
     bc8:	00080000 	andeq	r0, r8, r0
     bcc:	00100000 	andseq	r0, r0, r0
     bd0:	00010000 	andeq	r0, r1, r0
     bd4:	00001053 	andeq	r1, r0, r3, asr r0
     bd8:	00001800 	andeq	r1, r0, r0, lsl #16
     bdc:	73000300 	movwvc	r0, #768	; 0x300
     be0:	00189f04 	andseq	r9, r8, r4, lsl #30
     be4:	001f0000 	andseq	r0, pc, r0
     be8:	00010000 	andeq	r0, r1, r0
     bec:	00000053 	andeq	r0, r0, r3, asr r0
     bf0:	00000000 	andeq	r0, r0, r0
     bf4:	40000100 	andmi	r0, r0, r0, lsl #2
     bf8:	5c00008c 	stcpl	0, cr0, [r0], {140}	; 0x8c
     bfc:	0600008c 	streq	r0, [r0], -ip, lsl #1
     c00:	001c0c00 	andseq	r0, ip, r0, lsl #24
     c04:	009f2010 	addseq	r2, pc, r0, lsl r0	; <UNPREDICTABLE>
     c08:	00000000 	andeq	r0, r0, r0
     c0c:	02000000 	andeq	r0, r0, #0, 0
     c10:	008c4000 	addeq	r4, ip, r0
     c14:	008c5c00 	addeq	r5, ip, r0, lsl #24
     c18:	0c000600 	stceq	6, cr0, [r0], {-0}
     c1c:	20100024 	andscs	r0, r0, r4, lsr #32
     c20:	0000009f 	muleq	r0, pc, r0	; <UNPREDICTABLE>
     c24:	00000000 	andeq	r0, r0, r0
     c28:	40000300 	andmi	r0, r0, r0, lsl #6
     c2c:	5c00008c 	stcpl	0, cr0, [r0], {140}	; 0x8c
     c30:	0500008c 	streq	r0, [r0, #-140]	; 0xffffff74
     c34:	47b40800 	ldrmi	r0, [r4, r0, lsl #16]!
     c38:	00009f24 	andeq	r9, r0, r4, lsr #30
     c3c:	00000000 	andeq	r0, r0, r0
     c40:	00040000 	andeq	r0, r4, r0
     c44:	00008c40 	andeq	r8, r0, r0, asr #24
     c48:	00008c5c 	andeq	r8, r0, ip, asr ip
     c4c:	20080003 	andcs	r0, r8, r3
     c50:	0000009f 	muleq	r0, pc, r0	; <UNPREDICTABLE>
     c54:	00000000 	andeq	r0, r0, r0
     c58:	00000200 	andeq	r0, r0, r0, lsl #4
     c5c:	10000000 	andne	r0, r0, r0
     c60:	1400008c 	strne	r0, [r0], #-140	; 0xffffff74
     c64:	0200008c 	andeq	r0, r0, #140, 0	; 0x8c
     c68:	149f3000 	ldrne	r3, [pc], #0	; c70 <__code_start__-0x7390>
     c6c:	1800008c 	stmdane	r0, {r2, r3, r7}
     c70:	0100008c 	smlabbeq	r0, ip, r0, r0
     c74:	8c1c5300 	ldchi	3, cr5, [ip], {-0}
     c78:	8c240000 	stchi	0, cr0, [r4], #-0
     c7c:	00010000 	andeq	r0, r1, r0
     c80:	00000053 	andeq	r0, r0, r3, asr r0
     c84:	00000000 	andeq	r0, r0, r0
     c88:	00000200 	andeq	r0, r0, r0, lsl #4
     c8c:	008bf800 	addeq	pc, fp, r0, lsl #16
     c90:	008bfc00 	addeq	pc, fp, r0, lsl #24
     c94:	30000200 	andcc	r0, r0, r0, lsl #4
     c98:	008bfc9f 	umulleq	pc, fp, pc, ip	; <UNPREDICTABLE>
     c9c:	008c0000 	addeq	r0, ip, r0
     ca0:	50000100 	andpl	r0, r0, r0, lsl #2
	...
     cb0:	0000006c 	andeq	r0, r0, ip, rrx
     cb4:	00000078 	andeq	r0, r0, r8, ror r0
     cb8:	78500001 	ldmdavc	r0, {r0}^
     cbc:	84000000 	strhi	r0, [r0], #-0
     cc0:	04000000 	streq	r0, [r0], #-0
     cc4:	5001f300 	andpl	pc, r1, r0, lsl #6
     cc8:	0000009f 	muleq	r0, pc, r0	; <UNPREDICTABLE>
	...
     cd4:	00005400 	andeq	r5, r0, r0, lsl #8
     cd8:	00006000 	andeq	r6, r0, r0
     cdc:	50000100 	andpl	r0, r0, r0, lsl #2
     ce0:	00000060 	andeq	r0, r0, r0, rrx
     ce4:	0000006c 	andeq	r0, r0, ip, rrx
     ce8:	01f30004 	mvnseq	r0, r4
     cec:	00009f50 	andeq	r9, r0, r0, asr pc
	...
     cf8:	00300000 	eorseq	r0, r0, r0
     cfc:	003b0000 	eorseq	r0, fp, r0
     d00:	00010000 	andeq	r0, r1, r0
     d04:	00003b50 	andeq	r3, r0, r0, asr fp
     d08:	00005400 	andeq	r5, r0, r0, lsl #8
     d0c:	55000100 	strpl	r0, [r0, #-256]	; 0xffffff00
	...
     d18:	00400000 	subeq	r0, r0, r0
     d1c:	00540000 	subseq	r0, r4, r0
     d20:	00010000 	andeq	r0, r1, r0
     d24:	00000054 	andeq	r0, r0, r4, asr r0
     d28:	00000000 	andeq	r0, r0, r0
     d2c:	44000000 	strmi	r0, [r0], #-0
     d30:	48000000 	stmdami	r0, {}	; <UNPREDICTABLE>
     d34:	01000000 	mrseq	r0, (UNDEF: 0)
     d38:	00005000 	andeq	r5, r0, r0
	...
     d44:	00240000 	eoreq	r0, r4, r0
     d48:	00270000 	eoreq	r0, r7, r0
     d4c:	00010000 	andeq	r0, r1, r0
     d50:	00002750 	andeq	r2, r0, r0, asr r7
     d54:	00003000 	andeq	r3, r0, r0
     d58:	54000100 	strpl	r0, [r0], #-256	; 0xffffff00
	...
     d68:	00000138 	andeq	r0, r0, r8, lsr r1
     d6c:	00000143 	andeq	r0, r0, r3, asr #2
     d70:	43500001 	cmpmi	r0, #1, 0
     d74:	68000001 	stmdavs	r0, {r0}
     d78:	01000001 	tsteq	r0, r1
     d7c:	00005400 	andeq	r5, r0, r0, lsl #8
	...
     d88:	00000128 	andeq	r0, r0, r8, lsr #2
     d8c:	00000138 	andeq	r0, r0, r8, lsr r1
     d90:	00540001 	subseq	r0, r4, r1
	...
     da0:	0f000000 	svceq	0x00000000
     da4:	01000000 	mrseq	r0, (UNDEF: 0)
     da8:	000f5000 	andeq	r5, pc, r0
     dac:	00200000 	eoreq	r0, r0, r0
     db0:	00010000 	andeq	r0, r1, r0
     db4:	00000054 	andeq	r0, r0, r4, asr r0
	...
     dc4:	00000f00 	andeq	r0, r0, r0, lsl #30
     dc8:	51000100 	mrspl	r0, (UNDEF: 16)
     dcc:	0000000f 	andeq	r0, r0, pc
     dd0:	00000020 	andeq	r0, r0, r0, lsr #32
     dd4:	00550001 	subseq	r0, r5, r1
	...
     de4:	00014c00 	andeq	r4, r1, r0, lsl #24
     de8:	00018000 	andeq	r8, r1, r0
     dec:	50000100 	andpl	r0, r0, r0, lsl #2
     df0:	00000180 	andeq	r0, r0, r0, lsl #3
     df4:	0000018c 	andeq	r0, r0, ip, lsl #3
     df8:	8c540001 	mrrchi	0, 0, r0, r4, cr1
     dfc:	ac000001 	stcge	0, cr0, [r0], {1}
     e00:	04000001 	streq	r0, [r0], #-1
     e04:	5001f300 	andpl	pc, r1, r0, lsl #6
     e08:	0000009f 	muleq	r0, pc, r0	; <UNPREDICTABLE>
	...
     e14:	00014c00 	andeq	r4, r1, r0, lsl #24
     e18:	00018300 	andeq	r8, r1, r0, lsl #6
     e1c:	51000100 	mrspl	r0, (UNDEF: 16)
     e20:	00000183 	andeq	r0, r0, r3, lsl #3
     e24:	000001ac 	andeq	r0, r0, ip, lsr #3
     e28:	01f30004 	mvnseq	r0, r4
     e2c:	00009f51 	andeq	r9, r0, r1, asr pc
	...
     e38:	0000017c 	andeq	r0, r0, ip, ror r1
     e3c:	000001ac 	andeq	r0, r0, ip, lsr #3
     e40:	00570001 	subseq	r0, r7, r1
	...
     e4c:	00018400 	andeq	r8, r1, r0, lsl #8
     e50:	0001a000 	andeq	sl, r1, r0
     e54:	50000100 	andpl	r0, r0, r0, lsl #2
	...
     e60:	01900000 	orrseq	r0, r0, r0
     e64:	01ac0000 			; <UNDEFINED> instruction: 0x01ac0000
     e68:	00010000 	andeq	r0, r1, r0
     e6c:	00000054 	andeq	r0, r0, r4, asr r0
     e70:	00000000 	andeq	r0, r0, r0
     e74:	90000100 	andls	r0, r0, r0, lsl #2
     e78:	ac000001 	stcge	0, cr0, [r0], {1}
     e7c:	05000001 	streq	r0, [r0, #-1]
     e80:	00743700 	rsbseq	r3, r4, r0, lsl #14
     e84:	00009f24 	andeq	r9, r0, r4, lsr #30
	...
     e90:	01980000 	orrseq	r0, r8, r0
     e94:	019c0000 	orrseq	r0, ip, r0
     e98:	00010000 	andeq	r0, r1, r0
     e9c:	00019c51 	andeq	r9, r1, r1, asr ip
     ea0:	0001a000 	andeq	sl, r1, r0
     ea4:	37000900 	strcc	r0, [r0, -r0, lsl #18]
     ea8:	20240074 	eorcs	r0, r4, r4, ror r0
     eac:	9f1a0070 	svcls	0x001a0070
	...
     ec0:	00000114 	andeq	r0, r0, r4, lsl r1
     ec4:	00000120 	andeq	r0, r0, r0, lsr #2
     ec8:	20500001 	subscs	r0, r0, r1
     ecc:	24000001 	strcs	r0, [r0], #-1
     ed0:	04000001 	streq	r0, [r0], #-1
     ed4:	5001f300 	andpl	pc, r1, r0, lsl #6
     ed8:	0001249f 	muleq	r1, pc, r4	; <UNPREDICTABLE>
     edc:	00013000 	andeq	r3, r1, r0
     ee0:	50000100 	andpl	r0, r0, r0, lsl #2
     ee4:	00000130 	andeq	r0, r0, r0, lsr r1
     ee8:	0000014c 	andeq	r0, r0, ip, asr #2
     eec:	00540001 	subseq	r0, r4, r1
     ef0:	00000000 	andeq	r0, r0, r0
     ef4:	01000000 	mrseq	r0, (UNDEF: 0)
     ef8:	00012c00 	andeq	r2, r1, r0, lsl #24
     efc:	00014400 	andeq	r4, r1, r0, lsl #8
     f00:	30000200 	andcc	r0, r0, r0, lsl #4
     f04:	0000009f 	muleq	r0, pc, r0	; <UNPREDICTABLE>
     f08:	00000000 	andeq	r0, r0, r0
     f0c:	34000000 	strcc	r0, [r0], #-0
     f10:	40000001 	andmi	r0, r0, r1
     f14:	01000001 	tsteq	r0, r1
     f18:	00005000 	andeq	r5, r0, r0
     f1c:	00000000 	andeq	r0, r0, r0
     f20:	00010000 	andeq	r0, r1, r0
     f24:	00000134 	andeq	r0, r0, r4, lsr r1
     f28:	0000014c 	andeq	r0, r0, ip, asr #2
     f2c:	74310005 	ldrtvc	r0, [r1], #-5
     f30:	009f2400 	addseq	r2, pc, r0, lsl #8
	...
     f40:	0000c000 	andeq	ip, r0, r0
     f44:	0000ec00 	andeq	lr, r0, r0, lsl #24
     f48:	50000100 	andpl	r0, r0, r0, lsl #2
     f4c:	000000ec 	andeq	r0, r0, ip, ror #1
     f50:	000000f8 	strdeq	r0, [r0], -r8
     f54:	f8540001 			; <UNDEFINED> instruction: 0xf8540001
     f58:	14000000 	strne	r0, [r0], #-0
     f5c:	04000001 	streq	r0, [r0], #-1
     f60:	5001f300 	andpl	pc, r1, r0, lsl #6
     f64:	0000009f 	muleq	r0, pc, r0	; <UNPREDICTABLE>
     f68:	00000000 	andeq	r0, r0, r0
     f6c:	e8000000 	stmda	r0, {}	; <UNPREDICTABLE>
     f70:	14000000 	strne	r0, [r0], #-0
     f74:	01000001 	tsteq	r0, r1
     f78:	00005600 	andeq	r5, r0, r0, lsl #12
	...
     f84:	000000f0 	strdeq	r0, [r0], -r0	; <UNPREDICTABLE>
     f88:	00000108 	andeq	r0, r0, r8, lsl #2
     f8c:	00500001 	subseq	r0, r0, r1
	...
     f98:	0000fc00 	andeq	pc, r0, r0, lsl #24
     f9c:	00011400 	andeq	r1, r1, r0, lsl #8
     fa0:	54000100 	strpl	r0, [r0], #-256	; 0xffffff00
	...
     fac:	00fc0001 	rscseq	r0, ip, r1
     fb0:	01140000 	tsteq	r4, r0
     fb4:	00050000 	andeq	r0, r5, r0
     fb8:	24007437 	strcs	r7, [r0], #-1079	; 0xfffffbc9
     fbc:	0000009f 	muleq	r0, pc, r0	; <UNPREDICTABLE>
     fc0:	00000000 	andeq	r0, r0, r0
     fc4:	00000200 	andeq	r0, r0, r0, lsl #4
     fc8:	0000fc00 	andeq	pc, r0, r0, lsl #24
     fcc:	00010400 	andeq	r0, r1, r0, lsl #8
     fd0:	37000900 	strcc	r0, [r0, -r0, lsl #18]
     fd4:	20240074 	eorcs	r0, r4, r4, ror r0
     fd8:	9f1a0070 	svcls	0x001a0070
     fdc:	00000104 	andeq	r0, r0, r4, lsl #2
     fe0:	0000010b 	andeq	r0, r0, fp, lsl #2
     fe4:	00510001 	subseq	r0, r1, r1
	...
     ff4:	a4000000 	strge	r0, [r0], #-0
     ff8:	b3000000 	movwlt	r0, #0
     ffc:	01000000 	mrseq	r0, (UNDEF: 0)
    1000:	00b35000 	adcseq	r5, r3, r0
    1004:	00b80000 	adcseq	r0, r8, r0
    1008:	00040000 	andeq	r0, r4, r0
    100c:	9f5001f3 	svcls	0x005001f3
    1010:	000000b8 	strheq	r0, [r0], -r8
    1014:	000000bb 	strheq	r0, [r0], -fp
    1018:	bb500001 	bllt	1401024 <__bss_end__+0x13f77ac>
    101c:	c0000000 	andgt	r0, r0, r0
    1020:	04000000 	streq	r0, [r0], #-0
    1024:	5001f300 	andpl	pc, r1, r0, lsl #6
    1028:	0000009f 	muleq	r0, pc, r0	; <UNPREDICTABLE>
	...
    1038:	0000a400 	andeq	sl, r0, r0, lsl #8
    103c:	0000b300 	andeq	fp, r0, r0, lsl #6
    1040:	51000100 	mrspl	r0, (UNDEF: 16)
    1044:	000000b3 	strheq	r0, [r0], -r3
    1048:	000000b8 	strheq	r0, [r0], -r8
    104c:	01f30004 	mvnseq	r0, r4
    1050:	00b89f51 	adcseq	r9, r8, r1, asr pc
    1054:	00bb0000 	adcseq	r0, fp, r0
    1058:	00010000 	andeq	r0, r1, r0
    105c:	0000bb51 	andeq	fp, r0, r1, asr fp
    1060:	0000c000 	andeq	ip, r0, r0
    1064:	f3000400 	vshl.u8	d0, d0, d0
    1068:	009f5101 	addseq	r5, pc, r1, lsl #2
	...
    1074:	80000000 	andhi	r0, r0, r0
    1078:	98000000 	stmdals	r0, {}	; <UNPREDICTABLE>
    107c:	01000000 	mrseq	r0, (UNDEF: 0)
    1080:	00985000 	addseq	r5, r8, r0
    1084:	00a40000 	adceq	r0, r4, r0
    1088:	00040000 	andeq	r0, r4, r0
    108c:	9f5001f3 	svcls	0x005001f3
	...
    109c:	0000005c 	andeq	r0, r0, ip, asr r0
    10a0:	00000074 	andeq	r0, r0, r4, ror r0
    10a4:	74500001 	ldrbvc	r0, [r0], #-1
    10a8:	80000000 	andhi	r0, r0, r0
    10ac:	04000000 	streq	r0, [r0], #-0
    10b0:	5001f300 	andpl	pc, r1, r0, lsl #6
    10b4:	0000009f 	muleq	r0, pc, r0	; <UNPREDICTABLE>
	...
    10c4:	2c000000 	stccs	0, cr0, [r0], {-0}
    10c8:	01000000 	mrseq	r0, (UNDEF: 0)
    10cc:	002c5000 	eoreq	r5, ip, r0
    10d0:	00380000 	eorseq	r0, r8, r0
    10d4:	00010000 	andeq	r0, r1, r0
    10d8:	00003854 	andeq	r3, r0, r4, asr r8
    10dc:	00005c00 	andeq	r5, r0, r0, lsl #24
    10e0:	f3000400 	vshl.u8	d0, d0, d0
    10e4:	009f5001 	addseq	r5, pc, r1
	...
    10f0:	00002800 	andeq	r2, r0, r0, lsl #16
    10f4:	00005c00 	andeq	r5, r0, r0, lsl #24
    10f8:	56000100 	strpl	r0, [r0], -r0, lsl #2
	...
    1104:	00300000 	eorseq	r0, r0, r0
    1108:	00440000 	subeq	r0, r4, r0
    110c:	00010000 	andeq	r0, r1, r0
    1110:	00000050 	andeq	r0, r0, r0, asr r0
    1114:	00000000 	andeq	r0, r0, r0
    1118:	3c000000 	stccc	0, cr0, [r0], {-0}
    111c:	5c000000 	stcpl	0, cr0, [r0], {-0}
    1120:	01000000 	mrseq	r0, (UNDEF: 0)
    1124:	00005400 	andeq	r5, r0, r0, lsl #8
    1128:	00000000 	andeq	r0, r0, r0
    112c:	00010000 	andeq	r0, r1, r0
    1130:	0000003c 	andeq	r0, r0, ip, lsr r0
    1134:	0000005c 	andeq	r0, r0, ip, asr r0
    1138:	74370005 	ldrtvc	r0, [r7], #-5
    113c:	009f2400 	addseq	r2, pc, r0, lsl #8
	...
    1148:	00004400 	andeq	r4, r0, r0, lsl #8
    114c:	00005000 	andeq	r5, r0, r0
    1150:	50000100 	andpl	r0, r0, r0, lsl #2
	...
    115c:	00440001 	subeq	r0, r4, r1
    1160:	005c0000 	subseq	r0, ip, r0
    1164:	00050000 	andeq	r0, r5, r0
    1168:	24007431 	strcs	r7, [r0], #-1073	; 0xfffffbcf
    116c:	0000009f 	muleq	r0, pc, r0	; <UNPREDICTABLE>
	...
    117c:	00001c00 	andeq	r1, r0, r0, lsl #24
    1180:	51000100 	mrspl	r0, (UNDEF: 16)
    1184:	0000001c 	andeq	r0, r0, ip, lsl r0
    1188:	00000034 	andeq	r0, r0, r4, lsr r0
    118c:	01f30004 	mvnseq	r0, r4
    1190:	00009f51 	andeq	r9, r0, r1, asr pc
    1194:	00000000 	andeq	r0, r0, r0
    1198:	00020000 	andeq	r0, r2, r0
    119c:	01000000 	mrseq	r0, (UNDEF: 0)
    11a0:	00000001 	andeq	r0, r0, r1
    11a4:	00000000 	andeq	r0, r0, r0
    11a8:	00000004 	andeq	r0, r0, r4
    11ac:	04500001 	ldrbeq	r0, [r0], #-1
    11b0:	1c000000 	stcne	0, cr0, [r0], {-0}
    11b4:	01000000 	mrseq	r0, (UNDEF: 0)
    11b8:	001c5200 	andseq	r5, ip, r0, lsl #4
    11bc:	00240000 	eoreq	r0, r4, r0
    11c0:	00010000 	andeq	r0, r1, r0
    11c4:	00002453 	andeq	r2, r0, r3, asr r4
    11c8:	00002800 	andeq	r2, r0, r0, lsl #16
    11cc:	73000300 	movwvc	r0, #768	; 0x300
    11d0:	00289f01 	eoreq	r9, r8, r1, lsl #30
    11d4:	00340000 	eorseq	r0, r4, r0
    11d8:	00010000 	andeq	r0, r1, r0
    11dc:	00000053 	andeq	r0, r0, r3, asr r0
    11e0:	00000000 	andeq	r0, r0, r0
    11e4:	00000300 	andeq	r0, r0, r0, lsl #6
    11e8:	00000000 	andeq	r0, r0, r0
    11ec:	00002400 	andeq	r2, r0, r0, lsl #8
    11f0:	51000100 	mrspl	r0, (UNDEF: 16)
    11f4:	00000024 	andeq	r0, r0, r4, lsr #32
    11f8:	00000034 	andeq	r0, r0, r4, lsr r0
    11fc:	7f710003 	svcvc	0x00710003
    1200:	0000009f 	muleq	r0, pc, r0	; <UNPREDICTABLE>
	...
    120c:	00001000 	andeq	r1, r0, r0
    1210:	00001c00 	andeq	r1, r0, r0, lsl #24
    1214:	5c000100 	stfpls	f0, [r0], {-0}
    1218:	00000024 	andeq	r0, r0, r4, lsr #32
    121c:	00000034 	andeq	r0, r0, r4, lsr r0
    1220:	00520001 	subseq	r0, r2, r1
	...
    1230:	18000000 	stmdane	r0, {}	; <UNPREDICTABLE>
    1234:	01000000 	mrseq	r0, (UNDEF: 0)
    1238:	00185000 	andseq	r5, r8, r0
    123c:	00240000 	eoreq	r0, r4, r0
    1240:	00010000 	andeq	r0, r1, r0
    1244:	00000050 	andeq	r0, r0, r0, asr r0
	...
    1254:	00001c00 	andeq	r1, r0, r0, lsl #24
    1258:	51000100 	mrspl	r0, (UNDEF: 16)
    125c:	0000001c 	andeq	r0, r0, ip, lsl r0
    1260:	0000002c 	andeq	r0, r0, ip, lsr #32
    1264:	00510001 	subseq	r0, r1, r1
	...
    1278:	00000400 	andeq	r0, r0, r0, lsl #8
    127c:	51000100 	mrspl	r0, (UNDEF: 16)
    1280:	00000004 	andeq	r0, r0, r4
    1284:	0000000c 	andeq	r0, r0, ip
    1288:	0c510001 	mrrceq	0, 0, r0, r1, cr1
    128c:	20000000 	andcs	r0, r0, r0
    1290:	03000000 	movweq	r0, #0
    1294:	9f7f7100 	svcls	0x007f7100
	...
    12a0:	00000002 	andeq	r0, r0, r2
    12a4:	00000000 	andeq	r0, r0, r0
    12a8:	00040000 	andeq	r0, r4, r0
    12ac:	00010000 	andeq	r0, r1, r0
    12b0:	00000450 	andeq	r0, r0, r0, asr r4
    12b4:	00001400 	andeq	r1, r0, r0, lsl #8
    12b8:	5c000100 	stfpls	f0, [r0], {-0}
    12bc:	00000014 	andeq	r0, r0, r4, lsl r0
    12c0:	00000020 	andeq	r0, r0, r0, lsr #32
    12c4:	7f7c0003 	svcvc	0x007c0003
    12c8:	0000009f 	muleq	r0, pc, r0	; <UNPREDICTABLE>
    12cc:	00000000 	andeq	r0, r0, r0
    12d0:	03030000 	movweq	r0, #12288	; 0x3000
    12d4:	0090d000 	addseq	sp, r0, r0
    12d8:	0090d000 	addseq	sp, r0, r0
    12dc:	50000100 	andpl	r0, r0, r0, lsl #2
    12e0:	000090d0 	ldrdeq	r9, [r0], -r0
    12e4:	000090fc 	strdeq	r9, [r0], -ip
    12e8:	01f30004 	mvnseq	r0, r4
    12ec:	00009f50 	andeq	r9, r0, r0, asr pc
    12f0:	00000000 	andeq	r0, r0, r0
    12f4:	03000000 	movweq	r0, #0
    12f8:	90d00003 	sbcsls	r0, r0, r3
    12fc:	90d00000 	sbcsls	r0, r0, r0
    1300:	00010000 	andeq	r0, r1, r0
    1304:	0090d051 	addseq	sp, r0, r1, asr r0
    1308:	0090fc00 	addseq	pc, r0, r0, lsl #24
    130c:	f3000400 	vshl.u8	d0, d0, d0
    1310:	009f5101 	addseq	r5, pc, r1, lsl #2
	...
    131c:	00000303 	andeq	r0, r0, r3, lsl #6
    1320:	0090d000 	addseq	sp, r0, r0
    1324:	0090d000 	addseq	sp, r0, r0
    1328:	52000100 	andpl	r0, r0, #0
    132c:	000090d0 	ldrdeq	r9, [r0], -r0
    1330:	000090d8 	ldrdeq	r9, [r0], -r8
    1334:	d8520001 	ldmdale	r2, {r0}^
    1338:	fc000090 	stc2	0, cr0, [r0], {144}	; 0x90
    133c:	03000090 	movweq	r0, #144	; 0x90
    1340:	9f017200 	svcls	0x00017200
	...
    134c:	00010102 	andeq	r0, r1, r2, lsl #2
    1350:	00000000 	andeq	r0, r0, r0
    1354:	000090d0 	ldrdeq	r9, [r0], -r0
    1358:	000090dc 	ldrdeq	r9, [r0], -ip
    135c:	dc500001 	mrrcle	0, 0, r0, r0, cr1	; <UNPREDICTABLE>
    1360:	e0000090 	mul	r0, r0, r0
    1364:	03000090 	movweq	r0, #144	; 0x90
    1368:	9f017000 	svcls	0x00017000
    136c:	000090e0 	andeq	r9, r0, r0, ror #1
    1370:	000090f0 	strdeq	r9, [r0], -r0
    1374:	f4500001 			; <UNDEFINED> instruction: 0xf4500001
    1378:	f8000090 			; <UNDEFINED> instruction: 0xf8000090
    137c:	01000090 	swpeq	r0, r0, [r0]	; <UNPREDICTABLE>
    1380:	00005000 	andeq	r5, r0, r0
    1384:	00000000 	andeq	r0, r0, r0
    1388:	00020000 	andeq	r0, r2, r0
    138c:	00000000 	andeq	r0, r0, r0
    1390:	000090d0 	ldrdeq	r9, [r0], -r0
    1394:	000090e0 	andeq	r9, r0, r0, ror #1
    1398:	e0510001 	subs	r0, r1, r1
    139c:	e4000090 	str	r0, [r0], #-144	; 0xffffff70
    13a0:	03000090 	movweq	r0, #144	; 0x90
    13a4:	9f017100 	svcls	0x00017100
    13a8:	000090e4 	andeq	r9, r0, r4, ror #1
    13ac:	000090fc 	strdeq	r9, [r0], -ip
    13b0:	00510001 	subseq	r0, r1, r1
    13b4:	00000000 	andeq	r0, r0, r0
    13b8:	Address 0x00000000000013b8 is out of bounds.


Disassembly of section .debug_ranges:

00000000 <.debug_ranges>:
   0:	00000020 	andeq	r0, r0, r0, lsr #32
   4:	00000020 	andeq	r0, r0, r0, lsr #32
   8:	00000020 	andeq	r0, r0, r0, lsr #32
   c:	00000028 	andeq	r0, r0, r8, lsr #32
	...
  18:	000001fc 	strdeq	r0, [r0], -ip
  1c:	000001fc 	strdeq	r0, [r0], -ip
  20:	000001fc 	strdeq	r0, [r0], -ip
  24:	00000204 	andeq	r0, r0, r4, lsl #4
	...
  30:	0000024c 	andeq	r0, r0, ip, asr #4
  34:	0000024c 	andeq	r0, r0, ip, asr #4
  38:	0000024c 	andeq	r0, r0, ip, asr #4
  3c:	00000254 	andeq	r0, r0, r4, asr r2
	...
  48:	00008bf8 	strdeq	r8, [r0], -r8	; <UNPREDICTABLE>
  4c:	00008c74 	andeq	r8, r0, r4, ror ip
	...
  58:	000090d0 	ldrdeq	r9, [r0], -r0
  5c:	000090fc 	strdeq	r9, [r0], -ip
	...
