
1-test.elf:     file format elf32-littlearm


Disassembly of section .text:

00008000 <__code_start__>:
    8000:	e3a0d302 	mov	sp, #134217728	; 0x8000000
    8004:	e3a0b000 	mov	fp, #0, 0
    8008:	eb0002f6 	bl	8be8 <_cstart>
    800c:	eb00030b 	bl	8c40 <rpi_reboot>

00008010 <PUT32>:
    8010:	e5801000 	str	r1, [r0]
    8014:	e12fff1e 	bx	lr

00008018 <GET32>:
    8018:	e5900000 	ldr	r0, [r0]
    801c:	e12fff1e 	bx	lr

00008020 <notmain>:
    8020:	e92d4030 	push	{r4, r5, lr}
    8024:	e24dd00c 	sub	sp, sp, #12, 0
    8028:	e3a00601 	mov	r0, #1048576	; 0x100000
    802c:	eb0000b3 	bl	8300 <kmalloc_init_set_start>
    8030:	e59f0080 	ldr	r0, [pc, #128]	; 80b8 <notmain+0x98>
    8034:	eb0000e6 	bl	83d4 <printk>
    8038:	e59f007c 	ldr	r0, [pc, #124]	; 80bc <notmain+0x9c>
    803c:	eb0000e4 	bl	83d4 <printk>
    8040:	e3a05000 	mov	r5, #0, 0
    8044:	e3550009 	cmp	r5, #9, 0
    8048:	ca000014 	bgt	80a0 <notmain+0x80>
    804c:	e3a01002 	mov	r1, #2, 0
    8050:	e3a00004 	mov	r0, #4, 0
    8054:	eb000053 	bl	81a8 <kmalloc_aligned>
    8058:	e1a04000 	mov	r4, r0
    805c:	e59f0054 	ldr	r0, [pc, #84]	; 80b8 <notmain+0x98>
    8060:	eb0000db 	bl	83d4 <printk>
    8064:	e1a02004 	mov	r2, r4
    8068:	e1a01005 	mov	r1, r5
    806c:	e59f004c 	ldr	r0, [pc, #76]	; 80c0 <notmain+0xa0>
    8070:	eb0000d7 	bl	83d4 <printk>
    8074:	e3140003 	tst	r4, #3, 0
    8078:	02855001 	addeq	r5, r5, #1, 0
    807c:	0afffff0 	beq	8044 <notmain+0x24>
    8080:	e59f303c 	ldr	r3, [pc, #60]	; 80c4 <notmain+0xa4>
    8084:	e58d3000 	str	r3, [sp]
    8088:	e3a03009 	mov	r3, #9, 0
    808c:	e59f2034 	ldr	r2, [pc, #52]	; 80c8 <notmain+0xa8>
    8090:	e59f1034 	ldr	r1, [pc, #52]	; 80cc <notmain+0xac>
    8094:	e59f0034 	ldr	r0, [pc, #52]	; 80d0 <notmain+0xb0>
    8098:	eb0000cd 	bl	83d4 <printk>
    809c:	eb0002c6 	bl	8bbc <clean_reboot>
    80a0:	e59f0010 	ldr	r0, [pc, #16]	; 80b8 <notmain+0x98>
    80a4:	eb0000ca 	bl	83d4 <printk>
    80a8:	e59f0024 	ldr	r0, [pc, #36]	; 80d4 <notmain+0xb4>
    80ac:	eb0000c8 	bl	83d4 <printk>
    80b0:	e28dd00c 	add	sp, sp, #12, 0
    80b4:	e8bd8030 	pop	{r4, r5, pc}
    80b8:	00009130 	andeq	r9, r0, r0, lsr r1
    80bc:	00009138 	andeq	r9, r0, r8, lsr r1
    80c0:	00009178 	andeq	r9, r0, r8, ror r1
    80c4:	000091a4 	andeq	r9, r0, r4, lsr #3
    80c8:	000091c8 	andeq	r9, r0, r8, asr #3
    80cc:	00009184 	andeq	r9, r0, r4, lsl #3
    80d0:	00009190 	muleq	r0, r0, r1
    80d4:	000091bc 			; <UNDEFINED> instruction: 0x000091bc

000080d8 <kmalloc>:
    80d8:	e52de004 	push	{lr}		; (str lr, [sp, #-4]!)
    80dc:	e24dd00c 	sub	sp, sp, #12, 0
    80e0:	e3500000 	cmp	r0, #0, 0
    80e4:	0a00000d 	beq	8120 <kmalloc+0x48>
    80e8:	e59f3094 	ldr	r3, [pc, #148]	; 8184 <kmalloc+0xac>
    80ec:	e5933000 	ldr	r3, [r3]
    80f0:	e3530000 	cmp	r3, #0, 0
    80f4:	0a000011 	beq	8140 <kmalloc+0x68>
    80f8:	e2800003 	add	r0, r0, #3, 0
    80fc:	e3c03003 	bic	r3, r0, #3, 0
    8100:	e59f2080 	ldr	r2, [pc, #128]	; 8188 <kmalloc+0xb0>
    8104:	e5920000 	ldr	r0, [r2]
    8108:	e0803003 	add	r3, r0, r3
    810c:	e5823000 	str	r3, [r2]
    8110:	e3130003 	tst	r3, #3, 0
    8114:	1a000012 	bne	8164 <kmalloc+0x8c>
    8118:	e28dd00c 	add	sp, sp, #12, 0
    811c:	e49df004 	pop	{pc}		; (ldr pc, [sp], #4)
    8120:	e59f3064 	ldr	r3, [pc, #100]	; 818c <kmalloc+0xb4>
    8124:	e58d3000 	str	r3, [sp]
    8128:	e3a03035 	mov	r3, #53, 0	; 0x35
    812c:	e59f205c 	ldr	r2, [pc, #92]	; 8190 <kmalloc+0xb8>
    8130:	e59f105c 	ldr	r1, [pc, #92]	; 8194 <kmalloc+0xbc>
    8134:	e59f005c 	ldr	r0, [pc, #92]	; 8198 <kmalloc+0xc0>
    8138:	eb0000a5 	bl	83d4 <printk>
    813c:	eb00029e 	bl	8bbc <clean_reboot>
    8140:	eb0000be 	bl	8440 <rpi_reset_putc>
    8144:	e59f3050 	ldr	r3, [pc, #80]	; 819c <kmalloc+0xc4>
    8148:	e58d3000 	str	r3, [sp]
    814c:	e3a03036 	mov	r3, #54, 0	; 0x36
    8150:	e59f2038 	ldr	r2, [pc, #56]	; 8190 <kmalloc+0xb8>
    8154:	e59f1038 	ldr	r1, [pc, #56]	; 8194 <kmalloc+0xbc>
    8158:	e59f0040 	ldr	r0, [pc, #64]	; 81a0 <kmalloc+0xc8>
    815c:	eb00009c 	bl	83d4 <printk>
    8160:	eb000295 	bl	8bbc <clean_reboot>
    8164:	e59f3038 	ldr	r3, [pc, #56]	; 81a4 <kmalloc+0xcc>
    8168:	e58d3000 	str	r3, [sp]
    816c:	e3a0303a 	mov	r3, #58, 0	; 0x3a
    8170:	e59f2018 	ldr	r2, [pc, #24]	; 8190 <kmalloc+0xb8>
    8174:	e59f1018 	ldr	r1, [pc, #24]	; 8194 <kmalloc+0xbc>
    8178:	e59f0018 	ldr	r0, [pc, #24]	; 8198 <kmalloc+0xc0>
    817c:	eb000094 	bl	83d4 <printk>
    8180:	eb00028d 	bl	8bbc <clean_reboot>
    8184:	000094d8 	ldrdeq	r9, [r0], -r8
    8188:	000098dc 	ldrdeq	r9, [r0], -ip
    818c:	00009244 	andeq	r9, r0, r4, asr #4
    8190:	0000931c 	andeq	r9, r0, ip, lsl r3
    8194:	000091d0 	ldrdeq	r9, [r0], -r0
    8198:	00009190 	muleq	r0, r0, r1
    819c:	00009218 	andeq	r9, r0, r8, lsl r2
    81a0:	000091dc 	ldrdeq	r9, [r0], -ip
    81a4:	00009220 	andeq	r9, r0, r0, lsr #4

000081a8 <kmalloc_aligned>:
    81a8:	e52de004 	push	{lr}		; (str lr, [sp, #-4]!)
    81ac:	e24dd00c 	sub	sp, sp, #12, 0
    81b0:	e3500004 	cmp	r0, #4, 0
    81b4:	1a00000f 	bne	81f8 <kmalloc_aligned+0x50>
    81b8:	e59f30c8 	ldr	r3, [pc, #200]	; 8288 <kmalloc_aligned+0xe0>
    81bc:	e5933000 	ldr	r3, [r3]
    81c0:	e3530000 	cmp	r3, #0, 0
    81c4:	0a000013 	beq	8218 <kmalloc_aligned+0x70>
    81c8:	e2613000 	rsb	r3, r1, #0, 0
    81cc:	e1d13003 	bics	r3, r1, r3
    81d0:	1a000019 	bne	823c <kmalloc_aligned+0x94>
    81d4:	e3510004 	cmp	r1, #4, 0
    81d8:	9a000020 	bls	8260 <kmalloc_aligned+0xb8>
    81dc:	e59f30a8 	ldr	r3, [pc, #168]	; 828c <kmalloc_aligned+0xe4>
    81e0:	e5930000 	ldr	r0, [r3]
    81e4:	e2411001 	sub	r1, r1, #1, 0
    81e8:	e1100001 	tst	r0, r1
    81ec:	1a00001d 	bne	8268 <kmalloc_aligned+0xc0>
    81f0:	e28dd00c 	add	sp, sp, #12, 0
    81f4:	e49df004 	pop	{pc}		; (ldr pc, [sp], #4)
    81f8:	e59f3090 	ldr	r3, [pc, #144]	; 8290 <kmalloc_aligned+0xe8>
    81fc:	e58d3000 	str	r3, [sp]
    8200:	e3a03043 	mov	r3, #67, 0	; 0x43
    8204:	e59f2088 	ldr	r2, [pc, #136]	; 8294 <kmalloc_aligned+0xec>
    8208:	e59f1088 	ldr	r1, [pc, #136]	; 8298 <kmalloc_aligned+0xf0>
    820c:	e59f0088 	ldr	r0, [pc, #136]	; 829c <kmalloc_aligned+0xf4>
    8210:	eb00006f 	bl	83d4 <printk>
    8214:	eb000268 	bl	8bbc <clean_reboot>
    8218:	eb000088 	bl	8440 <rpi_reset_putc>
    821c:	e59f307c 	ldr	r3, [pc, #124]	; 82a0 <kmalloc_aligned+0xf8>
    8220:	e58d3000 	str	r3, [sp]
    8224:	e3a03044 	mov	r3, #68, 0	; 0x44
    8228:	e59f2064 	ldr	r2, [pc, #100]	; 8294 <kmalloc_aligned+0xec>
    822c:	e59f1064 	ldr	r1, [pc, #100]	; 8298 <kmalloc_aligned+0xf0>
    8230:	e59f006c 	ldr	r0, [pc, #108]	; 82a4 <kmalloc_aligned+0xfc>
    8234:	eb000066 	bl	83d4 <printk>
    8238:	eb00025f 	bl	8bbc <clean_reboot>
    823c:	eb00007f 	bl	8440 <rpi_reset_putc>
    8240:	e59f3060 	ldr	r3, [pc, #96]	; 82a8 <kmalloc_aligned+0x100>
    8244:	e58d3000 	str	r3, [sp]
    8248:	e3a03045 	mov	r3, #69, 0	; 0x45
    824c:	e59f2040 	ldr	r2, [pc, #64]	; 8294 <kmalloc_aligned+0xec>
    8250:	e59f1040 	ldr	r1, [pc, #64]	; 8298 <kmalloc_aligned+0xf0>
    8254:	e59f0050 	ldr	r0, [pc, #80]	; 82ac <kmalloc_aligned+0x104>
    8258:	eb00005d 	bl	83d4 <printk>
    825c:	eb000256 	bl	8bbc <clean_reboot>
    8260:	ebffff9c 	bl	80d8 <kmalloc>
    8264:	eaffffe1 	b	81f0 <kmalloc_aligned+0x48>
    8268:	e59f3040 	ldr	r3, [pc, #64]	; 82b0 <kmalloc_aligned+0x108>
    826c:	e58d3000 	str	r3, [sp]
    8270:	e3a0304a 	mov	r3, #74, 0	; 0x4a
    8274:	e59f2018 	ldr	r2, [pc, #24]	; 8294 <kmalloc_aligned+0xec>
    8278:	e59f1018 	ldr	r1, [pc, #24]	; 8298 <kmalloc_aligned+0xf0>
    827c:	e59f0018 	ldr	r0, [pc, #24]	; 829c <kmalloc_aligned+0xf4>
    8280:	eb000053 	bl	83d4 <printk>
    8284:	eb00024c 	bl	8bbc <clean_reboot>
    8288:	000094d8 	ldrdeq	r9, [r0], -r8
    828c:	000098dc 	ldrdeq	r9, [r0], -ip
    8290:	00009234 	andeq	r9, r0, r4, lsr r2
    8294:	00009324 	andeq	r9, r0, r4, lsr #6
    8298:	000091d0 	ldrdeq	r9, [r0], -r0
    829c:	00009190 	muleq	r0, r0, r1
    82a0:	00009218 	andeq	r9, r0, r8, lsl r2
    82a4:	000091dc 	ldrdeq	r9, [r0], -ip
    82a8:	00009280 	andeq	r9, r0, r0, lsl #5
    82ac:	0000924c 	andeq	r9, r0, ip, asr #4
    82b0:	00009294 	muleq	r0, r4, r2

000082b4 <kmalloc_init>:
    82b4:	e59f3034 	ldr	r3, [pc, #52]	; 82f0 <kmalloc_init+0x3c>
    82b8:	e5933000 	ldr	r3, [r3]
    82bc:	e3530000 	cmp	r3, #0, 0
    82c0:	112fff1e 	bxne	lr
    82c4:	e92d4010 	push	{r4, lr}
    82c8:	e59f3020 	ldr	r3, [pc, #32]	; 82f0 <kmalloc_init+0x3c>
    82cc:	e3a02001 	mov	r2, #1, 0
    82d0:	e5832000 	str	r2, [r3]
    82d4:	e59f1018 	ldr	r1, [pc, #24]	; 82f4 <kmalloc_init+0x40>
    82d8:	e3c11003 	bic	r1, r1, #3, 0
    82dc:	e59f3014 	ldr	r3, [pc, #20]	; 82f8 <kmalloc_init+0x44>
    82e0:	e5831000 	str	r1, [r3]
    82e4:	e59f0010 	ldr	r0, [pc, #16]	; 82fc <kmalloc_init+0x48>
    82e8:	eb000039 	bl	83d4 <printk>
    82ec:	e8bd8010 	pop	{r4, pc}
    82f0:	000094d8 	ldrdeq	r9, [r0], -r8
    82f4:	000098e3 	andeq	r9, r0, r3, ror #17
    82f8:	000098dc 	ldrdeq	r9, [r0], -ip
    82fc:	000092b0 			; <UNDEFINED> instruction: 0x000092b0

00008300 <kmalloc_init_set_start>:
    8300:	e52de004 	push	{lr}		; (str lr, [sp, #-4]!)
    8304:	e24dd00c 	sub	sp, sp, #12, 0
    8308:	e59f3058 	ldr	r3, [pc, #88]	; 8368 <kmalloc_init_set_start+0x68>
    830c:	e5933000 	ldr	r3, [r3]
    8310:	e3530000 	cmp	r3, #0, 0
    8314:	1a00000a 	bne	8344 <kmalloc_init_set_start+0x44>
    8318:	e59f3048 	ldr	r3, [pc, #72]	; 8368 <kmalloc_init_set_start+0x68>
    831c:	e3a02001 	mov	r2, #1, 0
    8320:	e5832000 	str	r2, [r3]
    8324:	e2800003 	add	r0, r0, #3, 0
    8328:	e3c01003 	bic	r1, r0, #3, 0
    832c:	e59f3038 	ldr	r3, [pc, #56]	; 836c <kmalloc_init_set_start+0x6c>
    8330:	e5831000 	str	r1, [r3]
    8334:	e59f0034 	ldr	r0, [pc, #52]	; 8370 <kmalloc_init_set_start+0x70>
    8338:	eb000025 	bl	83d4 <printk>
    833c:	e28dd00c 	add	sp, sp, #12, 0
    8340:	e49df004 	pop	{pc}		; (ldr pc, [sp], #4)
    8344:	eb00003d 	bl	8440 <rpi_reset_putc>
    8348:	e59f3024 	ldr	r3, [pc, #36]	; 8374 <kmalloc_init_set_start+0x74>
    834c:	e58d3000 	str	r3, [sp]
    8350:	e3a03063 	mov	r3, #99, 0	; 0x63
    8354:	e59f201c 	ldr	r2, [pc, #28]	; 8378 <kmalloc_init_set_start+0x78>
    8358:	e59f101c 	ldr	r1, [pc, #28]	; 837c <kmalloc_init_set_start+0x7c>
    835c:	e59f001c 	ldr	r0, [pc, #28]	; 8380 <kmalloc_init_set_start+0x80>
    8360:	eb00001b 	bl	83d4 <printk>
    8364:	eb000214 	bl	8bbc <clean_reboot>
    8368:	000094d8 	ldrdeq	r9, [r0], -r8
    836c:	000098dc 	ldrdeq	r9, [r0], -ip
    8370:	000092b0 			; <UNDEFINED> instruction: 0x000092b0
    8374:	000092e8 	andeq	r9, r0, r8, ror #5
    8378:	00009334 	andeq	r9, r0, r4, lsr r3
    837c:	000091d0 	ldrdeq	r9, [r0], -r0
    8380:	000092b4 			; <UNDEFINED> instruction: 0x000092b4

00008384 <kfree_all>:
    8384:	e92d4010 	push	{r4, lr}
    8388:	e3a0306f 	mov	r3, #111, 0	; 0x6f
    838c:	e59f200c 	ldr	r2, [pc, #12]	; 83a0 <kfree_all+0x1c>
    8390:	e59f100c 	ldr	r1, [pc, #12]	; 83a4 <kfree_all+0x20>
    8394:	e59f000c 	ldr	r0, [pc, #12]	; 83a8 <kfree_all+0x24>
    8398:	eb00000d 	bl	83d4 <printk>
    839c:	eb000206 	bl	8bbc <clean_reboot>
    83a0:	0000934c 	andeq	r9, r0, ip, asr #6
    83a4:	000091d0 	ldrdeq	r9, [r0], -r0
    83a8:	000092f0 	strdeq	r9, [r0], -r0

000083ac <kmalloc_heap_ptr>:
    83ac:	e92d4010 	push	{r4, lr}
    83b0:	e3a03078 	mov	r3, #120, 0	; 0x78
    83b4:	e59f200c 	ldr	r2, [pc, #12]	; 83c8 <kmalloc_heap_ptr+0x1c>
    83b8:	e59f100c 	ldr	r1, [pc, #12]	; 83cc <kmalloc_heap_ptr+0x20>
    83bc:	e59f000c 	ldr	r0, [pc, #12]	; 83d0 <kmalloc_heap_ptr+0x24>
    83c0:	eb000003 	bl	83d4 <printk>
    83c4:	eb0001fc 	bl	8bbc <clean_reboot>
    83c8:	00009358 	andeq	r9, r0, r8, asr r3
    83cc:	000091d0 	ldrdeq	r9, [r0], -r0
    83d0:	000092f0 	strdeq	r9, [r0], -r0

000083d4 <printk>:
    83d4:	e92d000f 	push	{r0, r1, r2, r3}
    83d8:	e92d4030 	push	{r4, r5, lr}
    83dc:	e24dd00c 	sub	sp, sp, #12, 0
    83e0:	e28d301c 	add	r3, sp, #28, 0
    83e4:	e58d3004 	str	r3, [sp, #4]
    83e8:	e59f5034 	ldr	r5, [pc, #52]	; 8424 <printk+0x50>
    83ec:	e59d2018 	ldr	r2, [sp, #24]
    83f0:	e3a01b01 	mov	r1, #1024	; 0x400
    83f4:	e1a00005 	mov	r0, r5
    83f8:	eb0000c9 	bl	8724 <va_printk>
    83fc:	e1a04000 	mov	r4, r0
    8400:	e59f3020 	ldr	r3, [pc, #32]	; 8428 <printk+0x54>
    8404:	e5933000 	ldr	r3, [r3]
    8408:	e1a00005 	mov	r0, r5
    840c:	e12fff33 	blx	r3
    8410:	e1a00004 	mov	r0, r4
    8414:	e28dd00c 	add	sp, sp, #12, 0
    8418:	e8bd4030 	pop	{r4, r5, lr}
    841c:	e28dd010 	add	sp, sp, #16, 0
    8420:	e12fff1e 	bx	lr
    8424:	000094dc 	ldrdeq	r9, [r0], -ip
    8428:	000094d4 	ldrdeq	r9, [r0], -r4

0000842c <internal_putchar>:
    842c:	e92d4010 	push	{r4, lr}
    8430:	e1a04000 	mov	r4, r0
    8434:	eb000284 	bl	8e4c <uart_putc>
    8438:	e1a00004 	mov	r0, r4
    843c:	e8bd8010 	pop	{r4, pc}

00008440 <rpi_reset_putc>:
    8440:	e59f3008 	ldr	r3, [pc, #8]	; 8450 <rpi_reset_putc+0x10>
    8444:	e59f2008 	ldr	r2, [pc, #8]	; 8454 <rpi_reset_putc+0x14>
    8448:	e5832000 	str	r2, [r3]
    844c:	e12fff1e 	bx	lr
    8450:	000094d0 	ldrdeq	r9, [r0], -r0
    8454:	0000842c 	andeq	r8, r0, ip, lsr #8

00008458 <rpi_set_putc>:
    8458:	e59f3004 	ldr	r3, [pc, #4]	; 8464 <rpi_set_putc+0xc>
    845c:	e5830000 	str	r0, [r3]
    8460:	e12fff1e 	bx	lr
    8464:	000094d0 	ldrdeq	r9, [r0], -r0

00008468 <internal_putk>:
    8468:	e92d4010 	push	{r4, lr}
    846c:	e1a04000 	mov	r4, r0
    8470:	e5d40000 	ldrb	r0, [r4]
    8474:	e3500000 	cmp	r0, #0, 0
    8478:	0a000004 	beq	8490 <internal_putk+0x28>
    847c:	e59f3014 	ldr	r3, [pc, #20]	; 8498 <internal_putk+0x30>
    8480:	e5933000 	ldr	r3, [r3]
    8484:	e12fff33 	blx	r3
    8488:	e2844001 	add	r4, r4, #1, 0
    848c:	eafffff7 	b	8470 <internal_putk+0x8>
    8490:	e3a00001 	mov	r0, #1, 0
    8494:	e8bd8010 	pop	{r4, pc}
    8498:	000094d0 	ldrdeq	r9, [r0], -r0

0000849c <isdigit>:
    849c:	e2400030 	sub	r0, r0, #48, 0	; 0x30
    84a0:	e3500009 	cmp	r0, #9, 0
    84a4:	83a00000 	movhi	r0, #0, 0
    84a8:	93a00001 	movls	r0, #1, 0
    84ac:	e12fff1e 	bx	lr

000084b0 <pad>:
    84b0:	e0401001 	sub	r1, r0, r1
    84b4:	e1510002 	cmp	r1, r2
    84b8:	b3a03020 	movlt	r3, #32, 0
    84bc:	b4c03001 	strblt	r3, [r0], #1
    84c0:	b2811001 	addlt	r1, r1, #1, 0
    84c4:	bafffffa 	blt	84b4 <pad+0x4>
    84c8:	e3a03000 	mov	r3, #0, 0
    84cc:	e5c03000 	strb	r3, [r0]
    84d0:	e12fff1e 	bx	lr

000084d4 <reverse>:
    84d4:	e042c003 	sub	ip, r2, r3
    84d8:	e28cc001 	add	ip, ip, #1, 0
    84dc:	e15c0001 	cmp	ip, r1
    84e0:	c04cc001 	subgt	ip, ip, r1
    84e4:	c083300c 	addgt	r3, r3, ip
    84e8:	e2421001 	sub	r1, r2, #1, 0
    84ec:	e1a02000 	mov	r2, r0
    84f0:	e1510003 	cmp	r1, r3
    84f4:	2451c001 	ldrbcs	ip, [r1], #-1
    84f8:	24c2c001 	strbcs	ip, [r2], #1
    84fc:	2afffffb 	bcs	84f0 <reverse+0x1c>
    8500:	e3a03000 	mov	r3, #0, 0
    8504:	e5c23000 	strb	r3, [r2]
    8508:	e12fff1e 	bx	lr

0000850c <emit>:
    850c:	e92d40f0 	push	{r4, r5, r6, r7, lr}
    8510:	e24dd04c 	sub	sp, sp, #76, 0	; 0x4c
    8514:	e1a05001 	mov	r5, r1
    8518:	e1a04002 	mov	r4, r2
    851c:	e59d2060 	ldr	r2, [sp, #96]	; 0x60
    8520:	e1520004 	cmp	r2, r4
    8524:	c2442001 	subgt	r2, r4, #1, 0
    8528:	e1a0c003 	mov	ip, r3
    852c:	e2400002 	sub	r0, r0, #2, 0
    8530:	e350000e 	cmp	r0, #14, 0
    8534:	979ff100 	ldrls	pc, [pc, r0, lsl #2]
    8538:	ea000050 	b	8680 <emit+0x174>
    853c:	00008658 	andeq	r8, r0, r8, asr r6
    8540:	00008680 	andeq	r8, r0, r0, lsl #13
    8544:	00008680 	andeq	r8, r0, r0, lsl #13
    8548:	00008680 	andeq	r8, r0, r0, lsl #13
    854c:	00008680 	andeq	r8, r0, r0, lsl #13
    8550:	00008680 	andeq	r8, r0, r0, lsl #13
    8554:	0000864c 	andeq	r8, r0, ip, asr #12
    8558:	00008680 	andeq	r8, r0, r0, lsl #13
    855c:	00008578 	andeq	r8, r0, r8, ror r5
    8560:	00008680 	andeq	r8, r0, r0, lsl #13
    8564:	00008680 	andeq	r8, r0, r0, lsl #13
    8568:	00008680 	andeq	r8, r0, r0, lsl #13
    856c:	00008680 	andeq	r8, r0, r0, lsl #13
    8570:	00008680 	andeq	r8, r0, r0, lsl #13
    8574:	000085f0 	strdeq	r8, [r0], -r0
    8578:	e59d1064 	ldr	r1, [sp, #100]	; 0x64
    857c:	e2511000 	subs	r1, r1, #0, 0
    8580:	13a01001 	movne	r1, #1, 0
    8584:	e0111fa3 	ands	r1, r1, r3, lsr #31
    8588:	0a000016 	beq	85e8 <emit+0xdc>
    858c:	e263c000 	rsb	ip, r3, #0, 0
    8590:	e3a06001 	mov	r6, #1, 0
    8594:	e28d0008 	add	r0, sp, #8, 0
    8598:	e59f3100 	ldr	r3, [pc, #256]	; 86a0 <emit+0x194>
    859c:	e0831c93 	umull	r1, r3, r3, ip
    85a0:	e1a031a3 	lsr	r3, r3, #3
    85a4:	e1a0e003 	mov	lr, r3
    85a8:	e0833103 	add	r3, r3, r3, lsl #2
    85ac:	e04c3083 	sub	r3, ip, r3, lsl #1
    85b0:	e1a01000 	mov	r1, r0
    85b4:	e2800001 	add	r0, r0, #1, 0
    85b8:	e59f70e4 	ldr	r7, [pc, #228]	; 86a4 <emit+0x198>
    85bc:	e7d73003 	ldrb	r3, [r7, r3]
    85c0:	e5c13000 	strb	r3, [r1]
    85c4:	e1a0300c 	mov	r3, ip
    85c8:	e1a0c00e 	mov	ip, lr
    85cc:	e3530009 	cmp	r3, #9, 0
    85d0:	8afffff0 	bhi	8598 <emit+0x8c>
    85d4:	e3560000 	cmp	r6, #0, 0
    85d8:	13a0302d 	movne	r3, #45, 0	; 0x2d
    85dc:	15c03000 	strbne	r3, [r0]
    85e0:	12810002 	addne	r0, r1, #2, 0
    85e4:	ea00000f 	b	8628 <emit+0x11c>
    85e8:	e3a06000 	mov	r6, #0, 0
    85ec:	eaffffe8 	b	8594 <emit+0x88>
    85f0:	e28d1008 	add	r1, sp, #8, 0
    85f4:	e20c000f 	and	r0, ip, #15, 0
    85f8:	e59fe0a8 	ldr	lr, [pc, #168]	; 86a8 <emit+0x19c>
    85fc:	e7de0000 	ldrb	r0, [lr, r0]
    8600:	e5c10000 	strb	r0, [r1]
    8604:	e2811001 	add	r1, r1, #1, 0
    8608:	e35c000f 	cmp	ip, #15, 0
    860c:	e1a0c22c 	lsr	ip, ip, #4
    8610:	8afffff7 	bhi	85f4 <emit+0xe8>
    8614:	e1a00001 	mov	r0, r1
    8618:	e3a03078 	mov	r3, #120, 0	; 0x78
    861c:	e4c03002 	strb	r3, [r0], #2
    8620:	e3a03030 	mov	r3, #48, 0	; 0x30
    8624:	e5c13001 	strb	r3, [r1, #1]
    8628:	e28d1008 	add	r1, sp, #8, 0
    862c:	ebffff9f 	bl	84b0 <pad>
    8630:	e1a02000 	mov	r2, r0
    8634:	e28d3008 	add	r3, sp, #8, 0
    8638:	e1a01004 	mov	r1, r4
    863c:	e1a00005 	mov	r0, r5
    8640:	ebffffa3 	bl	84d4 <reverse>
    8644:	e28dd04c 	add	sp, sp, #76, 0	; 0x4c
    8648:	e8bd80f0 	pop	{r4, r5, r6, r7, pc}
    864c:	e5cd3008 	strb	r3, [sp, #8]
    8650:	e28d0009 	add	r0, sp, #9, 0
    8654:	eafffff3 	b	8628 <emit+0x11c>
    8658:	e28d0008 	add	r0, sp, #8, 0
    865c:	e20c1001 	and	r1, ip, #1, 0
    8660:	e59fe044 	ldr	lr, [pc, #68]	; 86ac <emit+0x1a0>
    8664:	e7de1001 	ldrb	r1, [lr, r1]
    8668:	e5c01000 	strb	r1, [r0]
    866c:	e2800001 	add	r0, r0, #1, 0
    8670:	e35c0001 	cmp	ip, #1, 0
    8674:	e1a0c0ac 	lsr	ip, ip, #1
    8678:	8afffff7 	bhi	865c <emit+0x150>
    867c:	eaffffe9 	b	8628 <emit+0x11c>
    8680:	e59f3028 	ldr	r3, [pc, #40]	; 86b0 <emit+0x1a4>
    8684:	e58d3000 	str	r3, [sp]
    8688:	e3a03079 	mov	r3, #121, 0	; 0x79
    868c:	e59f2020 	ldr	r2, [pc, #32]	; 86b4 <emit+0x1a8>
    8690:	e59f1020 	ldr	r1, [pc, #32]	; 86b8 <emit+0x1ac>
    8694:	e59f0020 	ldr	r0, [pc, #32]	; 86bc <emit+0x1b0>
    8698:	ebffff4d 	bl	83d4 <printk>
    869c:	eb000146 	bl	8bbc <clean_reboot>
    86a0:	cccccccd 	stclgt	12, cr12, [ip], {205}	; 0xcd
    86a4:	00009384 	andeq	r9, r0, r4, lsl #7
    86a8:	00009390 	muleq	r0, r0, r3
    86ac:	000093a4 	andeq	r9, r0, r4, lsr #7
    86b0:	00009380 	andeq	r9, r0, r0, lsl #7
    86b4:	000094a0 	andeq	r9, r0, r0, lsr #9
    86b8:	0000936c 	andeq	r9, r0, ip, ror #6
    86bc:	00009190 	muleq	r0, r0, r1

000086c0 <rpi_set_output>:
    86c0:	e3500000 	cmp	r0, #0, 0
    86c4:	0a000006 	beq	86e4 <rpi_set_output+0x24>
    86c8:	e59f303c 	ldr	r3, [pc, #60]	; 870c <rpi_set_output+0x4c>
    86cc:	e5830000 	str	r0, [r3]
    86d0:	e3510000 	cmp	r1, #0, 0
    86d4:	012fff1e 	bxeq	lr
    86d8:	e59f3030 	ldr	r3, [pc, #48]	; 8710 <rpi_set_output+0x50>
    86dc:	e5831000 	str	r1, [r3]
    86e0:	e12fff1e 	bx	lr
    86e4:	e52de004 	push	{lr}		; (str lr, [sp, #-4]!)
    86e8:	e24dd00c 	sub	sp, sp, #12, 0
    86ec:	e59f3020 	ldr	r3, [pc, #32]	; 8714 <rpi_set_output+0x54>
    86f0:	e58d3000 	str	r3, [sp]
    86f4:	e3a03020 	mov	r3, #32, 0
    86f8:	e59f2018 	ldr	r2, [pc, #24]	; 8718 <rpi_set_output+0x58>
    86fc:	e59f1018 	ldr	r1, [pc, #24]	; 871c <rpi_set_output+0x5c>
    8700:	e59f0018 	ldr	r0, [pc, #24]	; 8720 <rpi_set_output+0x60>
    8704:	ebffff32 	bl	83d4 <printk>
    8708:	eb00012b 	bl	8bbc <clean_reboot>
    870c:	000094d0 	ldrdeq	r9, [r0], -r0
    8710:	000094d4 	ldrdeq	r9, [r0], -r4
    8714:	000093a8 	andeq	r9, r0, r8, lsr #7
    8718:	000094a8 	andeq	r9, r0, r8, lsr #9
    871c:	0000936c 	andeq	r9, r0, ip, ror #6
    8720:	00009190 	muleq	r0, r0, r1

00008724 <va_printk>:
    8724:	e92d4ff0 	push	{r4, r5, r6, r7, r8, r9, sl, fp, lr}
    8728:	e24ddf45 	sub	sp, sp, #276	; 0x114
    872c:	e1a09000 	mov	r9, r0
    8730:	e58d2008 	str	r2, [sp, #8]
    8734:	e58d300c 	str	r3, [sp, #12]
    8738:	e2411001 	sub	r1, r1, #1, 0
    873c:	e0808001 	add	r8, r0, r1
    8740:	e3a03000 	mov	r3, #0, 0
    8744:	e5c03000 	strb	r3, [r0]
    8748:	e1a04000 	mov	r4, r0
    874c:	e1a06002 	mov	r6, r2
    8750:	ea000001 	b	875c <va_printk+0x38>
    8754:	e2866001 	add	r6, r6, #1, 0
    8758:	e4c43001 	strb	r3, [r4], #1
    875c:	e5d63000 	ldrb	r3, [r6]
    8760:	e3530000 	cmp	r3, #0, 0
    8764:	0a000102 	beq	8b74 <va_printk+0x450>
    8768:	e1540008 	cmp	r4, r8
    876c:	2a000100 	bcs	8b74 <va_printk+0x450>
    8770:	e3530025 	cmp	r3, #37, 0	; 0x25
    8774:	1afffff6 	bne	8754 <va_printk+0x30>
    8778:	e5d62001 	ldrb	r2, [r6, #1]
    877c:	e3520025 	cmp	r2, #37, 0	; 0x25
    8780:	04c43001 	strbeq	r3, [r4], #1
    8784:	02866002 	addeq	r6, r6, #2, 0
    8788:	0afffff3 	beq	875c <va_printk+0x38>
    878c:	e2866001 	add	r6, r6, #1, 0
    8790:	e3a05000 	mov	r5, #0, 0
    8794:	e5d67000 	ldrb	r7, [r6]
    8798:	e1a0a007 	mov	sl, r7
    879c:	e1a00007 	mov	r0, r7
    87a0:	ebffff3d 	bl	849c <isdigit>
    87a4:	e3500000 	cmp	r0, #0, 0
    87a8:	0a000004 	beq	87c0 <va_printk+0x9c>
    87ac:	e0855105 	add	r5, r5, r5, lsl #2
    87b0:	e0875085 	add	r5, r7, r5, lsl #1
    87b4:	e2455030 	sub	r5, r5, #48, 0	; 0x30
    87b8:	e2866001 	add	r6, r6, #1, 0
    87bc:	eafffff4 	b	8794 <va_printk+0x70>
    87c0:	e355001f 	cmp	r5, #31, 0
    87c4:	8a00001a 	bhi	8834 <va_printk+0x110>
    87c8:	e2477062 	sub	r7, r7, #98, 0	; 0x62
    87cc:	e3570016 	cmp	r7, #22, 0
    87d0:	979ff107 	ldrls	pc, [pc, r7, lsl #2]
    87d4:	ea0000ce 	b	8b14 <va_printk+0x3f0>
    87d8:	00008a98 	muleq	r0, r8, sl
    87dc:	00008ae0 	andeq	r8, r0, r0, ror #21
    87e0:	000089f8 	strdeq	r8, [r0], -r8	; <UNPREDICTABLE>
    87e4:	00008b14 	andeq	r8, r0, r4, lsl fp
    87e8:	000089e0 	andeq	r8, r0, r0, ror #19
    87ec:	00008b14 	andeq	r8, r0, r4, lsl fp
    87f0:	00008b14 	andeq	r8, r0, r4, lsl fp
    87f4:	00008b14 	andeq	r8, r0, r4, lsl fp
    87f8:	00008b14 	andeq	r8, r0, r4, lsl fp
    87fc:	00008b14 	andeq	r8, r0, r4, lsl fp
    8800:	00008854 	andeq	r8, r0, r4, asr r8
    8804:	00008b14 	andeq	r8, r0, r4, lsl fp
    8808:	00008b14 	andeq	r8, r0, r4, lsl fp
    880c:	00008b14 	andeq	r8, r0, r4, lsl fp
    8810:	00008a64 	andeq	r8, r0, r4, ror #20
    8814:	00008b14 	andeq	r8, r0, r4, lsl fp
    8818:	00008b14 	andeq	r8, r0, r4, lsl fp
    881c:	00008acc 	andeq	r8, r0, ip, asr #21
    8820:	00008b14 	andeq	r8, r0, r4, lsl fp
    8824:	00008a30 	andeq	r8, r0, r0, lsr sl
    8828:	00008b14 	andeq	r8, r0, r4, lsl fp
    882c:	00008b14 	andeq	r8, r0, r4, lsl fp
    8830:	00008a64 	andeq	r8, r0, r4, ror #20
    8834:	e59f334c 	ldr	r3, [pc, #844]	; 8b88 <va_printk+0x464>
    8838:	e58d3000 	str	r3, [sp]
    883c:	e3a03098 	mov	r3, #152, 0	; 0x98
    8840:	e59f2344 	ldr	r2, [pc, #836]	; 8b8c <va_printk+0x468>
    8844:	e59f1344 	ldr	r1, [pc, #836]	; 8b90 <va_printk+0x46c>
    8848:	e59f0344 	ldr	r0, [pc, #836]	; 8b94 <va_printk+0x470>
    884c:	ebfffee0 	bl	83d4 <printk>
    8850:	eb0000d9 	bl	8bbc <clean_reboot>
    8854:	e3a02003 	mov	r2, #3, 0
    8858:	e59f1338 	ldr	r1, [pc, #824]	; 8b98 <va_printk+0x474>
    885c:	e1a00006 	mov	r0, r6
    8860:	eb000221 	bl	90ec <strncmp>
    8864:	e3500000 	cmp	r0, #0, 0
    8868:	0a000005 	beq	8884 <va_printk+0x160>
    886c:	e3a02003 	mov	r2, #3, 0
    8870:	e59f1324 	ldr	r1, [pc, #804]	; 8b9c <va_printk+0x478>
    8874:	e1a00006 	mov	r0, r6
    8878:	eb00021b 	bl	90ec <strncmp>
    887c:	e3500000 	cmp	r0, #0, 0
    8880:	1a00002d 	bne	893c <va_printk+0x218>
    8884:	e286b002 	add	fp, r6, #2, 0
    8888:	e59d300c 	ldr	r3, [sp, #12]
    888c:	e2833007 	add	r3, r3, #7, 0
    8890:	e3c33007 	bic	r3, r3, #7, 0
    8894:	e2832008 	add	r2, r3, #8, 0
    8898:	e58d200c 	str	r2, [sp, #12]
    889c:	e593a000 	ldr	sl, [r3]
    88a0:	e5937004 	ldr	r7, [r3, #4]
    88a4:	e3a02003 	mov	r2, #3, 0
    88a8:	e59f12e8 	ldr	r1, [pc, #744]	; 8b98 <va_printk+0x474>
    88ac:	e1a00006 	mov	r0, r6
    88b0:	eb00020d 	bl	90ec <strncmp>
    88b4:	e3500000 	cmp	r0, #0, 0
    88b8:	0a000027 	beq	895c <va_printk+0x238>
    88bc:	e3a02003 	mov	r2, #3, 0
    88c0:	e59f12d4 	ldr	r1, [pc, #724]	; 8b9c <va_printk+0x478>
    88c4:	e1a00006 	mov	r0, r6
    88c8:	eb000207 	bl	90ec <strncmp>
    88cc:	e3500000 	cmp	r0, #0, 0
    88d0:	1a00003b 	bne	89c4 <va_printk+0x2a0>
    88d4:	e3a06000 	mov	r6, #0, 0
    88d8:	e58d6004 	str	r6, [sp, #4]
    88dc:	e58d5000 	str	r5, [sp]
    88e0:	e1a03007 	mov	r3, r7
    88e4:	e3a02080 	mov	r2, #128, 0	; 0x80
    88e8:	e28d1010 	add	r1, sp, #16, 0
    88ec:	e3a0000a 	mov	r0, #10, 0
    88f0:	ebffff05 	bl	850c <emit>
    88f4:	e1a07000 	mov	r7, r0
    88f8:	e58d6004 	str	r6, [sp, #4]
    88fc:	e58d5000 	str	r5, [sp]
    8900:	e1a0300a 	mov	r3, sl
    8904:	e3a02080 	mov	r2, #128, 0	; 0x80
    8908:	e28d1090 	add	r1, sp, #144, 0	; 0x90
    890c:	e3a0000a 	mov	r0, #10, 0
    8910:	ebfffefd 	bl	850c <emit>
    8914:	e59f1284 	ldr	r1, [pc, #644]	; 8ba0 <va_printk+0x47c>
    8918:	e28d0010 	add	r0, sp, #16, 0
    891c:	eb0001df 	bl	90a0 <strcmp>
    8920:	e1500006 	cmp	r0, r6
    8924:	1a000021 	bne	89b0 <va_printk+0x28c>
    8928:	e28d1090 	add	r1, sp, #144, 0	; 0x90
    892c:	e28d0010 	add	r0, sp, #16, 0
    8930:	eb0001e5 	bl	90cc <strcpy>
    8934:	e1a0600b 	mov	r6, fp
    8938:	ea00003a 	b	8a28 <va_printk+0x304>
    893c:	e59f3260 	ldr	r3, [pc, #608]	; 8ba4 <va_printk+0x480>
    8940:	e58d3000 	str	r3, [sp]
    8944:	e3a0309f 	mov	r3, #159, 0	; 0x9f
    8948:	e59f223c 	ldr	r2, [pc, #572]	; 8b8c <va_printk+0x468>
    894c:	e59f123c 	ldr	r1, [pc, #572]	; 8b90 <va_printk+0x46c>
    8950:	e59f023c 	ldr	r0, [pc, #572]	; 8b94 <va_printk+0x470>
    8954:	ebfffe9e 	bl	83d4 <printk>
    8958:	eb000097 	bl	8bbc <clean_reboot>
    895c:	e3a06000 	mov	r6, #0, 0
    8960:	e58d6004 	str	r6, [sp, #4]
    8964:	e58d5000 	str	r5, [sp]
    8968:	e1a03007 	mov	r3, r7
    896c:	e3a02080 	mov	r2, #128, 0	; 0x80
    8970:	e28d1010 	add	r1, sp, #16, 0
    8974:	e3a00010 	mov	r0, #16, 0
    8978:	ebfffee3 	bl	850c <emit>
    897c:	e1a07000 	mov	r7, r0
    8980:	e58d6004 	str	r6, [sp, #4]
    8984:	e58d5000 	str	r5, [sp]
    8988:	e1a0300a 	mov	r3, sl
    898c:	e3a02080 	mov	r2, #128, 0	; 0x80
    8990:	e28d1090 	add	r1, sp, #144, 0	; 0x90
    8994:	e3a00010 	mov	r0, #16, 0
    8998:	ebfffedb 	bl	850c <emit>
    899c:	e28d1092 	add	r1, sp, #146, 0	; 0x92
    89a0:	e28d0010 	add	r0, sp, #16, 0
    89a4:	eb0001b0 	bl	906c <strcat>
    89a8:	e1a0600b 	mov	r6, fp
    89ac:	ea00001d 	b	8a28 <va_printk+0x304>
    89b0:	e28d1090 	add	r1, sp, #144, 0	; 0x90
    89b4:	e28d0010 	add	r0, sp, #16, 0
    89b8:	eb0001ab 	bl	906c <strcat>
    89bc:	e1a0600b 	mov	r6, fp
    89c0:	ea000018 	b	8a28 <va_printk+0x304>
    89c4:	e58d6000 	str	r6, [sp]
    89c8:	e3a030b6 	mov	r3, #182, 0	; 0xb6
    89cc:	e59f21b8 	ldr	r2, [pc, #440]	; 8b8c <va_printk+0x468>
    89d0:	e59f11b8 	ldr	r1, [pc, #440]	; 8b90 <va_printk+0x46c>
    89d4:	e59f01cc 	ldr	r0, [pc, #460]	; 8ba8 <va_printk+0x484>
    89d8:	ebfffe7d 	bl	83d4 <printk>
    89dc:	eb000076 	bl	8bbc <clean_reboot>
    89e0:	e3a030be 	mov	r3, #190, 0	; 0xbe
    89e4:	e59f21a0 	ldr	r2, [pc, #416]	; 8b8c <va_printk+0x468>
    89e8:	e59f11a0 	ldr	r1, [pc, #416]	; 8b90 <va_printk+0x46c>
    89ec:	e59f01b8 	ldr	r0, [pc, #440]	; 8bac <va_printk+0x488>
    89f0:	ebfffe77 	bl	83d4 <printk>
    89f4:	eb000070 	bl	8bbc <clean_reboot>
    89f8:	e59d300c 	ldr	r3, [sp, #12]
    89fc:	e2832004 	add	r2, r3, #4, 0
    8a00:	e58d200c 	str	r2, [sp, #12]
    8a04:	e5933000 	ldr	r3, [r3]
    8a08:	e3a02001 	mov	r2, #1, 0
    8a0c:	e58d2004 	str	r2, [sp, #4]
    8a10:	e58d5000 	str	r5, [sp]
    8a14:	e3a02080 	mov	r2, #128, 0	; 0x80
    8a18:	e28d1010 	add	r1, sp, #16, 0
    8a1c:	e3a0000a 	mov	r0, #10, 0
    8a20:	ebfffeb9 	bl	850c <emit>
    8a24:	e1a07000 	mov	r7, r0
    8a28:	e2866001 	add	r6, r6, #1, 0
    8a2c:	ea00004a 	b	8b5c <va_printk+0x438>
    8a30:	e59d300c 	ldr	r3, [sp, #12]
    8a34:	e2832004 	add	r2, r3, #4, 0
    8a38:	e58d200c 	str	r2, [sp, #12]
    8a3c:	e5933000 	ldr	r3, [r3]
    8a40:	e3a02000 	mov	r2, #0, 0
    8a44:	e58d2004 	str	r2, [sp, #4]
    8a48:	e58d5000 	str	r5, [sp]
    8a4c:	e3a02080 	mov	r2, #128, 0	; 0x80
    8a50:	e28d1010 	add	r1, sp, #16, 0
    8a54:	e3a0000a 	mov	r0, #10, 0
    8a58:	ebfffeab 	bl	850c <emit>
    8a5c:	e1a07000 	mov	r7, r0
    8a60:	eafffff0 	b	8a28 <va_printk+0x304>
    8a64:	e59d300c 	ldr	r3, [sp, #12]
    8a68:	e2832004 	add	r2, r3, #4, 0
    8a6c:	e58d200c 	str	r2, [sp, #12]
    8a70:	e5933000 	ldr	r3, [r3]
    8a74:	e3a02000 	mov	r2, #0, 0
    8a78:	e58d2004 	str	r2, [sp, #4]
    8a7c:	e58d5000 	str	r5, [sp]
    8a80:	e3a02080 	mov	r2, #128, 0	; 0x80
    8a84:	e28d1010 	add	r1, sp, #16, 0
    8a88:	e3a00010 	mov	r0, #16, 0
    8a8c:	ebfffe9e 	bl	850c <emit>
    8a90:	e1a07000 	mov	r7, r0
    8a94:	eaffffe3 	b	8a28 <va_printk+0x304>
    8a98:	e59d300c 	ldr	r3, [sp, #12]
    8a9c:	e2832004 	add	r2, r3, #4, 0
    8aa0:	e58d200c 	str	r2, [sp, #12]
    8aa4:	e5933000 	ldr	r3, [r3]
    8aa8:	e3a02000 	mov	r2, #0, 0
    8aac:	e58d2004 	str	r2, [sp, #4]
    8ab0:	e58d5000 	str	r5, [sp]
    8ab4:	e3a02080 	mov	r2, #128, 0	; 0x80
    8ab8:	e28d1010 	add	r1, sp, #16, 0
    8abc:	e3a00002 	mov	r0, #2, 0
    8ac0:	ebfffe91 	bl	850c <emit>
    8ac4:	e1a07000 	mov	r7, r0
    8ac8:	eaffffd6 	b	8a28 <va_printk+0x304>
    8acc:	e59d300c 	ldr	r3, [sp, #12]
    8ad0:	e2832004 	add	r2, r3, #4, 0
    8ad4:	e58d200c 	str	r2, [sp, #12]
    8ad8:	e5937000 	ldr	r7, [r3]
    8adc:	eaffffd1 	b	8a28 <va_printk+0x304>
    8ae0:	e59d300c 	ldr	r3, [sp, #12]
    8ae4:	e2832004 	add	r2, r3, #4, 0
    8ae8:	e58d200c 	str	r2, [sp, #12]
    8aec:	e5933000 	ldr	r3, [r3]
    8af0:	e3a02000 	mov	r2, #0, 0
    8af4:	e58d2004 	str	r2, [sp, #4]
    8af8:	e58d5000 	str	r5, [sp]
    8afc:	e3a02080 	mov	r2, #128, 0	; 0x80
    8b00:	e28d1010 	add	r1, sp, #16, 0
    8b04:	e3a00008 	mov	r0, #8, 0
    8b08:	ebfffe7f 	bl	850c <emit>
    8b0c:	e1a07000 	mov	r7, r0
    8b10:	eaffffc4 	b	8a28 <va_printk+0x304>
    8b14:	e3a03000 	mov	r3, #0, 0
    8b18:	e5c63001 	strb	r3, [r6, #1]
    8b1c:	e1a0200a 	mov	r2, sl
    8b20:	e1a0100a 	mov	r1, sl
    8b24:	e59f0084 	ldr	r0, [pc, #132]	; 8bb0 <va_printk+0x48c>
    8b28:	ebfffe29 	bl	83d4 <printk>
    8b2c:	e59f3080 	ldr	r3, [pc, #128]	; 8bb4 <va_printk+0x490>
    8b30:	e5933000 	ldr	r3, [r3]
    8b34:	e59d0008 	ldr	r0, [sp, #8]
    8b38:	e12fff33 	blx	r3
    8b3c:	e3a030e2 	mov	r3, #226, 0	; 0xe2
    8b40:	e59f2044 	ldr	r2, [pc, #68]	; 8b8c <va_printk+0x468>
    8b44:	e59f1044 	ldr	r1, [pc, #68]	; 8b90 <va_printk+0x46c>
    8b48:	e59f0068 	ldr	r0, [pc, #104]	; 8bb8 <va_printk+0x494>
    8b4c:	ebfffe20 	bl	83d4 <printk>
    8b50:	eb000019 	bl	8bbc <clean_reboot>
    8b54:	e2877001 	add	r7, r7, #1, 0
    8b58:	e4c43001 	strb	r3, [r4], #1
    8b5c:	e1540008 	cmp	r4, r8
    8b60:	2afffefd 	bcs	875c <va_printk+0x38>
    8b64:	e5d73000 	ldrb	r3, [r7]
    8b68:	e3530000 	cmp	r3, #0, 0
    8b6c:	1afffff8 	bne	8b54 <va_printk+0x430>
    8b70:	eafffef9 	b	875c <va_printk+0x38>
    8b74:	e3a03000 	mov	r3, #0, 0
    8b78:	e4c43001 	strb	r3, [r4], #1
    8b7c:	e0440009 	sub	r0, r4, r9
    8b80:	e28ddf45 	add	sp, sp, #276	; 0x114
    8b84:	e8bd8ff0 	pop	{r4, r5, r6, r7, r8, r9, sl, fp, pc}
    8b88:	000093b0 			; <UNDEFINED> instruction: 0x000093b0
    8b8c:	000094b8 			; <UNDEFINED> instruction: 0x000094b8
    8b90:	0000936c 	andeq	r9, r0, ip, ror #6
    8b94:	00009190 	muleq	r0, r0, r1
    8b98:	000093bc 			; <UNDEFINED> instruction: 0x000093bc
    8b9c:	000093c0 	andeq	r9, r0, r0, asr #7
    8ba0:	00009380 	andeq	r9, r0, r0, lsl #7
    8ba4:	000093c4 	andeq	r9, r0, r4, asr #7
    8ba8:	00009400 	andeq	r9, r0, r0, lsl #8
    8bac:	00009428 	andeq	r9, r0, r8, lsr #8
    8bb0:	00009450 	andeq	r9, r0, r0, asr r4
    8bb4:	000094d4 	ldrdeq	r9, [r0], -r4
    8bb8:	00009480 	andeq	r9, r0, r0, lsl #9

00008bbc <clean_reboot>:
    8bbc:	e92d4010 	push	{r4, lr}
    8bc0:	e59f3018 	ldr	r3, [pc, #24]	; 8be0 <clean_reboot+0x24>
    8bc4:	e5933000 	ldr	r3, [r3]
    8bc8:	e59f0014 	ldr	r0, [pc, #20]	; 8be4 <clean_reboot+0x28>
    8bcc:	e12fff33 	blx	r3
    8bd0:	eb0000b5 	bl	8eac <uart_flush_tx>
    8bd4:	e3a0000a 	mov	r0, #10, 0
    8bd8:	eb000041 	bl	8ce4 <delay_ms>
    8bdc:	eb000017 	bl	8c40 <rpi_reboot>
    8be0:	000094d4 	ldrdeq	r9, [r0], -r4
    8be4:	000094c4 	andeq	r9, r0, r4, asr #9

00008be8 <_cstart>:
    8be8:	e92d4010 	push	{r4, lr}
    8bec:	e59f3018 	ldr	r3, [pc, #24]	; 8c0c <_cstart+0x24>
    8bf0:	e59f2018 	ldr	r2, [pc, #24]	; 8c10 <_cstart+0x28>
    8bf4:	e1530002 	cmp	r3, r2
    8bf8:	33a02000 	movcc	r2, #0, 0
    8bfc:	34832004 	strcc	r2, [r3], #4
    8c00:	3afffffa 	bcc	8bf0 <_cstart+0x8>
    8c04:	ebfffd05 	bl	8020 <notmain>
    8c08:	ebffffeb 	bl	8bbc <clean_reboot>
    8c0c:	000094d8 	ldrdeq	r9, [r0], -r8
    8c10:	000098e0 	andeq	r9, r0, r0, ror #17

00008c14 <at_user_level>:
    8c14:	e10f0000 	mrs	r0, CPSR
    8c18:	e200001f 	and	r0, r0, #31, 0
    8c1c:	e3500010 	cmp	r0, #16, 0
    8c20:	13a00000 	movne	r0, #0, 0
    8c24:	03a00001 	moveq	r0, #1, 0
    8c28:	e12fff1e 	bx	lr

00008c2c <set_user_level>:
    8c2c:	e10f3000 	mrs	r3, CPSR
    8c30:	e3c3301f 	bic	r3, r3, #31, 0
    8c34:	e3833010 	orr	r3, r3, #16, 0
    8c38:	e129f003 	msr	CPSR_fc, r3
    8c3c:	e12fff1e 	bx	lr

00008c40 <rpi_reboot>:
    8c40:	e92d4010 	push	{r4, lr}
    8c44:	ebfffff2 	bl	8c14 <at_user_level>
    8c48:	e3500000 	cmp	r0, #0, 0
    8c4c:	1a000009 	bne	8c78 <rpi_reboot+0x38>
    8c50:	eb000095 	bl	8eac <uart_flush_tx>
    8c54:	e3a0000a 	mov	r0, #10, 0
    8c58:	eb000021 	bl	8ce4 <delay_ms>
    8c5c:	e59f101c 	ldr	r1, [pc, #28]	; 8c80 <rpi_reboot+0x40>
    8c60:	e59f001c 	ldr	r0, [pc, #28]	; 8c84 <rpi_reboot+0x44>
    8c64:	ebfffce9 	bl	8010 <PUT32>
    8c68:	e59f1018 	ldr	r1, [pc, #24]	; 8c88 <rpi_reboot+0x48>
    8c6c:	e59f0018 	ldr	r0, [pc, #24]	; 8c8c <rpi_reboot+0x4c>
    8c70:	ebfffce6 	bl	8010 <PUT32>
    8c74:	eafffffe 	b	8c74 <rpi_reboot+0x34>
    8c78:	ebffffeb 	bl	8c2c <set_user_level>
    8c7c:	eafffff3 	b	8c50 <rpi_reboot+0x10>
    8c80:	5a000001 	bpl	8c8c <rpi_reboot+0x4c>
    8c84:	20100024 	andscs	r0, r0, r4, lsr #32
    8c88:	5a000020 	bpl	8d10 <delay_sec+0x14>
    8c8c:	2010001c 	andscs	r0, r0, ip, lsl r0

00008c90 <timer_get_usec_raw>:
    8c90:	e92d4010 	push	{r4, lr}
    8c94:	e59f0004 	ldr	r0, [pc, #4]	; 8ca0 <timer_get_usec_raw+0x10>
    8c98:	ebfffcde 	bl	8018 <GET32>
    8c9c:	e8bd8010 	pop	{r4, pc}
    8ca0:	20003004 	andcs	r3, r0, r4

00008ca4 <timer_get_usec>:
    8ca4:	e92d4010 	push	{r4, lr}
    8ca8:	eb00011a 	bl	9118 <dev_barrier>
    8cac:	ebfffff7 	bl	8c90 <timer_get_usec_raw>
    8cb0:	e1a04000 	mov	r4, r0
    8cb4:	eb000117 	bl	9118 <dev_barrier>
    8cb8:	e1a00004 	mov	r0, r4
    8cbc:	e8bd8010 	pop	{r4, pc}

00008cc0 <delay_us>:
    8cc0:	e92d4070 	push	{r4, r5, r6, lr}
    8cc4:	e1a05000 	mov	r5, r0
    8cc8:	ebfffff5 	bl	8ca4 <timer_get_usec>
    8ccc:	e1a04000 	mov	r4, r0
    8cd0:	ebfffff3 	bl	8ca4 <timer_get_usec>
    8cd4:	e0400004 	sub	r0, r0, r4
    8cd8:	e1500005 	cmp	r0, r5
    8cdc:	3afffffb 	bcc	8cd0 <delay_us+0x10>
    8ce0:	e8bd8070 	pop	{r4, r5, r6, pc}

00008ce4 <delay_ms>:
    8ce4:	e92d4010 	push	{r4, lr}
    8ce8:	e0603280 	rsb	r3, r0, r0, lsl #5
    8cec:	e0800103 	add	r0, r0, r3, lsl #2
    8cf0:	e1a00180 	lsl	r0, r0, #3
    8cf4:	ebfffff1 	bl	8cc0 <delay_us>
    8cf8:	e8bd8010 	pop	{r4, pc}

00008cfc <delay_sec>:
    8cfc:	e92d4010 	push	{r4, lr}
    8d00:	e0603280 	rsb	r3, r0, r0, lsl #5
    8d04:	e0800103 	add	r0, r0, r3, lsl #2
    8d08:	e1a00180 	lsl	r0, r0, #3
    8d0c:	ebfffff4 	bl	8ce4 <delay_ms>
    8d10:	e8bd8010 	pop	{r4, pc}

00008d14 <or_in32>:
    8d14:	e92d4070 	push	{r4, r5, r6, lr}
    8d18:	e1a04000 	mov	r4, r0
    8d1c:	e1a05001 	mov	r5, r1
    8d20:	ebfffcbc 	bl	8018 <GET32>
    8d24:	e1801005 	orr	r1, r0, r5
    8d28:	e1a00004 	mov	r0, r4
    8d2c:	ebfffcb7 	bl	8010 <PUT32>
    8d30:	e8bd8070 	pop	{r4, r5, r6, pc}

00008d34 <uart_init>:
    8d34:	e92d4010 	push	{r4, lr}
    8d38:	e3a01002 	mov	r1, #2, 0
    8d3c:	e3a0000e 	mov	r0, #14, 0
    8d40:	eb0000b1 	bl	900c <gpio_set_function>
    8d44:	e3a01002 	mov	r1, #2, 0
    8d48:	e3a0000f 	mov	r0, #15, 0
    8d4c:	eb0000ae 	bl	900c <gpio_set_function>
    8d50:	eb0000f0 	bl	9118 <dev_barrier>
    8d54:	e3a01001 	mov	r1, #1, 0
    8d58:	e59f0064 	ldr	r0, [pc, #100]	; 8dc4 <uart_init+0x90>
    8d5c:	ebffffec 	bl	8d14 <or_in32>
    8d60:	eb0000ec 	bl	9118 <dev_barrier>
    8d64:	e59f405c 	ldr	r4, [pc, #92]	; 8dc8 <uart_init+0x94>
    8d68:	e3a01000 	mov	r1, #0, 0
    8d6c:	e1a00004 	mov	r0, r4
    8d70:	ebfffca6 	bl	8010 <PUT32>
    8d74:	e3a01000 	mov	r1, #0, 0
    8d78:	e59f004c 	ldr	r0, [pc, #76]	; 8dcc <uart_init+0x98>
    8d7c:	ebfffca3 	bl	8010 <PUT32>
    8d80:	e3a01003 	mov	r1, #3, 0
    8d84:	e59f0044 	ldr	r0, [pc, #68]	; 8dd0 <uart_init+0x9c>
    8d88:	ebfffca0 	bl	8010 <PUT32>
    8d8c:	e3a01000 	mov	r1, #0, 0
    8d90:	e59f003c 	ldr	r0, [pc, #60]	; 8dd4 <uart_init+0xa0>
    8d94:	ebfffc9d 	bl	8010 <PUT32>
    8d98:	e3a010c7 	mov	r1, #199, 0	; 0xc7
    8d9c:	e59f0034 	ldr	r0, [pc, #52]	; 8dd8 <uart_init+0xa4>
    8da0:	ebfffc9a 	bl	8010 <PUT32>
    8da4:	e59f1030 	ldr	r1, [pc, #48]	; 8ddc <uart_init+0xa8>
    8da8:	e59f0030 	ldr	r0, [pc, #48]	; 8de0 <uart_init+0xac>
    8dac:	ebfffc97 	bl	8010 <PUT32>
    8db0:	e3a01003 	mov	r1, #3, 0
    8db4:	e1a00004 	mov	r0, r4
    8db8:	ebfffc94 	bl	8010 <PUT32>
    8dbc:	eb0000d5 	bl	9118 <dev_barrier>
    8dc0:	e8bd8010 	pop	{r4, pc}
    8dc4:	20215004 	eorcs	r5, r1, r4
    8dc8:	20215060 	eorcs	r5, r1, r0, rrx
    8dcc:	20215044 	eorcs	r5, r1, r4, asr #32
    8dd0:	2021504c 	eorcs	r5, r1, ip, asr #32
    8dd4:	20215050 	eorcs	r5, r1, r0, asr r0
    8dd8:	20215048 	eorcs	r5, r1, r8, asr #32
    8ddc:	0000010e 	andeq	r0, r0, lr, lsl #2
    8de0:	20215068 	eorcs	r5, r1, r8, rrx

00008de4 <uart_can_getc>:
    8de4:	e92d4010 	push	{r4, lr}
    8de8:	e59f0008 	ldr	r0, [pc, #8]	; 8df8 <uart_can_getc+0x14>
    8dec:	ebfffc89 	bl	8018 <GET32>
    8df0:	e2000001 	and	r0, r0, #1, 0
    8df4:	e8bd8010 	pop	{r4, pc}
    8df8:	20215064 	eorcs	r5, r1, r4, rrx

00008dfc <uart_can_putc>:
    8dfc:	e92d4010 	push	{r4, lr}
    8e00:	e59f0010 	ldr	r0, [pc, #16]	; 8e18 <uart_can_putc+0x1c>
    8e04:	ebfffc83 	bl	8018 <GET32>
    8e08:	e3100002 	tst	r0, #2, 0
    8e0c:	13a00001 	movne	r0, #1, 0
    8e10:	03a00000 	moveq	r0, #0, 0
    8e14:	e8bd8010 	pop	{r4, pc}
    8e18:	20215064 	eorcs	r5, r1, r4, rrx

00008e1c <uart_getc>:
    8e1c:	e92d4010 	push	{r4, lr}
    8e20:	eb0000bc 	bl	9118 <dev_barrier>
    8e24:	ebffffee 	bl	8de4 <uart_can_getc>
    8e28:	e3500000 	cmp	r0, #0, 0
    8e2c:	0afffffc 	beq	8e24 <uart_getc+0x8>
    8e30:	e59f0010 	ldr	r0, [pc, #16]	; 8e48 <uart_getc+0x2c>
    8e34:	ebfffc77 	bl	8018 <GET32>
    8e38:	e6ef4070 	uxtb	r4, r0
    8e3c:	eb0000b5 	bl	9118 <dev_barrier>
    8e40:	e1a00004 	mov	r0, r4
    8e44:	e8bd8010 	pop	{r4, pc}
    8e48:	20215040 	eorcs	r5, r1, r0, asr #32

00008e4c <uart_putc>:
    8e4c:	e92d4010 	push	{r4, lr}
    8e50:	e1a04000 	mov	r4, r0
    8e54:	eb0000af 	bl	9118 <dev_barrier>
    8e58:	ebffffe7 	bl	8dfc <uart_can_putc>
    8e5c:	e3500000 	cmp	r0, #0, 0
    8e60:	0afffffc 	beq	8e58 <uart_putc+0xc>
    8e64:	e6ef1074 	uxtb	r1, r4
    8e68:	e59f0008 	ldr	r0, [pc, #8]	; 8e78 <uart_putc+0x2c>
    8e6c:	ebfffc67 	bl	8010 <PUT32>
    8e70:	eb0000a8 	bl	9118 <dev_barrier>
    8e74:	e8bd8010 	pop	{r4, pc}
    8e78:	20215040 	eorcs	r5, r1, r0, asr #32

00008e7c <uart_has_data>:
    8e7c:	e92d4010 	push	{r4, lr}
    8e80:	eb0000a4 	bl	9118 <dev_barrier>
    8e84:	ebffffd6 	bl	8de4 <uart_can_getc>
    8e88:	e8bd8010 	pop	{r4, pc}

00008e8c <uart_tx_is_empty>:
    8e8c:	e92d4010 	push	{r4, lr}
    8e90:	eb0000a0 	bl	9118 <dev_barrier>
    8e94:	e59f000c 	ldr	r0, [pc, #12]	; 8ea8 <uart_tx_is_empty+0x1c>
    8e98:	ebfffc5e 	bl	8018 <GET32>
    8e9c:	e1a004a0 	lsr	r0, r0, #9
    8ea0:	e2000001 	and	r0, r0, #1, 0
    8ea4:	e8bd8010 	pop	{r4, pc}
    8ea8:	20215064 	eorcs	r5, r1, r4, rrx

00008eac <uart_flush_tx>:
    8eac:	e92d4010 	push	{r4, lr}
    8eb0:	ebfffff5 	bl	8e8c <uart_tx_is_empty>
    8eb4:	e3500000 	cmp	r0, #0, 0
    8eb8:	0afffffc 	beq	8eb0 <uart_flush_tx+0x4>
    8ebc:	e8bd8010 	pop	{r4, pc}

00008ec0 <gpio_set_output>:
    8ec0:	e350001f 	cmp	r0, #31, 0
    8ec4:	812fff1e 	bxhi	lr
    8ec8:	e92d41f0 	push	{r4, r5, r6, r7, r8, lr}
    8ecc:	e1a04000 	mov	r4, r0
    8ed0:	e59f5040 	ldr	r5, [pc, #64]	; 8f18 <gpio_set_output+0x58>
    8ed4:	e0853095 	umull	r3, r5, r5, r0
    8ed8:	e1a051a5 	lsr	r5, r5, #3
    8edc:	e1a07105 	lsl	r7, r5, #2
    8ee0:	e2876202 	add	r6, r7, #536870912	; 0x20000000
    8ee4:	e2866602 	add	r6, r6, #2097152	; 0x200000
    8ee8:	e1a00006 	mov	r0, r6
    8eec:	ebfffc49 	bl	8018 <GET32>
    8ef0:	e0875005 	add	r5, r7, r5
    8ef4:	e0444085 	sub	r4, r4, r5, lsl #1
    8ef8:	e0844084 	add	r4, r4, r4, lsl #1
    8efc:	e3a01007 	mov	r1, #7, 0
    8f00:	e1c00411 	bic	r0, r0, r1, lsl r4
    8f04:	e3a01001 	mov	r1, #1, 0
    8f08:	e1801411 	orr	r1, r0, r1, lsl r4
    8f0c:	e1a00006 	mov	r0, r6
    8f10:	ebfffc3e 	bl	8010 <PUT32>
    8f14:	e8bd81f0 	pop	{r4, r5, r6, r7, r8, pc}
    8f18:	cccccccd 	stclgt	12, cr12, [ip], {205}	; 0xcd

00008f1c <gpio_set_on>:
    8f1c:	e350001f 	cmp	r0, #31, 0
    8f20:	812fff1e 	bxhi	lr
    8f24:	e92d4010 	push	{r4, lr}
    8f28:	e3a01001 	mov	r1, #1, 0
    8f2c:	e1a01011 	lsl	r1, r1, r0
    8f30:	e59f0004 	ldr	r0, [pc, #4]	; 8f3c <gpio_set_on+0x20>
    8f34:	ebfffc35 	bl	8010 <PUT32>
    8f38:	e8bd8010 	pop	{r4, pc}
    8f3c:	2020001c 	eorcs	r0, r0, ip, lsl r0

00008f40 <gpio_set_off>:
    8f40:	e350001f 	cmp	r0, #31, 0
    8f44:	812fff1e 	bxhi	lr
    8f48:	e92d4010 	push	{r4, lr}
    8f4c:	e3a01001 	mov	r1, #1, 0
    8f50:	e1a01011 	lsl	r1, r1, r0
    8f54:	e59f0004 	ldr	r0, [pc, #4]	; 8f60 <gpio_set_off+0x20>
    8f58:	ebfffc2c 	bl	8010 <PUT32>
    8f5c:	e8bd8010 	pop	{r4, pc}
    8f60:	20200028 	eorcs	r0, r0, r8, lsr #32

00008f64 <gpio_write>:
    8f64:	e92d4010 	push	{r4, lr}
    8f68:	e3510000 	cmp	r1, #0, 0
    8f6c:	0a000001 	beq	8f78 <gpio_write+0x14>
    8f70:	ebffffe9 	bl	8f1c <gpio_set_on>
    8f74:	e8bd8010 	pop	{r4, pc}
    8f78:	ebfffff0 	bl	8f40 <gpio_set_off>
    8f7c:	e8bd8010 	pop	{r4, pc}

00008f80 <gpio_set_input>:
    8f80:	e350001f 	cmp	r0, #31, 0
    8f84:	812fff1e 	bxhi	lr
    8f88:	e92d41f0 	push	{r4, r5, r6, r7, r8, lr}
    8f8c:	e1a04000 	mov	r4, r0
    8f90:	e59f5038 	ldr	r5, [pc, #56]	; 8fd0 <gpio_set_input+0x50>
    8f94:	e0853095 	umull	r3, r5, r5, r0
    8f98:	e1a051a5 	lsr	r5, r5, #3
    8f9c:	e1a07105 	lsl	r7, r5, #2
    8fa0:	e2876202 	add	r6, r7, #536870912	; 0x20000000
    8fa4:	e2866602 	add	r6, r6, #2097152	; 0x200000
    8fa8:	e1a00006 	mov	r0, r6
    8fac:	ebfffc19 	bl	8018 <GET32>
    8fb0:	e0875005 	add	r5, r7, r5
    8fb4:	e0444085 	sub	r4, r4, r5, lsl #1
    8fb8:	e0844084 	add	r4, r4, r4, lsl #1
    8fbc:	e3a01007 	mov	r1, #7, 0
    8fc0:	e1c01411 	bic	r1, r0, r1, lsl r4
    8fc4:	e1a00006 	mov	r0, r6
    8fc8:	ebfffc10 	bl	8010 <PUT32>
    8fcc:	e8bd81f0 	pop	{r4, r5, r6, r7, r8, pc}
    8fd0:	cccccccd 	stclgt	12, cr12, [ip], {205}	; 0xcd

00008fd4 <gpio_read>:
    8fd4:	e350001f 	cmp	r0, #31, 0
    8fd8:	9a000001 	bls	8fe4 <gpio_read+0x10>
    8fdc:	e3e00000 	mvn	r0, #0, 0
    8fe0:	e12fff1e 	bx	lr
    8fe4:	e92d4010 	push	{r4, lr}
    8fe8:	e1a04000 	mov	r4, r0
    8fec:	e59f0014 	ldr	r0, [pc, #20]	; 9008 <gpio_read+0x34>
    8ff0:	ebfffc08 	bl	8018 <GET32>
    8ff4:	e3a03001 	mov	r3, #1, 0
    8ff8:	e0103413 	ands	r3, r0, r3, lsl r4
    8ffc:	13a00001 	movne	r0, #1, 0
    9000:	03a00000 	moveq	r0, #0, 0
    9004:	e8bd8010 	pop	{r4, pc}
    9008:	20200034 	eorcs	r0, r0, r4, lsr r0

0000900c <gpio_set_function>:
    900c:	e3510007 	cmp	r1, #7, 0
    9010:	9350001f 	cmpls	r0, #31, 0
    9014:	812fff1e 	bxhi	lr
    9018:	e92d41f0 	push	{r4, r5, r6, r7, r8, lr}
    901c:	e1a04000 	mov	r4, r0
    9020:	e1a05001 	mov	r5, r1
    9024:	e59f603c 	ldr	r6, [pc, #60]	; 9068 <gpio_set_function+0x5c>
    9028:	e0863096 	umull	r3, r6, r6, r0
    902c:	e1a061a6 	lsr	r6, r6, #3
    9030:	e1a08106 	lsl	r8, r6, #2
    9034:	e2887202 	add	r7, r8, #536870912	; 0x20000000
    9038:	e2877602 	add	r7, r7, #2097152	; 0x200000
    903c:	e1a00007 	mov	r0, r7
    9040:	ebfffbf4 	bl	8018 <GET32>
    9044:	e0886006 	add	r6, r8, r6
    9048:	e0444086 	sub	r4, r4, r6, lsl #1
    904c:	e0844084 	add	r4, r4, r4, lsl #1
    9050:	e3a01007 	mov	r1, #7, 0
    9054:	e1c01411 	bic	r1, r0, r1, lsl r4
    9058:	e1811415 	orr	r1, r1, r5, lsl r4
    905c:	e1a00007 	mov	r0, r7
    9060:	ebfffbea 	bl	8010 <PUT32>
    9064:	e8bd81f0 	pop	{r4, r5, r6, r7, r8, pc}
    9068:	cccccccd 	stclgt	12, cr12, [ip], {205}	; 0xcd

0000906c <strcat>:
    906c:	e1a02000 	mov	r2, r0
    9070:	e1a03002 	mov	r3, r2
    9074:	e2822001 	add	r2, r2, #1, 0
    9078:	e5d3c000 	ldrb	ip, [r3]
    907c:	e35c0000 	cmp	ip, #0, 0
    9080:	1afffffa 	bne	9070 <strcat+0x4>
    9084:	e2433001 	sub	r3, r3, #1, 0
    9088:	e5d12000 	ldrb	r2, [r1]
    908c:	e2811001 	add	r1, r1, #1, 0
    9090:	e5e32001 	strb	r2, [r3, #1]!
    9094:	e3520000 	cmp	r2, #0, 0
    9098:	1afffffa 	bne	9088 <strcat+0x1c>
    909c:	e12fff1e 	bx	lr

000090a0 <strcmp>:
    90a0:	e5d03000 	ldrb	r3, [r0]
    90a4:	e3530000 	cmp	r3, #0, 0
    90a8:	0a000004 	beq	90c0 <strcmp+0x20>
    90ac:	e5d12000 	ldrb	r2, [r1]
    90b0:	e1530002 	cmp	r3, r2
    90b4:	02800001 	addeq	r0, r0, #1, 0
    90b8:	02811001 	addeq	r1, r1, #1, 0
    90bc:	0afffff7 	beq	90a0 <strcmp>
    90c0:	e5d10000 	ldrb	r0, [r1]
    90c4:	e0430000 	sub	r0, r3, r0
    90c8:	e12fff1e 	bx	lr

000090cc <strcpy>:
    90cc:	e1a0c000 	mov	ip, r0
    90d0:	e5d12000 	ldrb	r2, [r1]
    90d4:	e2811001 	add	r1, r1, #1, 0
    90d8:	e5cc2000 	strb	r2, [ip]
    90dc:	e28cc001 	add	ip, ip, #1, 0
    90e0:	e3520000 	cmp	r2, #0, 0
    90e4:	1afffff9 	bne	90d0 <strcpy+0x4>
    90e8:	e12fff1e 	bx	lr

000090ec <strncmp>:
    90ec:	e3520000 	cmp	r2, #0, 0
    90f0:	e2422001 	sub	r2, r2, #1, 0
    90f4:	0a000005 	beq	9110 <strncmp+0x24>
    90f8:	e4d03001 	ldrb	r3, [r0], #1
    90fc:	e4d1c001 	ldrb	ip, [r1], #1
    9100:	e153000c 	cmp	r3, ip
    9104:	0afffff8 	beq	90ec <strncmp>
    9108:	e043000c 	sub	r0, r3, ip
    910c:	e12fff1e 	bx	lr
    9110:	e3a00000 	mov	r0, #0, 0
    9114:	e12fff1e 	bx	lr

00009118 <dev_barrier>:
    9118:	ea000002 	b	9128 <dsb>

0000911c <dmb>:
    911c:	e3a00000 	mov	r0, #0, 0
    9120:	ee070fba 	mcr	15, 0, r0, cr7, cr10, {5}
    9124:	e12fff1e 	bx	lr

00009128 <dsb>:
    9128:	ee070f9a 	mcr	15, 0, r0, cr7, cr10, {4}
    912c:	e12fff1e 	bx	lr

Disassembly of section .rodata:

00009130 <__FUNCTION__.3923-0x98>:
    9130:	43415254 	movtmi	r5, #4692	; 0x1254
    9134:	00003a45 	andeq	r3, r0, r5, asr #20
    9138:	63656863 	cmnvs	r5, #6488064	; 0x630000
    913c:	676e696b 	strbvs	r6, [lr, -fp, ror #18]!
    9140:	61687420 	cmnvs	r8, r0, lsr #8
    9144:	6d6b2074 	stclvs	0, cr2, [fp, #-464]!	; 0xfffffe30
    9148:	6f6c6c61 	svcvs	0x006c6c61
    914c:	6f722063 	svcvs	0x00722063
    9150:	73646e75 	cmnvc	r4, #1872	; 0x750
    9154:	20707520 	rsbscs	r7, r0, r0, lsr #10
    9158:	74206f74 	strtvc	r6, [r0], #-3956	; 0xfffff08c
    915c:	6d206568 	cfstr32vs	mvfx6, [r0, #-416]!	; 0xfffffe60
    9160:	6d756e69 	ldclvs	14, cr6, [r5, #-420]!	; 0xfffffe5c
    9164:	61206d75 			; <UNDEFINED> instruction: 0x61206d75
    9168:	6e67696c 	vnmulvs.f16	s13, s14, s25	; <UNPREDICTABLE>
    916c:	746e656d 	strbtvc	r6, [lr], #-1389	; 0xfffffa93
    9170:	29342820 	ldmdbcs	r4!, {r5, fp, sp}
    9174:	0000000a 	andeq	r0, r0, sl
    9178:	64253d69 	strtvs	r3, [r5], #-3433	; 0xfffff297
    917c:	3d70203a 	ldclcc	0, cr2, [r0, #-232]!	; 0xffffff18
    9180:	000a7025 	andeq	r7, sl, r5, lsr #32
    9184:	65742d31 	ldrbvs	r2, [r4, #-3377]!	; 0xfffff2cf
    9188:	632e7473 			; <UNDEFINED> instruction: 0x632e7473
    918c:	00000000 	andeq	r0, r0, r0
    9190:	494e4150 	stmdbmi	lr, {r4, r6, r8, lr}^
    9194:	73253a43 			; <UNDEFINED> instruction: 0x73253a43
    9198:	3a73253a 	bcc	1cd2688 <__bss_end__+0x1cc8da8>
    919c:	253a6425 	ldrcs	r6, [sl, #-1061]!	; 0xfffffbdb
    91a0:	00000a73 	andeq	r0, r0, r3, ror sl
    91a4:	736e7528 	cmnvc	lr, #40, 10	; 0xa000000
    91a8:	656e6769 	strbvs	r6, [lr, #-1897]!	; 0xfffff897
    91ac:	20702964 	rsbscs	r2, r0, r4, ror #18
    91b0:	20342025 	eorscs	r2, r4, r5, lsr #32
    91b4:	30203d3d 	eorcc	r3, r0, sp, lsr sp
    91b8:	00000000 	andeq	r0, r0, r0
    91bc:	63637573 	cmnvs	r3, #482344960	; 0x1cc00000
    91c0:	0a737365 	beq	1ce5f5c <__bss_end__+0x1cdc67c>
    91c4:	00000000 	andeq	r0, r0, r0

000091c8 <__FUNCTION__.3923>:
    91c8:	6d746f6e 	ldclvs	15, cr6, [r4, #-440]!	; 0xfffffe48
    91cc:	006e6961 	rsbeq	r6, lr, r1, ror #18
    91d0:	6c616d6b 	stclvs	13, cr6, [r1], #-428	; 0xfffffe54
    91d4:	2e636f6c 	cdpcs	15, 6, cr6, cr3, cr12, {3}
    91d8:	00000063 	andeq	r0, r0, r3, rrx
    91dc:	4f525245 	svcmi	0x00525245
    91e0:	73253a52 			; <UNDEFINED> instruction: 0x73253a52
    91e4:	3a73253a 	bcc	1cd26d4 <__bss_end__+0x1cc8df4>
    91e8:	203a6425 	eorscs	r6, sl, r5, lsr #8
    91ec:	534c4146 	movtpl	r4, #49478	; 0xc146
    91f0:	253c2845 	ldrcs	r2, [ip, #-2117]!	; 0xfffff7bb
    91f4:	3a293e73 	bcc	a58bc8 <__bss_end__+0xa4f2e8>
    91f8:	6c616320 	stclvs	3, cr6, [r1], #-128	; 0xffffff80
    91fc:	676e696c 	strbvs	r6, [lr, -ip, ror #18]!
    9200:	66656220 	strbtvs	r6, [r5], -r0, lsr #4
    9204:	2065726f 	rsbcs	r7, r5, pc, ror #4
    9208:	74696e69 	strbtvc	r6, [r9], #-3689	; 0xfffff197
    920c:	696c6169 	stmdbvs	ip!, {r0, r3, r5, r6, r8, sp, lr}^
    9210:	0a64657a 	beq	1922800 <__bss_end__+0x1918f20>
    9214:	00000000 	andeq	r0, r0, r0
    9218:	74696e69 	strbtvc	r6, [r9], #-3689	; 0xfffff197
    921c:	0000705f 	andeq	r7, r0, pc, asr r0
    9220:	615f7369 	cmpvs	pc, r9, ror #6
    9224:	6e67696c 	vnmulvs.f16	s13, s14, s25	; <UNPREDICTABLE>
    9228:	68286465 	stmdavs	r8!, {r0, r2, r5, r6, sl, sp, lr}
    922c:	2c706165 	ldfcse	f6, [r0], #-404	; 0xfffffe6c
    9230:	00293420 	eoreq	r3, r9, r0, lsr #8
    9234:	657a6973 	ldrbvs	r6, [sl, #-2419]!	; 0xfffff68d
    9238:	6828666f 	stmdavs	r8!, {r0, r1, r2, r3, r5, r6, r9, sl, sp, lr}
    923c:	29706165 	ldmdbcs	r0!, {r0, r2, r5, r6, r8, sp, lr}^
    9240:	203d3d20 	eorscs	r3, sp, r0, lsr #26
    9244:	7479626e 	ldrbtvc	r6, [r9], #-622	; 0xfffffd92
    9248:	00007365 	andeq	r7, r0, r5, ror #6
    924c:	4f525245 	svcmi	0x00525245
    9250:	73253a52 			; <UNDEFINED> instruction: 0x73253a52
    9254:	3a73253a 	bcc	1cd2744 <__bss_end__+0x1cc8e64>
    9258:	203a6425 	eorscs	r6, sl, r5, lsr #8
    925c:	534c4146 	movtpl	r4, #49478	; 0xc146
    9260:	253c2845 	ldrcs	r2, [ip, #-2117]!	; 0xfffff7bb
    9264:	3a293e73 	bcc	a58c38 <__bss_end__+0xa4f358>
    9268:	73736120 	cmnvc	r3, #8
    926c:	6e696d75 	mcrvs	13, 3, r6, cr9, cr5, {3}
    9270:	6f702067 	svcvs	0x00702067
    9274:	20726577 	rsbscs	r6, r2, r7, ror r5
    9278:	7420666f 	strtvc	r6, [r0], #-1647	; 0xfffff991
    927c:	000a6f77 	andeq	r6, sl, r7, ror pc
    9280:	705f7369 	subsvc	r7, pc, r9, ror #6
    9284:	2832776f 	ldmdacs	r2!, {r0, r1, r2, r3, r5, r6, r8, r9, sl, ip, sp, lr}
    9288:	67696c61 	strbvs	r6, [r9, -r1, ror #24]!
    928c:	6e656d6e 	cdpvs	13, 6, cr6, cr5, cr14, {3}
    9290:	00002974 	andeq	r2, r0, r4, ror r9
    9294:	615f7369 	cmpvs	pc, r9, ror #6
    9298:	6e67696c 	vnmulvs.f16	s13, s14, s25	; <UNPREDICTABLE>
    929c:	68286465 	stmdavs	r8!, {r0, r2, r5, r6, sl, sp, lr}
    92a0:	2c706165 	ldfcse	f6, [r0], #-404	; 0xfffffe6c
    92a4:	696c6120 	stmdbvs	ip!, {r5, r8, sp, lr}^
    92a8:	656d6e67 	strbvs	r6, [sp, #-3687]!	; 0xfffff199
    92ac:	0029746e 	eoreq	r7, r9, lr, ror #8
    92b0:	000a6425 	andeq	r6, sl, r5, lsr #8
    92b4:	4f525245 	svcmi	0x00525245
    92b8:	73253a52 			; <UNDEFINED> instruction: 0x73253a52
    92bc:	3a73253a 	bcc	1cd27ac <__bss_end__+0x1cc8ecc>
    92c0:	203a6425 	eorscs	r6, sl, r5, lsr #8
    92c4:	534c4146 	movtpl	r4, #49478	; 0xc146
    92c8:	253c2845 	ldrcs	r2, [ip, #-2117]!	; 0xfffff7bb
    92cc:	3a293e73 	bcc	a58ca0 <__bss_end__+0xa4f3c0>
    92d0:	726c6120 	rsbvc	r6, ip, #8
    92d4:	79646165 	stmdbvc	r4!, {r0, r2, r5, r6, r8, sp, lr}^
    92d8:	696e6920 	stmdbvs	lr!, {r5, r8, fp, sp, lr}^
    92dc:	6c616974 			; <UNDEFINED> instruction: 0x6c616974
    92e0:	64657a69 	strbtvs	r7, [r5], #-2665	; 0xfffff597
    92e4:	0000000a 	andeq	r0, r0, sl
    92e8:	696e6921 	stmdbvs	lr!, {r0, r5, r8, fp, sp, lr}^
    92ec:	00705f74 	rsbseq	r5, r0, r4, ror pc
    92f0:	494e4150 	stmdbmi	lr, {r4, r6, r8, lr}^
    92f4:	73253a43 			; <UNDEFINED> instruction: 0x73253a43
    92f8:	3a73253a 	bcc	1cd27e8 <__bss_end__+0x1cc8f08>
    92fc:	693a6425 	ldmdbvs	sl!, {r0, r2, r5, sl, sp, lr}
    9300:	656c706d 	strbvs	r7, [ip, #-109]!	; 0xffffff93
    9304:	746e656d 	strbtvc	r6, [lr], #-1389	; 0xfffffa93
    9308:	69687420 	stmdbvs	r8!, {r5, sl, ip, sp, lr}^
    930c:	75662073 	strbvc	r2, [r6, #-115]!	; 0xffffff8d
    9310:	6974636e 	ldmdbvs	r4!, {r1, r2, r3, r5, r6, r8, r9, sp, lr}^
    9314:	0a216e6f 	beq	864cd8 <__bss_end__+0x85b3f8>
    9318:	0000000a 	andeq	r0, r0, sl

0000931c <__FUNCTION__.3949>:
    931c:	6c616d6b 	stclvs	13, cr6, [r1], #-428	; 0xfffffe54
    9320:	00636f6c 	rsbeq	r6, r3, ip, ror #30

00009324 <__FUNCTION__.3955>:
    9324:	6c616d6b 	stclvs	13, cr6, [r1], #-428	; 0xfffffe54
    9328:	5f636f6c 	svcpl	0x00636f6c
    932c:	67696c61 	strbvs	r6, [r9, -r1, ror #24]!
    9330:	0064656e 	rsbeq	r6, r4, lr, ror #10

00009334 <__FUNCTION__.3962>:
    9334:	6c616d6b 	stclvs	13, cr6, [r1], #-428	; 0xfffffe54
    9338:	5f636f6c 	svcpl	0x00636f6c
    933c:	74696e69 	strbtvc	r6, [r9], #-3689	; 0xfffff197
    9340:	7465735f 	strbtvc	r7, [r5], #-863	; 0xfffffca1
    9344:	6174735f 	cmnvs	r4, pc, asr r3
    9348:	00007472 	andeq	r7, r0, r2, ror r4

0000934c <__FUNCTION__.3966>:
    934c:	6572666b 	ldrbvs	r6, [r2, #-1643]!	; 0xfffff995
    9350:	6c615f65 	stclvs	15, cr5, [r1], #-404	; 0xfffffe6c
    9354:	0000006c 	andeq	r0, r0, ip, rrx

00009358 <__FUNCTION__.3970>:
    9358:	6c616d6b 	stclvs	13, cr6, [r1], #-428	; 0xfffffe54
    935c:	5f636f6c 	svcpl	0x00636f6c
    9360:	70616568 	rsbvc	r6, r1, r8, ror #10
    9364:	7274705f 	rsbsvc	r7, r4, #95, 0	; 0x5f
    9368:	00000000 	andeq	r0, r0, r0
    936c:	696c2f2e 	stmdbvs	ip!, {r1, r2, r3, r5, r8, r9, sl, fp, sp}^
    9370:	762f6362 	strtvc	r6, [pc], -r2, ror #6
    9374:	72702d61 	rsbsvc	r2, r0, #6208	; 0x1840
    9378:	6b746e69 	blvs	1d24d24 <__bss_end__+0x1d1b444>
    937c:	0000632e 	andeq	r6, r0, lr, lsr #6
    9380:	00000030 	andeq	r0, r0, r0, lsr r0
    9384:	33323130 	teqcc	r2, #12
    9388:	37363534 			; <UNDEFINED> instruction: 0x37363534
    938c:	00003938 	andeq	r3, r0, r8, lsr r9
    9390:	33323130 	teqcc	r2, #12
    9394:	37363534 			; <UNDEFINED> instruction: 0x37363534
    9398:	62613938 	rsbvs	r3, r1, #56, 18	; 0xe0000
    939c:	66656463 	strbtvs	r6, [r5], -r3, ror #8
    93a0:	00000000 	andeq	r0, r0, r0
    93a4:	00003130 	andeq	r3, r0, r0, lsr r1
    93a8:	63747570 	cmnvs	r4, #112, 10	; 0x1c000000
    93ac:	0070665f 	rsbseq	r6, r0, pc, asr r6
    93b0:	74646977 	strbtvc	r6, [r4], #-2423	; 0xfffff689
    93b4:	203c2068 	eorscs	r2, ip, r8, rrx
    93b8:	00003233 	andeq	r3, r0, r3, lsr r2
    93bc:	00786c6c 	rsbseq	r6, r8, ip, ror #24
    93c0:	00646c6c 	rsbeq	r6, r4, ip, ror #24
    93c4:	6e727473 	mrcvs	4, 3, r7, cr2, cr3, {3}
    93c8:	28706d63 	ldmdacs	r0!, {r0, r1, r5, r6, r8, sl, fp, sp, lr}^
    93cc:	202c7974 	eorcs	r7, ip, r4, ror r9
    93d0:	786c6c22 	stmdavc	ip!, {r1, r5, sl, fp, sp, lr}^
    93d4:	33202c22 			; <UNDEFINED> instruction: 0x33202c22
    93d8:	3d3d2029 	ldccc	0, cr2, [sp, #-164]!	; 0xffffff5c
    93dc:	7c203020 	stcvc	0, cr3, [r0], #-128	; 0xffffff80
    93e0:	7473207c 	ldrbtvc	r2, [r3], #-124	; 0xffffff84
    93e4:	6d636e72 	stclvs	14, cr6, [r3, #-456]!	; 0xfffffe38
    93e8:	79742870 	ldmdbvc	r4!, {r4, r5, r6, fp, sp}^
    93ec:	6c22202c 	stcvs	0, cr2, [r2], #-176	; 0xffffff50
    93f0:	2c22646c 	cfstrscs	mvf6, [r2], #-432	; 0xfffffe50
    93f4:	20293320 	eorcs	r3, r9, r0, lsr #6
    93f8:	30203d3d 	eorcc	r3, r0, sp, lsr sp
    93fc:	00000000 	andeq	r0, r0, r0
    9400:	494e4150 	stmdbmi	lr, {r4, r6, r8, lr}^
    9404:	73253a43 			; <UNDEFINED> instruction: 0x73253a43
    9408:	3a73253a 	bcc	1cd28f8 <__bss_end__+0x1cc9018>
    940c:	693a6425 	ldmdbvs	sl!, {r0, r2, r5, sl, sp, lr}
    9410:	736f706d 	cmnvc	pc, #109, 0	; 0x6d
    9414:	6c626973 			; <UNDEFINED> instruction: 0x6c626973
    9418:	66203a65 	strtvs	r3, [r0], -r5, ror #20
    941c:	3c3d746d 	cfldrscc	mvf7, [sp], #-436	; 0xfffffe4c
    9420:	0a3e7325 	beq	fa60bc <__bss_end__+0xf9c7dc>
    9424:	0000000a 	andeq	r0, r0, sl
    9428:	494e4150 	stmdbmi	lr, {r4, r6, r8, lr}^
    942c:	73253a43 			; <UNDEFINED> instruction: 0x73253a43
    9430:	3a73253a 	bcc	1cd2920 <__bss_end__+0x1cc9040>
    9434:	663a6425 	ldrtvs	r6, [sl], -r5, lsr #8
    9438:	74616f6c 	strbtvc	r6, [r1], #-3948	; 0xfffff094
    943c:	746f6e20 	strbtvc	r6, [pc], #-3616	; 9444 <__FUNCTION__.3970+0xec>
    9440:	616e6520 	cmnvs	lr, r0, lsr #10
    9444:	64656c62 	strbtvs	r6, [r5], #-3170	; 0xfffff39e
    9448:	0a212121 	beq	8518d4 <__bss_end__+0x847ff4>
    944c:	00000000 	andeq	r0, r0, r0
    9450:	6e697270 	mcrvs	2, 3, r7, cr9, cr0, {3}
    9454:	203a6b74 	eorscs	r6, sl, r4, ror fp
    9458:	20746f6e 	rsbscs	r6, r4, lr, ror #30
    945c:	646e6168 	strbtvs	r6, [lr], #-360	; 0xfffffe98
    9460:	676e696c 	strbvs	r6, [lr, -ip, ror #18]!
    9464:	65707320 	ldrbvs	r7, [r0, #-800]!	; 0xfffffce0
    9468:	69666963 	stmdbvs	r6!, {r0, r1, r5, r6, r8, fp, sp, lr}^
    946c:	27207265 	strcs	r7, [r0, -r5, ror #4]!
    9470:	20276325 	eorcs	r6, r7, r5, lsr #6
    9474:	63736128 	cmnvs	r3, #10
    9478:	253d6969 	ldrcs	r6, [sp, #-2409]!	; 0xfffff697
    947c:	000a2964 	andeq	r2, sl, r4, ror #18
    9480:	494e4150 	stmdbmi	lr, {r4, r6, r8, lr}^
    9484:	73253a43 			; <UNDEFINED> instruction: 0x73253a43
    9488:	3a73253a 	bcc	1cd2978 <__bss_end__+0x1cc9098>
    948c:	703a6425 	eorsvc	r6, sl, r5, lsr #8
    9490:	746e6972 	strbtvc	r6, [lr], #-2418	; 0xfffff68e
    9494:	7265206b 	rsbvc	r2, r5, #107, 0	; 0x6b
    9498:	0a726f72 	beq	1ca5268 <__bss_end__+0x1c9b988>
    949c:	0000000a 	andeq	r0, r0, sl

000094a0 <__FUNCTION__.3988>:
    94a0:	74696d65 	strbtvc	r6, [r9], #-3429	; 0xfffff29b
    94a4:	00000000 	andeq	r0, r0, r0

000094a8 <__FUNCTION__.3936>:
    94a8:	5f697072 	svcpl	0x00697072
    94ac:	5f746573 	svcpl	0x00746573
    94b0:	7074756f 	rsbsvc	r7, r4, pc, ror #10
    94b4:	00007475 	andeq	r7, r0, r5, ror r4

000094b8 <__FUNCTION__.4014>:
    94b8:	705f6176 	subsvc	r6, pc, r6, ror r1	; <UNPREDICTABLE>
    94bc:	746e6972 	strbtvc	r6, [lr], #-2418	; 0xfffff68e
    94c0:	0000006b 	andeq	r0, r0, fp, rrx
    94c4:	454e4f44 	strbmi	r4, [lr, #-3908]	; 0xfffff0bc
    94c8:	0a212121 	beq	851954 <__bss_end__+0x848074>
	...

Disassembly of section .data:

000094d0 <rpi_putchar>:
    94d0:	0000842c 	andeq	r8, r0, ip, lsr #8

000094d4 <putk>:
    94d4:	00008468 	andeq	r8, r0, r8, ror #8

Disassembly of section .bss:

000094d8 <__bss_start__>:
    94d8:	00000000 	andeq	r0, r0, r0

000094dc <buf.3928>:
	...

000098dc <heap>:
    98dc:	00000000 	andeq	r0, r0, r0

Disassembly of section .ARM.attributes:

00000000 <.ARM.attributes>:
   0:	00002a41 	andeq	r2, r0, r1, asr #20
   4:	61656100 	cmnvs	r5, r0, lsl #2
   8:	01006962 	tsteq	r0, r2, ror #18
   c:	00000020 	andeq	r0, r0, r0, lsr #32
  10:	4b5a3605 	blmi	168d82c <__bss_end__+0x1683f4c>
  14:	08070600 	stmdaeq	r7, {r9, sl}
  18:	12010901 	andne	r0, r1, #16384	; 0x4000
  1c:	15011404 	strne	r1, [r1, #-1028]	; 0xfffffbfc
  20:	18031701 	stmdane	r3, {r0, r8, r9, sl, ip}
  24:	22011a01 	andcs	r1, r1, #4096	; 0x1000
  28:	Address 0x0000000000000028 is out of bounds.


Disassembly of section .comment:

00000000 <.comment>:
   0:	3a434347 	bcc	10d0d24 <__bss_end__+0x10c7444>
   4:	4e472820 	cdpmi	8, 4, cr2, cr7, cr0, {1}
   8:	6f542055 	svcvs	0x00542055
   c:	20736c6f 	rsbscs	r6, r3, pc, ror #24
  10:	20726f66 	rsbscs	r6, r2, r6, ror #30
  14:	206d7241 	rsbcs	r7, sp, r1, asr #4
  18:	65626d45 	strbvs	r6, [r2, #-3397]!	; 0xfffff2bb
  1c:	64656464 	strbtvs	r6, [r5], #-1124	; 0xfffffb9c
  20:	6f725020 	svcvs	0x00725020
  24:	73736563 	cmnvc	r3, #415236096	; 0x18c00000
  28:	2073726f 	rsbscs	r7, r3, pc, ror #4
  2c:	30322d39 	eorscc	r2, r2, r9, lsr sp
  30:	712d3931 			; <UNDEFINED> instruction: 0x712d3931
  34:	616d2d34 	cmnvs	sp, r4, lsr sp
  38:	29726f6a 	ldmdbcs	r2!, {r1, r3, r5, r6, r8, r9, sl, fp, sp, lr}^
  3c:	322e3920 	eorcc	r3, lr, #32, 18	; 0x80000
  40:	3220312e 	eorcc	r3, r0, #-2147483637	; 0x8000000b
  44:	31393130 	teqcc	r9, r0, lsr r1
  48:	20353230 	eorscs	r3, r5, r0, lsr r2
  4c:	6c657228 	sfmvs	f7, 2, [r5], #-160	; 0xffffff60
  50:	65736165 	ldrbvs	r6, [r3, #-357]!	; 0xfffffe9b
  54:	415b2029 	cmpmi	fp, r9, lsr #32
  58:	612f4d52 			; <UNDEFINED> instruction: 0x612f4d52
  5c:	392d6d72 	pushcc	{r1, r4, r5, r6, r8, sl, fp, sp, lr}
  60:	6172622d 	cmnvs	r2, sp, lsr #4
  64:	2068636e 	rsbcs	r6, r8, lr, ror #6
  68:	69766572 	ldmdbvs	r6!, {r1, r4, r5, r6, r8, sl, sp, lr}^
  6c:	6e6f6973 			; <UNDEFINED> instruction: 0x6e6f6973
  70:	37373220 	ldrcc	r3, [r7, -r0, lsr #4]!
  74:	5d393935 			; <UNDEFINED> instruction: 0x5d393935
  78:	43434700 	movtmi	r4, #14080	; 0x3700
  7c:	3128203a 			; <UNDEFINED> instruction: 0x3128203a
  80:	2d393a35 	vldmdbcs	r9!, {s6-s58}
  84:	39313032 	ldmdbcc	r1!, {r1, r4, r5, ip, sp}
  88:	2d34712d 	ldfcss	f7, [r4, #-180]!	; 0xffffff4c
  8c:	75627530 	strbvc	r7, [r2, #-1328]!	; 0xfffffad0
  90:	3175746e 	cmncc	r5, lr, ror #8
  94:	2e392029 	cdpcs	0, 3, cr2, cr9, cr9, {1}
  98:	20312e32 	eorscs	r2, r1, r2, lsr lr
  9c:	39313032 	ldmdbcc	r1!, {r1, r4, r5, ip, sp}
  a0:	35323031 	ldrcc	r3, [r2, #-49]!	; 0xffffffcf
  a4:	65722820 	ldrbvs	r2, [r2, #-2080]!	; 0xfffff7e0
  a8:	7361656c 	cmnvc	r1, #108, 10	; 0x1b000000
  ac:	5b202965 	blpl	80a648 <__bss_end__+0x800d68>
  b0:	2f4d5241 	svccs	0x004d5241
  b4:	2d6d7261 	sfmcs	f7, 2, [sp, #-388]!	; 0xfffffe7c
  b8:	72622d39 	rsbvc	r2, r2, #3648	; 0xe40
  bc:	68636e61 	stmdavs	r3!, {r0, r5, r6, r9, sl, fp, sp, lr}^
  c0:	76657220 	strbtvc	r7, [r5], -r0, lsr #4
  c4:	6f697369 	svcvs	0x00697369
  c8:	3732206e 	ldrcc	r2, [r2, -lr, rrx]!
  cc:	39393537 	ldmdbcc	r9!, {r0, r1, r2, r4, r5, r8, sl, ip, sp}
  d0:	Address 0x00000000000000d0 is out of bounds.


Disassembly of section .debug_info:

00000000 <.debug_info>:
       0:	00000261 	andeq	r0, r0, r1, ror #4
       4:	00000004 	andeq	r0, r0, r4
       8:	01040000 	mrseq	r0, (UNDEF: 4)
       c:	000000ea 	andeq	r0, r0, sl, ror #1
      10:	0000100c 	andeq	r1, r0, ip
      14:	00008d00 	andeq	r8, r0, r0, lsl #26
      18:	00802000 	addeq	r2, r0, r0
      1c:	0000b800 	andeq	fp, r0, r0, lsl #16
      20:	00000000 	andeq	r0, r0, r0
      24:	05040200 	streq	r0, [r4, #-512]	; 0xfffffe00
      28:	00746e69 	rsbseq	r6, r4, r9, ror #28
      2c:	66070403 	strvs	r0, [r7], -r3, lsl #8
      30:	03000000 	movweq	r0, #0
      34:	00230601 	eoreq	r0, r3, r1, lsl #12
      38:	02030000 	andeq	r0, r3, #0, 0
      3c:	0000c905 	andeq	ip, r0, r5, lsl #18
      40:	05040300 	streq	r0, [r4, #-768]	; 0xfffffd00
      44:	00000078 	andeq	r0, r0, r8, ror r0
      48:	73050803 	movwvc	r0, #22531	; 0x5803
      4c:	03000000 	movweq	r0, #0
      50:	00210801 	eoreq	r0, r1, r1, lsl #16
      54:	02030000 	andeq	r0, r3, #0, 0
      58:	00003c07 	andeq	r3, r0, r7, lsl #24
      5c:	07040300 	streq	r0, [r4, -r0, lsl #6]
      60:	00000061 	andeq	r0, r0, r1, rrx
      64:	5c070803 	stcpl	8, cr0, [r7], {3}
      68:	04000000 	streq	r0, [r0], #-0
      6c:	00000025 	andeq	r0, r0, r5, lsr #32
      70:	0000007a 	andeq	r0, r0, sl, ror r0
      74:	00002505 	andeq	r2, r0, r5, lsl #10
      78:	81060000 	mrshi	r0, (UNDEF: 6)
      7c:	02000000 	andeq	r0, r0, #0, 0
      80:	00860e1c 	addeq	r0, r6, ip, lsl lr
      84:	04070000 	streq	r0, [r7], #-0
      88:	0000006b 	andeq	r0, r0, fp, rrx
      8c:	00002504 	andeq	r2, r0, r4, lsl #10
      90:	00009b00 	andeq	r9, r0, r0, lsl #22
      94:	009b0500 	addseq	r0, fp, r0, lsl #10
      98:	07000000 	streq	r0, [r0, -r0]
      9c:	0000a804 	andeq	sl, r0, r4, lsl #16
      a0:	08010300 	stmdaeq	r1, {r8, r9}
      a4:	0000002a 	andeq	r0, r0, sl, lsr #32
      a8:	0000a108 	andeq	sl, r0, r8, lsl #2
      ac:	02d90600 	sbcseq	r0, r9, #0, 12
      b0:	21020000 	mrscs	r0, (UNDEF: 2)
      b4:	0000b90e 	andeq	fp, r0, lr, lsl #18
      b8:	8c040700 	stchi	7, cr0, [r4], {-0}
      bc:	09000000 	stmdbeq	r0, {}	; <UNPREDICTABLE>
      c0:	00000019 	andeq	r0, r0, r9, lsl r0
      c4:	20060301 	andcs	r0, r6, r1, lsl #6
      c8:	b8000080 	stmdalt	r0, {r7}
      cc:	01000000 	mrseq	r0, (UNDEF: 0)
      d0:	00021d9c 	muleq	r2, ip, sp
      d4:	004f0a00 	subeq	r0, pc, r0, lsl #20
      d8:	022d0000 	eoreq	r0, sp, #0, 0
      dc:	03050000 	movweq	r0, #20480	; 0x5000
      e0:	000091c8 	andeq	r9, r0, r8, asr #3
      e4:	0080400b 	addeq	r4, r0, fp
      e8:	00006000 	andeq	r6, r0, r0
      ec:	0001af00 	andeq	sl, r1, r0, lsl #30
      f0:	00690c00 	rsbeq	r0, r9, r0, lsl #24
      f4:	250d0601 	strcs	r0, [sp, #-1537]	; 0xfffff9ff
      f8:	04000000 	streq	r0, [r0], #-0
      fc:	00000000 	andeq	r0, r0, r0
     100:	0d000000 	stceq	0, cr0, [r0, #-0]
     104:	00000000 	andeq	r0, r0, r0
     108:	0100700c 	tsteq	r0, ip
     10c:	02320f07 	eorseq	r0, r2, #7, 30
     110:	00270000 	eoreq	r0, r7, r0
     114:	00230000 	eoreq	r0, r3, r0
     118:	580e0000 	stmdapl	lr, {}	; <UNPREDICTABLE>
     11c:	34000080 	strcc	r0, [r0], #-128	; 0xffffff80
     120:	32000002 	andcc	r0, r0, #2, 0
     124:	0f000001 	svceq	0x00000001
     128:	34015001 	strcc	r5, [r1], #-1
     12c:	0151010f 	cmpeq	r1, pc, lsl #2
     130:	640e0032 	strvs	r0, [lr], #-50	; 0xffffffce
     134:	40000080 	andmi	r0, r0, r0, lsl #1
     138:	49000002 	stmdbmi	r0, {r1}
     13c:	0f000001 	svceq	0x00000001
     140:	03055001 	movweq	r5, #20481	; 0x5001
     144:	00009130 	andeq	r9, r0, r0, lsr r1
     148:	80740e00 	rsbshi	r0, r4, r0, lsl #28
     14c:	02400000 	subeq	r0, r0, #0, 0
     150:	016c0000 	cmneq	ip, r0
     154:	010f0000 	mrseq	r0, CPSR
     158:	78030550 	stmdavc	r3, {r4, r6, r8, sl}
     15c:	0f000091 	svceq	0x00000091
     160:	75025101 	strvc	r5, [r2, #-257]	; 0xfffffeff
     164:	52010f00 	andpl	r0, r1, #0, 30
     168:	00007402 	andeq	r7, r0, r2, lsl #8
     16c:	00809c0e 	addeq	r9, r0, lr, lsl #24
     170:	00024000 	andeq	r4, r2, r0
     174:	0001a400 	andeq	sl, r1, r0, lsl #8
     178:	50010f00 	andpl	r0, r1, r0, lsl #30
     17c:	91900305 	orrsls	r0, r0, r5, lsl #6
     180:	010f0000 	mrseq	r0, CPSR
     184:	84030551 	strhi	r0, [r3], #-1361	; 0xfffffaaf
     188:	0f000091 	svceq	0x00000091
     18c:	03055201 	movweq	r5, #20993	; 0x5201
     190:	000091c8 	andeq	r9, r0, r8, asr #3
     194:	0153010f 	cmpeq	r3, pc, lsl #2
     198:	7d020f39 	stcvc	15, cr0, [r2, #-228]	; 0xffffff1c
     19c:	a4030500 	strge	r0, [r3], #-1280	; 0xfffffb00
     1a0:	00000091 	muleq	r0, r1, r0
     1a4:	0080a010 	addeq	sl, r0, r0, lsl r0
     1a8:	00024c00 	andeq	r4, r2, r0, lsl #24
     1ac:	0e000000 	cdpeq	0, 0, cr0, cr0, cr0, {0}
     1b0:	00008030 	andeq	r8, r0, r0, lsr r0
     1b4:	00000258 	andeq	r0, r0, r8, asr r2
     1b8:	000001c4 	andeq	r0, r0, r4, asr #3
     1bc:	0350010f 	cmpeq	r0, #-1073741821	; 0xc0000003
     1c0:	00244040 	eoreq	r4, r4, r0, asr #32
     1c4:	0080380e 	addeq	r3, r0, lr, lsl #16
     1c8:	00024000 	andeq	r4, r2, r0
     1cc:	0001db00 	andeq	sp, r1, r0, lsl #22
     1d0:	50010f00 	andpl	r0, r1, r0, lsl #30
     1d4:	91300305 	teqls	r0, r5, lsl #6
     1d8:	0e000000 	cdpeq	0, 0, cr0, cr0, cr0, {0}
     1dc:	00008040 	andeq	r8, r0, r0, asr #32
     1e0:	00000240 	andeq	r0, r0, r0, asr #4
     1e4:	000001f2 	strdeq	r0, [r0], -r2
     1e8:	0550010f 	ldrbeq	r0, [r0, #-271]	; 0xfffffef1
     1ec:	00913803 	addseq	r3, r1, r3, lsl #16
     1f0:	a80e0000 	stmdage	lr, {}	; <UNPREDICTABLE>
     1f4:	40000080 	andmi	r0, r0, r0, lsl #1
     1f8:	09000002 	stmdbeq	r0, {r1}
     1fc:	0f000002 	svceq	0x00000002
     200:	03055001 	movweq	r5, #20481	; 0x5001
     204:	00009130 	andeq	r9, r0, r0, lsr r1
     208:	80b01100 	adcshi	r1, r0, r0, lsl #2
     20c:	02400000 	subeq	r0, r0, #0, 0
     210:	010f0000 	mrseq	r0, CPSR
     214:	bc030550 	cfstr32lt	mvfx0, [r3], {80}	; 0x50
     218:	00000091 	muleq	r0, r1, r0
     21c:	00a81200 	adceq	r1, r8, r0, lsl #4
     220:	022d0000 	eoreq	r0, sp, #0, 0
     224:	2c130000 	ldccs	0, cr0, [r3], {-0}
     228:	07000000 	streq	r0, [r0, -r0]
     22c:	021d0800 	andseq	r0, sp, #0, 16
     230:	04140000 	ldreq	r0, [r4], #-0
     234:	00000015 	andeq	r0, r0, r5, lsl r0
     238:	00000000 	andeq	r0, r0, r0
     23c:	07750200 	ldrbeq	r0, [r5, -r0, lsl #4]!
     240:	00023c15 	andeq	r3, r2, r5, lsl ip
     244:	00023c00 	andeq	r3, r2, r0, lsl #24
     248:	06280200 	strteq	r0, [r8], -r0, lsl #4
     24c:	00002f15 	andeq	r2, r0, r5, lsl pc
     250:	00002f00 	andeq	r2, r0, r0, lsl #30
     254:	06670200 	strbteq	r0, [r7], -r0, lsl #4
     258:	0000d315 	andeq	sp, r0, r5, lsl r3
     25c:	0000d300 	andeq	sp, r0, r0, lsl #6
     260:	067c0200 	ldrbteq	r0, [ip], -r0, lsl #4
     264:	00074100 	andeq	r4, r7, r0, lsl #2
     268:	09000400 	stmdbeq	r0, {sl}
     26c:	04000001 	streq	r0, [r0], #-1
     270:	0000ea01 	andeq	lr, r0, r1, lsl #20
     274:	01fd0c00 	mvnseq	r0, r0, lsl #24
     278:	008d0000 	addeq	r0, sp, r0
     27c:	80d80000 	sbcshi	r0, r8, r0
     280:	02fc0000 	rscseq	r0, ip, #0, 0
     284:	00e50000 	rsceq	r0, r5, r0
     288:	04020000 	streq	r0, [r2], #-0
     28c:	746e6905 	strbtvc	r6, [lr], #-2309	; 0xfffff6fb
     290:	07040300 	streq	r0, [r4, -r0, lsl #6]
     294:	00000066 	andeq	r0, r0, r6, rrx
     298:	23060103 	movwcs	r0, #24835	; 0x6103
     29c:	03000000 	movweq	r0, #0
     2a0:	00c90502 	sbceq	r0, r9, r2, lsl #10
     2a4:	04030000 	streq	r0, [r3], #-0
     2a8:	00007805 	andeq	r7, r0, r5, lsl #16
     2ac:	05080300 	streq	r0, [r8, #-768]	; 0xfffffd00
     2b0:	00000073 	andeq	r0, r0, r3, ror r0
     2b4:	21080103 	tstcs	r8, r3, lsl #2
     2b8:	03000000 	movweq	r0, #0
     2bc:	003c0702 	eorseq	r0, ip, r2, lsl #14
     2c0:	04030000 	streq	r0, [r3], #-0
     2c4:	00006107 	andeq	r6, r0, r7, lsl #2
     2c8:	07080300 	streq	r0, [r8, -r0, lsl #6]
     2cc:	0000005c 	andeq	r0, r0, ip, asr r0
     2d0:	00002504 	andeq	r2, r0, r4, lsl #10
     2d4:	00007a00 	andeq	r7, r0, r0, lsl #20
     2d8:	00250500 	eoreq	r0, r5, r0, lsl #10
     2dc:	06000000 	streq	r0, [r0], -r0
     2e0:	00000081 	andeq	r0, r0, r1, lsl #1
     2e4:	860e1c02 	strhi	r1, [lr], -r2, lsl #24
     2e8:	07000000 	streq	r0, [r0, -r0]
     2ec:	00006b04 	andeq	r6, r0, r4, lsl #22
     2f0:	00250400 	eoreq	r0, r5, r0, lsl #8
     2f4:	009b0000 	addseq	r0, fp, r0
     2f8:	9b050000 	blls	140300 <__bss_end__+0x136a20>
     2fc:	00000000 	andeq	r0, r0, r0
     300:	00a80407 	adceq	r0, r8, r7, lsl #8
     304:	01030000 	mrseq	r0, (UNDEF: 3)
     308:	00002a08 	andeq	r2, r0, r8, lsl #20
     30c:	00a10800 	adceq	r0, r1, r0, lsl #16
     310:	d9060000 	stmdble	r6, {}	; <UNPREDICTABLE>
     314:	02000002 	andeq	r0, r0, #2, 0
     318:	00b90e21 	adcseq	r0, r9, r1, lsr #28
     31c:	04070000 	streq	r0, [r7], #-0
     320:	0000008c 	andeq	r0, r0, ip, lsl #1
     324:	00021806 	andeq	r1, r2, r6, lsl #16
     328:	0d040100 	stfeqs	f0, [r4, #-0]
     32c:	000000a1 	andeq	r0, r0, r1, lsr #1
     330:	0001c109 	andeq	ip, r1, r9, lsl #2
     334:	0c070100 	stfeqs	f0, [r7], {-0}
     338:	00000025 	andeq	r0, r0, r5, lsr #32
     33c:	94d80305 	ldrbls	r0, [r8], #773	; 0x305
     340:	f80a0000 			; <UNDEFINED> instruction: 0xf80a0000
     344:	01000001 	tsteq	r0, r1
     348:	002c0a0a 	eoreq	r0, ip, sl, lsl #20
     34c:	03050000 	movweq	r0, #20480	; 0x5000
     350:	000098dc 	ldrdeq	r9, [r0], -ip
     354:	f1040803 			; <UNDEFINED> instruction: 0xf1040803
     358:	0b000001 	bleq	364 <__code_start__-0x7c9c>
     35c:	02070c04 	andeq	r0, r7, #4, 24	; 0x400
     360:	77010000 	strvc	r0, [r1, -r0]
     364:	0000f607 	andeq	pc, r0, r7, lsl #12
     368:	0083ac00 	addeq	sl, r3, r0, lsl #24
     36c:	00002800 	andeq	r2, r0, r0, lsl #16
     370:	5a9c0100 	bpl	fe700778 <__bss_end__+0xfe6f6e98>
     374:	0d000001 	stceq	0, cr0, [r0, #-4]
     378:	0000004f 	andeq	r0, r0, pc, asr #32
     37c:	0000016a 	andeq	r0, r0, sl, ror #2
     380:	93580305 	cmpls	r8, #335544320	; 0x14000000
     384:	c40e0000 	strgt	r0, [lr], #-0
     388:	20000083 	andcs	r0, r0, r3, lsl #1
     38c:	50000007 	andpl	r0, r0, r7
     390:	0f000001 	svceq	0x00000001
     394:	03055001 	movweq	r5, #20481	; 0x5001
     398:	000092f0 	strdeq	r9, [r0], -r0
     39c:	0551010f 	ldrbeq	r0, [r1, #-271]	; 0xfffffef1
     3a0:	0091d003 	addseq	sp, r1, r3
     3a4:	52010f00 	andpl	r0, r1, #0, 30
     3a8:	93580305 	cmpls	r8, #335544320	; 0x14000000
     3ac:	010f0000 	mrseq	r0, CPSR
     3b0:	78080253 	stmdavc	r8, {r0, r1, r4, r6, r9}
     3b4:	83c81000 	bichi	r1, r8, #0, 0
     3b8:	072c0000 	streq	r0, [ip, -r0]!
     3bc:	11000000 	mrsne	r0, (UNDEF: 0)
     3c0:	000000a8 	andeq	r0, r0, r8, lsr #1
     3c4:	0000016a 	andeq	r0, r0, sl, ror #2
     3c8:	00002c12 	andeq	r2, r0, r2, lsl ip
     3cc:	08001000 	stmdaeq	r0, {ip}
     3d0:	0000015a 	andeq	r0, r0, sl, asr r1
     3d4:	0001b713 	andeq	fp, r1, r3, lsl r7
     3d8:	066e0100 	strbteq	r0, [lr], -r0, lsl #2
     3dc:	00008384 	andeq	r8, r0, r4, lsl #7
     3e0:	00000028 	andeq	r0, r0, r8, lsr #32
     3e4:	01cd9c01 	biceq	r9, sp, r1, lsl #24
     3e8:	4f0d0000 	svcmi	0x000d0000
     3ec:	dd000000 	stcle	0, cr0, [r0, #-0]
     3f0:	05000001 	streq	r0, [r0, #-1]
     3f4:	00934c03 	addseq	r4, r3, r3, lsl #24
     3f8:	839c0e00 	orrshi	r0, ip, #0, 28
     3fc:	07200000 	streq	r0, [r0, -r0]!
     400:	01c30000 	biceq	r0, r3, r0
     404:	010f0000 	mrseq	r0, CPSR
     408:	f0030550 			; <UNDEFINED> instruction: 0xf0030550
     40c:	0f000092 	svceq	0x00000092
     410:	03055101 	movweq	r5, #20737	; 0x5101
     414:	000091d0 	ldrdeq	r9, [r0], -r0
     418:	0552010f 	ldrbeq	r0, [r2, #-271]	; 0xfffffef1
     41c:	00934c03 	addseq	r4, r3, r3, lsl #24
     420:	53010f00 	movwpl	r0, #7936	; 0x1f00
     424:	006f0802 	rsbeq	r0, pc, r2, lsl #16
     428:	0083a010 	addeq	sl, r3, r0, lsl r0
     42c:	00072c00 	andeq	r2, r7, r0, lsl #24
     430:	a8110000 	ldmdage	r1, {}	; <UNPREDICTABLE>
     434:	dd000000 	stcle	0, cr0, [r0, #-0]
     438:	12000001 	andne	r0, r0, #1, 0
     43c:	0000002c 	andeq	r0, r0, ip, lsr #32
     440:	cd080009 	stcgt	0, cr0, [r8, #-36]	; 0xffffffdc
     444:	13000001 	movwne	r0, #1
     448:	000000d3 	ldrdeq	r0, [r0], -r3
     44c:	00066201 	andeq	r6, r6, r1, lsl #4
     450:	84000083 	strhi	r0, [r0], #-131	; 0xffffff7d
     454:	01000000 	mrseq	r0, (UNDEF: 0)
     458:	0002bf9c 	muleq	r2, ip, pc	; <UNPREDICTABLE>
     45c:	022e1400 	eoreq	r1, lr, #0, 8
     460:	62010000 	andvs	r0, r1, #0, 0
     464:	00002c26 	andeq	r2, r0, r6, lsr #24
     468:	00004f00 	andeq	r4, r0, r0, lsl #30
     46c:	00004500 	andeq	r4, r0, r0, lsl #10
     470:	004f0d00 	subeq	r0, pc, r0, lsl #26
     474:	02cf0000 	sbceq	r0, pc, #0, 0
     478:	03050000 	movweq	r0, #20480	; 0x5000
     47c:	00009334 	andeq	r9, r0, r4, lsr r3
     480:	0006af15 	andeq	sl, r6, r5, lsl pc
     484:	00832400 	addeq	r2, r3, r0, lsl #8
     488:	00480100 	subeq	r0, r8, r0, lsl #2
     48c:	65010000 	strvs	r0, [r1, #-0]
     490:	0002500c 	andeq	r5, r2, ip
     494:	06ca1600 	strbeq	r1, [sl], r0, lsl #12
     498:	00980000 	addseq	r0, r8, r0
     49c:	00960000 	addseq	r0, r6, r0
     4a0:	c0160000 	andsgt	r0, r6, r0
     4a4:	b0000006 	andlt	r0, r0, r6
     4a8:	ac000000 	stcge	0, cr0, [r0], {-0}
     4ac:	17000000 	strne	r0, [r0, -r0]
     4b0:	00000048 	andeq	r0, r0, r8, asr #32
     4b4:	833c0e00 	teqhi	ip, #0, 28
     4b8:	07200000 	streq	r0, [r0, -r0]!
     4bc:	02730000 	rsbseq	r0, r3, #0, 0
     4c0:	010f0000 	mrseq	r0, CPSR
     4c4:	b0030550 	andlt	r0, r3, r0, asr r5
     4c8:	0f000092 	svceq	0x00000092
     4cc:	f3085101 	vrhadd.u8	d5, d8, d1
     4d0:	03235001 			; <UNDEFINED> instruction: 0x03235001
     4d4:	001afc09 	andseq	pc, sl, r9, lsl #24
     4d8:	00834810 	addeq	r4, r3, r0, lsl r8
     4dc:	00073800 	andeq	r3, r7, r0, lsl #16
     4e0:	83640e00 	cmnhi	r4, #0, 28
     4e4:	07200000 	streq	r0, [r0, -r0]!
     4e8:	02b50000 	adcseq	r0, r5, #0, 0
     4ec:	010f0000 	mrseq	r0, CPSR
     4f0:	b4030550 	strlt	r0, [r3], #-1360	; 0xfffffab0
     4f4:	0f000092 	svceq	0x00000092
     4f8:	03055101 	movweq	r5, #20737	; 0x5101
     4fc:	000091d0 	ldrdeq	r9, [r0], -r0
     500:	0552010f 	ldrbeq	r0, [r2, #-271]	; 0xfffffef1
     504:	00933403 	addseq	r3, r3, r3, lsl #8
     508:	53010f00 	movwpl	r0, #7936	; 0x1f00
     50c:	0f630802 	svceq	0x00630802
     510:	05007d02 	streq	r7, [r0, #-3330]	; 0xfffff2fe
     514:	0092e803 	addseq	lr, r2, r3, lsl #16
     518:	68100000 	ldmdavs	r0, {}	; <UNPREDICTABLE>
     51c:	2c000083 	stccs	0, cr0, [r0], {131}	; 0x83
     520:	00000007 	andeq	r0, r0, r7
     524:	0000a811 	andeq	sl, r0, r1, lsl r8
     528:	0002cf00 	andeq	ip, r2, r0, lsl #30
     52c:	002c1200 	eoreq	r1, ip, r0, lsl #4
     530:	00160000 	andseq	r0, r6, r0
     534:	0002bf08 	andeq	fp, r2, r8, lsl #30
     538:	01aa1300 			; <UNDEFINED> instruction: 0x01aa1300
     53c:	56010000 	strpl	r0, [r1], -r0
     540:	0082b406 	addeq	fp, r2, r6, lsl #8
     544:	00004c00 	andeq	r4, r0, r0, lsl #24
     548:	2b9c0100 	blcs	fe700950 <__bss_end__+0xfe6f7070>
     54c:	15000003 	strne	r0, [r0, #-3]
     550:	000006af 	andeq	r0, r0, pc, lsr #13
     554:	000082d4 	ldrdeq	r8, [r0], -r4
     558:	00003001 	andeq	r3, r0, r1
     55c:	0c5a0100 	ldfeqe	f0, [sl], {-0}
     560:	00000317 	andeq	r0, r0, r7, lsl r3
     564:	0006ca16 	andeq	ip, r6, r6, lsl sl
     568:	0000d200 	andeq	sp, r0, r0, lsl #4
     56c:	0000d000 	andeq	sp, r0, r0
     570:	06c01800 	strbeq	r1, [r0], r0, lsl #16
     574:	30170000 	andscc	r0, r7, r0
     578:	00000000 	andeq	r0, r0, r0
     57c:	0082ec19 	addeq	lr, r2, r9, lsl ip
     580:	00072000 	andeq	r2, r7, r0
     584:	50010f00 	andpl	r0, r1, r0, lsl #30
     588:	92b00305 	adcsls	r0, r0, #335544320	; 0x14000000
     58c:	00000000 	andeq	r0, r0, r0
     590:	0000000c 	andeq	r0, r0, ip
     594:	07420100 	strbeq	r0, [r2, -r0, lsl #2]
     598:	000000f6 	strdeq	r0, [r0], -r6
     59c:	000081a8 	andeq	r8, r0, r8, lsr #3
     5a0:	0000010c 	andeq	r0, r0, ip, lsl #2
     5a4:	04fb9c01 	ldrbteq	r9, [fp], #3073	; 0xc01
     5a8:	27140000 	ldrcs	r0, [r4, -r0]
     5ac:	01000002 	tsteq	r0, r2
     5b0:	002c2042 	eoreq	r2, ip, r2, asr #32
     5b4:	00fa0000 	rscseq	r0, sl, r0
     5b8:	00e60000 	rsceq	r0, r6, r0
     5bc:	d0140000 	andsle	r0, r4, r0
     5c0:	01000001 	tsteq	r0, r1
     5c4:	002c3142 	eoreq	r3, ip, r2, asr #2
     5c8:	01950000 	orrseq	r0, r5, r0
     5cc:	017f0000 	cmneq	pc, r0
     5d0:	4f0d0000 	svcmi	0x000d0000
     5d4:	0b000000 	bleq	5dc <__code_start__-0x7a24>
     5d8:	05000005 	streq	r0, [r0, #-5]
     5dc:	00932403 	addseq	r2, r3, r3, lsl #8
     5e0:	06de1a00 	ldrbeq	r1, [lr], r0, lsl #20
     5e4:	81c80000 	bichi	r0, r8, r0
     5e8:	c8030000 	stmdagt	r3, {}	; <UNPREDICTABLE>
     5ec:	04000081 	streq	r0, [r0], #-129	; 0xffffff7f
     5f0:	01000000 	mrseq	r0, (UNDEF: 0)
     5f4:	03a30545 			; <UNDEFINED> instruction: 0x03a30545
     5f8:	ef160000 	svc	0x00160000
     5fc:	29000006 	stmdbcs	r0, {r1, r2}
     600:	27000002 	strcs	r0, [r0, -r2]
     604:	00000002 	andeq	r0, r0, r2
     608:	0006fa1a 	andeq	pc, r6, sl, lsl sl	; <UNPREDICTABLE>
     60c:	0081e400 	addeq	lr, r1, r0, lsl #8
     610:	81e40000 	mvnhi	r0, r0
     614:	00040000 	andeq	r0, r4, r0
     618:	4a010000 	bmi	40620 <__bss_end__+0x36d40>
     61c:	0003d705 	andeq	sp, r3, r5, lsl #14
     620:	07151600 	ldreq	r1, [r5, -r0, lsl #12]
     624:	023e0000 	eorseq	r0, lr, #0, 0
     628:	023c0000 	eorseq	r0, ip, #0, 0
     62c:	0b160000 	bleq	580634 <__bss_end__+0x576d54>
     630:	53000007 	movwpl	r0, #7
     634:	51000002 	tstpl	r0, r2
     638:	00000002 	andeq	r0, r0, r2
     63c:	0082140e 	addeq	r1, r2, lr, lsl #8
     640:	00072000 	andeq	r2, r7, r0
     644:	00041000 	andeq	r1, r4, r0
     648:	50010f00 	andpl	r0, r1, r0, lsl #30
     64c:	91900305 	orrsls	r0, r0, r5, lsl #6
     650:	010f0000 	mrseq	r0, CPSR
     654:	d0030551 	andle	r0, r3, r1, asr r5
     658:	0f000091 	svceq	0x00000091
     65c:	03055201 	movweq	r5, #20993	; 0x5201
     660:	00009324 	andeq	r9, r0, r4, lsr #6
     664:	0253010f 	subseq	r0, r3, #-1073741821	; 0xc0000003
     668:	020f4308 	andeq	r4, pc, #8, 6	; 0x20000000
     66c:	0305007d 	movweq	r0, #20605	; 0x507d
     670:	00009234 	andeq	r9, r0, r4, lsr r2
     674:	82181000 	andshi	r1, r8, #0, 0
     678:	072c0000 	streq	r0, [ip, -r0]!
     67c:	1c100000 	ldcne	0, cr0, [r0], {-0}
     680:	38000082 	stmdacc	r0, {r1, r7}
     684:	0e000007 	cdpeq	0, 0, cr0, cr0, cr7, {0}
     688:	00008238 	andeq	r8, r0, r8, lsr r2
     68c:	00000720 	andeq	r0, r0, r0, lsr #14
     690:	0000045b 	andeq	r0, r0, fp, asr r4
     694:	0550010f 	ldrbeq	r0, [r0, #-271]	; 0xfffffef1
     698:	0091dc03 	addseq	sp, r1, r3, lsl #24
     69c:	51010f00 	tstpl	r1, r0, lsl #30
     6a0:	91d00305 	bicsls	r0, r0, r5, lsl #6
     6a4:	010f0000 	mrseq	r0, CPSR
     6a8:	24030552 	strcs	r0, [r3], #-1362	; 0xfffffaae
     6ac:	0f000093 	svceq	0x00000093
     6b0:	08025301 	stmdaeq	r2, {r0, r8, r9, ip, lr}
     6b4:	7d020f44 	stcvc	15, cr0, [r2, #-272]	; 0xfffffef0
     6b8:	18030500 	stmdane	r3, {r8, sl}
     6bc:	00000092 	muleq	r0, r2, r0
     6c0:	00823c10 	addeq	r3, r2, r0, lsl ip
     6c4:	00072c00 	andeq	r2, r7, r0, lsl #24
     6c8:	82401000 	subhi	r1, r0, #0, 0
     6cc:	07380000 	ldreq	r0, [r8, -r0]!
     6d0:	5c0e0000 	stcpl	0, cr0, [lr], {-0}
     6d4:	20000082 	andcs	r0, r0, r2, lsl #1
     6d8:	a6000007 	strge	r0, [r0], -r7
     6dc:	0f000004 	svceq	0x00000004
     6e0:	03055001 	movweq	r5, #20481	; 0x5001
     6e4:	0000924c 	andeq	r9, r0, ip, asr #4
     6e8:	0551010f 	ldrbeq	r0, [r1, #-271]	; 0xfffffef1
     6ec:	0091d003 	addseq	sp, r1, r3
     6f0:	52010f00 	andpl	r0, r1, #0, 30
     6f4:	93240305 			; <UNDEFINED> instruction: 0x93240305
     6f8:	010f0000 	mrseq	r0, CPSR
     6fc:	45080253 	strmi	r0, [r8, #-595]	; 0xfffffdad
     700:	007d020f 	rsbseq	r0, sp, pc, lsl #4
     704:	92800305 	addls	r0, r0, #335544320	; 0x14000000
     708:	10000000 	andne	r0, r0, r0
     70c:	00008260 	andeq	r8, r0, r0, ror #4
     710:	0000072c 	andeq	r0, r0, ip, lsr #14
     714:	00826410 	addeq	r6, r2, r0, lsl r4
     718:	00051000 	andeq	r1, r5, r0
     71c:	82840e00 	addhi	r0, r4, #0, 28
     720:	07200000 	streq	r0, [r0, -r0]!
     724:	04f10000 	ldrbteq	r0, [r1], #0
     728:	010f0000 	mrseq	r0, CPSR
     72c:	90030550 	andls	r0, r3, r0, asr r5
     730:	0f000091 	svceq	0x00000091
     734:	03055101 	movweq	r5, #20737	; 0x5101
     738:	000091d0 	ldrdeq	r9, [r0], -r0
     73c:	0552010f 	ldrbeq	r0, [r2, #-271]	; 0xfffffef1
     740:	00932403 	addseq	r2, r3, r3, lsl #8
     744:	53010f00 	movwpl	r0, #7936	; 0x1f00
     748:	0f4a0802 	svceq	0x004a0802
     74c:	05007d02 	streq	r7, [r0, #-3330]	; 0xfffff2fe
     750:	00929403 	addseq	r9, r2, r3, lsl #8
     754:	88100000 	ldmdahi	r0, {}	; <UNPREDICTABLE>
     758:	2c000082 	stccs	0, cr0, [r0], {130}	; 0x82
     75c:	00000007 	andeq	r0, r0, r7
     760:	0000a811 	andeq	sl, r0, r1, lsl r8
     764:	00050b00 	andeq	r0, r5, r0, lsl #22
     768:	002c1200 	eoreq	r1, ip, r0, lsl #4
     76c:	000f0000 	andeq	r0, pc, r0
     770:	0004fb08 	andeq	pc, r4, r8, lsl #22
     774:	00c10c00 	sbceq	r0, r1, r0, lsl #24
     778:	34010000 	strcc	r0, [r1], #-0
     77c:	0000f607 	andeq	pc, r0, r7, lsl #12
     780:	0080d800 	addeq	sp, r0, r0, lsl #16
     784:	0000d000 	andeq	sp, r0, r0
     788:	9a9c0100 	bls	fe700b90 <__bss_end__+0xfe6f72b0>
     78c:	14000006 	strne	r0, [r0], #-6
     790:	00000227 	andeq	r0, r0, r7, lsr #4
     794:	2c183401 	cfldrscs	mvf3, [r8], {1}
     798:	78000000 	stmdavc	r0, {}	; <UNPREDICTABLE>
     79c:	66000002 	strvs	r0, [r0], -r2
     7a0:	0d000002 	stceq	0, cr0, [r0, #-8]
     7a4:	0000004f 	andeq	r0, r0, pc, asr #32
     7a8:	000006aa 	andeq	r0, r0, sl, lsr #13
     7ac:	931c0305 	tstls	ip, #335544320	; 0x14000000
     7b0:	741b0000 	ldrvc	r0, [fp], #-0
     7b4:	0100706d 	tsteq	r0, sp, rrx
     7b8:	002c0e38 	eoreq	r0, ip, r8, lsr lr
     7bc:	02ff0000 	rscseq	r0, pc, #0, 0
     7c0:	02fb0000 	rscseq	r0, fp, #0, 0
     7c4:	af150000 	svcge	0x00150000
     7c8:	f8000006 			; <UNDEFINED> instruction: 0xf8000006
     7cc:	02000080 	andeq	r0, r0, #128, 0	; 0x80
     7d0:	00000018 	andeq	r0, r0, r8, lsl r0
     7d4:	960e3701 	strls	r3, [lr], -r1, lsl #14
     7d8:	16000005 	strne	r0, [r0], -r5
     7dc:	000006ca 	andeq	r0, r0, sl, asr #13
     7e0:	0000031f 	andeq	r0, r0, pc, lsl r3
     7e4:	0000031d 	andeq	r0, r0, sp, lsl r3
     7e8:	0006c016 	andeq	ip, r6, r6, lsl r0
     7ec:	00033700 	andeq	r3, r3, r0, lsl #14
     7f0:	00033300 	andeq	r3, r3, r0, lsl #6
     7f4:	00181700 	andseq	r1, r8, r0, lsl #14
     7f8:	1a000000 	bne	800 <__code_start__-0x7800>
     7fc:	000006fa 	strdeq	r0, [r0], -sl
     800:	00008110 	andeq	r8, r0, r0, lsl r1
     804:	00811002 	addeq	r1, r1, r2
     808:	00000000 	andeq	r0, r0, r0
     80c:	053a0100 	ldreq	r0, [sl, #-256]!	; 0xffffff00
     810:	000005ca 	andeq	r0, r0, sl, asr #11
     814:	00071516 	andeq	r1, r7, r6, lsl r5
     818:	00035900 	andeq	r5, r3, r0, lsl #18
     81c:	00035700 	andeq	r5, r3, r0, lsl #14
     820:	070b1600 	streq	r1, [fp, -r0, lsl #12]
     824:	036f0000 	cmneq	pc, #0, 0
     828:	036d0000 	cmneq	sp, #0, 0
     82c:	0e000000 	cdpeq	0, 0, cr0, cr0, cr0, {0}
     830:	0000813c 	andeq	r8, r0, ip, lsr r1
     834:	00000720 	andeq	r0, r0, r0, lsr #14
     838:	00000603 	andeq	r0, r0, r3, lsl #12
     83c:	0550010f 	ldrbeq	r0, [r0, #-271]	; 0xfffffef1
     840:	00919003 	addseq	r9, r1, r3
     844:	51010f00 	tstpl	r1, r0, lsl #30
     848:	91d00305 	bicsls	r0, r0, r5, lsl #6
     84c:	010f0000 	mrseq	r0, CPSR
     850:	1c030552 	cfstr32ne	mvfx0, [r3], {82}	; 0x52
     854:	0f000093 	svceq	0x00000093
     858:	08025301 	stmdaeq	r2, {r0, r8, r9, ip, lr}
     85c:	7d020f35 	stcvc	15, cr0, [r2, #-212]	; 0xffffff2c
     860:	44030500 	strmi	r0, [r3], #-1280	; 0xfffffb00
     864:	00000092 	muleq	r0, r2, r0
     868:	00814010 	addeq	r4, r1, r0, lsl r0
     86c:	00072c00 	andeq	r2, r7, r0, lsl #24
     870:	81441000 	mrshi	r1, (UNDEF: 68)
     874:	07380000 	ldreq	r0, [r8, -r0]!
     878:	600e0000 	andvs	r0, lr, r0
     87c:	20000081 	andcs	r0, r0, r1, lsl #1
     880:	4e000007 	cdpmi	0, 0, cr0, cr0, cr7, {0}
     884:	0f000006 	svceq	0x00000006
     888:	03055001 	movweq	r5, #20481	; 0x5001
     88c:	000091dc 	ldrdeq	r9, [r0], -ip
     890:	0551010f 	ldrbeq	r0, [r1, #-271]	; 0xfffffef1
     894:	0091d003 	addseq	sp, r1, r3
     898:	52010f00 	andpl	r0, r1, #0, 30
     89c:	931c0305 	tstls	ip, #335544320	; 0x14000000
     8a0:	010f0000 	mrseq	r0, CPSR
     8a4:	36080253 			; <UNDEFINED> instruction: 0x36080253
     8a8:	007d020f 	rsbseq	r0, sp, pc, lsl #4
     8ac:	92180305 	andsls	r0, r8, #335544320	; 0x14000000
     8b0:	10000000 	andne	r0, r0, r0
     8b4:	00008164 	andeq	r8, r0, r4, ror #2
     8b8:	0000072c 	andeq	r0, r0, ip, lsr #14
     8bc:	0081800e 	addeq	r8, r1, lr
     8c0:	00072000 	andeq	r2, r7, r0
     8c4:	00069000 	andeq	r9, r6, r0
     8c8:	50010f00 	andpl	r0, r1, r0, lsl #30
     8cc:	91900305 	orrsls	r0, r0, r5, lsl #6
     8d0:	010f0000 	mrseq	r0, CPSR
     8d4:	d0030551 	andle	r0, r3, r1, asr r5
     8d8:	0f000091 	svceq	0x00000091
     8dc:	03055201 	movweq	r5, #20993	; 0x5201
     8e0:	0000931c 	andeq	r9, r0, ip, lsl r3
     8e4:	0253010f 	subseq	r0, r3, #-1073741821	; 0xc0000003
     8e8:	020f3a08 	andeq	r3, pc, #8, 20	; 0x8000
     8ec:	0305007d 	movweq	r0, #20605	; 0x507d
     8f0:	00009220 	andeq	r9, r0, r0, lsr #4
     8f4:	81841000 	orrhi	r1, r4, r0
     8f8:	072c0000 	streq	r0, [ip, -r0]!
     8fc:	11000000 	mrsne	r0, (UNDEF: 0)
     900:	000000a8 	andeq	r0, r0, r8, lsr #1
     904:	000006aa 	andeq	r0, r0, sl, lsr #13
     908:	00002c12 	andeq	r2, r0, r2, lsl ip
     90c:	08000700 	stmdaeq	r0, {r8, r9, sl}
     910:	0000069a 	muleq	r0, sl, r6
     914:	0001e91c 	andeq	lr, r1, ip, lsl r9
     918:	18220100 	stmdane	r2!, {r8}
     91c:	0000002c 	andeq	r0, r0, ip, lsr #32
     920:	0006de03 	andeq	sp, r6, r3, lsl #28
     924:	00781d00 	rsbseq	r1, r8, r0, lsl #26
     928:	2c292201 	sfmcs	f2, 4, [r9], #-4
     92c:	1d000000 	stcne	0, cr0, [r0, #-0]
     930:	2201006e 	andcs	r0, r1, #110, 0	; 0x6e
     934:	00002c35 	andeq	r2, r0, r5, lsr ip
     938:	004f1e00 	subeq	r1, pc, r0, lsl #28
     93c:	06aa0000 	strteq	r0, [sl], r0
     940:	1c000000 	stcne	0, cr0, [r0], {-0}
     944:	000001c8 	andeq	r0, r0, r8, asr #3
     948:	2c181f01 	ldccs	15, cr1, [r8], {1}
     94c:	03000000 	movweq	r0, #0
     950:	000006fa 	strdeq	r0, [r0], -sl
     954:	0100781d 	tsteq	r0, sp, lsl r8
     958:	002c291f 	eoreq	r2, ip, pc, lsl r9
     95c:	1c000000 	stcne	0, cr0, [r0], {-0}
     960:	0000019f 	muleq	r0, pc, r1	; <UNPREDICTABLE>
     964:	2c181901 			; <UNDEFINED> instruction: 0x2c181901
     968:	03000000 	movweq	r0, #0
     96c:	00000720 	andeq	r0, r0, r0, lsr #14
     970:	0100781d 	tsteq	r0, sp, lsl r8
     974:	002c2c19 	eoreq	r2, ip, r9, lsl ip
     978:	6e1d0000 	cdpvs	0, 1, cr0, cr13, cr0, {0}
     97c:	38190100 	ldmdacc	r9, {r8}
     980:	0000002c 	andeq	r0, r0, ip, lsr #32
     984:	023c1f00 	eorseq	r1, ip, #0, 30
     988:	023c0000 	eorseq	r0, ip, #0, 0
     98c:	28020000 	stmdacs	r2, {}	; <UNPREDICTABLE>
     990:	002f1f06 	eoreq	r1, pc, r6, lsl #30
     994:	002f0000 	eoreq	r0, pc, r0
     998:	67020000 	strvs	r0, [r2, -r0]
     99c:	01da1f06 	bicseq	r1, sl, r6, lsl #30
     9a0:	01da0000 	bicseq	r0, sl, r0
     9a4:	1d020000 	stcne	0, cr0, [r2, #-0]
     9a8:	019d0006 	orrseq	r0, sp, r6
     9ac:	00040000 	andeq	r0, r4, r0
     9b0:	000002cd 	andeq	r0, r0, sp, asr #5
     9b4:	00ea0104 	rsceq	r0, sl, r4, lsl #2
     9b8:	570c0000 	strpl	r0, [ip, -r0]
     9bc:	71000002 	tstvc	r0, r2
     9c0:	d4000002 	strle	r0, [r0], #-2
     9c4:	58000083 	stmdapl	r0, {r0, r1, r7}
     9c8:	b7000000 	strlt	r0, [r0, -r0]
     9cc:	02000003 	andeq	r0, r0, #3, 0
     9d0:	00000243 	andeq	r0, r0, r3, asr #4
     9d4:	311b2802 	tstcc	fp, r2, lsl #16
     9d8:	03000000 	movweq	r0, #0
     9dc:	00000267 	andeq	r0, r0, r7, ror #4
     9e0:	48000404 	stmdami	r0, {r2, sl}
     9e4:	04000000 	streq	r0, [r0], #-0
     9e8:	00000252 	andeq	r0, r0, r2, asr r2
     9ec:	00000048 	andeq	r0, r0, r8, asr #32
     9f0:	04050000 	streq	r0, [r5], #-0
     9f4:	00026902 	andeq	r6, r2, r2, lsl #18
     9f8:	18630200 	stmdane	r3!, {r9}^
     9fc:	00000025 	andeq	r0, r0, r5, lsr #32
     a00:	69050406 	stmdbvs	r5, {r1, r2, sl}
     a04:	0700746e 	streq	r7, [r0, -lr, ror #8]
     a08:	00660704 	rsbeq	r0, r6, r4, lsl #14
     a0c:	01070000 	mrseq	r0, (UNDEF: 7)
     a10:	00002306 	andeq	r2, r0, r6, lsl #6
     a14:	05020700 	streq	r0, [r2, #-1792]	; 0xfffff900
     a18:	000000c9 	andeq	r0, r0, r9, asr #1
     a1c:	78050407 	stmdavc	r5, {r0, r1, r2, sl}
     a20:	07000000 	streq	r0, [r0, -r0]
     a24:	00730508 	rsbseq	r0, r3, r8, lsl #10
     a28:	01070000 	mrseq	r0, (UNDEF: 7)
     a2c:	00002108 	andeq	r2, r0, r8, lsl #2
     a30:	07020700 	streq	r0, [r2, -r0, lsl #14]
     a34:	0000003c 	andeq	r0, r0, ip, lsr r0
     a38:	61070407 	tstvs	r7, r7, lsl #8
     a3c:	07000000 	streq	r0, [r0, -r0]
     a40:	005c0708 	subseq	r0, ip, r8, lsl #14
     a44:	56080000 	strpl	r0, [r8], -r0
     a48:	ab000000 	blge	a50 <__code_start__-0x75b0>
     a4c:	09000000 	stmdbeq	r0, {}	; <UNPREDICTABLE>
     a50:	00000056 	andeq	r0, r0, r6, asr r0
     a54:	00810a00 	addeq	r0, r1, r0, lsl #20
     a58:	1c030000 	stcne	0, cr0, [r3], {-0}
     a5c:	0000b70e 	andeq	fp, r0, lr, lsl #14
     a60:	9c040b00 			; <UNDEFINED> instruction: 0x9c040b00
     a64:	08000000 	stmdaeq	r0, {}	; <UNPREDICTABLE>
     a68:	00000056 	andeq	r0, r0, r6, asr r0
     a6c:	000000cc 	andeq	r0, r0, ip, asr #1
     a70:	0000cc09 	andeq	ip, r0, r9, lsl #24
     a74:	040b0000 	streq	r0, [fp], #-0
     a78:	000000d9 	ldrdeq	r0, [r0], -r9
     a7c:	2a080107 	bcs	200ea0 <__bss_end__+0x1f75c0>
     a80:	0c000000 	stceq	0, cr0, [r0], {-0}
     a84:	000000d2 	ldrdeq	r0, [r0], -r2
     a88:	0002d90a 	andeq	sp, r2, sl, lsl #18
     a8c:	0e210300 	cdpeq	3, 2, cr0, cr1, cr0, {0}
     a90:	000000ea 	andeq	r0, r0, sl, ror #1
     a94:	00bd040b 	adcseq	r0, sp, fp, lsl #8
     a98:	3c0d0000 	stccc	0, cr0, [sp], {-0}
     a9c:	01000002 	tsteq	r0, r2
     aa0:	00560506 	subseq	r0, r6, r6, lsl #10
     aa4:	83d40000 	bicshi	r0, r4, #0, 0
     aa8:	00580000 	subseq	r0, r8, r0
     aac:	9c010000 	stcls	0, cr0, [r1], {-0}
     ab0:	00000183 	andeq	r0, r0, r3, lsl #3
     ab4:	746d660e 	strbtvc	r6, [sp], #-1550	; 0xfffff9f2
     ab8:	18060100 	stmdane	r6, {r8}
     abc:	000000cc 	andeq	r0, r0, ip, asr #1
     ac0:	0f709102 	svceq	0x00709102
     ac4:	66756210 			; <UNDEFINED> instruction: 0x66756210
     ac8:	11080100 	mrsne	r0, (UNDEF: 24)
     acc:	00000183 	andeq	r0, r0, r3, lsl #3
     ad0:	94dc0305 	ldrbls	r0, [ip], #773	; 0x305
     ad4:	34110000 	ldrcc	r0, [r1], #-0
     ad8:	01000002 	tsteq	r0, r2
     adc:	004a0d09 	subeq	r0, sl, r9, lsl #26
     ae0:	91020000 	mrsls	r0, (UNDEF: 2)
     ae4:	7a73125c 	bvc	1cc545c <__bss_end__+0x1cbbb7c>
     ae8:	0d0c0100 	stfeqs	f0, [ip, #-0]
     aec:	00000056 	andeq	r0, r0, r6, asr r0
     af0:	00000388 	andeq	r0, r0, r8, lsl #7
     af4:	00000382 	andeq	r0, r0, r2, lsl #7
     af8:	0083fc13 	addeq	pc, r3, r3, lsl ip	; <UNPREDICTABLE>
     afc:	00019400 	andeq	r9, r1, r0, lsl #8
     b00:	00017600 	andeq	r7, r1, r0, lsl #12
     b04:	50011400 	andpl	r1, r1, r0, lsl #8
     b08:	14007502 	strne	r7, [r0], #-1282	; 0xfffffafe
     b0c:	0a035101 	beq	d4f18 <__bss_end__+0xcb638>
     b10:	01140400 	tsteq	r4, r0, lsl #8
     b14:	48910352 	ldmmi	r1, {r1, r4, r6, r8, r9}
     b18:	53011406 	movwpl	r1, #5126	; 0x1406
     b1c:	004c9102 	subeq	r9, ip, r2, lsl #2
     b20:	00841015 	addeq	r1, r4, r5, lsl r0
     b24:	50011400 	andpl	r1, r1, r0, lsl #8
     b28:	00007502 	andeq	r7, r0, r2, lsl #10
     b2c:	00d21600 	sbcseq	r1, r2, r0, lsl #12
     b30:	01940000 	orrseq	r0, r4, r0
     b34:	5d170000 	ldcpl	0, cr0, [r7, #-0]
     b38:	ff000000 			; <UNDEFINED> instruction: 0xff000000
     b3c:	39180003 	ldmdbcc	r8, {r0, r1}
     b40:	39000002 	stmdbcc	r0, {r1}
     b44:	05000002 	streq	r0, [r0, #-2]
     b48:	49000502 	stmdbmi	r0, {r1, r8, sl}
     b4c:	04000001 	streq	r0, [r0], #-1
     b50:	00040f00 	andeq	r0, r4, r0, lsl #30
     b54:	ea010400 	b	41b5c <__bss_end__+0x3827c>
     b58:	0c000000 	stceq	0, cr0, [r0], {-0}
     b5c:	000002b5 			; <UNDEFINED> instruction: 0x000002b5
     b60:	00000271 	andeq	r0, r0, r1, ror r2
     b64:	0000842c 	andeq	r8, r0, ip, lsr #8
     b68:	0000003c 	andeq	r0, r0, ip, lsr r0
     b6c:	000004d0 	ldrdeq	r0, [r0], -r0	; <UNPREDICTABLE>
     b70:	69050402 	stmdbvs	r5, {r1, sl}
     b74:	0300746e 	movweq	r7, #1134	; 0x46e
     b78:	00660704 	rsbeq	r0, r6, r4, lsl #14
     b7c:	01030000 	mrseq	r0, (UNDEF: 3)
     b80:	00002306 	andeq	r2, r0, r6, lsl #6
     b84:	05020300 	streq	r0, [r2, #-768]	; 0xfffffd00
     b88:	000000c9 	andeq	r0, r0, r9, asr #1
     b8c:	78050403 	stmdavc	r5, {r0, r1, sl}
     b90:	03000000 	movweq	r0, #0
     b94:	00730508 	rsbseq	r0, r3, r8, lsl #10
     b98:	01030000 	mrseq	r0, (UNDEF: 3)
     b9c:	00002108 	andeq	r2, r0, r8, lsl #2
     ba0:	07020300 	streq	r0, [r2, -r0, lsl #6]
     ba4:	0000003c 	andeq	r0, r0, ip, lsr r0
     ba8:	61070403 	tstvs	r7, r3, lsl #8
     bac:	03000000 	movweq	r0, #0
     bb0:	005c0708 	subseq	r0, ip, r8, lsl #14
     bb4:	25040000 	strcs	r0, [r4, #-0]
     bb8:	7a000000 	bvc	bc0 <__code_start__-0x7440>
     bbc:	05000000 	streq	r0, [r0, #-0]
     bc0:	00000025 	andeq	r0, r0, r5, lsr #32
     bc4:	00810600 	addeq	r0, r1, r0, lsl #12
     bc8:	1c020000 	stcne	0, cr0, [r2], {-0}
     bcc:	0000860e 	andeq	r8, r0, lr, lsl #12
     bd0:	6b040700 	blvs	1027d8 <__bss_end__+0xf8ef8>
     bd4:	04000000 	streq	r0, [r0], #-0
     bd8:	00000025 	andeq	r0, r0, r5, lsr #32
     bdc:	0000009b 	muleq	r0, fp, r0
     be0:	00009b05 	andeq	r9, r0, r5, lsl #22
     be4:	04070000 	streq	r0, [r7], #-0
     be8:	000000a8 	andeq	r0, r0, r8, lsr #1
     bec:	2a080103 	bcs	201000 <__bss_end__+0x1f7720>
     bf0:	08000000 	stmdaeq	r0, {}	; <UNPREDICTABLE>
     bf4:	000000a1 	andeq	r0, r0, r1, lsr #1
     bf8:	0002d906 	andeq	sp, r2, r6, lsl #18
     bfc:	0e210200 	cdpeq	2, 2, cr0, cr1, cr0, {0}
     c00:	000000b9 	strheq	r0, [r0], -r9
     c04:	008c0407 	addeq	r0, ip, r7, lsl #8
     c08:	7a090000 	bvc	240c10 <__bss_end__+0x237330>
     c0c:	01000000 	mrseq	r0, (UNDEF: 0)
     c10:	03050706 	movweq	r0, #22278	; 0x5706
     c14:	000094d0 	ldrdeq	r9, [r0], -r0
     c18:	0002a80a 	andeq	sl, r2, sl, lsl #16
     c1c:	060b0100 	streq	r0, [fp], -r0, lsl #2
     c20:	00008458 	andeq	r8, r0, r8, asr r4
     c24:	00000010 	andeq	r0, r0, r0, lsl r0
     c28:	00f19c01 	rscseq	r9, r1, r1, lsl #24
     c2c:	660b0000 	strvs	r0, [fp], -r0
     c30:	0b010070 	bleq	40df8 <__bss_end__+0x37518>
     c34:	00008619 	andeq	r8, r0, r9, lsl r6
     c38:	00500100 	subseq	r0, r0, r0, lsl #2
     c3c:	0001da0c 	andeq	sp, r1, ip, lsl #20
     c40:	06080100 	streq	r0, [r8], -r0, lsl #2
     c44:	00008440 	andeq	r8, r0, r0, asr #8
     c48:	00000018 	andeq	r0, r0, r8, lsl r0
     c4c:	970d9c01 	strls	r9, [sp, -r1, lsl #24]
     c50:	01000002 	tsteq	r0, r2
     c54:	00250c03 	eoreq	r0, r5, r3, lsl #24
     c58:	842c0000 	strthi	r0, [ip], #-0
     c5c:	00140000 	andseq	r0, r4, r0
     c60:	9c010000 	stcls	0, cr0, [r1], {-0}
     c64:	00000140 	andeq	r0, r0, r0, asr #2
     c68:	0100630e 	tsteq	r0, lr, lsl #6
     c6c:	00252103 	eoreq	r2, r5, r3, lsl #2
     c70:	03b50000 			; <UNDEFINED> instruction: 0x03b50000
     c74:	03b10000 			; <UNDEFINED> instruction: 0x03b10000
     c78:	380f0000 	stmdacc	pc, {}	; <UNPREDICTABLE>
     c7c:	40000084 	andmi	r0, r0, r4, lsl #1
     c80:	10000001 	andne	r0, r0, r1
     c84:	74025001 	strvc	r5, [r2], #-1
     c88:	11000000 	mrsne	r0, (UNDEF: 0)
     c8c:	000002c6 	andeq	r0, r0, r6, asr #5
     c90:	000002c6 	andeq	r0, r0, r6, asr #5
     c94:	00063b02 	andeq	r3, r6, r2, lsl #22
     c98:	000000f3 	strdeq	r0, [r0], -r3
     c9c:	051e0004 	ldreq	r0, [lr, #-4]
     ca0:	01040000 	mrseq	r0, (UNDEF: 4)
     ca4:	000000ea 	andeq	r0, r0, sl, ror #1
     ca8:	0002de0c 	andeq	sp, r2, ip, lsl #28
     cac:	00027100 	andeq	r7, r2, r0, lsl #2
     cb0:	00846800 	addeq	r6, r4, r0, lsl #16
     cb4:	00003400 	andeq	r3, r0, r0, lsl #8
     cb8:	00057100 	andeq	r7, r5, r0, lsl #2
     cbc:	05040200 	streq	r0, [r4, #-512]	; 0xfffffe00
     cc0:	00746e69 	rsbseq	r6, r4, r9, ror #28
     cc4:	66070403 	strvs	r0, [r7], -r3, lsl #8
     cc8:	03000000 	movweq	r0, #0
     ccc:	00230601 	eoreq	r0, r3, r1, lsl #12
     cd0:	02030000 	andeq	r0, r3, #0, 0
     cd4:	0000c905 	andeq	ip, r0, r5, lsl #18
     cd8:	05040300 	streq	r0, [r4, #-768]	; 0xfffffd00
     cdc:	00000078 	andeq	r0, r0, r8, ror r0
     ce0:	73050803 	movwvc	r0, #22531	; 0x5803
     ce4:	03000000 	movweq	r0, #0
     ce8:	00210801 	eoreq	r0, r1, r1, lsl #16
     cec:	02030000 	andeq	r0, r3, #0, 0
     cf0:	00003c07 	andeq	r3, r0, r7, lsl #24
     cf4:	07040300 	streq	r0, [r4, -r0, lsl #6]
     cf8:	00000061 	andeq	r0, r0, r1, rrx
     cfc:	5c070803 	stcpl	8, cr0, [r7], {3}
     d00:	04000000 	streq	r0, [r0], #-0
     d04:	00000025 	andeq	r0, r0, r5, lsr #32
     d08:	0000007a 	andeq	r0, r0, sl, ror r0
     d0c:	00002505 	andeq	r2, r0, r5, lsl #10
     d10:	81060000 	mrshi	r0, (UNDEF: 6)
     d14:	02000000 	andeq	r0, r0, #0, 0
     d18:	00860e1c 	addeq	r0, r6, ip, lsl lr
     d1c:	04070000 	streq	r0, [r7], #-0
     d20:	0000006b 	andeq	r0, r0, fp, rrx
     d24:	00002504 	andeq	r2, r0, r4, lsl #10
     d28:	00009b00 	andeq	r9, r0, r0, lsl #22
     d2c:	009b0500 	addseq	r0, fp, r0, lsl #10
     d30:	07000000 	streq	r0, [r0, -r0]
     d34:	0000a804 	andeq	sl, r0, r4, lsl #16
     d38:	08010300 	stmdaeq	r1, {r8, r9}
     d3c:	0000002a 	andeq	r0, r0, sl, lsr #32
     d40:	0000a108 	andeq	sl, r0, r8, lsl #2
     d44:	02d90600 	sbcseq	r0, r9, #0, 12
     d48:	21020000 	mrscs	r0, (UNDEF: 2)
     d4c:	0000b90e 	andeq	fp, r0, lr, lsl #18
     d50:	8c040700 	stchi	7, cr0, [r4], {-0}
     d54:	09000000 	stmdbeq	r0, {}	; <UNPREDICTABLE>
     d58:	000000ad 	andeq	r0, r0, sp, lsr #1
     d5c:	05070c01 	streq	r0, [r7, #-3073]	; 0xfffff3ff
     d60:	0094d403 	addseq	sp, r4, r3, lsl #8
     d64:	02d00a00 	sbcseq	r0, r0, #0, 20
     d68:	04010000 	streq	r0, [r1], #-0
     d6c:	00002505 	andeq	r2, r0, r5, lsl #10
     d70:	00846800 	addeq	r6, r4, r0, lsl #16
     d74:	00003400 	andeq	r3, r0, r0, lsl #8
     d78:	0b9c0100 	bleq	fe701180 <__bss_end__+0xfe6f78a0>
     d7c:	04010070 	streq	r0, [r1], #-112	; 0xffffff90
     d80:	00009b1f 	andeq	r9, r0, pc, lsl fp
     d84:	0003d700 	andeq	sp, r3, r0, lsl #14
     d88:	0003d300 	andeq	sp, r3, r0, lsl #6
     d8c:	95000000 	strls	r0, [r0, #-0]
     d90:	0400000a 	streq	r0, [r0], #-10
     d94:	0005bc00 	andeq	fp, r5, r0, lsl #24
     d98:	ea010400 	b	41da0 <__bss_end__+0x384c0>
     d9c:	0c000000 	stceq	0, cr0, [r0], {-0}
     da0:	000002fd 	strdeq	r0, [r0], -sp
     da4:	00000271 	andeq	r0, r0, r1, ror r2
     da8:	0000849c 	muleq	r0, ip, r4
     dac:	00000720 	andeq	r0, r0, r0, lsr #14
     db0:	0000061f 	andeq	r0, r0, pc, lsl r6
     db4:	69050402 	stmdbvs	r5, {r1, sl}
     db8:	0300746e 	movweq	r7, #1134	; 0x46e
     dbc:	00660704 	rsbeq	r0, r6, r4, lsl #14
     dc0:	01030000 	mrseq	r0, (UNDEF: 3)
     dc4:	00002306 	andeq	r2, r0, r6, lsl #6
     dc8:	05020300 	streq	r0, [r2, #-768]	; 0xfffffd00
     dcc:	000000c9 	andeq	r0, r0, r9, asr #1
     dd0:	78050403 	stmdavc	r5, {r0, r1, sl}
     dd4:	03000000 	movweq	r0, #0
     dd8:	00730508 	rsbseq	r0, r3, r8, lsl #10
     ddc:	01030000 	mrseq	r0, (UNDEF: 3)
     de0:	00002108 	andeq	r2, r0, r8, lsl #2
     de4:	07020300 	streq	r0, [r2, -r0, lsl #6]
     de8:	0000003c 	andeq	r0, r0, ip, lsr r0
     dec:	00035404 	andeq	r5, r3, r4, lsl #8
     df0:	19340200 	ldmdbne	r4!, {r9}
     df4:	00000069 	andeq	r0, r0, r9, rrx
     df8:	61070403 	tstvs	r7, r3, lsl #8
     dfc:	04000000 	streq	r0, [r0], #-0
     e00:	000002f4 	strdeq	r0, [r0], -r4
     e04:	7c193702 	ldcvc	7, cr3, [r9], {2}
     e08:	03000000 	movweq	r0, #0
     e0c:	005c0708 	subseq	r0, ip, r8, lsl #14
     e10:	25050000 	strcs	r0, [r5, #-0]
     e14:	92000000 	andls	r0, r0, #0, 0
     e18:	06000000 	streq	r0, [r0], -r0
     e1c:	00000025 	andeq	r0, r0, r5, lsr #32
     e20:	00810700 	addeq	r0, r1, r0, lsl #14
     e24:	1c030000 	stcne	0, cr0, [r3], {-0}
     e28:	00009e0e 	andeq	r9, r0, lr, lsl #28
     e2c:	83040800 	movwhi	r0, #18432	; 0x4800
     e30:	05000000 	streq	r0, [r0, #-0]
     e34:	00000025 	andeq	r0, r0, r5, lsr #32
     e38:	000000b3 	strheq	r0, [r0], -r3
     e3c:	0000b306 	andeq	fp, r0, r6, lsl #6
     e40:	04080000 	streq	r0, [r8], #-0
     e44:	000000c0 	andeq	r0, r0, r0, asr #1
     e48:	2a080103 	bcs	20125c <__bss_end__+0x1f797c>
     e4c:	09000000 	stmdbeq	r0, {}	; <UNPREDICTABLE>
     e50:	000000b9 	strheq	r0, [r0], -r9
     e54:	0002d907 	andeq	sp, r2, r7, lsl #18
     e58:	0e210300 	cdpeq	3, 2, cr0, cr1, cr0, {0}
     e5c:	000000d1 	ldrdeq	r0, [r0], -r1
     e60:	00a40408 	adceq	r0, r4, r8, lsl #8
     e64:	10070000 	andne	r0, r7, r0
     e68:	04000003 	streq	r0, [r0], #-3
     e6c:	00b90d0b 	adcseq	r0, r9, fp, lsl #26
     e70:	8a070000 	bhi	1c0e78 <__bss_end__+0x1b7598>
     e74:	04000003 	streq	r0, [r0], #-3
     e78:	00b90d0c 	adcseq	r0, r9, ip, lsl #26
     e7c:	1f070000 	svcne	0x00070000
     e80:	04000003 	streq	r0, [r0], #-3
     e84:	00b90d0d 	adcseq	r0, r9, sp, lsl #26
     e88:	48070000 	stmdami	r7, {}	; <UNPREDICTABLE>
     e8c:	04000003 	streq	r0, [r0], #-3
     e90:	00b90d0e 	adcseq	r0, r9, lr, lsl #26
     e94:	b3070000 	movwlt	r0, #28672	; 0x7000
     e98:	04000003 	streq	r0, [r0], #-3
     e9c:	00b90d0f 	adcseq	r0, r9, pc, lsl #26
     ea0:	33070000 	movwcc	r0, #28672	; 0x7000
     ea4:	04000003 	streq	r0, [r0], #-3
     ea8:	00b90d10 	adcseq	r0, r9, r0, lsl sp
     eac:	c2070000 	andgt	r0, r7, #0, 0
     eb0:	04000003 	streq	r0, [r0], #-3
     eb4:	00b90d11 	adcseq	r0, r9, r1, lsl sp
     eb8:	18070000 	stmdane	r7, {}	; <UNPREDICTABLE>
     ebc:	04000002 	streq	r0, [r0], #-2
     ec0:	00b90d12 	adcseq	r0, r9, r2, lsl sp
     ec4:	43040000 	movwmi	r0, #16384	; 0x4000
     ec8:	05000002 	streq	r0, [r0, #-2]
     ecc:	01431b28 	cmpeq	r3, r8, lsr #22
     ed0:	670a0000 	strvs	r0, [sl, -r0]
     ed4:	04000002 	streq	r0, [r0], #-2
     ed8:	015a0006 	cmpeq	sl, r6
     edc:	520b0000 	andpl	r0, fp, #0, 0
     ee0:	5a000002 	bpl	ef0 <__code_start__-0x7110>
     ee4:	00000001 	andeq	r0, r0, r1
     ee8:	04040c00 	streq	r0, [r4], #-3072	; 0xfffff400
     eec:	00000269 	andeq	r0, r0, r9, ror #4
     ef0:	37186305 	ldrcc	r6, [r8, -r5, lsl #6]
     ef4:	0d000001 	stceq	0, cr0, [r0, #-4]
     ef8:	00000239 	andeq	r0, r0, r9, lsr r2
     efc:	25058101 	strcs	r8, [r5, #-257]	; 0xfffffeff
     f00:	24000000 	strcs	r0, [r0], #-0
     f04:	98000087 	stmdals	r0, {r0, r1, r2, r7}
     f08:	01000004 	tsteq	r0, r4
     f0c:	0006d59c 	muleq	r6, ip, r5
     f10:	75620e00 	strbvc	r0, [r2, #-3584]!	; 0xfffff200
     f14:	81010066 	tsthi	r1, r6, rrx
     f18:	0006d515 	andeq	sp, r6, r5, lsl r5
     f1c:	0003fb00 	andeq	pc, r3, r0, lsl #22
     f20:	0003f500 	andeq	pc, r3, r0, lsl #10
     f24:	006e0e00 	rsbeq	r0, lr, r0, lsl #28
     f28:	251e8101 	ldrcs	r8, [lr, #-257]	; 0xfffffeff
     f2c:	2d000000 	stccs	0, cr0, [r0, #-0]
     f30:	27000004 	strcs	r0, [r0, -r4]
     f34:	0e000004 	cdpeq	0, 0, cr0, cr0, cr4, {0}
     f38:	00746d66 	rsbseq	r6, r4, r6, ror #26
     f3c:	b32d8101 			; <UNDEFINED> instruction: 0xb32d8101
     f40:	67000000 	strvs	r0, [r0, -r0]
     f44:	5b000004 	blpl	f5c <__code_start__-0x70a4>
     f48:	0f000004 	svceq	0x00000004
     f4c:	00000234 	andeq	r0, r0, r4, lsr r2
     f50:	5c3a8101 	ldfpld	f0, [sl], #-4
     f54:	03000001 	movweq	r0, #1
     f58:	107dd491 			; <UNDEFINED> instruction: 0x107dd491
     f5c:	82010070 	andhi	r0, r1, #112, 0	; 0x70
     f60:	0006d508 	andeq	sp, r6, r8, lsl #10
     f64:	0004c500 	andeq	ip, r4, r0, lsl #10
     f68:	0004b100 	andeq	fp, r4, r0, lsl #2
     f6c:	00651000 	rsbeq	r1, r5, r0
     f70:	d5128201 	ldrle	r8, [r2, #-513]	; 0xfffffdff
     f74:	47000006 	strmi	r0, [r0, -r6]
     f78:	43000005 	movwmi	r0, #5
     f7c:	10000005 	andne	r0, r0, r5
     f80:	01003078 	tsteq	r0, r8, ror r0
     f84:	005d0e83 	subseq	r0, sp, r3, lsl #29
     f88:	05740000 	ldrbeq	r0, [r4, #-0]!
     f8c:	056e0000 	strbeq	r0, [lr, #-0]!
     f90:	78110000 	ldmdavc	r1, {}	; <UNPREDICTABLE>
     f94:	83010031 	movwhi	r0, #4145	; 0x1031
     f98:	00005d11 	andeq	r5, r0, r1, lsl sp
     f9c:	036c1200 	cmneq	ip, #0, 4
     fa0:	86010000 	strhi	r0, [r1], -r0
     fa4:	0000b311 	andeq	fp, r0, r1, lsl r3
     fa8:	0005a100 	andeq	sl, r5, r0, lsl #2
     fac:	00059d00 	andeq	r9, r5, r0, lsl #26
     fb0:	004f1300 	subeq	r1, pc, r0, lsl #6
     fb4:	06eb0000 	strbteq	r0, [fp], r0
     fb8:	03050000 	movweq	r0, #20480	; 0x5000
     fbc:	000094b8 			; <UNDEFINED> instruction: 0x000094b8
     fc0:	00878c14 	addeq	r8, r7, r4, lsl ip
     fc4:	0003e800 	andeq	lr, r3, r0, lsl #16
     fc8:	00731000 	rsbseq	r1, r3, r0
     fcc:	d50a9101 	strle	r9, [sl, #-257]	; 0xfffffeff
     fd0:	d7000006 	strle	r0, [r0, -r6]
     fd4:	c1000005 	tstgt	r0, r5
     fd8:	15000005 	strne	r0, [r0, #-5]
     fdc:	006d756e 	rsbeq	r7, sp, lr, ror #10
     fe0:	f00d9101 			; <UNDEFINED> instruction: 0xf00d9101
     fe4:	03000006 	movweq	r0, #6
     fe8:	167dd891 			; <UNDEFINED> instruction: 0x167dd891
     fec:	000003cf 	andeq	r0, r0, pc, asr #7
     ff0:	f0179101 			; <UNDEFINED> instruction: 0xf0179101
     ff4:	03000006 	movweq	r0, #6
     ff8:	127ed891 	rsbsne	sp, lr, #9502720	; 0x910000
     ffc:	0000032d 	andeq	r0, r0, sp, lsr #6
    1000:	2c0d9201 	sfmcs	f1, 1, [sp], {1}
    1004:	5e000000 	cdppl	0, 0, cr0, cr0, cr0, {0}
    1008:	58000006 	stmdapl	r0, {r1, r2}
    100c:	17000006 	strne	r0, [r0, -r6]
    1010:	00008854 	andeq	r8, r0, r4, asr r8
    1014:	0000018c 	andeq	r0, r0, ip, lsl #3
    1018:	000004f7 	strdeq	r0, [r0], -r7
    101c:	00797410 	rsbseq	r7, r9, r0, lsl r4
    1020:	b31d9e01 	tstlt	sp, #1, 28
    1024:	92000000 	andls	r0, r0, #0, 0
    1028:	88000006 	stmdahi	r0, {r1, r2}
    102c:	11000006 	tstne	r0, r6
    1030:	01007878 	tsteq	r0, r8, ror r8
    1034:	00701aa2 	rsbseq	r1, r0, r2, lsr #21
    1038:	64180000 	ldrvs	r0, [r8], #-0
    103c:	50000088 	andpl	r0, r0, r8, lsl #1
    1040:	cd00000a 	stcgt	0, cr0, [r0, #-40]	; 0xffffffd8
    1044:	19000002 	stmdbne	r0, {r1}
    1048:	76025001 	strvc	r5, [r2], -r1
    104c:	51011900 	tstpl	r1, r0, lsl #18
    1050:	93bc0305 			; <UNDEFINED> instruction: 0x93bc0305
    1054:	01190000 	tsteq	r9, r0
    1058:	00330152 	eorseq	r0, r3, r2, asr r1
    105c:	00887c18 	addeq	r7, r8, r8, lsl ip
    1060:	000a5000 	andeq	r5, sl, r0
    1064:	0002ef00 	andeq	lr, r2, r0, lsl #30
    1068:	50011900 	andpl	r1, r1, r0, lsl #18
    106c:	19007602 	stmdbne	r0, {r1, r9, sl, ip, sp, lr}
    1070:	03055101 	movweq	r5, #20737	; 0x5101
    1074:	000093c0 	andeq	r9, r0, r0, asr #7
    1078:	01520119 	cmpeq	r2, r9, lsl r1
    107c:	b4180033 	ldrlt	r0, [r8], #-51	; 0xffffffcd
    1080:	50000088 	andpl	r0, r0, r8, lsl #1
    1084:	1100000a 	tstne	r0, sl
    1088:	19000003 	stmdbne	r0, {r0, r1}
    108c:	76025001 	strvc	r5, [r2], -r1
    1090:	51011900 	tstpl	r1, r0, lsl #18
    1094:	93bc0305 			; <UNDEFINED> instruction: 0x93bc0305
    1098:	01190000 	tsteq	r9, r0
    109c:	00330152 	eorseq	r0, r3, r2, asr r1
    10a0:	0088cc18 	addeq	ip, r8, r8, lsl ip
    10a4:	000a5000 	andeq	r5, sl, r0
    10a8:	00033300 	andeq	r3, r3, r0, lsl #6
    10ac:	50011900 	andpl	r1, r1, r0, lsl #18
    10b0:	19007602 	stmdbne	r0, {r1, r9, sl, ip, sp, lr}
    10b4:	03055101 	movweq	r5, #20737	; 0x5101
    10b8:	000093c0 	andeq	r9, r0, r0, asr #7
    10bc:	01520119 	cmpeq	r2, r9, lsl r1
    10c0:	f4180033 			; <UNDEFINED> instruction: 0xf4180033
    10c4:	00000088 	andeq	r0, r0, r8, lsl #1
    10c8:	67000007 	strvs	r0, [r0, -r7]
    10cc:	19000003 	stmdbne	r0, {r0, r1}
    10d0:	3a015001 	bcc	550dc <__bss_end__+0x4b7fc>
    10d4:	03510119 	cmpeq	r1, #1073741830	; 0x40000006
    10d8:	197dd091 	ldmdbne	sp!, {r0, r4, r7, ip, lr, pc}^
    10dc:	08025201 	stmdaeq	r2, {r0, r9, ip, lr}
    10e0:	53011980 	movwpl	r1, #6528	; 0x1980
    10e4:	19007702 	stmdbne	r0, {r1, r8, r9, sl, ip, sp, lr}
    10e8:	02007d02 	andeq	r7, r0, #128	; 0x80
    10ec:	02190075 	andseq	r0, r9, #117, 0	; 0x75
    10f0:	7602047d 			; <UNDEFINED> instruction: 0x7602047d
    10f4:	14180000 	ldrne	r0, [r8], #-0
    10f8:	00000089 	andeq	r0, r0, r9, lsl #1
    10fc:	9b000007 	blls	1120 <__code_start__-0x6ee0>
    1100:	19000003 	stmdbne	r0, {r0, r1}
    1104:	3a015001 	bcc	55110 <__bss_end__+0x4b830>
    1108:	03510119 	cmpeq	r1, #1073741830	; 0x40000006
    110c:	197ed091 	ldmdbne	lr!, {r0, r4, r7, ip, lr, pc}^
    1110:	08025201 	stmdaeq	r2, {r0, r9, ip, lr}
    1114:	53011980 	movwpl	r1, #6528	; 0x1980
    1118:	19007a02 	stmdbne	r0, {r1, r9, fp, ip, sp, lr}
    111c:	02007d02 	andeq	r7, r0, #128	; 0x80
    1120:	02190075 	andseq	r0, r9, #117, 0	; 0x75
    1124:	7602047d 			; <UNDEFINED> instruction: 0x7602047d
    1128:	20180000 	andscs	r0, r8, r0
    112c:	5c000089 	stcpl	0, cr0, [r0], {137}	; 0x89
    1130:	b900000a 	stmdblt	r0, {r1, r3}
    1134:	19000003 	stmdbne	r0, {r0, r1}
    1138:	91035001 	tstls	r3, r1
    113c:	01197dd0 			; <UNDEFINED> instruction: 0x01197dd0
    1140:	80030551 	andhi	r0, r3, r1, asr r5
    1144:	00000093 	muleq	r0, r3, r0
    1148:	00893418 	addeq	r3, r9, r8, lsl r4
    114c:	000a6800 	andeq	r6, sl, r0, lsl #16
    1150:	0003d500 	andeq	sp, r3, r0, lsl #10
    1154:	50011900 	andpl	r1, r1, r0, lsl #18
    1158:	7dd09103 	ldfvcp	f1, [r0, #12]
    115c:	03510119 	cmpeq	r1, #1073741830	; 0x40000006
    1160:	007ed091 			; <UNDEFINED> instruction: 0x007ed091
    1164:	00895818 	addeq	r5, r9, r8, lsl r8
    1168:	000a7400 	andeq	r7, sl, r0, lsl #8
    116c:	00040e00 	andeq	r0, r4, r0, lsl #28
    1170:	50011900 	andpl	r1, r1, r0, lsl #18
    1174:	91900305 	orrsls	r0, r0, r5, lsl #6
    1178:	01190000 	tsteq	r9, r0
    117c:	6c030551 	cfstr32vs	mvfx0, [r3], {81}	; 0x51
    1180:	19000093 	stmdbne	r0, {r0, r1, r4, r7}
    1184:	03055201 	movweq	r5, #20993	; 0x5201
    1188:	000094b8 			; <UNDEFINED> instruction: 0x000094b8
    118c:	02530119 	subseq	r0, r3, #1073741830	; 0x40000006
    1190:	02199f08 	andseq	r9, r9, #8, 30
    1194:	0305007d 	movweq	r0, #20605	; 0x507d
    1198:	000093c4 	andeq	r9, r0, r4, asr #7
    119c:	895c1a00 	ldmdbhi	ip, {r9, fp, ip}^
    11a0:	0a800000 	beq	fe0011a8 <__bss_end__+0xfdff78c8>
    11a4:	7c180000 	ldcvc	0, cr0, [r8], {-0}
    11a8:	00000089 	andeq	r0, r0, r9, lsl #1
    11ac:	4b000007 	blmi	11d0 <__code_start__-0x6e30>
    11b0:	19000004 	stmdbne	r0, {r2}
    11b4:	40015001 	andmi	r5, r1, r1
    11b8:	03510119 	cmpeq	r1, #1073741830	; 0x40000006
    11bc:	197dd091 	ldmdbne	sp!, {r0, r4, r7, ip, lr, pc}^
    11c0:	08025201 	stmdaeq	r2, {r0, r9, ip, lr}
    11c4:	53011980 	movwpl	r1, #6528	; 0x1980
    11c8:	19007702 	stmdbne	r0, {r1, r8, r9, sl, ip, sp, lr}
    11cc:	02007d02 	andeq	r7, r0, #128	; 0x80
    11d0:	02190075 	andseq	r0, r9, #117, 0	; 0x75
    11d4:	7602047d 			; <UNDEFINED> instruction: 0x7602047d
    11d8:	9c180000 	ldcls	0, cr0, [r8], {-0}
    11dc:	00000089 	andeq	r0, r0, r9, lsl #1
    11e0:	7f000007 	svcvc	0x00000007
    11e4:	19000004 	stmdbne	r0, {r2}
    11e8:	40015001 	andmi	r5, r1, r1
    11ec:	03510119 	cmpeq	r1, #1073741830	; 0x40000006
    11f0:	197ed091 	ldmdbne	lr!, {r0, r4, r7, ip, lr, pc}^
    11f4:	08025201 	stmdaeq	r2, {r0, r9, ip, lr}
    11f8:	53011980 	movwpl	r1, #6528	; 0x1980
    11fc:	19007a02 	stmdbne	r0, {r1, r9, fp, ip, sp, lr}
    1200:	02007d02 	andeq	r7, r0, #128	; 0x80
    1204:	02190075 	andseq	r0, r9, #117, 0	; 0x75
    1208:	7602047d 			; <UNDEFINED> instruction: 0x7602047d
    120c:	a8180000 	ldmdage	r8, {}	; <UNPREDICTABLE>
    1210:	8c000089 	stchi	0, cr0, [r0], {137}	; 0x89
    1214:	9b00000a 	blls	1244 <__code_start__-0x6dbc>
    1218:	19000004 	stmdbne	r0, {r2}
    121c:	91035001 	tstls	r3, r1
    1220:	01197dd0 			; <UNDEFINED> instruction: 0x01197dd0
    1224:	d2910351 	addsle	r0, r1, #1140850689	; 0x44000001
    1228:	bc18007e 	ldclt	0, cr0, [r8], {126}	; 0x7e
    122c:	8c000089 	stchi	0, cr0, [r0], {137}	; 0x89
    1230:	b700000a 	strlt	r0, [r0, -sl]
    1234:	19000004 	stmdbne	r0, {r2}
    1238:	91035001 	tstls	r3, r1
    123c:	01197dd0 			; <UNDEFINED> instruction: 0x01197dd0
    1240:	d0910351 	addsle	r0, r1, r1, asr r3
    1244:	dc18007e 	ldcle	0, cr0, [r8], {126}	; 0x7e
    1248:	74000089 	strvc	r0, [r0], #-137	; 0xffffff77
    124c:	ed00000a 	stc	0, cr0, [r0, #-40]	; 0xffffffd8
    1250:	19000004 	stmdbne	r0, {r2}
    1254:	03055001 	movweq	r5, #20481	; 0x5001
    1258:	00009400 	andeq	r9, r0, r0, lsl #8
    125c:	05510119 	ldrbeq	r0, [r1, #-281]	; 0xfffffee7
    1260:	00936c03 	addseq	r6, r3, r3, lsl #24
    1264:	52011900 	andpl	r1, r1, #0, 18
    1268:	94b80305 	ldrtls	r0, [r8], #773	; 0x305
    126c:	01190000 	tsteq	r9, r0
    1270:	b6080253 			; <UNDEFINED> instruction: 0xb6080253
    1274:	007d0219 	rsbseq	r0, sp, r9, lsl r2
    1278:	00007602 	andeq	r7, r0, r2, lsl #12
    127c:	0089e01a 	addeq	lr, r9, sl, lsl r0
    1280:	000a8000 	andeq	r8, sl, r0
    1284:	a4180000 	ldrge	r0, [r8], #-0
    1288:	7e000087 	cdpvc	0, 0, cr0, cr0, cr7, {4}
    128c:	0b000009 	bleq	12b8 <__code_start__-0x6d48>
    1290:	19000005 	stmdbne	r0, {r0, r2}
    1294:	77025001 	strvc	r5, [r2, -r1]
    1298:	50180000 	andspl	r0, r8, r0
    129c:	74000088 	strvc	r0, [r0], #-136	; 0xffffff78
    12a0:	4400000a 	strmi	r0, [r0], #-10
    12a4:	19000005 	stmdbne	r0, {r0, r2}
    12a8:	03055001 	movweq	r5, #20481	; 0x5001
    12ac:	00009190 	muleq	r0, r0, r1
    12b0:	05510119 	ldrbeq	r0, [r1, #-281]	; 0xfffffee7
    12b4:	00936c03 	addseq	r6, r3, r3, lsl #24
    12b8:	52011900 	andpl	r1, r1, #0, 18
    12bc:	94b80305 	ldrtls	r0, [r8], #773	; 0x305
    12c0:	01190000 	tsteq	r9, r0
    12c4:	98080253 	stmdals	r8, {r0, r1, r4, r6, r9}
    12c8:	007d0219 	rsbseq	r0, sp, r9, lsl r2
    12cc:	93b00305 	movsls	r0, #335544320	; 0x14000000
    12d0:	1a000000 	bne	12d8 <__code_start__-0x6d28>
    12d4:	00008854 	andeq	r8, r0, r4, asr r8
    12d8:	00000a80 	andeq	r0, r0, r0, lsl #21
    12dc:	0089f418 	addeq	pc, r9, r8, lsl r4	; <UNPREDICTABLE>
    12e0:	000a7400 	andeq	r7, sl, r0, lsl #8
    12e4:	00057c00 	andeq	r7, r5, r0, lsl #24
    12e8:	50011900 	andpl	r1, r1, r0, lsl #18
    12ec:	94280305 	strtls	r0, [r8], #-773	; 0xfffffcfb
    12f0:	01190000 	tsteq	r9, r0
    12f4:	6c030551 	cfstr32vs	mvfx0, [r3], {81}	; 0x51
    12f8:	19000093 	stmdbne	r0, {r0, r1, r4, r7}
    12fc:	03055201 	movweq	r5, #20993	; 0x5201
    1300:	000094b8 			; <UNDEFINED> instruction: 0x000094b8
    1304:	02530119 	subseq	r0, r3, #1073741830	; 0x40000006
    1308:	1a00be08 	bne	30b30 <__bss_end__+0x27250>
    130c:	000089f8 	strdeq	r8, [r0], -r8	; <UNPREDICTABLE>
    1310:	00000a80 	andeq	r0, r0, r0, lsl #21
    1314:	008a2418 	addeq	r2, sl, r8, lsl r4
    1318:	00070000 	andeq	r0, r7, r0
    131c:	0005b200 	andeq	fp, r5, r0, lsl #4
    1320:	50011900 	andpl	r1, r1, r0, lsl #18
    1324:	01193a01 	tsteq	r9, r1, lsl #20
    1328:	d0910351 	addsle	r0, r1, r1, asr r3
    132c:	5201197d 	andpl	r1, r1, #2048000	; 0x1f4000
    1330:	19800802 	stmibne	r0, {r1, fp}
    1334:	02007d02 	andeq	r7, r0, #128	; 0x80
    1338:	02190075 	andseq	r0, r9, #117, 0	; 0x75
    133c:	3101047d 	tstcc	r1, sp, ror r4
    1340:	8a5c1800 	bhi	1707348 <__bss_end__+0x16fda68>
    1344:	07000000 	streq	r0, [r0, -r0]
    1348:	05df0000 	ldrbeq	r0, [pc]	; 1350 <__code_start__-0x6cb0>
    134c:	01190000 	tsteq	r9, r0
    1350:	193a0150 	ldmdbne	sl!, {r4, r6, r8}
    1354:	91035101 	tstls	r3, r1, lsl #2
    1358:	01197dd0 			; <UNDEFINED> instruction: 0x01197dd0
    135c:	80080252 	andhi	r0, r8, r2, asr r2
    1360:	007d0219 	rsbseq	r0, sp, r9, lsl r2
    1364:	19007502 	stmdbne	r0, {r1, r8, sl, ip, sp, lr}
    1368:	01047d02 	tsteq	r4, r2, lsl #26
    136c:	90180030 	andsls	r0, r8, r0, lsr r0
    1370:	0000008a 	andeq	r0, r0, sl, lsl #1
    1374:	0c000007 	stceq	0, cr0, [r0], {7}
    1378:	19000006 	stmdbne	r0, {r1, r2}
    137c:	40015001 	andmi	r5, r1, r1
    1380:	03510119 	cmpeq	r1, #1073741830	; 0x40000006
    1384:	197dd091 	ldmdbne	sp!, {r0, r4, r7, ip, lr, pc}^
    1388:	08025201 	stmdaeq	r2, {r0, r9, ip, lr}
    138c:	7d021980 	vstrvc.16	s2, [r2, #-256]	; 0xffffff00	; <UNPREDICTABLE>
    1390:	00750200 	rsbseq	r0, r5, r0, lsl #4
    1394:	047d0219 	ldrbteq	r0, [sp], #-537	; 0xfffffde7
    1398:	18003001 	stmdane	r0, {r0, ip, sp}
    139c:	00008ac4 	andeq	r8, r0, r4, asr #21
    13a0:	00000700 	andeq	r0, r0, r0, lsl #14
    13a4:	00000639 	andeq	r0, r0, r9, lsr r6
    13a8:	01500119 	cmpeq	r0, r9, lsl r1
    13ac:	51011932 	tstpl	r1, r2, lsr r9
    13b0:	7dd09103 	ldfvcp	f1, [r0, #12]
    13b4:	02520119 	subseq	r0, r2, #1073741830	; 0x40000006
    13b8:	02198008 	andseq	r8, r9, #8, 0
    13bc:	7502007d 	strvc	r0, [r2, #-125]	; 0xffffff83
    13c0:	7d021900 	vstrvc.16	s2, [r2, #-0]	; <UNPREDICTABLE>
    13c4:	00300104 	eorseq	r0, r0, r4, lsl #2
    13c8:	008b0c18 	addeq	r0, fp, r8, lsl ip
    13cc:	00070000 	andeq	r0, r7, r0
    13d0:	00066600 	andeq	r6, r6, r0, lsl #12
    13d4:	50011900 	andpl	r1, r1, r0, lsl #18
    13d8:	01193801 	tsteq	r9, r1, lsl #16
    13dc:	d0910351 	addsle	r0, r1, r1, asr r3
    13e0:	5201197d 	andpl	r1, r1, #2048000	; 0x1f4000
    13e4:	19800802 	stmibne	r0, {r1, fp}
    13e8:	02007d02 	andeq	r7, r0, #128	; 0x80
    13ec:	02190075 	andseq	r0, r9, #117, 0	; 0x75
    13f0:	3001047d 	andcc	r0, r1, sp, ror r4
    13f4:	8b2c1800 	blhi	b073fc <__bss_end__+0xafdb1c>
    13f8:	0a740000 	beq	1d01400 <__bss_end__+0x1cf7b20>
    13fc:	06890000 	streq	r0, [r9], r0
    1400:	01190000 	tsteq	r9, r0
    1404:	50030550 	andpl	r0, r3, r0, asr r5
    1408:	19000094 	stmdbne	r0, {r2, r4, r7}
    140c:	7a025101 	bvc	95818 <__bss_end__+0x8bf38>
    1410:	52011900 	andpl	r1, r1, #0, 18
    1414:	00007a02 	andeq	r7, r0, r2, lsl #20
    1418:	008b3c1b 	addeq	r3, fp, fp, lsl ip
    141c:	00069b00 	andeq	r9, r6, r0, lsl #22
    1420:	50011900 	andpl	r1, r1, r0, lsl #18
    1424:	7dc89104 	stfvcp	f1, [r8, #16]
    1428:	50180006 	andspl	r0, r8, r6
    142c:	7400008b 	strvc	r0, [r0], #-139	; 0xffffff75
    1430:	ca00000a 	bgt	1460 <__code_start__-0x6ba0>
    1434:	19000006 	stmdbne	r0, {r1, r2}
    1438:	03055001 	movweq	r5, #20481	; 0x5001
    143c:	00009480 	andeq	r9, r0, r0, lsl #9
    1440:	05510119 	ldrbeq	r0, [r1, #-281]	; 0xfffffee7
    1444:	00936c03 	addseq	r6, r3, r3, lsl #24
    1448:	52011900 	andpl	r1, r1, #0, 18
    144c:	94b80305 	ldrtls	r0, [r8], #773	; 0x305
    1450:	01190000 	tsteq	r9, r0
    1454:	e2080253 	and	r0, r8, #805306373	; 0x30000005
    1458:	8b541a00 	blhi	1507c60 <__bss_end__+0x14fe380>
    145c:	0a800000 	beq	fe001464 <__bss_end__+0xfdff7b84>
    1460:	00000000 	andeq	r0, r0, r0
    1464:	00b90408 	adcseq	r0, r9, r8, lsl #8
    1468:	c01c0000 	andsgt	r0, ip, r0
    146c:	eb000000 	bl	1474 <__code_start__-0x6b8c>
    1470:	1d000006 	stcne	0, cr0, [r0, #-24]	; 0xffffffe8
    1474:	0000002c 	andeq	r0, r0, ip, lsr #32
    1478:	db090009 	blle	2414a4 <__bss_end__+0x237bc4>
    147c:	1c000006 	stcne	0, cr0, [r0], {6}
    1480:	000000b9 	strheq	r0, [r0], -r9
    1484:	00000700 	andeq	r0, r0, r0, lsl #14
    1488:	00002c1d 	andeq	r2, r0, sp, lsl ip
    148c:	1e007f00 	cdpne	15, 0, cr7, cr0, cr0, {0}
    1490:	00000397 	muleq	r0, r7, r3
    1494:	d5014901 	strle	r4, [r1, #-2305]	; 0xfffff6ff
    1498:	0c000006 	stceq	0, cr0, [r0], {6}
    149c:	b4000085 	strlt	r0, [r0], #-133	; 0xffffff7b
    14a0:	01000001 	tsteq	r0, r1
    14a4:	0008699c 	muleq	r8, ip, r9
    14a8:	03dc1f00 	bicseq	r1, ip, #0, 30
    14ac:	49010000 	stmdbmi	r1, {}	; <UNPREDICTABLE>
    14b0:	00002c0f 	andeq	r2, r0, pc, lsl #24
    14b4:	0006db00 	andeq	sp, r6, r0, lsl #22
    14b8:	0006d500 	andeq	sp, r6, r0, lsl #10
    14bc:	73640e00 	cmnvc	r4, #0, 28
    14c0:	49010074 	stmdbmi	r1, {r2, r4, r5, r6}
    14c4:	0006d51b 	andeq	sp, r6, fp, lsl r5
    14c8:	00071900 	andeq	r1, r7, r0, lsl #18
    14cc:	00070900 	andeq	r0, r7, r0, lsl #18
    14d0:	006e0e00 	rsbeq	r0, lr, r0, lsl #28
    14d4:	25244901 	strcs	r4, [r4, #-2305]!	; 0xfffff6ff
    14d8:	7d000000 	stcvc	0, cr0, [r0, #-0]
    14dc:	79000007 	stmdbvc	r0, {r0, r1, r2}
    14e0:	0e000007 	cdpeq	0, 0, cr0, cr0, cr7, {0}
    14e4:	006c6176 	rsbeq	r6, ip, r6, ror r1
    14e8:	252b4901 	strcs	r4, [fp, #-2305]!	; 0xfffff6ff
    14ec:	a7000000 	strge	r0, [r0, -r0]
    14f0:	9b000007 	blls	1514 <__code_start__-0x6aec>
    14f4:	1f000007 	svcne	0x00000007
    14f8:	0000032d 	andeq	r0, r0, sp, lsr #6
    14fc:	25344901 	ldrcs	r4, [r4, #-2305]!	; 0xfffff6ff
    1500:	fd000000 	stc2	0, cr0, [r0, #-0]
    1504:	f7000007 			; <UNDEFINED> instruction: 0xf7000007
    1508:	0f000007 	svceq	0x00000007
    150c:	000003e1 	andeq	r0, r0, r1, ror #7
    1510:	253f4901 	ldrcs	r4, [pc, #-2305]!	; c17 <__code_start__-0x73e9>
    1514:	02000000 	andeq	r0, r0, #0, 0
    1518:	62150491 	andsvs	r0, r5, #-1862270976	; 0x91000000
    151c:	01006675 	tsteq	r0, r5, ror r6
    1520:	0869074e 	stmdaeq	r9!, {r1, r2, r3, r6, r8, r9, sl}^
    1524:	91030000 	mrsls	r0, (UNDEF: 3)
    1528:	70107fa8 	andsvc	r7, r0, r8, lsr #31
    152c:	114e0100 	mrsne	r0, (UNDEF: 94)
    1530:	000006d5 	ldrdeq	r0, [r0], -r5
    1534:	00000847 	andeq	r0, r0, r7, asr #16
    1538:	00000827 	andeq	r0, r0, r7, lsr #16
    153c:	01007510 	tsteq	r0, r0, lsl r5
    1540:	002c0b4f 	eoreq	r0, ip, pc, asr #22
    1544:	092d0000 	pusheq	{}	; <UNPREDICTABLE>
    1548:	09190000 	ldmdbeq	r9, {}	; <UNPREDICTABLE>
    154c:	4f130000 	svcmi	0x00130000
    1550:	89000000 	stmdbhi	r0, {}	; <UNPREDICTABLE>
    1554:	05000008 	streq	r0, [r0, #-8]
    1558:	0094a003 	addseq	sl, r4, r3
    155c:	85781700 	ldrbhi	r1, [r8, #-1792]!	; 0xfffff900
    1560:	00780000 	rsbseq	r0, r8, r0
    1564:	07f00000 	ldrbeq	r0, [r0, r0]!
    1568:	84120000 	ldrhi	r0, [r2], #-0
    156c:	01000003 	tsteq	r0, r3
    1570:	002c0d54 	eoreq	r0, ip, r4, asr sp
    1574:	09ae0000 	stmibeq	lr!, {}	; <UNPREDICTABLE>
    1578:	09a60000 	stmibeq	r6!, {}	; <UNPREDICTABLE>
    157c:	18000000 	stmdane	r0, {}	; <UNPREDICTABLE>
    1580:	00008630 	andeq	r8, r0, r0, lsr r6
    1584:	0000091b 	andeq	r0, r0, fp, lsl r9
    1588:	00000805 	andeq	r0, r0, r5, lsl #16
    158c:	03510119 	cmpeq	r1, #1073741830	; 0x40000006
    1590:	007fa091 			; <UNDEFINED> instruction: 0x007fa091
    1594:	00864418 	addeq	r4, r6, r8, lsl r4
    1598:	00088e00 	andeq	r8, r8, r0, lsl #28
    159c:	00082600 	andeq	r2, r8, r0, lsl #12
    15a0:	50011900 	andpl	r1, r1, r0, lsl #18
    15a4:	19007502 	stmdbne	r0, {r1, r8, sl, ip, sp, lr}
    15a8:	74025101 	strvc	r5, [r2], #-257	; 0xfffffeff
    15ac:	53011900 	movwpl	r1, #6400	; 0x1900
    15b0:	7fa09103 	svcvc	0x00a09103
    15b4:	869c1800 	ldrhi	r1, [ip], r0, lsl #16
    15b8:	0a740000 	beq	1d015c0 <__bss_end__+0x1cf7ce0>
    15bc:	085f0000 	ldmdaeq	pc, {}^	; <UNPREDICTABLE>
    15c0:	01190000 	tsteq	r9, r0
    15c4:	90030550 	andls	r0, r3, r0, asr r5
    15c8:	19000091 	stmdbne	r0, {r0, r4, r7}
    15cc:	03055101 	movweq	r5, #20737	; 0x5101
    15d0:	0000936c 	andeq	r9, r0, ip, ror #6
    15d4:	05520119 	ldrbeq	r0, [r2, #-281]	; 0xfffffee7
    15d8:	0094a003 	addseq	sl, r4, r3
    15dc:	53011900 	movwpl	r1, #6400	; 0x1900
    15e0:	19790802 	ldmdbne	r9!, {r1, fp}^
    15e4:	05007d02 	streq	r7, [r0, #-3330]	; 0xfffff2fe
    15e8:	00938003 	addseq	r8, r3, r3
    15ec:	a01a0000 	andsge	r0, sl, r0
    15f0:	80000086 	andhi	r0, r0, r6, lsl #1
    15f4:	0000000a 	andeq	r0, r0, sl
    15f8:	0000b91c 	andeq	fp, r0, ip, lsl r9
    15fc:	00087900 	andeq	r7, r8, r0, lsl #18
    1600:	002c1d00 	eoreq	r1, ip, r0, lsl #26
    1604:	003f0000 	eorseq	r0, pc, r0
    1608:	0000c01c 	andeq	ip, r0, ip, lsl r0
    160c:	00088900 	andeq	r8, r8, r0, lsl #18
    1610:	002c1d00 	eoreq	r1, ip, r0, lsl #26
    1614:	00040000 	andeq	r0, r4, r0
    1618:	00087909 	andeq	r7, r8, r9, lsl #18
    161c:	03a41e00 			; <UNDEFINED> instruction: 0x03a41e00
    1620:	38010000 	stmdacc	r1, {}	; <UNPREDICTABLE>
    1624:	0006d50e 	andeq	sp, r6, lr, lsl #10
    1628:	0084d400 	addeq	sp, r4, r0, lsl #8
    162c:	00003800 	andeq	r3, r0, r0, lsl #16
    1630:	1b9c0100 	blne	fe701a38 <__bss_end__+0xfe6f8158>
    1634:	0e000009 	cdpeq	0, 0, cr0, cr0, cr9, {0}
    1638:	00747364 	rsbseq	r7, r4, r4, ror #6
    163c:	d51c3801 	ldrle	r3, [ip, #-2049]	; 0xfffff7ff
    1640:	ef000006 	svc	0x00000006
    1644:	e5000009 	str	r0, [r0, #-9]
    1648:	0e000009 	cdpeq	0, 0, cr0, cr0, cr9, {0}
    164c:	3801006e 	stmdacc	r1, {r1, r2, r3, r5, r6}
    1650:	00002525 	andeq	r2, r0, r5, lsr #10
    1654:	000a3600 	andeq	r3, sl, r0, lsl #12
    1658:	000a3200 	andeq	r3, sl, r0, lsl #4
    165c:	00700e00 	rsbseq	r0, r0, r0, lsl #28
    1660:	d52e3801 	strle	r3, [lr, #-2049]!	; 0xfffff7ff
    1664:	5f000006 	svcpl	0x00000006
    1668:	5700000a 	strpl	r0, [r0, -sl]
    166c:	1f00000a 	svcne	0x0000000a
    1670:	000000e4 	andeq	r0, r0, r4, ror #1
    1674:	d5373801 	ldrle	r3, [r7, #-2049]!	; 0xfffff7ff
    1678:	99000006 	stmdbls	r0, {r1, r2}
    167c:	9500000a 	strls	r0, [r0, #-10]
    1680:	1000000a 	andne	r0, r0, sl
    1684:	006e656c 	rsbeq	r6, lr, ip, ror #10
    1688:	25063a01 	strcs	r3, [r6, #-2561]	; 0xfffff5ff
    168c:	bf000000 	svclt	0x00000000
    1690:	b700000a 	strlt	r0, [r0, -sl]
    1694:	1000000a 	andne	r0, r0, sl
    1698:	3e010073 	mcrcc	0, 0, r0, cr1, cr3, {3}
    169c:	0006d508 	andeq	sp, r6, r8, lsl #10
    16a0:	000b0d00 	andeq	r0, fp, r0, lsl #26
    16a4:	000b0b00 	andeq	r0, fp, r0, lsl #22
    16a8:	70200000 	eorvc	r0, r0, r0
    16ac:	01006461 	tsteq	r0, r1, ror #8
    16b0:	06d50e2e 	ldrbeq	r0, [r5], lr, lsr #28
    16b4:	84b00000 	ldrthi	r0, [r0], #0
    16b8:	00240000 	eoreq	r0, r4, r0
    16bc:	9c010000 	stcls	0, cr0, [r1], {-0}
    16c0:	0000097e 	andeq	r0, r0, lr, ror r9
    16c4:	0100700e 	tsteq	r0, lr
    16c8:	06d5182e 	ldrbeq	r1, [r5], lr, lsr #16
    16cc:	0b260000 	bleq	9816d4 <__bss_end__+0x977df4>
    16d0:	0b200000 	bleq	8016d8 <__bss_end__+0x7f7df8>
    16d4:	dc1f0000 	ldcle	0, cr0, [pc], {-0}
    16d8:	01000003 	tsteq	r0, r3
    16dc:	06d5222e 	ldrbeq	r2, [r5], lr, lsr #4
    16e0:	0b550000 	bleq	15416e8 <__bss_end__+0x1537e08>
    16e4:	0b510000 	bleq	14416ec <__bss_end__+0x1437e0c>
    16e8:	2d0f0000 	stccs	0, cr0, [pc, #-0]	; 16f0 <__code_start__-0x6910>
    16ec:	01000003 	tsteq	r0, r3
    16f0:	00252c2e 	eoreq	r2, r5, lr, lsr #24
    16f4:	52010000 	andpl	r0, r1, #0, 0
    16f8:	6e656c10 	mcrvs	12, 3, r6, cr5, cr0, {0}
    16fc:	062f0100 	strteq	r0, [pc], -r0, lsl #2
    1700:	00000025 	andeq	r0, r0, r5, lsr #32
    1704:	00000b78 	andeq	r0, r0, r8, ror fp
    1708:	00000b76 	andeq	r0, r0, r6, ror fp
    170c:	02ec1e00 	rsceq	r1, ip, #0, 28
    1710:	27010000 	strcs	r0, [r1, -r0]
    1714:	0000250c 	andeq	r2, r0, ip, lsl #10
    1718:	00849c00 	addeq	r9, r4, r0, lsl #24
    171c:	00001400 	andeq	r1, r0, r0, lsl #8
    1720:	ab9c0100 	blge	fe701b28 <__bss_end__+0xfe6f8248>
    1724:	0e000009 	cdpeq	0, 0, cr0, cr0, cr9, {0}
    1728:	27010063 	strcs	r0, [r1, -r3, rrx]
    172c:	00002518 	andeq	r2, r0, r8, lsl r5
    1730:	000b9100 	andeq	r9, fp, r0, lsl #2
    1734:	000b8b00 	andeq	r8, fp, r0, lsl #22
    1738:	5d210000 	stcpl	0, cr0, [r1, #-0]
    173c:	01000003 	tsteq	r0, r3
    1740:	86c0061f 			; <UNDEFINED> instruction: 0x86c0061f
    1744:	00640000 	rsbeq	r0, r4, r0
    1748:	9c010000 	stcls	0, cr0, [r1], {-0}
    174c:	00000a3b 	andeq	r0, r0, fp, lsr sl
    1750:	0003401f 	andeq	r4, r3, pc, lsl r0
    1754:	1b1f0100 	blne	7c1b5c <__bss_end__+0x7b827c>
    1758:	0000009e 	muleq	r0, lr, r0
    175c:	00000bc3 	andeq	r0, r0, r3, asr #23
    1760:	00000bbf 			; <UNDEFINED> instruction: 0x00000bbf
    1764:	00039c1f 	andeq	r9, r3, pc, lsl ip
    1768:	301f0100 	andscc	r0, pc, r0, lsl #2
    176c:	000000d1 	ldrdeq	r0, [r0], -r1
    1770:	00000be8 	andeq	r0, r0, r8, ror #23
    1774:	00000be4 	andeq	r0, r0, r4, ror #23
    1778:	00004f13 	andeq	r4, r0, r3, lsl pc
    177c:	000a4b00 	andeq	r4, sl, r0, lsl #22
    1780:	a8030500 	stmdage	r3, {r8, sl}
    1784:	18000094 	stmdane	r0, {r2, r4, r7}
    1788:	00008708 	andeq	r8, r0, r8, lsl #14
    178c:	00000a74 	andeq	r0, r0, r4, ror sl
    1790:	00000a31 	andeq	r0, r0, r1, lsr sl
    1794:	05500119 	ldrbeq	r0, [r0, #-281]	; 0xfffffee7
    1798:	00919003 	addseq	r9, r1, r3
    179c:	51011900 	tstpl	r1, r0, lsl #18
    17a0:	936c0305 	cmnls	ip, #335544320	; 0x14000000
    17a4:	01190000 	tsteq	r9, r0
    17a8:	a8030552 	stmdage	r3, {r1, r4, r6, r8, sl}
    17ac:	19000094 	stmdbne	r0, {r2, r4, r7}
    17b0:	08025301 	stmdaeq	r2, {r0, r8, r9, ip, lr}
    17b4:	7d021920 	vstrvc.16	s2, [r2, #-64]	; 0xffffffc0	; <UNPREDICTABLE>
    17b8:	a8030500 	stmdage	r3, {r8, sl}
    17bc:	00000093 	muleq	r0, r3, r0
    17c0:	00870c1a 	addeq	r0, r7, sl, lsl ip
    17c4:	000a8000 	andeq	r8, sl, r0
    17c8:	c01c0000 	andsgt	r0, ip, r0
    17cc:	4b000000 	blmi	17d4 <__code_start__-0x682c>
    17d0:	1d00000a 	stcne	0, cr0, [r0, #-40]	; 0xffffffd8
    17d4:	0000002c 	andeq	r0, r0, ip, lsr #32
    17d8:	3b09000e 	blcc	241818 <__bss_end__+0x237f38>
    17dc:	2200000a 	andcs	r0, r0, #10, 0
    17e0:	000003d4 	ldrdeq	r0, [r0], -r4
    17e4:	000003d4 	ldrdeq	r0, [r0], -r4
    17e8:	2205d903 	andcs	sp, r5, #49152	; 0xc000
    17ec:	000003ac 	andeq	r0, r0, ip, lsr #7
    17f0:	000003ac 	andeq	r0, r0, ip, lsr #7
    17f4:	2205d803 	andcs	sp, r5, #196608	; 0x30000
    17f8:	0000037d 	andeq	r0, r0, sp, ror r3
    17fc:	0000037d 	andeq	r0, r0, sp, ror r3
    1800:	2207db03 	andcs	sp, r7, #3072	; 0xc00
    1804:	0000023c 	andeq	r0, r0, ip, lsr r2
    1808:	0000023c 	andeq	r0, r0, ip, lsr r2
    180c:	22062803 	andcs	r2, r6, #196608	; 0x30000
    1810:	0000002f 	andeq	r0, r0, pc, lsr #32
    1814:	0000002f 	andeq	r0, r0, pc, lsr #32
    1818:	22066703 	andcs	r6, r6, #786432	; 0xc0000
    181c:	00000376 	andeq	r0, r0, r6, ror r3
    1820:	00000376 	andeq	r0, r0, r6, ror r3
    1824:	0007dc03 	andeq	sp, r7, r3, lsl #24
    1828:	0000012f 	andeq	r0, r0, pc, lsr #2
    182c:	07c60004 	strbeq	r0, [r6, r4]
    1830:	01040000 	mrseq	r0, (UNDEF: 4)
    1834:	000000ea 	andeq	r0, r0, sl, ror #1
    1838:	0003fe0c 	andeq	pc, r3, ip, lsl #28
    183c:	00027100 	andeq	r7, r2, r0, lsl #2
    1840:	008bbc00 	addeq	fp, fp, r0, lsl #24
    1844:	00002c00 	andeq	r2, r0, r0, lsl #24
    1848:	000c1800 	andeq	r1, ip, r0, lsl #16
    184c:	05040200 	streq	r0, [r4, #-512]	; 0xfffffe00
    1850:	00746e69 	rsbseq	r6, r4, r9, ror #28
    1854:	66070403 	strvs	r0, [r7], -r3, lsl #8
    1858:	03000000 	movweq	r0, #0
    185c:	00230601 	eoreq	r0, r3, r1, lsl #12
    1860:	02030000 	andeq	r0, r3, #0, 0
    1864:	0000c905 	andeq	ip, r0, r5, lsl #18
    1868:	05040300 	streq	r0, [r4, #-768]	; 0xfffffd00
    186c:	00000078 	andeq	r0, r0, r8, ror r0
    1870:	73050803 	movwvc	r0, #22531	; 0x5803
    1874:	03000000 	movweq	r0, #0
    1878:	00210801 	eoreq	r0, r1, r1, lsl #16
    187c:	02030000 	andeq	r0, r3, #0, 0
    1880:	00003c07 	andeq	r3, r0, r7, lsl #24
    1884:	07040300 	streq	r0, [r4, -r0, lsl #6]
    1888:	00000061 	andeq	r0, r0, r1, rrx
    188c:	5c070803 	stcpl	8, cr0, [r7], {3}
    1890:	04000000 	streq	r0, [r0], #-0
    1894:	00000025 	andeq	r0, r0, r5, lsr #32
    1898:	0000007a 	andeq	r0, r0, sl, ror r0
    189c:	00002505 	andeq	r2, r0, r5, lsl #10
    18a0:	81060000 	mrshi	r0, (UNDEF: 6)
    18a4:	02000000 	andeq	r0, r0, #0, 0
    18a8:	00860e1c 	addeq	r0, r6, ip, lsl lr
    18ac:	04070000 	streq	r0, [r7], #-0
    18b0:	0000006b 	andeq	r0, r0, fp, rrx
    18b4:	00002504 	andeq	r2, r0, r4, lsl #10
    18b8:	00009b00 	andeq	r9, r0, r0, lsl #22
    18bc:	009b0500 	addseq	r0, fp, r0, lsl #10
    18c0:	07000000 	streq	r0, [r0, -r0]
    18c4:	0000a804 	andeq	sl, r0, r4, lsl #16
    18c8:	08010300 	stmdaeq	r1, {r8, r9}
    18cc:	0000002a 	andeq	r0, r0, sl, lsr #32
    18d0:	0000a108 	andeq	sl, r0, r8, lsl #2
    18d4:	02d90600 	sbcseq	r0, r9, #0, 12
    18d8:	21020000 	mrscs	r0, (UNDEF: 2)
    18dc:	0000b90e 	andeq	fp, r0, lr, lsl #18
    18e0:	8c040700 	stchi	7, cr0, [r4], {-0}
    18e4:	09000000 	stmdbeq	r0, {}	; <UNPREDICTABLE>
    18e8:	0000002f 	andeq	r0, r0, pc, lsr #32
    18ec:	bc060401 	cfstrslt	mvf0, [r6], {1}
    18f0:	2c00008b 	stccs	0, cr0, [r0], {139}	; 0x8b
    18f4:	01000000 	mrseq	r0, (UNDEF: 0)
    18f8:	00010e9c 	muleq	r1, ip, lr
    18fc:	8bd00a00 	blhi	ff404104 <__bss_end__+0xff3fa824>
    1900:	00e80000 	rsceq	r0, r8, r0
    1904:	010b0000 	mrseq	r0, (UNDEF: 11)
    1908:	c4030550 	strgt	r0, [r3], #-1360	; 0xfffffab0
    190c:	00000094 	muleq	r0, r4, r0
    1910:	008bd40c 	addeq	sp, fp, ip, lsl #8
    1914:	00010e00 	andeq	r0, r1, r0, lsl #28
    1918:	8bdc0d00 	blhi	ff704d20 <__bss_end__+0xff6fb440>
    191c:	011a0000 	tsteq	sl, r0
    1920:	01040000 	mrseq	r0, (UNDEF: 4)
    1924:	010b0000 	mrseq	r0, (UNDEF: 11)
    1928:	003a0150 	eorseq	r0, sl, r0, asr r1
    192c:	008be00c 	addeq	lr, fp, ip
    1930:	00012600 	andeq	r2, r1, r0, lsl #12
    1934:	190e0000 	stmdbne	lr, {}	; <UNPREDICTABLE>
    1938:	19000004 	stmdbne	r0, {r2}
    193c:	02000004 	andeq	r0, r0, #4, 0
    1940:	f50e0646 			; <UNDEFINED> instruction: 0xf50e0646
    1944:	f5000003 			; <UNDEFINED> instruction: 0xf5000003
    1948:	02000003 	andeq	r0, r0, #3, 0
    194c:	ea0e0651 	b	383298 <__bss_end__+0x3799b8>
    1950:	ea000003 	b	1964 <__code_start__-0x669c>
    1954:	02000003 	andeq	r0, r0, #3, 0
    1958:	43000664 	movwmi	r0, #1636	; 0x664
    195c:	04000001 	streq	r0, [r0], #-1
    1960:	00088600 	andeq	r8, r8, r0, lsl #12
    1964:	ea010400 	b	4296c <__bss_end__+0x3908c>
    1968:	0c000000 	stceq	0, cr0, [r0], {-0}
    196c:	00000437 	andeq	r0, r0, r7, lsr r4
    1970:	00000271 	andeq	r0, r0, r1, ror r2
    1974:	00008be8 	andeq	r8, r0, r8, ror #23
    1978:	0000002c 	andeq	r0, r0, ip, lsr #32
    197c:	00000ca0 	andeq	r0, r0, r0, lsr #25
    1980:	69050402 	stmdbvs	r5, {r1, sl}
    1984:	0300746e 	movweq	r7, #1134	; 0x46e
    1988:	00660704 	rsbeq	r0, r6, r4, lsl #14
    198c:	01030000 	mrseq	r0, (UNDEF: 3)
    1990:	00002306 	andeq	r2, r0, r6, lsl #6
    1994:	05020300 	streq	r0, [r2, #-768]	; 0xfffffd00
    1998:	000000c9 	andeq	r0, r0, r9, asr #1
    199c:	78050403 	stmdavc	r5, {r0, r1, sl}
    19a0:	03000000 	movweq	r0, #0
    19a4:	00730508 	rsbseq	r0, r3, r8, lsl #10
    19a8:	01030000 	mrseq	r0, (UNDEF: 3)
    19ac:	00002108 	andeq	r2, r0, r8, lsl #2
    19b0:	07020300 	streq	r0, [r2, -r0, lsl #6]
    19b4:	0000003c 	andeq	r0, r0, ip, lsr r0
    19b8:	61070403 	tstvs	r7, r3, lsl #8
    19bc:	03000000 	movweq	r0, #0
    19c0:	005c0708 	subseq	r0, ip, r8, lsl #14
    19c4:	25040000 	strcs	r0, [r4, #-0]
    19c8:	7a000000 	bvc	19d0 <__code_start__-0x6630>
    19cc:	05000000 	streq	r0, [r0, #-0]
    19d0:	00000025 	andeq	r0, r0, r5, lsr #32
    19d4:	00810600 	addeq	r0, r1, r0, lsl #12
    19d8:	1c020000 	stcne	0, cr0, [r2], {-0}
    19dc:	0000860e 	andeq	r8, r0, lr, lsl #12
    19e0:	6b040700 	blvs	1035e8 <__bss_end__+0xf9d08>
    19e4:	04000000 	streq	r0, [r0], #-0
    19e8:	00000025 	andeq	r0, r0, r5, lsr #32
    19ec:	0000009b 	muleq	r0, fp, r0
    19f0:	00009b05 	andeq	r9, r0, r5, lsl #22
    19f4:	04070000 	streq	r0, [r7], #-0
    19f8:	000000a8 	andeq	r0, r0, r8, lsr #1
    19fc:	2a080103 	bcs	201e10 <__bss_end__+0x1f8530>
    1a00:	08000000 	stmdaeq	r0, {}	; <UNPREDICTABLE>
    1a04:	000000a1 	andeq	r0, r0, r1, lsr #1
    1a08:	0002d906 	andeq	sp, r2, r6, lsl #18
    1a0c:	0e210200 	cdpeq	2, 2, cr0, cr1, cr0, {0}
    1a10:	000000b9 	strheq	r0, [r0], -r9
    1a14:	008c0407 	addeq	r0, ip, r7, lsl #8
    1a18:	27090000 	strcs	r0, [r9, -r0]
    1a1c:	01000004 	tsteq	r0, r4
    1a20:	8be80603 	blhi	ffa03234 <__bss_end__+0xff9f9954>
    1a24:	002c0000 	eoreq	r0, ip, r0
    1a28:	9c010000 	stcls	0, cr0, [r1], {-0}
    1a2c:	00000128 	andeq	r0, r0, r8, lsr #2
    1a30:	00031f06 	andeq	r1, r3, r6, lsl #30
    1a34:	10040100 	andne	r0, r4, r0, lsl #2
    1a38:	00000025 	andeq	r0, r0, r5, lsr #32
    1a3c:	00034806 	andeq	r4, r3, r6, lsl #16
    1a40:	1f040100 	svcne	0x00040100
    1a44:	00000025 	andeq	r0, r0, r5, lsr #32
    1a48:	0000190a 	andeq	r1, r0, sl, lsl #18
    1a4c:	07050100 	streq	r0, [r5, -r0, lsl #2]
    1a50:	7373620b 	cmnvc	r3, #-1342177280	; 0xb0000000
    1a54:	0a070100 	beq	1c1e5c <__bss_end__+0x1b857c>
    1a58:	00000128 	andeq	r0, r0, r8, lsr #2
    1a5c:	00000c0f 	andeq	r0, r0, pc, lsl #24
    1a60:	00000c09 	andeq	r0, r0, r9, lsl #24
    1a64:	00042f0c 	andeq	r2, r4, ip, lsl #30
    1a68:	0a080100 	beq	201e70 <__bss_end__+0x1f8590>
    1a6c:	00000128 	andeq	r0, r0, r8, lsr #2
    1a70:	008c080d 	addeq	r0, ip, sp, lsl #16
    1a74:	00012e00 	andeq	r2, r1, r0, lsl #28
    1a78:	8c0c0d00 	stchi	13, cr0, [ip], {-0}
    1a7c:	013a0000 	teqeq	sl, r0
    1a80:	07000000 	streq	r0, [r0, -r0]
    1a84:	00002504 	andeq	r2, r0, r4, lsl #10
    1a88:	00190e00 	andseq	r0, r9, r0, lsl #28
    1a8c:	00190000 	andseq	r0, r9, r0
    1a90:	f1020000 	cps	#0
    1a94:	002f0e06 	eoreq	r0, pc, r6, lsl #28
    1a98:	002f0000 	eoreq	r0, pc, r0
    1a9c:	67020000 	strvs	r0, [r2, -r0]
    1aa0:	02200006 	eoreq	r0, r0, #6, 0
    1aa4:	00040000 	andeq	r0, r4, r0
    1aa8:	00000953 	andeq	r0, r0, r3, asr r9
    1aac:	00ea0104 	rsceq	r0, sl, r4, lsl #2
    1ab0:	690c0000 	stmdbvs	ip, {}	; <UNPREDICTABLE>
    1ab4:	71000004 	tstvc	r0, r4
    1ab8:	60000002 	andvs	r0, r0, r2
    1abc:	00000000 	andeq	r0, r0, r0
    1ac0:	3c000000 	stccc	0, cr0, [r0], {-0}
    1ac4:	0200000d 	andeq	r0, r0, #13, 0
    1ac8:	6e690504 	cdpvs	5, 6, cr0, cr9, cr4, {0}
    1acc:	25030074 	strcs	r0, [r3, #-116]	; 0xffffff8c
    1ad0:	04000000 	streq	r0, [r0], #-0
    1ad4:	00660704 	rsbeq	r0, r6, r4, lsl #14
    1ad8:	01040000 	mrseq	r0, (UNDEF: 4)
    1adc:	00002306 	andeq	r2, r0, r6, lsl #6
    1ae0:	05020400 	streq	r0, [r2, #-1024]	; 0xfffffc00
    1ae4:	000000c9 	andeq	r0, r0, r9, asr #1
    1ae8:	78050404 	stmdavc	r5, {r2, sl}
    1aec:	04000000 	streq	r0, [r0], #-0
    1af0:	00730508 	rsbseq	r0, r3, r8, lsl #10
    1af4:	01040000 	mrseq	r0, (UNDEF: 4)
    1af8:	00002108 	andeq	r2, r0, r8, lsl #2
    1afc:	07020400 	streq	r0, [r2, -r0, lsl #8]
    1b00:	0000003c 	andeq	r0, r0, ip, lsr r0
    1b04:	61070404 	tstvs	r7, r4, lsl #8
    1b08:	04000000 	streq	r0, [r0], #-0
    1b0c:	005c0708 	subseq	r0, ip, r8, lsl #14
    1b10:	25050000 	strcs	r0, [r5, #-0]
    1b14:	7f000000 	svcvc	0x00000000
    1b18:	06000000 	streq	r0, [r0], -r0
    1b1c:	00000025 	andeq	r0, r0, r5, lsr #32
    1b20:	00810700 	addeq	r0, r1, r0, lsl #14
    1b24:	1c020000 	stcne	0, cr0, [r2], {-0}
    1b28:	00008b0e 	andeq	r8, r0, lr, lsl #22
    1b2c:	70040800 	andvc	r0, r4, r0, lsl #16
    1b30:	05000000 	streq	r0, [r0, #-0]
    1b34:	00000025 	andeq	r0, r0, r5, lsr #32
    1b38:	000000a0 	andeq	r0, r0, r0, lsr #1
    1b3c:	0000a006 	andeq	sl, r0, r6
    1b40:	04080000 	streq	r0, [r8], #-0
    1b44:	000000ad 	andeq	r0, r0, sp, lsr #1
    1b48:	2a080104 	bcs	201f60 <__bss_end__+0x1f8680>
    1b4c:	03000000 	movweq	r0, #0
    1b50:	000000a6 	andeq	r0, r0, r6, lsr #1
    1b54:	0002d907 	andeq	sp, r2, r7, lsl #18
    1b58:	0e210200 	cdpeq	2, 2, cr0, cr1, cr0, {0}
    1b5c:	000000be 	strheq	r0, [r0], -lr
    1b60:	00910408 	addseq	r0, r1, r8, lsl #8
    1b64:	8d090000 	stchi	0, cr0, [r9, #-0]
    1b68:	01000004 	tsteq	r0, r4
    1b6c:	0031110d 	eorseq	r1, r1, sp, lsl #2
    1b70:	ea0a0000 	b	281b78 <__bss_end__+0x278298>
    1b74:	01000003 	tsteq	r0, r3
    1b78:	8c40061f 	mcrrhi	6, 1, r0, r0, cr15
    1b7c:	00500000 	subseq	r0, r0, r0
    1b80:	9c010000 	stcls	0, cr0, [r1], {-0}
    1b84:	000001a5 	andeq	r0, r0, r5, lsr #3
    1b88:	0004b10b 	andeq	fp, r4, fp, lsl #2
    1b8c:	0f2f0100 	svceq	0x002f0100
    1b90:	0000002c 	andeq	r0, r0, ip, lsr #32
    1b94:	00000c3c 	andeq	r0, r0, ip, lsr ip
    1b98:	00000c3a 	andeq	r0, r0, sl, lsr ip
    1b9c:	00044c0b 	andeq	r4, r4, fp, lsl #24
    1ba0:	0f300100 	svceq	0x00300100
    1ba4:	0000002c 	andeq	r0, r0, ip, lsr #32
    1ba8:	00000c56 	andeq	r0, r0, r6, asr ip
    1bac:	00000c54 	andeq	r0, r0, r4, asr ip
    1bb0:	00047e0b 	andeq	r7, r4, fp, lsl #28
    1bb4:	0f310100 	svceq	0x00310100
    1bb8:	0000002c 	andeq	r0, r0, ip, lsr #32
    1bbc:	00000c70 	andeq	r0, r0, r0, ror ip
    1bc0:	00000c6e 	andeq	r0, r0, lr, ror #24
    1bc4:	0004980b 	andeq	r9, r4, fp, lsl #16
    1bc8:	0f320100 	svceq	0x00320100
    1bcc:	0000002c 	andeq	r0, r0, ip, lsr #32
    1bd0:	00000c89 	andeq	r0, r0, r9, lsl #25
    1bd4:	00000c87 	andeq	r0, r0, r7, lsl #25
    1bd8:	008c480c 	addeq	r4, ip, ip, lsl #16
    1bdc:	0001d000 	andeq	sp, r1, r0
    1be0:	8c540c00 	mrrchi	12, 0, r0, r4, cr0
    1be4:	01ff0000 	mvnseq	r0, r0
    1be8:	5c0d0000 	stcpl	0, cr0, [sp], {-0}
    1bec:	0b00008c 	bleq	1e24 <__code_start__-0x61dc>
    1bf0:	5b000002 	blpl	1c00 <__code_start__-0x6400>
    1bf4:	0e000001 	cdpeq	0, 0, cr0, cr0, cr1, {0}
    1bf8:	3a015001 	bcc	55c04 <__bss_end__+0x4c324>
    1bfc:	8c680d00 	stclhi	13, cr0, [r8], #-0
    1c00:	02170000 	andseq	r0, r7, #0, 0
    1c04:	017b0000 	cmneq	fp, r0
    1c08:	010e0000 	mrseq	r0, (UNDEF: 14)
    1c0c:	240c0550 	strcs	r0, [ip], #-1360	; 0xfffffab0
    1c10:	0e201000 	cdpeq	0, 2, cr1, cr0, cr0, {0}
    1c14:	0c055101 	stfeqs	f5, [r5], {1}
    1c18:	5a000001 	bpl	1c24 <__code_start__-0x63dc>
    1c1c:	8c740d00 	ldclhi	13, cr0, [r4], #-0
    1c20:	02170000 	andseq	r0, r7, #0, 0
    1c24:	019b0000 	orrseq	r0, fp, r0
    1c28:	010e0000 	mrseq	r0, (UNDEF: 14)
    1c2c:	1c0c0550 	cfstr32ne	mvfx0, [ip], {80}	; 0x50
    1c30:	0e201000 	cdpeq	0, 2, cr1, cr0, cr0, {0}
    1c34:	0c055101 	stfeqs	f5, [r5], {1}
    1c38:	5a000020 	bpl	1cc0 <__code_start__-0x6340>
    1c3c:	8c7c0c00 	ldclhi	12, cr0, [ip], #-0
    1c40:	01a50000 			; <UNDEFINED> instruction: 0x01a50000
    1c44:	0f000000 	svceq	0x00000000
    1c48:	0000045a 	andeq	r0, r0, sl, asr r4
    1c4c:	2c061701 	stccs	7, cr1, [r6], {1}
    1c50:	1400008c 	strne	r0, [r0], #-140	; 0xffffff74
    1c54:	01000000 	mrseq	r0, (UNDEF: 0)
    1c58:	0001d09c 	muleq	r1, ip, r0
    1c5c:	04b90b00 	ldrteq	r0, [r9], #2816	; 0xb00
    1c60:	18010000 	stmdane	r1, {}	; <UNPREDICTABLE>
    1c64:	0000310e 	andeq	r3, r0, lr, lsl #2
    1c68:	000ca400 	andeq	sl, ip, r0, lsl #8
    1c6c:	000c9e00 	andeq	r9, ip, r0, lsl #28
    1c70:	8a100000 	bhi	401c78 <__bss_end__+0x3f8398>
    1c74:	01000004 	tsteq	r0, r4
    1c78:	0025050e 	eoreq	r0, r5, lr, lsl #10
    1c7c:	8c140000 	ldchi	0, cr0, [r4], {-0}
    1c80:	00180000 	andseq	r0, r8, r0
    1c84:	9c010000 	stcls	0, cr0, [r1], {-0}
    1c88:	000001ff 	strdeq	r0, [r0], -pc	; <UNPREDICTABLE>
    1c8c:	0004b90b 	andeq	fp, r4, fp, lsl #18
    1c90:	0e0f0100 	adfeqe	f0, f7, f0
    1c94:	00000031 	andeq	r0, r0, r1, lsr r0
    1c98:	00000cd2 	ldrdeq	r0, [r0], -r2
    1c9c:	00000cce 	andeq	r0, r0, lr, asr #25
    1ca0:	04191100 	ldreq	r1, [r9], #-256	; 0xffffff00
    1ca4:	04190000 	ldreq	r0, [r9], #-0
    1ca8:	46020000 	strmi	r0, [r2], -r0
    1cac:	03f51106 	mvnseq	r1, #-2147483647	; 0x80000001
    1cb0:	03f50000 	mvnseq	r0, #0, 0
    1cb4:	51020000 	mrspl	r0, (UNDEF: 2)
    1cb8:	04541106 	ldrbeq	r1, [r4], #-262	; 0xfffffefa
    1cbc:	04540000 	ldrbeq	r0, [r4], #-0
    1cc0:	a4020000 	strge	r0, [r2], #-0
    1cc4:	024d0006 	subeq	r0, sp, #6, 0
    1cc8:	00040000 	andeq	r0, r4, r0
    1ccc:	00000a65 	andeq	r0, r0, r5, ror #20
    1cd0:	00ea0104 	rsceq	r0, sl, r4, lsl #2
    1cd4:	d40c0000 	strle	r0, [ip], #-0
    1cd8:	71000004 	tstvc	r0, r4
    1cdc:	90000002 	andls	r0, r0, r2
    1ce0:	8400008c 	strhi	r0, [r0], #-140	; 0xffffff74
    1ce4:	13000000 	movwne	r0, #0
    1ce8:	0200000e 	andeq	r0, r0, #14, 0
    1cec:	6e690504 	cdpvs	5, 6, cr0, cr9, cr4, {0}
    1cf0:	04030074 	streq	r0, [r3], #-116	; 0xffffff8c
    1cf4:	00006607 	andeq	r6, r0, r7, lsl #12
    1cf8:	06010300 	streq	r0, [r1], -r0, lsl #6
    1cfc:	00000023 	andeq	r0, r0, r3, lsr #32
    1d00:	c9050203 	stmdbgt	r5, {r0, r1, r9}
    1d04:	03000000 	movweq	r0, #0
    1d08:	00780504 	rsbseq	r0, r8, r4, lsl #10
    1d0c:	08030000 	stmdaeq	r3, {}	; <UNPREDICTABLE>
    1d10:	00007305 	andeq	r7, r0, r5, lsl #6
    1d14:	08010300 	stmdaeq	r1, {r8, r9}
    1d18:	00000021 	andeq	r0, r0, r1, lsr #32
    1d1c:	3c070203 	sfmcc	f0, 4, [r7], {3}
    1d20:	03000000 	movweq	r0, #0
    1d24:	00610704 	rsbeq	r0, r1, r4, lsl #14
    1d28:	08030000 	stmdaeq	r3, {}	; <UNPREDICTABLE>
    1d2c:	00005c07 	andeq	r5, r0, r7, lsl #24
    1d30:	00250400 	eoreq	r0, r5, r0, lsl #8
    1d34:	007a0000 	rsbseq	r0, sl, r0
    1d38:	25050000 	strcs	r0, [r5, #-0]
    1d3c:	00000000 	andeq	r0, r0, r0
    1d40:	00008106 	andeq	r8, r0, r6, lsl #2
    1d44:	0e1c0200 	cdpeq	2, 1, cr0, cr12, cr0, {0}
    1d48:	00000086 	andeq	r0, r0, r6, lsl #1
    1d4c:	006b0407 	rsbeq	r0, fp, r7, lsl #8
    1d50:	25040000 	strcs	r0, [r4, #-0]
    1d54:	9b000000 	blls	1d5c <__code_start__-0x62a4>
    1d58:	05000000 	streq	r0, [r0, #-0]
    1d5c:	0000009b 	muleq	r0, fp, r0
    1d60:	a8040700 	stmdage	r4, {r8, r9, sl}
    1d64:	03000000 	movweq	r0, #0
    1d68:	002a0801 	eoreq	r0, sl, r1, lsl #16
    1d6c:	a1080000 	mrsge	r0, (UNDEF: 8)
    1d70:	06000000 	streq	r0, [r0], -r0
    1d74:	000002d9 	ldrdeq	r0, [r0], -r9
    1d78:	b90e2102 	stmdblt	lr, {r1, r8, sp}
    1d7c:	07000000 	streq	r0, [r0, -r0]
    1d80:	00008c04 	andeq	r8, r0, r4, lsl #24
    1d84:	04ca0900 	strbeq	r0, [sl], #2304	; 0x900
    1d88:	1e010000 	cdpne	0, 0, cr0, cr1, cr0, {0}
    1d8c:	008cfc06 	addeq	pc, ip, r6, lsl #24
    1d90:	00001800 	andeq	r1, r0, r0, lsl #16
    1d94:	099c0100 	ldmibeq	ip, {r8}
    1d98:	0a000001 	beq	1da4 <__code_start__-0x625c>
    1d9c:	00636573 	rsbeq	r6, r3, r3, ror r5
    1da0:	2c191e01 	ldccs	14, cr1, [r9], {1}
    1da4:	f5000000 			; <UNDEFINED> instruction: 0xf5000000
    1da8:	f100000c 	cps	#12
    1dac:	0b00000c 	bleq	1de4 <__code_start__-0x621c>
    1db0:	00008d10 	andeq	r8, r0, r0, lsl sp
    1db4:	00000109 	andeq	r0, r0, r9, lsl #2
    1db8:	1150010c 	cmpne	r0, ip, lsl #2
    1dbc:	355001f3 	ldrbcc	r0, [r0, #-499]	; 0xfffffe0d
    1dc0:	5001f324 	andpl	pc, r1, r4, lsr #6
    1dc4:	f324321c 	vqsub.u32	d3, d4, d12
    1dc8:	33225001 			; <UNDEFINED> instruction: 0x33225001
    1dcc:	09000024 	stmdbeq	r0, {r2, r5}
    1dd0:	000003f5 	strdeq	r0, [r0], -r5
    1dd4:	e4061b01 	str	r1, [r6], #-2817	; 0xfffff4ff
    1dd8:	1800008c 	stmdane	r0, {r2, r3, r7}
    1ddc:	01000000 	mrseq	r0, (UNDEF: 0)
    1de0:	0001529c 	muleq	r1, ip, r2
    1de4:	736d0a00 	cmnvc	sp, #0, 20
    1de8:	181b0100 	ldmdane	fp, {r8}
    1dec:	0000002c 	andeq	r0, r0, ip, lsr #32
    1df0:	00000d1a 	andeq	r0, r0, sl, lsl sp
    1df4:	00000d16 	andeq	r0, r0, r6, lsl sp
    1df8:	008cf80b 	addeq	pc, ip, fp, lsl #16
    1dfc:	00015200 	andeq	r5, r1, r0, lsl #4
    1e00:	50010c00 	andpl	r0, r1, r0, lsl #24
    1e04:	5001f311 	andpl	pc, r1, r1, lsl r3	; <UNPREDICTABLE>
    1e08:	01f32435 	mvnseq	r2, r5, lsr r4
    1e0c:	24321c50 	ldrtcs	r1, [r2], #-3152	; 0xfffff3b0
    1e10:	225001f3 	subscs	r0, r0, #-1073741764	; 0xc000003c
    1e14:	00002433 	andeq	r2, r0, r3, lsr r4
    1e18:	0004fd09 	andeq	pc, r4, r9, lsl #26
    1e1c:	06120100 	ldreq	r0, [r2], -r0, lsl #2
    1e20:	00008cc0 	andeq	r8, r0, r0, asr #25
    1e24:	00000024 	andeq	r0, r0, r4, lsr #32
    1e28:	01c29c01 	biceq	r9, r2, r1, lsl #24
    1e2c:	750a0000 	strvc	r0, [sl, #-0]
    1e30:	12010073 	andne	r0, r1, #115, 0	; 0x73
    1e34:	00002c18 	andeq	r2, r0, r8, lsl ip
    1e38:	000d3f00 	andeq	r3, sp, r0, lsl #30
    1e3c:	000d3b00 	andeq	r3, sp, r0, lsl #22
    1e40:	62720d00 	rsbsvs	r0, r2, #0, 26
    1e44:	0e130100 	mufeqs	f0, f3, f0
    1e48:	0000002c 	andeq	r0, r0, ip, lsr #32
    1e4c:	00000d5f 	andeq	r0, r0, pc, asr sp
    1e50:	00000d5d 	andeq	r0, r0, sp, asr sp
    1e54:	008cd00e 	addeq	sp, ip, lr
    1e58:	00001400 	andeq	r1, r0, r0, lsl #8
    1e5c:	0001b800 	andeq	fp, r1, r0, lsl #16
    1e60:	61720d00 	cmnvs	r2, r0, lsl #26
    1e64:	12150100 	andsne	r0, r5, #0
    1e68:	0000002c 	andeq	r0, r0, ip, lsr #32
    1e6c:	00000d74 	andeq	r0, r0, r4, ror sp
    1e70:	00000d72 	andeq	r0, r0, r2, ror sp
    1e74:	008cd40f 	addeq	sp, ip, pc, lsl #8
    1e78:	0001c200 	andeq	ip, r1, r0, lsl #4
    1e7c:	cc0f0000 	stcgt	0, cr0, [pc], {-0}
    1e80:	c200008c 	andgt	r0, r0, #140, 0	; 0x8c
    1e84:	00000001 	andeq	r0, r0, r1
    1e88:	0004ee10 	andeq	lr, r4, r0, lsl lr
    1e8c:	0a090100 	beq	242294 <__bss_end__+0x2389b4>
    1e90:	0000002c 	andeq	r0, r0, ip, lsr #32
    1e94:	00008ca4 	andeq	r8, r0, r4, lsr #25
    1e98:	0000001c 	andeq	r0, r0, ip, lsl r0
    1e9c:	020a9c01 	andeq	r9, sl, #256	; 0x100
    1ea0:	750d0000 	strvc	r0, [sp, #-0]
    1ea4:	0e0d0100 	adfeqe	f0, f5, f0
    1ea8:	0000002c 	andeq	r0, r0, ip, lsr #32
    1eac:	00000d8b 	andeq	r0, r0, fp, lsl #27
    1eb0:	00000d87 	andeq	r0, r0, r7, lsl #27
    1eb4:	008cac0f 	addeq	sl, ip, pc, lsl #24
    1eb8:	00023800 	andeq	r3, r2, r0, lsl #16
    1ebc:	8cb00f00 	ldchi	15, cr0, [r0]
    1ec0:	020a0000 	andeq	r0, sl, #0, 0
    1ec4:	b80f0000 	stmdalt	pc, {}	; <UNPREDICTABLE>
    1ec8:	3800008c 	stmdacc	r0, {r2, r3, r7}
    1ecc:	00000002 	andeq	r0, r0, r2
    1ed0:	00050610 	andeq	r0, r5, r0, lsl r6
    1ed4:	0a040100 	beq	1022dc <__bss_end__+0xf89fc>
    1ed8:	0000002c 	andeq	r0, r0, ip, lsr #32
    1edc:	00008c90 	muleq	r0, r0, ip
    1ee0:	00000014 	andeq	r0, r0, r4, lsl r0
    1ee4:	02389c01 	eorseq	r9, r8, #256	; 0x100
    1ee8:	9c0b0000 	stcls	0, cr0, [fp], {-0}
    1eec:	4400008c 	strmi	r0, [r0], #-140	; 0xffffff74
    1ef0:	0c000002 	stceq	0, cr0, [r0], {2}
    1ef4:	0c055001 	stceq	0, cr5, [r5], {1}
    1ef8:	20003004 	andcs	r3, r0, r4
    1efc:	be110000 	cdplt	0, 1, cr0, cr1, cr0, {0}
    1f00:	be000004 	cdplt	0, 0, cr0, cr0, cr4, {0}
    1f04:	02000004 	andeq	r0, r0, #4, 0
    1f08:	e8110693 	ldmda	r1, {r0, r1, r4, r7, r9, sl}
    1f0c:	e8000004 	stmda	r0, {r2}
    1f10:	02000004 	andeq	r0, r0, #4, 0
    1f14:	68000ab0 	stmdavs	r0, {r4, r5, r7, r9, fp}
    1f18:	04000005 	streq	r0, [r0], #-5
    1f1c:	000b6600 	andeq	r6, fp, r0, lsl #12
    1f20:	ea010400 	b	42f28 <__bss_end__+0x39648>
    1f24:	0c000000 	stceq	0, cr0, [r0], {-0}
    1f28:	00000549 	andeq	r0, r0, r9, asr #10
    1f2c:	0000055e 	andeq	r0, r0, lr, asr r5
    1f30:	00008d14 	andeq	r8, r0, r4, lsl sp
    1f34:	000001ac 	andeq	r0, r0, ip, lsr #3
    1f38:	00000ef0 	strdeq	r0, [r0], -r0	; <UNPREDICTABLE>
    1f3c:	69050402 	stmdbvs	r5, {r1, sl}
    1f40:	0300746e 	movweq	r7, #1134	; 0x46e
    1f44:	00660704 	rsbeq	r0, r6, r4, lsl #14
    1f48:	2c040000 	stccs	0, cr0, [r4], {-0}
    1f4c:	03000000 	movweq	r0, #0
    1f50:	00230601 	eoreq	r0, r3, r1, lsl #12
    1f54:	02030000 	andeq	r0, r3, #0, 0
    1f58:	0000c905 	andeq	ip, r0, r5, lsl #18
    1f5c:	05040300 	streq	r0, [r4, #-768]	; 0xfffffd00
    1f60:	00000078 	andeq	r0, r0, r8, ror r0
    1f64:	73050803 	movwvc	r0, #22531	; 0x5803
    1f68:	03000000 	movweq	r0, #0
    1f6c:	00210801 	eoreq	r0, r1, r1, lsl #16
    1f70:	02030000 	andeq	r0, r3, #0, 0
    1f74:	00003c07 	andeq	r3, r0, r7, lsl #24
    1f78:	03540500 	cmpeq	r4, #0, 10
    1f7c:	34050000 	strcc	r0, [r5], #-0
    1f80:	00006e19 	andeq	r6, r0, r9, lsl lr
    1f84:	07040300 	streq	r0, [r4, -r0, lsl #6]
    1f88:	00000061 	andeq	r0, r0, r1, rrx
    1f8c:	5c070803 	stcpl	8, cr0, [r7], {3}
    1f90:	06000000 	streq	r0, [r0], -r0
    1f94:	00000025 	andeq	r0, r0, r5, lsr #32
    1f98:	0000008b 	andeq	r0, r0, fp, lsl #1
    1f9c:	00002507 	andeq	r2, r0, r7, lsl #10
    1fa0:	81080000 	mrshi	r0, (UNDEF: 8)
    1fa4:	02000000 	andeq	r0, r0, #0, 0
    1fa8:	00970e1c 	addseq	r0, r7, ip, lsl lr
    1fac:	04090000 	streq	r0, [r9], #-0
    1fb0:	0000007c 	andeq	r0, r0, ip, ror r0
    1fb4:	00002506 	andeq	r2, r0, r6, lsl #10
    1fb8:	0000ac00 	andeq	sl, r0, r0, lsl #24
    1fbc:	00ac0700 	adceq	r0, ip, r0, lsl #14
    1fc0:	09000000 	stmdbeq	r0, {}	; <UNPREDICTABLE>
    1fc4:	0000b904 	andeq	fp, r0, r4, lsl #18
    1fc8:	08010300 	stmdaeq	r1, {r8, r9}
    1fcc:	0000002a 	andeq	r0, r0, sl, lsr #32
    1fd0:	0000b20a 	andeq	fp, r0, sl, lsl #4
    1fd4:	02d90800 	sbcseq	r0, r9, #0, 16
    1fd8:	21020000 	mrscs	r0, (UNDEF: 2)
    1fdc:	0000ca0e 	andeq	ip, r0, lr, lsl #20
    1fe0:	9d040900 	vstrls.16	s0, [r4, #-0]	; <UNPREDICTABLE>
    1fe4:	0b000000 	bleq	1fec <__code_start__-0x6014>
    1fe8:	00540107 	subseq	r0, r4, r7, lsl #2
    1fec:	0c040000 	stceq	0, cr0, [r4], {-0}
    1ff0:	00010f0e 	andeq	r0, r1, lr, lsl #30
    1ff4:	06590c00 	ldrbeq	r0, [r9], -r0, lsl #24
    1ff8:	0c000000 	stceq	0, cr0, [r0], {-0}
    1ffc:	0000052c 	andeq	r0, r0, ip, lsr #10
    2000:	059c0c01 	ldreq	r0, [ip, #3073]	; 0xc01
    2004:	0c040000 	stceq	0, cr0, [r4], {-0}
    2008:	000005ab 	andeq	r0, r0, fp, lsr #11
    200c:	05ba0c05 	ldreq	r0, [sl, #3077]!	; 0xc05
    2010:	0c060000 	stceq	0, cr0, [r6], {-0}
    2014:	000005c9 	andeq	r0, r0, r9, asr #11
    2018:	06350c07 	ldrteq	r0, [r5], -r7, lsl #24
    201c:	0c030000 	stceq	0, cr0, [r3], {-0}
    2020:	000005d8 	ldrdeq	r0, [r0], -r8
    2024:	3d0d0002 	stccc	0, cr0, [sp, #-8]
    2028:	2c000005 	stccs	0, cr0, [r0], {5}
    202c:	ab080603 	blge	203840 <__bss_end__+0x1f9f60>
    2030:	0e000001 	cdpeq	0, 0, cr0, cr0, cr1, {0}
    2034:	03006f69 	movweq	r6, #3945	; 0xf69
    2038:	00330909 	eorseq	r0, r3, r9, lsl #18
    203c:	0e000000 	cdpeq	0, 0, cr0, cr0, cr0, {0}
    2040:	00726569 	rsbseq	r6, r2, r9, ror #10
    2044:	33090a03 	movwcc	r0, #39427	; 0x9a03
    2048:	04000000 	streq	r0, [r0], #-0
    204c:	7269690e 	rsbvc	r6, r9, #229376	; 0x38000
    2050:	09110300 	ldmdbeq	r1, {r8, r9}
    2054:	00000033 	andeq	r0, r0, r3, lsr r0
    2058:	636c0e08 	cmnvs	ip, #8, 28	; 0x80
    205c:	13030072 	movwne	r0, #12402	; 0x3072
    2060:	00003309 	andeq	r3, r0, r9, lsl #6
    2064:	6d0e0c00 	stcvs	12, cr0, [lr, #-0]
    2068:	03007263 	movweq	r7, #611	; 0x263
    206c:	00330914 	eorseq	r0, r3, r4, lsl r9
    2070:	0e100000 	cdpeq	0, 1, cr0, cr0, cr0, {0}
    2074:	0072736c 	rsbseq	r7, r2, ip, ror #6
    2078:	33091503 	movwcc	r1, #38147	; 0x9503
    207c:	14000000 	strne	r0, [r0], #-0
    2080:	72736d0e 	rsbsvc	r6, r3, #896	; 0x380
    2084:	09160300 	ldmdbeq	r6, {r8, r9}
    2088:	00000033 	andeq	r0, r0, r3, lsr r0
    208c:	064c0f18 			; <UNDEFINED> instruction: 0x064c0f18
    2090:	17030000 	strne	r0, [r3, -r0]
    2094:	00003309 	andeq	r3, r0, r9, lsl #6
    2098:	220f1c00 	andcs	r1, pc, #0, 24
    209c:	03000006 	movweq	r0, #6
    20a0:	0033091b 	eorseq	r0, r3, fp, lsl r9
    20a4:	0f200000 	svceq	0x00200000
    20a8:	00000519 	andeq	r0, r0, r9, lsl r5
    20ac:	33091d03 	movwcc	r1, #40195	; 0x9d03
    20b0:	24000000 	strcs	r0, [r0], #-0
    20b4:	0005ed0f 	andeq	lr, r5, pc, lsl #26
    20b8:	091e0300 	ldmdbeq	lr, {r8, r9}
    20bc:	00000033 	andeq	r0, r0, r3, lsr r0
    20c0:	f2100028 	vhadd.s16	d0, d0, d24
    20c4:	01000005 	tsteq	r0, r5
    20c8:	01c10908 	biceq	r0, r1, r8, lsl #18
    20cc:	50040000 	andpl	r0, r4, r0
    20d0:	04092021 	streq	r2, [r9], #-33	; 0xffffffdf
    20d4:	00000033 	andeq	r0, r0, r3, lsr r0
    20d8:	0001bb0a 	andeq	fp, r1, sl, lsl #22
    20dc:	06541000 	ldrbeq	r1, [r4], -r0
    20e0:	29010000 	stmdbcs	r1, {}	; <UNPREDICTABLE>
    20e4:	0001dc23 	andeq	sp, r1, r3, lsr #24
    20e8:	21504000 	cmpcs	r0, r0
    20ec:	0f040920 	svceq	0x00040920
    20f0:	0a000001 	beq	20fc <__code_start__-0x5f04>
    20f4:	000001d6 	ldrdeq	r0, [r0], -r6
    20f8:	00041911 	andeq	r1, r4, r1, lsl r9
    20fc:	06c20100 	strbeq	r0, [r2], r0, lsl #2
    2100:	00008eac 	andeq	r8, r0, ip, lsr #29
    2104:	00000014 	andeq	r0, r0, r4, lsl r0
    2108:	02019c01 	andeq	r9, r1, #256	; 0x100
    210c:	b4120000 	ldrlt	r0, [r2], #-0
    2110:	0100008e 	smlabbeq	r0, lr, r0, r0
    2114:	00000002 	andeq	r0, r0, r2
    2118:	00060813 	andeq	r0, r6, r3, lsl r8
    211c:	05ac0100 	streq	r0, [ip, #256]!	; 0x100
    2120:	00000025 	andeq	r0, r0, r5, lsr #32
    2124:	00008e8c 	andeq	r8, r0, ip, lsl #29
    2128:	00000020 	andeq	r0, r0, r0, lsr #32
    212c:	02389c01 	eorseq	r9, r8, #256	; 0x100
    2130:	94120000 	ldrls	r0, [r2], #-0
    2134:	3b00008e 	blcc	2374 <__code_start__-0x5c8c>
    2138:	14000005 	strne	r0, [r0], #-5
    213c:	00008e9c 	muleq	r0, ip, lr
    2140:	00000547 	andeq	r0, r0, r7, asr #10
    2144:	05500115 	ldrbeq	r0, [r0, #-277]	; 0xfffffeeb
    2148:	2150640c 	cmpcs	r0, ip, lsl #8
    214c:	13000020 	movwne	r0, #32
    2150:	00000627 	andeq	r0, r0, r7, lsr #12
    2154:	2505a901 	strcs	sl, [r5, #-2305]	; 0xfffff6ff
    2158:	7c000000 	stcvc	0, cr0, [r0], {-0}
    215c:	1000008e 	andne	r0, r0, lr, lsl #1
    2160:	01000000 	mrseq	r0, (UNDEF: 0)
    2164:	0002659c 	muleq	r2, ip, r5
    2168:	8e841200 	cdphi	2, 8, cr1, cr4, cr0, {0}
    216c:	053b0000 	ldreq	r0, [fp, #-0]!
    2170:	88120000 	ldmdahi	r2, {}	; <UNPREDICTABLE>
    2174:	5600008e 	strpl	r0, [r0], -lr, lsl #1
    2178:	00000003 	andeq	r0, r0, r3
    217c:	0002c611 	andeq	ip, r2, r1, lsl r6
    2180:	06a10100 	strteq	r0, [r1], r0, lsl #2
    2184:	00008e4c 	andeq	r8, r0, ip, asr #28
    2188:	00000030 	andeq	r0, r0, r0, lsr r0
    218c:	02c99c01 	sbceq	r9, r9, #256	; 0x100
    2190:	63160000 	tstvs	r6, #0, 0
    2194:	19a10100 	stmibne	r1!, {r8}
    2198:	0000002c 	andeq	r0, r0, ip, lsr #32
    219c:	00000dad 	andeq	r0, r0, sp, lsr #27
    21a0:	00000da9 	andeq	r0, r0, r9, lsr #27
    21a4:	008e5812 	addeq	r5, lr, r2, lsl r8
    21a8:	00053b00 	andeq	r3, r5, r0, lsl #22
    21ac:	8e5c1200 	cdphi	2, 5, cr1, cr12, cr0, {0}
    21b0:	03280000 			; <UNDEFINED> instruction: 0x03280000
    21b4:	70170000 	andsvc	r0, r7, r0
    21b8:	5300008e 	movwpl	r0, #142	; 0x8e
    21bc:	bf000005 	svclt	0x00000005
    21c0:	15000002 	strne	r0, [r0, #-2]
    21c4:	0c055001 	stceq	0, cr5, [r5], {1}
    21c8:	20215040 	eorcs	r5, r1, r0, asr #32
    21cc:	05510115 	ldrbeq	r0, [r1, #-277]	; 0xfffffeeb
    21d0:	ff080074 			; <UNDEFINED> instruction: 0xff080074
    21d4:	7412001a 	ldrvc	r0, [r2], #-26	; 0xffffffe6
    21d8:	3b00008e 	blcc	2418 <__code_start__-0x5be8>
    21dc:	00000005 	andeq	r0, r0, r5
    21e0:	0005fe13 	andeq	pc, r5, r3, lsl lr	; <UNPREDICTABLE>
    21e4:	05990100 	ldreq	r0, [r9, #256]	; 0x100
    21e8:	00000025 	andeq	r0, r0, r5, lsr #32
    21ec:	00008e1c 	andeq	r8, r0, ip, lsl lr
    21f0:	00000030 	andeq	r0, r0, r0, lsr r0
    21f4:	03289c01 			; <UNDEFINED> instruction: 0x03289c01
    21f8:	63180000 	tstvs	r8, #0, 0
    21fc:	099d0100 	ldmibeq	sp, {r8}
    2200:	00000025 	andeq	r0, r0, r5, lsr #32
    2204:	00000dcd 	andeq	r0, r0, sp, asr #27
    2208:	00000dcb 	andeq	r0, r0, fp, asr #27
    220c:	008e2412 	addeq	r2, lr, r2, lsl r4
    2210:	00053b00 	andeq	r3, r5, r0, lsl #22
    2214:	8e281200 	cdphi	2, 2, cr1, cr8, cr0, {0}
    2218:	03560000 	cmpeq	r6, #0, 0
    221c:	38170000 	ldmdacc	r7, {}	; <UNPREDICTABLE>
    2220:	4700008e 	strmi	r0, [r0, -lr, lsl #1]
    2224:	1e000005 	cdpne	0, 0, cr0, cr0, cr5, {0}
    2228:	15000003 	strne	r0, [r0, #-3]
    222c:	0c055001 	stceq	0, cr5, [r5], {1}
    2230:	20215040 	eorcs	r5, r1, r0, asr #32
    2234:	8e401200 	cdphi	2, 4, cr1, cr0, cr0, {0}
    2238:	053b0000 	ldreq	r0, [fp, #-0]!
    223c:	13000000 	movwne	r0, #0
    2240:	00000550 	andeq	r0, r0, r0, asr r5
    2244:	25058a01 	strcs	r8, [r5, #-2561]	; 0xfffff5ff
    2248:	fc000000 	stc2	0, cr0, [r0], {-0}
    224c:	2000008d 	andcs	r0, r0, sp, lsl #1
    2250:	01000000 	mrseq	r0, (UNDEF: 0)
    2254:	0003569c 	muleq	r3, ip, r6
    2258:	8e081400 	cfcpyshi	mvf1, mvf8
    225c:	05470000 	strbeq	r0, [r7, #-0]
    2260:	01150000 	tsteq	r5, r0
    2264:	640c0550 	strvs	r0, [ip], #-1360	; 0xfffffab0
    2268:	00202150 	eoreq	r2, r0, r0, asr r1
    226c:	051e1300 	ldreq	r1, [lr, #-768]	; 0xfffffd00
    2270:	81010000 	mrshi	r0, (UNDEF: 1)
    2274:	00002505 	andeq	r2, r0, r5, lsl #10
    2278:	008de400 	addeq	lr, sp, r0, lsl #8
    227c:	00001800 	andeq	r1, r0, r0, lsl #16
    2280:	849c0100 	ldrhi	r0, [ip], #256	; 0x100
    2284:	14000003 	strne	r0, [r0], #-3
    2288:	00008df0 	strdeq	r8, [r0], -r0
    228c:	00000547 	andeq	r0, r0, r7, asr #10
    2290:	05500115 	ldrbeq	r0, [r0, #-277]	; 0xfffffeeb
    2294:	2150640c 	cmpcs	r0, ip, lsl #8
    2298:	11000020 	tstne	r0, r0, lsr #32
    229c:	00000592 	muleq	r0, r2, r5
    22a0:	34063b01 	strcc	r3, [r6], #-2817	; 0xfffff4ff
    22a4:	b000008d 	andlt	r0, r0, sp, lsl #1
    22a8:	01000000 	mrseq	r0, (UNDEF: 0)
    22ac:	0004d19c 	muleq	r4, ip, r1
    22b0:	06191900 	ldreq	r1, [r9], -r0, lsl #18
    22b4:	74010000 	strvc	r0, [r1], #-0
    22b8:	0000620e 	andeq	r6, r0, lr, lsl #4
    22bc:	17010e00 	strne	r0, [r1, -r0, lsl #28]
    22c0:	00008d44 	andeq	r8, r0, r4, asr #26
    22c4:	0000055f 	andeq	r0, r0, pc, asr r5
    22c8:	000003c0 	andeq	r0, r0, r0, asr #7
    22cc:	01500115 	cmpeq	r0, r5, lsl r1
    22d0:	5101153e 	tstpl	r1, lr, lsr r5
    22d4:	17003201 	strne	r3, [r0, -r1, lsl #4]
    22d8:	00008d50 	andeq	r8, r0, r0, asr sp
    22dc:	0000055f 	andeq	r0, r0, pc, asr r5
    22e0:	000003d8 	ldrdeq	r0, [r0], -r8
    22e4:	01500115 	cmpeq	r0, r5, lsl r1
    22e8:	5101153f 	tstpl	r1, pc, lsr r5
    22ec:	12003201 	andne	r3, r0, #268435456	; 0x10000000
    22f0:	00008d54 	andeq	r8, r0, r4, asr sp
    22f4:	0000053b 	andeq	r0, r0, fp, lsr r5
    22f8:	008d6017 	addeq	r6, sp, r7, lsl r0
    22fc:	0004d100 	andeq	sp, r4, r0, lsl #2
    2300:	0003fd00 	andeq	pc, r3, r0, lsl #26
    2304:	50011500 	andpl	r1, r1, r0, lsl #10
    2308:	50040c05 	andpl	r0, r4, r5, lsl #24
    230c:	01152021 	tsteq	r5, r1, lsr #32
    2310:	00310151 	eorseq	r0, r1, r1, asr r1
    2314:	008d6412 	addeq	r6, sp, r2, lsl r4
    2318:	00053b00 	andeq	r3, r5, r0, lsl #22
    231c:	8d741700 	ldclhi	7, cr1, [r4, #-0]
    2320:	05530000 	ldrbeq	r0, [r3, #-0]
    2324:	041f0000 	ldreq	r0, [pc], #-0	; 232c <__code_start__-0x5cd4>
    2328:	01150000 	tsteq	r5, r0
    232c:	00740250 	rsbseq	r0, r4, r0, asr r2
    2330:	01510115 	cmpeq	r1, r5, lsl r1
    2334:	80170030 	andshi	r0, r7, r0, lsr r0
    2338:	5300008d 	movwpl	r0, #141	; 0x8d
    233c:	3b000005 	blcc	2358 <__code_start__-0x5ca8>
    2340:	15000004 	strne	r0, [r0, #-4]
    2344:	0c055001 	stceq	0, cr5, [r5], {1}
    2348:	20215044 	eorcs	r5, r1, r4, asr #32
    234c:	01510115 	cmpeq	r1, r5, lsl r1
    2350:	8c170030 	ldchi	0, cr0, [r7], {48}	; 0x30
    2354:	5300008d 	movwpl	r0, #141	; 0x8d
    2358:	57000005 	strpl	r0, [r0, -r5]
    235c:	15000004 	strne	r0, [r0, #-4]
    2360:	0c055001 	stceq	0, cr5, [r5], {1}
    2364:	2021504c 	eorcs	r5, r1, ip, asr #32
    2368:	01510115 	cmpeq	r1, r5, lsl r1
    236c:	98170033 	ldmdals	r7, {r0, r1, r4, r5}
    2370:	5300008d 	movwpl	r0, #141	; 0x8d
    2374:	73000005 	movwvc	r0, #5
    2378:	15000004 	strne	r0, [r0, #-4]
    237c:	0c055001 	stceq	0, cr5, [r5], {1}
    2380:	20215050 	eorcs	r5, r1, r0, asr r0
    2384:	01510115 	cmpeq	r1, r5, lsl r1
    2388:	a4170030 	ldrge	r0, [r7], #-48	; 0xffffffd0
    238c:	5300008d 	movwpl	r0, #141	; 0x8d
    2390:	90000005 	andls	r0, r0, r5
    2394:	15000004 	strne	r0, [r0, #-4]
    2398:	0c055001 	stceq	0, cr5, [r5], {1}
    239c:	20215048 	eorcs	r5, r1, r8, asr #32
    23a0:	02510115 	subseq	r0, r1, #1073741829	; 0x40000005
    23a4:	1700c708 	strne	ip, [r0, -r8, lsl #14]
    23a8:	00008db0 			; <UNDEFINED> instruction: 0x00008db0
    23ac:	00000553 	andeq	r0, r0, r3, asr r5
    23b0:	000004ae 	andeq	r0, r0, lr, lsr #9
    23b4:	05500115 	ldrbeq	r0, [r0, #-277]	; 0xfffffeeb
    23b8:	2150680c 	cmpcs	r0, ip, lsl #16
    23bc:	51011520 	tstpl	r1, r0, lsr #10
    23c0:	010e0a03 	tsteq	lr, r3, lsl #20
    23c4:	8dbc1700 	ldchi	7, cr1, [ip]
    23c8:	05530000 	ldrbeq	r0, [r3, #-0]
    23cc:	04c70000 	strbeq	r0, [r7], #0
    23d0:	01150000 	tsteq	r5, r0
    23d4:	00740250 	rsbseq	r0, r4, r0, asr r2
    23d8:	01510115 	cmpeq	r1, r5, lsl r1
    23dc:	c0120033 	andsgt	r0, r2, r3, lsr r0
    23e0:	3b00008d 	blcc	261c <__code_start__-0x59e4>
    23e4:	00000005 	andeq	r0, r0, r5
    23e8:	0006441a 	andeq	r4, r6, sl, lsl r4
    23ec:	0d2e0100 	stfeqs	f0, [lr, #-0]
    23f0:	00008d14 	andeq	r8, r0, r4, lsl sp
    23f4:	00000020 	andeq	r0, r0, r0, lsr #32
    23f8:	05349c01 	ldreq	r9, [r4, #-3073]!	; 0xfffff3ff
    23fc:	2f1b0000 	svccs	0x001b0000
    2400:	01000002 	tsteq	r0, r2
    2404:	0534242e 	ldreq	r2, [r4, #-1070]!	; 0xfffffbd2
    2408:	0de40000 	stcleq	0, cr0, [r4]
    240c:	0de00000 	stcleq	0, cr0, [r0]
    2410:	76160000 	ldrvc	r0, [r6], -r0
    2414:	01006c61 	tsteq	r0, r1, ror #24
    2418:	002c332e 	eoreq	r3, ip, lr, lsr #6
    241c:	0e060000 	cdpeq	0, 0, cr0, cr6, cr0, {0}
    2420:	0e020000 	cdpeq	0, 0, cr0, cr2, cr0, {0}
    2424:	24170000 	ldrcs	r0, [r7], #-0
    2428:	4700008d 	strmi	r0, [r0, -sp, lsl #1]
    242c:	23000005 	movwcs	r0, #5
    2430:	15000005 	strne	r0, [r0, #-5]
    2434:	74025001 	strvc	r5, [r2], #-1
    2438:	30140000 	andscc	r0, r4, r0
    243c:	5300008d 	movwpl	r0, #141	; 0x8d
    2440:	15000005 	strne	r0, [r0, #-5]
    2444:	74025001 	strvc	r5, [r2], #-1
    2448:	09000000 	stmdbeq	r0, {}	; <UNPREDICTABLE>
    244c:	00053a04 	andeq	r3, r5, r4, lsl #20
    2450:	be1d1c00 	cdplt	12, 1, cr1, cr13, cr0, {0}
    2454:	be000004 	cdplt	0, 0, cr0, cr0, cr4, {0}
    2458:	02000004 	andeq	r0, r0, #4, 0
    245c:	7b1d0693 	blvc	743eb0 <__bss_end__+0x73a5d0>
    2460:	7b000006 	blvc	2480 <__code_start__-0x5b80>
    2464:	02000006 	andeq	r0, r0, #6, 0
    2468:	e71d0bb1 			; <UNDEFINED> instruction: 0xe71d0bb1
    246c:	e7000005 	str	r0, [r0, -r5]
    2470:	02000005 	andeq	r0, r0, #5, 0
    2474:	691d06a5 	ldmdbvs	sp, {r0, r2, r5, r7, r9, sl}
    2478:	69000006 	stmdbvs	r0, {r1, r2}
    247c:	04000006 	streq	r0, [r0], #-6
    2480:	24000619 	strcs	r0, [r0], #-1561	; 0xfffff9e7
    2484:	04000005 	streq	r0, [r0], #-5
    2488:	000d2300 	andeq	r2, sp, r0, lsl #6
    248c:	ea010400 	b	43494 <__bss_end__+0x39bb4>
    2490:	0c000000 	stceq	0, cr0, [r0], {-0}
    2494:	000006e3 	andeq	r0, r0, r3, ror #13
    2498:	00000271 	andeq	r0, r0, r1, ror r2
    249c:	00008ec0 	andeq	r8, r0, r0, asr #29
    24a0:	000001ac 	andeq	r0, r0, ip, lsr #3
    24a4:	000010a9 	andeq	r1, r0, r9, lsr #1
    24a8:	69050402 	stmdbvs	r5, {r1, sl}
    24ac:	0300746e 	movweq	r7, #1134	; 0x46e
    24b0:	00660704 	rsbeq	r0, r6, r4, lsl #14
    24b4:	2c040000 	stccs	0, cr0, [r4], {-0}
    24b8:	03000000 	movweq	r0, #0
    24bc:	00230601 	eoreq	r0, r3, r1, lsl #12
    24c0:	02030000 	andeq	r0, r3, #0, 0
    24c4:	0000c905 	andeq	ip, r0, r5, lsl #18
    24c8:	05040300 	streq	r0, [r4, #-768]	; 0xfffffd00
    24cc:	00000078 	andeq	r0, r0, r8, ror r0
    24d0:	73050803 	movwvc	r0, #22531	; 0x5803
    24d4:	03000000 	movweq	r0, #0
    24d8:	00210801 	eoreq	r0, r1, r1, lsl #16
    24dc:	02030000 	andeq	r0, r3, #0, 0
    24e0:	00003c07 	andeq	r3, r0, r7, lsl #24
    24e4:	07040300 	streq	r0, [r4, -r0, lsl #6]
    24e8:	00000061 	andeq	r0, r0, r1, rrx
    24ec:	5c070803 	stcpl	8, cr0, [r7], {3}
    24f0:	05000000 	streq	r0, [r0, #-0]
    24f4:	00000025 	andeq	r0, r0, r5, lsr #32
    24f8:	0000007f 	andeq	r0, r0, pc, ror r0
    24fc:	00002506 	andeq	r2, r0, r6, lsl #10
    2500:	81070000 	mrshi	r0, (UNDEF: 7)
    2504:	02000000 	andeq	r0, r0, #0, 0
    2508:	008b0e1c 	addeq	r0, fp, ip, lsl lr
    250c:	04080000 	streq	r0, [r8], #-0
    2510:	00000070 	andeq	r0, r0, r0, ror r0
    2514:	00002505 	andeq	r2, r0, r5, lsl #10
    2518:	0000a000 	andeq	sl, r0, r0
    251c:	00a00600 	adceq	r0, r0, r0, lsl #12
    2520:	08000000 	stmdaeq	r0, {}	; <UNPREDICTABLE>
    2524:	0000ad04 	andeq	sl, r0, r4, lsl #26
    2528:	08010300 	stmdaeq	r1, {r8, r9}
    252c:	0000002a 	andeq	r0, r0, sl, lsr #32
    2530:	0000a609 	andeq	sl, r0, r9, lsl #12
    2534:	02d90700 	sbcseq	r0, r9, #0, 14
    2538:	21020000 	mrscs	r0, (UNDEF: 2)
    253c:	0000be0e 	andeq	fp, r0, lr, lsl #28
    2540:	91040800 	tstls	r4, r0, lsl #16
    2544:	0a000000 	beq	254c <__code_start__-0x5ab4>
    2548:	00540107 	subseq	r0, r4, r7, lsl #2
    254c:	0c030000 	stceq	0, cr0, [r3], {-0}
    2550:	0001030e 	andeq	r0, r1, lr, lsl #6
    2554:	06590b00 	ldrbeq	r0, [r9], -r0, lsl #22
    2558:	0b000000 	bleq	2560 <__code_start__-0x5aa0>
    255c:	0000052c 	andeq	r0, r0, ip, lsr #10
    2560:	059c0b01 	ldreq	r0, [ip, #2817]	; 0xb01
    2564:	0b040000 	bleq	10256c <__bss_end__+0xf8c8c>
    2568:	000005ab 	andeq	r0, r0, fp, lsr #11
    256c:	05ba0b05 	ldreq	r0, [sl, #2821]!	; 0xb05
    2570:	0b060000 	bleq	182578 <__bss_end__+0x178c98>
    2574:	000005c9 	andeq	r0, r0, r9, asr #11
    2578:	06350b07 	ldrteq	r0, [r5], -r7, lsl #22
    257c:	0b030000 	bleq	c2584 <__bss_end__+0xb8ca4>
    2580:	000005d8 	ldrdeq	r0, [r0], -r8
    2584:	1c0c0002 	stcne	0, cr0, [ip], {2}
    2588:	03000007 	movweq	r0, #7
    258c:	00c40315 	sbceq	r0, r4, r5, lsl r3
    2590:	a00d0000 	andge	r0, sp, r0
    2594:	01000006 	tsteq	r0, r6
    2598:	011b1b11 	tsteq	fp, r1, lsl fp
    259c:	04080000 	streq	r0, [r8], #-0
    25a0:	00000033 	andeq	r0, r0, r3, lsr r0
    25a4:	00068b0d 	andeq	r8, r6, sp, lsl #22
    25a8:	1b120100 	blne	4829b0 <__bss_end__+0x4790d0>
    25ac:	0000011b 	andeq	r0, r0, fp, lsl r1
    25b0:	0006810d 	andeq	r8, r6, sp, lsl #2
    25b4:	1b130100 	blne	4c29bc <__bss_end__+0x4b90dc>
    25b8:	0000011b 	andeq	r0, r0, fp, lsl r1
    25bc:	0006690e 	andeq	r6, r6, lr, lsl #18
    25c0:	06680100 	strbteq	r0, [r8], -r0, lsl #2
    25c4:	0000900c 	andeq	r9, r0, ip
    25c8:	00000060 	andeq	r0, r0, r0, rrx
    25cc:	02009c01 	andeq	r9, r0, #256	; 0x100
    25d0:	700f0000 	andvc	r0, pc, r0
    25d4:	01006e69 	tsteq	r0, r9, ror #28
    25d8:	002c2168 	eoreq	r2, ip, r8, ror #2
    25dc:	0e2a0000 	cdpeq	0, 2, cr0, cr10, cr0, {0}
    25e0:	0e240000 	cdpeq	0, 2, cr0, cr4, cr0, {0}
    25e4:	72100000 	andsvc	r0, r0, #0, 0
    25e8:	01000006 	tsteq	r0, r6
    25ec:	01033268 	tsteq	r3, r8, ror #4
    25f0:	0e5a0000 	cdpeq	0, 5, cr0, cr10, cr0, {0}
    25f4:	0e560000 	cdpeq	0, 5, cr0, cr6, cr0, {0}
    25f8:	2f110000 	svccs	0x00110000
    25fc:	01000002 	tsteq	r0, r2
    2600:	011b186b 	tsteq	fp, fp, ror #16
    2604:	0e7d0000 	cdpeq	0, 7, cr0, cr13, cr0, {0}
    2608:	0e7b0000 	cdpeq	0, 7, cr0, cr11, cr0, {0}
    260c:	d3110000 	tstle	r1, #0, 0
    2610:	01000006 	tsteq	r0, r6
    2614:	002c0e6c 	eoreq	r0, ip, ip, ror #28
    2618:	0e920000 	cdpeq	0, 9, cr0, cr2, cr0, {0}
    261c:	0e900000 	cdpeq	0, 9, cr0, cr0, cr0, {0}
    2620:	ab110000 	blge	442628 <__bss_end__+0x438d48>
    2624:	01000006 	tsteq	r0, r6
    2628:	002c0e6e 	eoreq	r0, ip, lr, ror #28
    262c:	0ea70000 	cdpeq	0, 10, cr0, cr7, cr0, {0}
    2630:	0ea50000 	cdpeq	0, 10, cr0, cr5, cr0, {0}
    2634:	2d110000 	ldccs	0, cr0, [r1, #-0]
    2638:	01000007 	tsteq	r0, r7
    263c:	002c0e6f 	eoreq	r0, ip, pc, ror #28
    2640:	0ebc0000 	cdpeq	0, 11, cr0, cr12, cr0, {0}
    2644:	0eba0000 	cdpeq	0, 11, cr0, cr10, cr0, {0}
    2648:	cc110000 	ldcgt	0, cr0, [r1], {-0}
    264c:	01000006 	tsteq	r0, r6
    2650:	002c0e71 	eoreq	r0, ip, r1, ror lr
    2654:	0ed70000 	cdpeq	0, 13, cr0, cr7, cr0, {0}
    2658:	0ed30000 	cdpeq	0, 13, cr0, cr3, cr0, {0}
    265c:	44120000 	ldrmi	r0, [r2], #-0
    2660:	0f000090 	svceq	0x00000090
    2664:	ef000005 	svc	0x00000005
    2668:	13000001 	movwne	r0, #1
    266c:	77025001 	strvc	r5, [r2, -r1]
    2670:	64140000 	ldrvs	r0, [r4], #-0
    2674:	1b000090 	blne	28bc <__code_start__-0x5744>
    2678:	13000005 	movwne	r0, #5
    267c:	77025001 	strvc	r5, [r2, -r1]
    2680:	15000000 	strne	r0, [r0, #-0]
    2684:	000006d9 	ldrdeq	r0, [r0], -r9
    2688:	25055d01 	strcs	r5, [r5, #-3329]	; 0xfffff2ff
    268c:	d4000000 	strle	r0, [r0], #-0
    2690:	3800008f 	stmdacc	r0, {r0, r1, r2, r3, r7}
    2694:	01000000 	mrseq	r0, (UNDEF: 0)
    2698:	00028c9c 	muleq	r2, ip, ip
    269c:	69700f00 	ldmdbvs	r0!, {r8, r9, sl, fp}^
    26a0:	5d01006e 	stcpl	0, cr0, [r1, #-440]	; 0xfffffe48
    26a4:	00002c18 	andeq	r2, r0, r8, lsl ip
    26a8:	000f0500 	andeq	r0, pc, r0, lsl #10
    26ac:	000efd00 	andeq	pc, lr, r0, lsl #26
    26b0:	00761600 	rsbseq	r1, r6, r0, lsl #12
    26b4:	2c0e6001 	stccs	0, cr6, [lr], {1}
    26b8:	3e000000 	cdpcc	0, 0, cr0, cr0, cr0, {0}
    26bc:	3c00000f 	stccc	0, cr0, [r0], {15}
    26c0:	1700000f 	strne	r0, [r0, -pc]
    26c4:	0000022f 	andeq	r0, r0, pc, lsr #4
    26c8:	1b186101 	blne	61aad4 <__bss_end__+0x6111f4>
    26cc:	34000001 	strcc	r0, [r0], #-1
    26d0:	11202000 			; <UNDEFINED> instruction: 0x11202000
    26d4:	00000728 	andeq	r0, r0, r8, lsr #14
    26d8:	2c0e6201 	sfmcs	f6, 4, [lr], {1}
    26dc:	54000000 	strpl	r0, [r0], #-0
    26e0:	5200000f 	andpl	r0, r0, #15, 0
    26e4:	1100000f 	tstne	r0, pc
    26e8:	0000072d 	andeq	r0, r0, sp, lsr #14
    26ec:	2c0e6301 	stccs	3, cr6, [lr], {1}
    26f0:	69000000 	stmdbvs	r0, {}	; <UNPREDICTABLE>
    26f4:	6700000f 	strvs	r0, [r0, -pc]
    26f8:	1400000f 	strne	r0, [r0], #-15
    26fc:	00008ff4 	strdeq	r8, [r0], -r4
    2700:	0000050f 	andeq	r0, r0, pc, lsl #10
    2704:	05500113 	ldrbeq	r0, [r0, #-275]	; 0xfffffeed
    2708:	2000340c 	andcs	r3, r0, ip, lsl #8
    270c:	0e000020 	cdpeq	0, 0, cr0, cr0, cr0, {1}
    2710:	000006f0 	strdeq	r0, [r0], -r0	; <UNPREDICTABLE>
    2714:	80064e01 	andhi	r4, r6, r1, lsl #28
    2718:	5400008f 	strpl	r0, [r0], #-143	; 0xffffff71
    271c:	01000000 	mrseq	r0, (UNDEF: 0)
    2720:	00033f9c 	muleq	r3, ip, pc	; <UNPREDICTABLE>
    2724:	69700f00 	ldmdbvs	r0!, {r8, r9, sl, fp}^
    2728:	4e01006e 	cdpmi	0, 0, cr0, cr1, cr14, {3}
    272c:	00002c1e 	andeq	r2, r0, lr, lsl ip
    2730:	000f8600 	andeq	r8, pc, r0, lsl #12
    2734:	000f8000 	andeq	r8, pc, r0
    2738:	022f1100 	eoreq	r1, pc, #0
    273c:	51010000 	mrspl	r0, (UNDEF: 1)
    2740:	00011b18 	andeq	r1, r1, r8, lsl fp
    2744:	000fb400 	andeq	fp, pc, r0, lsl #8
    2748:	000fb200 	andeq	fp, pc, r0, lsl #4
    274c:	06d31100 	ldrbeq	r1, [r3], r0, lsl #2
    2750:	52010000 	andpl	r0, r1, #0, 0
    2754:	00002c0e 	andeq	r2, r0, lr, lsl #24
    2758:	000fc900 	andeq	ip, pc, r0, lsl #18
    275c:	000fc700 	andeq	ip, pc, r0, lsl #14
    2760:	06ab1100 	strteq	r1, [fp], r0, lsl #2
    2764:	54010000 	strpl	r0, [r1], #-0
    2768:	00002c0e 	andeq	r2, r0, lr, lsl #24
    276c:	000fde00 	andeq	sp, pc, r0, lsl #28
    2770:	000fdc00 	andeq	sp, pc, r0, lsl #24
    2774:	072d1100 	streq	r1, [sp, -r0, lsl #2]!
    2778:	55010000 	strpl	r0, [r1, #-0]
    277c:	00002c0e 	andeq	r2, r0, lr, lsl #24
    2780:	000ff300 	andeq	pc, pc, r0, lsl #6
    2784:	000ff100 	andeq	pc, pc, r0, lsl #2
    2788:	06cc1100 	strbeq	r1, [ip], r0, lsl #2
    278c:	57010000 	strpl	r0, [r1, -r0]
    2790:	00002c0e 	andeq	r2, r0, lr, lsl #24
    2794:	00100e00 	andseq	r0, r0, r0, lsl #28
    2798:	00100a00 	andseq	r0, r0, r0, lsl #20
    279c:	8fb01200 	svchi	0x00b01200
    27a0:	050f0000 	streq	r0, [pc, #-0]	; 27a8 <__code_start__-0x5858>
    27a4:	032e0000 			; <UNDEFINED> instruction: 0x032e0000
    27a8:	01130000 	tsteq	r3, r0
    27ac:	00760250 	rsbseq	r0, r6, r0, asr r2
    27b0:	8fcc1400 	svchi	0x00cc1400
    27b4:	051b0000 	ldreq	r0, [fp, #-0]
    27b8:	01130000 	tsteq	r3, r0
    27bc:	00760250 	rsbseq	r0, r6, r0, asr r2
    27c0:	950e0000 	strls	r0, [lr, #-0]
    27c4:	01000006 	tsteq	r0, r6
    27c8:	8f640642 	svchi	0x00640642
    27cc:	001c0000 	andseq	r0, ip, r0
    27d0:	9c010000 	stcls	0, cr0, [r1], {-0}
    27d4:	0000039a 	muleq	r0, sl, r3
    27d8:	6e69700f 	cdpvs	0, 6, cr7, cr9, cr15, {0}
    27dc:	1a420100 	bne	1082be4 <__bss_end__+0x1079304>
    27e0:	0000002c 	andeq	r0, r0, ip, lsr #32
    27e4:	0000103c 	andeq	r1, r0, ip, lsr r0
    27e8:	00001034 	andeq	r1, r0, r4, lsr r0
    27ec:	0100760f 	tsteq	r0, pc, lsl #12
    27f0:	002c2842 	eoreq	r2, ip, r2, asr #16
    27f4:	107e0000 	rsbsne	r0, lr, r0
    27f8:	10760000 	rsbsne	r0, r6, r0
    27fc:	74120000 	ldrvc	r0, [r2], #-0
    2800:	f100008f 	cps	#15
    2804:	90000003 	andls	r0, r0, r3
    2808:	13000003 	movwne	r0, #3
    280c:	f3035001 	vhadd.u8	d5, d3, d1
    2810:	18005001 	stmdane	r0, {r0, ip, lr}
    2814:	00008f7c 	andeq	r8, r0, ip, ror pc
    2818:	0000039a 	muleq	r0, sl, r3
    281c:	06ff0e00 	ldrbteq	r0, [pc], r0, lsl #28
    2820:	39010000 	stmdbcc	r1, {}	; <UNPREDICTABLE>
    2824:	008f4006 	addeq	r4, pc, r6
    2828:	00002400 	andeq	r2, r0, r0, lsl #8
    282c:	f19c0100 			; <UNDEFINED> instruction: 0xf19c0100
    2830:	0f000003 	svceq	0x00000003
    2834:	006e6970 	rsbeq	r6, lr, r0, ror r9
    2838:	2c1c3901 			; <UNDEFINED> instruction: 0x2c1c3901
    283c:	bc000000 	stclt	0, cr0, [r0], {-0}
    2840:	b8000010 	stmdalt	r0, {r4}
    2844:	17000010 	smladne	r0, r0, r0, r0
    2848:	0000022f 	andeq	r0, r0, pc, lsr #4
    284c:	1b183b01 	blne	611458 <__bss_end__+0x607b78>
    2850:	28000001 	stmdacs	r0, {r0}
    2854:	14202000 	strtne	r2, [r0], #-0
    2858:	00008f5c 	andeq	r8, r0, ip, asr pc
    285c:	0000051b 	andeq	r0, r0, fp, lsl r5
    2860:	05500113 	ldrbeq	r0, [r0, #-275]	; 0xfffffeed
    2864:	2000280c 	andcs	r2, r0, ip, lsl #16
    2868:	51011320 	tstpl	r1, r0, lsr #6
    286c:	01f33105 	mvnseq	r3, r5, lsl #2
    2870:	00002450 	andeq	r2, r0, r0, asr r4
    2874:	0007350e 	andeq	r3, r7, lr, lsl #10
    2878:	06300100 	ldrteq	r0, [r0], -r0, lsl #2
    287c:	00008f1c 	andeq	r8, r0, ip, lsl pc
    2880:	00000024 	andeq	r0, r0, r4, lsr #32
    2884:	04489c01 	strbeq	r9, [r8], #-3073	; 0xfffff3ff
    2888:	700f0000 	andvc	r0, pc, r0
    288c:	01006e69 	tsteq	r0, r9, ror #28
    2890:	002c1b30 	eoreq	r1, ip, r0, lsr fp
    2894:	10e10000 	rscne	r0, r1, r0
    2898:	10dd0000 	sbcsne	r0, sp, r0
    289c:	2f170000 	svccs	0x00170000
    28a0:	01000002 	tsteq	r0, r2
    28a4:	011b1832 	tsteq	fp, r2, lsr r8
    28a8:	001c0000 	andseq	r0, ip, r0
    28ac:	38142020 	ldmdacc	r4, {r5, sp}
    28b0:	1b00008f 	blne	2af4 <__code_start__-0x550c>
    28b4:	13000005 	movwne	r0, #5
    28b8:	0c055001 	stceq	0, cr5, [r5], {1}
    28bc:	2020001c 	eorcs	r0, r0, ip, lsl r0
    28c0:	05510113 	ldrbeq	r0, [r1, #-275]	; 0xfffffeed
    28c4:	5001f331 	andpl	pc, r1, r1, lsr r3	; <UNPREDICTABLE>
    28c8:	0e000024 	cdpeq	0, 0, cr0, cr0, cr4, {1}
    28cc:	0000070c 	andeq	r0, r0, ip, lsl #14
    28d0:	c0061e01 	andgt	r1, r6, r1, lsl #28
    28d4:	5c00008e 	stcpl	0, cr0, [r0], {142}	; 0x8e
    28d8:	01000000 	mrseq	r0, (UNDEF: 0)
    28dc:	00050f9c 	muleq	r5, ip, pc	; <UNPREDICTABLE>
    28e0:	69700f00 	ldmdbvs	r0!, {r8, r9, sl, fp}^
    28e4:	1e01006e 	cdpne	0, 0, cr0, cr1, cr14, {3}
    28e8:	00002c1f 	andeq	r2, r0, pc, lsl ip
    28ec:	00110800 	andseq	r0, r1, r0, lsl #16
    28f0:	00110200 	andseq	r0, r1, r0, lsl #4
    28f4:	022f1100 	eoreq	r1, pc, #0
    28f8:	23010000 	movwcs	r0, #4096	; 0x1000
    28fc:	00011b18 	andeq	r1, r1, r8, lsl fp
    2900:	00113600 	andseq	r3, r1, r0, lsl #12
    2904:	00113400 	andseq	r3, r1, r0, lsl #8
    2908:	06d31100 	ldrbeq	r1, [r3], r0, lsl #2
    290c:	24010000 	strcs	r0, [r1], #-0
    2910:	00002c0e 	andeq	r2, r0, lr, lsl #24
    2914:	00114b00 	andseq	r4, r1, r0, lsl #22
    2918:	00114900 	andseq	r4, r1, r0, lsl #18
    291c:	06ab1100 	strteq	r1, [fp], r0, lsl #2
    2920:	26010000 	strcs	r0, [r1], -r0
    2924:	00002c0e 	andeq	r2, r0, lr, lsl #24
    2928:	00116000 	andseq	r6, r1, r0
    292c:	00115e00 	andseq	r5, r1, r0, lsl #28
    2930:	072d1100 	streq	r1, [sp, -r0, lsl #2]!
    2934:	27010000 	strcs	r0, [r1, -r0]
    2938:	00002c0e 	andeq	r2, r0, lr, lsl #24
    293c:	00117500 	andseq	r7, r1, r0, lsl #10
    2940:	00117300 	andseq	r7, r1, r0, lsl #6
    2944:	06cc1100 	strbeq	r1, [ip], r0, lsl #2
    2948:	29010000 	stmdbcs	r1, {}	; <UNPREDICTABLE>
    294c:	00002c0e 	andeq	r2, r0, lr, lsl #24
    2950:	00118e00 	andseq	r8, r1, r0, lsl #28
    2954:	00118c00 	andseq	r8, r1, r0, lsl #24
    2958:	06be1100 	ldrteq	r1, [lr], r0, lsl #2
    295c:	2a010000 	bcs	42964 <__bss_end__+0x39084>
    2960:	00002c0e 	andeq	r2, r0, lr, lsl #24
    2964:	0011a300 	andseq	sl, r1, r0, lsl #6
    2968:	0011a100 	andseq	sl, r1, r0, lsl #2
    296c:	8ef01200 	cdphi	2, 15, cr1, cr0, cr0, {0}
    2970:	050f0000 	streq	r0, [pc, #-0]	; 2978 <__code_start__-0x5688>
    2974:	04fe0000 	ldrbteq	r0, [lr], #0
    2978:	01130000 	tsteq	r3, r0
    297c:	00760250 	rsbseq	r0, r6, r0, asr r2
    2980:	8f141400 	svchi	0x00141400
    2984:	051b0000 	ldreq	r0, [fp, #-0]
    2988:	01130000 	tsteq	r3, r0
    298c:	00760250 	rsbseq	r0, r6, r0, asr r2
    2990:	7b190000 	blvc	642998 <__bss_end__+0x6390b8>
    2994:	7b000006 	blvc	29b4 <__code_start__-0x564c>
    2998:	02000006 	andeq	r0, r0, #6, 0
    299c:	e7190bb1 			; <UNDEFINED> instruction: 0xe7190bb1
    29a0:	e7000005 	str	r0, [r0, -r5]
    29a4:	02000005 	andeq	r0, r0, #5, 0
    29a8:	370006a5 	strcc	r0, [r0, -r5, lsr #13]
    29ac:	04000001 	streq	r0, [r0], #-1
    29b0:	000ea000 	andeq	sl, lr, r0
    29b4:	ea010400 	b	439bc <__bss_end__+0x3a0dc>
    29b8:	0c000000 	stceq	0, cr0, [r0], {-0}
    29bc:	00000746 	andeq	r0, r0, r6, asr #14
    29c0:	00000271 	andeq	r0, r0, r1, ror r2
    29c4:	0000906c 	andeq	r9, r0, ip, rrx
    29c8:	00000034 	andeq	r0, r0, r4, lsr r0
    29cc:	00001264 	andeq	r1, r0, r4, ror #4
    29d0:	69050402 	stmdbvs	r5, {r1, sl}
    29d4:	0300746e 	movweq	r7, #1134	; 0x46e
    29d8:	00660704 	rsbeq	r0, r6, r4, lsl #14
    29dc:	01030000 	mrseq	r0, (UNDEF: 3)
    29e0:	00002306 	andeq	r2, r0, r6, lsl #6
    29e4:	05020300 	streq	r0, [r2, #-768]	; 0xfffffd00
    29e8:	000000c9 	andeq	r0, r0, r9, asr #1
    29ec:	78050403 	stmdavc	r5, {r0, r1, sl}
    29f0:	03000000 	movweq	r0, #0
    29f4:	00730508 	rsbseq	r0, r3, r8, lsl #10
    29f8:	01030000 	mrseq	r0, (UNDEF: 3)
    29fc:	00002108 	andeq	r2, r0, r8, lsl #2
    2a00:	07020300 	streq	r0, [r2, -r0, lsl #6]
    2a04:	0000003c 	andeq	r0, r0, ip, lsr r0
    2a08:	61070403 	tstvs	r7, r3, lsl #8
    2a0c:	03000000 	movweq	r0, #0
    2a10:	005c0708 	subseq	r0, ip, r8, lsl #14
    2a14:	25040000 	strcs	r0, [r4, #-0]
    2a18:	7a000000 	bvc	2a20 <__code_start__-0x55e0>
    2a1c:	05000000 	streq	r0, [r0, #-0]
    2a20:	00000025 	andeq	r0, r0, r5, lsr #32
    2a24:	00810600 	addeq	r0, r1, r0, lsl #12
    2a28:	1c020000 	stcne	0, cr0, [r2], {-0}
    2a2c:	0000860e 	andeq	r8, r0, lr, lsl #12
    2a30:	6b040700 	blvs	104638 <__bss_end__+0xfad58>
    2a34:	04000000 	streq	r0, [r0], #-0
    2a38:	00000025 	andeq	r0, r0, r5, lsr #32
    2a3c:	0000009b 	muleq	r0, fp, r0
    2a40:	00009b05 	andeq	r9, r0, r5, lsl #22
    2a44:	04070000 	streq	r0, [r7], #-0
    2a48:	000000a8 	andeq	r0, r0, r8, lsr #1
    2a4c:	2a080103 	bcs	202e60 <__bss_end__+0x1f9580>
    2a50:	08000000 	stmdaeq	r0, {}	; <UNPREDICTABLE>
    2a54:	000000a1 	andeq	r0, r0, r1, lsr #1
    2a58:	0002d906 	andeq	sp, r2, r6, lsl #18
    2a5c:	0e210200 	cdpeq	2, 2, cr0, cr1, cr0, {0}
    2a60:	000000b9 	strheq	r0, [r0], -r9
    2a64:	008c0407 	addeq	r0, ip, r7, lsl #8
    2a68:	76090000 	strvc	r0, [r9], -r0
    2a6c:	01000003 	tsteq	r0, r3
    2a70:	01340704 	teqeq	r4, r4, lsl #14
    2a74:	906c0000 	rsbls	r0, ip, r0
    2a78:	00340000 	eorseq	r0, r4, r0
    2a7c:	9c010000 	stcls	0, cr0, [r1], {-0}
    2a80:	00000134 	andeq	r0, r0, r4, lsr r1
    2a84:	0007410a 	andeq	r4, r7, sl, lsl #2
    2a88:	15040100 	strne	r0, [r4, #-256]	; 0xffffff00
    2a8c:	00000134 	andeq	r0, r0, r4, lsr r1
    2a90:	730b5001 	movwvc	r5, #45057	; 0xb001
    2a94:	01006372 	tsteq	r0, r2, ror r3
    2a98:	009b2704 	addseq	r2, fp, r4, lsl #14
    2a9c:	11be0000 			; <UNDEFINED> instruction: 0x11be0000
    2aa0:	11ba0000 			; <UNDEFINED> instruction: 0x11ba0000
    2aa4:	730c0000 	movwvc	r0, #49152	; 0xc000
    2aa8:	05010031 	streq	r0, [r1, #-49]	; 0xffffffcf
    2aac:	0001340b 	andeq	r3, r1, fp, lsl #8
    2ab0:	0011e900 	andseq	lr, r1, r0, lsl #18
    2ab4:	0011df00 	andseq	sp, r1, r0, lsl #30
    2ab8:	32730c00 	rsbscc	r0, r3, #0, 24
    2abc:	11060100 	mrsne	r0, (UNDEF: 22)
    2ac0:	0000009b 	muleq	r0, fp, r0
    2ac4:	0000122e 	andeq	r1, r0, lr, lsr #4
    2ac8:	0000122a 	andeq	r1, r0, sl, lsr #4
    2acc:	0100630c 	tsteq	r0, ip, lsl #6
    2ad0:	00a10a07 	adceq	r0, r1, r7, lsl #20
    2ad4:	12520000 	subsne	r0, r2, #0, 0
    2ad8:	124e0000 	subne	r0, lr, #0, 0
    2adc:	07000000 	streq	r0, [r0, -r0]
    2ae0:	0000a104 	andeq	sl, r0, r4, lsl #2
    2ae4:	00f70000 	rscseq	r0, r7, r0
    2ae8:	00040000 	andeq	r0, r4, r0
    2aec:	00000f56 	andeq	r0, r0, r6, asr pc
    2af0:	00ea0104 	rsceq	r0, sl, r4, lsl #2
    2af4:	560c0000 	strpl	r0, [ip], -r0
    2af8:	71000007 	tstvc	r0, r7
    2afc:	a0000002 	andge	r0, r0, r2
    2b00:	2c000090 	stccs	0, cr0, [r0], {144}	; 0x90
    2b04:	51000000 	mrspl	r0, (UNDEF: 0)
    2b08:	02000013 	andeq	r0, r0, #19, 0
    2b0c:	6e690504 	cdpvs	5, 6, cr0, cr9, cr4, {0}
    2b10:	04030074 	streq	r0, [r3], #-116	; 0xffffff8c
    2b14:	00006607 	andeq	r6, r0, r7, lsl #12
    2b18:	06010300 	streq	r0, [r1], -r0, lsl #6
    2b1c:	00000023 	andeq	r0, r0, r3, lsr #32
    2b20:	c9050203 	stmdbgt	r5, {r0, r1, r9}
    2b24:	03000000 	movweq	r0, #0
    2b28:	00780504 	rsbseq	r0, r8, r4, lsl #10
    2b2c:	08030000 	stmdaeq	r3, {}	; <UNPREDICTABLE>
    2b30:	00007305 	andeq	r7, r0, r5, lsl #6
    2b34:	08010300 	stmdaeq	r1, {r8, r9}
    2b38:	00000021 	andeq	r0, r0, r1, lsr #32
    2b3c:	3c070203 	sfmcc	f0, 4, [r7], {3}
    2b40:	03000000 	movweq	r0, #0
    2b44:	00610704 	rsbeq	r0, r1, r4, lsl #14
    2b48:	08030000 	stmdaeq	r3, {}	; <UNPREDICTABLE>
    2b4c:	00005c07 	andeq	r5, r0, r7, lsl #24
    2b50:	00250400 	eoreq	r0, r5, r0, lsl #8
    2b54:	007a0000 	rsbseq	r0, sl, r0
    2b58:	25050000 	strcs	r0, [r5, #-0]
    2b5c:	00000000 	andeq	r0, r0, r0
    2b60:	00008106 	andeq	r8, r0, r6, lsl #2
    2b64:	0e1c0200 	cdpeq	2, 1, cr0, cr12, cr0, {0}
    2b68:	00000086 	andeq	r0, r0, r6, lsl #1
    2b6c:	006b0407 	rsbeq	r0, fp, r7, lsl #8
    2b70:	25040000 	strcs	r0, [r4, #-0]
    2b74:	9b000000 	blls	2b7c <__code_start__-0x5484>
    2b78:	05000000 	streq	r0, [r0, #-0]
    2b7c:	0000009b 	muleq	r0, fp, r0
    2b80:	a8040700 	stmdage	r4, {r8, r9, sl}
    2b84:	03000000 	movweq	r0, #0
    2b88:	002a0801 	eoreq	r0, sl, r1, lsl #16
    2b8c:	a1080000 	mrsge	r0, (UNDEF: 8)
    2b90:	06000000 	streq	r0, [r0], -r0
    2b94:	000002d9 	ldrdeq	r0, [r0], -r9
    2b98:	b90e2102 	stmdblt	lr, {r1, r8, sp}
    2b9c:	07000000 	streq	r0, [r0, -r0]
    2ba0:	00008c04 	andeq	r8, r0, r4, lsl #24
    2ba4:	03ac0900 			; <UNDEFINED> instruction: 0x03ac0900
    2ba8:	03010000 	movweq	r0, #4096	; 0x1000
    2bac:	00002505 	andeq	r2, r0, r5, lsl #10
    2bb0:	0090a000 	addseq	sl, r0, r0
    2bb4:	00002c00 	andeq	r2, r0, r0, lsl #24
    2bb8:	0a9c0100 	beq	fe702fc0 <__bss_end__+0xfe6f96e0>
    2bbc:	03010061 	movweq	r0, #4193	; 0x1061
    2bc0:	00009b18 	andeq	r9, r0, r8, lsl fp
    2bc4:	00127400 	andseq	r7, r2, r0, lsl #8
    2bc8:	00127000 	andseq	r7, r2, r0
    2bcc:	00620a00 	rsbeq	r0, r2, r0, lsl #20
    2bd0:	9b270301 	blls	9c37dc <__bss_end__+0x9b9efc>
    2bd4:	96000000 	strls	r0, [r0], -r0
    2bd8:	92000012 	andls	r0, r0, #18, 0
    2bdc:	00000012 	andeq	r0, r0, r2, lsl r0
    2be0:	00010f00 	andeq	r0, r1, r0, lsl #30
    2be4:	e5000400 	str	r0, [r0, #-1024]	; 0xfffffc00
    2be8:	0400000f 	streq	r0, [r0], #-15
    2bec:	0000ea01 	andeq	lr, r0, r1, lsl #20
    2bf0:	07660c00 	strbeq	r0, [r6, -r0, lsl #24]!
    2bf4:	02710000 	rsbseq	r0, r1, #0, 0
    2bf8:	90cc0000 	sbcls	r0, ip, r0
    2bfc:	00200000 	eoreq	r0, r0, r0
    2c00:	13f70000 	mvnsne	r0, #0, 0
    2c04:	04020000 	streq	r0, [r2], #-0
    2c08:	746e6905 	strbtvc	r6, [lr], #-2309	; 0xfffff6fb
    2c0c:	07040300 	streq	r0, [r4, -r0, lsl #6]
    2c10:	00000066 	andeq	r0, r0, r6, rrx
    2c14:	23060103 	movwcs	r0, #24835	; 0x6103
    2c18:	03000000 	movweq	r0, #0
    2c1c:	00c90502 	sbceq	r0, r9, r2, lsl #10
    2c20:	04030000 	streq	r0, [r3], #-0
    2c24:	00007805 	andeq	r7, r0, r5, lsl #16
    2c28:	05080300 	streq	r0, [r8, #-768]	; 0xfffffd00
    2c2c:	00000073 	andeq	r0, r0, r3, ror r0
    2c30:	21080103 	tstcs	r8, r3, lsl #2
    2c34:	03000000 	movweq	r0, #0
    2c38:	003c0702 	eorseq	r0, ip, r2, lsl #14
    2c3c:	04030000 	streq	r0, [r3], #-0
    2c40:	00006107 	andeq	r6, r0, r7, lsl #2
    2c44:	07080300 	streq	r0, [r8, -r0, lsl #6]
    2c48:	0000005c 	andeq	r0, r0, ip, asr r0
    2c4c:	00002504 	andeq	r2, r0, r4, lsl #10
    2c50:	00007a00 	andeq	r7, r0, r0, lsl #20
    2c54:	00250500 	eoreq	r0, r5, r0, lsl #10
    2c58:	06000000 	streq	r0, [r0], -r0
    2c5c:	00000081 	andeq	r0, r0, r1, lsl #1
    2c60:	860e1c02 	strhi	r1, [lr], -r2, lsl #24
    2c64:	07000000 	streq	r0, [r0, -r0]
    2c68:	00006b04 	andeq	r6, r0, r4, lsl #22
    2c6c:	00250400 	eoreq	r0, r5, r0, lsl #8
    2c70:	009b0000 	addseq	r0, fp, r0
    2c74:	9b050000 	blls	142c7c <__bss_end__+0x13939c>
    2c78:	00000000 	andeq	r0, r0, r0
    2c7c:	00a80407 	adceq	r0, r8, r7, lsl #8
    2c80:	01030000 	mrseq	r0, (UNDEF: 3)
    2c84:	00002a08 	andeq	r2, r0, r8, lsl #20
    2c88:	00a10800 	adceq	r0, r1, r0, lsl #16
    2c8c:	d9060000 	stmdble	r6, {}	; <UNPREDICTABLE>
    2c90:	02000002 	andeq	r0, r0, #2, 0
    2c94:	00b90e21 	adcseq	r0, r9, r1, lsr #28
    2c98:	04070000 	streq	r0, [r7], #-0
    2c9c:	0000008c 	andeq	r0, r0, ip, lsl #1
    2ca0:	00037d09 	andeq	r7, r3, r9, lsl #26
    2ca4:	07030100 	streq	r0, [r3, -r0, lsl #2]
    2ca8:	0000010c 	andeq	r0, r0, ip, lsl #2
    2cac:	000090cc 	andeq	r9, r0, ip, asr #1
    2cb0:	00000020 	andeq	r0, r0, r0, lsr #32
    2cb4:	010c9c01 	tsteq	ip, r1, lsl #24
    2cb8:	730a0000 	movwvc	r0, #40960	; 0xa000
    2cbc:	03010031 	movweq	r0, #4145	; 0x1031
    2cc0:	00010c15 	andeq	r0, r1, r5, lsl ip
    2cc4:	0b500100 	bleq	14030cc <__bss_end__+0x13f97ec>
    2cc8:	01003273 	tsteq	r0, r3, ror r2
    2ccc:	009b2603 	addseq	r2, fp, r3, lsl #12
    2cd0:	12ba0000 	adcsne	r0, sl, #0, 0
    2cd4:	12b40000 	adcsne	r0, r4, #0, 0
    2cd8:	730c0000 	movwvc	r0, #49152	; 0xc000
    2cdc:	14040100 	strne	r0, [r4], #-256	; 0xffffff00
    2ce0:	0000010c 	andeq	r0, r0, ip, lsl #2
    2ce4:	000012eb 	andeq	r1, r0, fp, ror #5
    2ce8:	000012e5 	andeq	r1, r0, r5, ror #5
    2cec:	a1040700 	tstge	r4, r0, lsl #14
    2cf0:	00000000 	andeq	r0, r0, r0
    2cf4:	0000014e 	andeq	r0, r0, lr, asr #2
    2cf8:	109b0004 	addsne	r0, fp, r4
    2cfc:	01040000 	mrseq	r0, (UNDEF: 4)
    2d00:	000000ea 	andeq	r0, r0, sl, ror #1
    2d04:	00077d0c 	andeq	r7, r7, ip, lsl #26
    2d08:	00027100 	andeq	r7, r2, r0, lsl #2
    2d0c:	00007000 	andeq	r7, r0, r0
    2d10:	00000000 	andeq	r0, r0, r0
    2d14:	00149b00 	andseq	r9, r4, r0, lsl #22
    2d18:	05040200 	streq	r0, [r4, #-512]	; 0xfffffe00
    2d1c:	00746e69 	rsbseq	r6, r4, r9, ror #28
    2d20:	00077603 	andeq	r7, r7, r3, lsl #12
    2d24:	17d10300 	ldrbne	r0, [r1, r0, lsl #6]
    2d28:	00000038 	andeq	r0, r0, r8, lsr r0
    2d2c:	66070404 	strvs	r0, [r7], -r4, lsl #8
    2d30:	04000000 	streq	r0, [r0], #-0
    2d34:	00230601 	eoreq	r0, r3, r1, lsl #12
    2d38:	02040000 	andeq	r0, r4, #0, 0
    2d3c:	0000c905 	andeq	ip, r0, r5, lsl #18
    2d40:	05040400 	streq	r0, [r4, #-1024]	; 0xfffffc00
    2d44:	00000078 	andeq	r0, r0, r8, ror r0
    2d48:	73050804 	movwvc	r0, #22532	; 0x5804
    2d4c:	04000000 	streq	r0, [r0], #-0
    2d50:	00210801 	eoreq	r0, r1, r1, lsl #16
    2d54:	5b050000 	blpl	142d5c <__bss_end__+0x13947c>
    2d58:	04000000 	streq	r0, [r0], #-0
    2d5c:	003c0702 	eorseq	r0, ip, r2, lsl #14
    2d60:	04040000 	streq	r0, [r4], #-0
    2d64:	00006107 	andeq	r6, r0, r7, lsl #2
    2d68:	07080400 	streq	r0, [r8, -r0, lsl #8]
    2d6c:	0000005c 	andeq	r0, r0, ip, asr r0
    2d70:	00002506 	andeq	r2, r0, r6, lsl #10
    2d74:	00008b00 	andeq	r8, r0, r0, lsl #22
    2d78:	00250700 	eoreq	r0, r5, r0, lsl #14
    2d7c:	08000000 	stmdaeq	r0, {}	; <UNPREDICTABLE>
    2d80:	00000081 	andeq	r0, r0, r1, lsl #1
    2d84:	970e1c02 	strls	r1, [lr, -r2, lsl #24]
    2d88:	09000000 	stmdbeq	r0, {}	; <UNPREDICTABLE>
    2d8c:	00007c04 	andeq	r7, r0, r4, lsl #24
    2d90:	00250600 	eoreq	r0, r5, r0, lsl #12
    2d94:	00ac0000 	adceq	r0, ip, r0
    2d98:	ac070000 	stcge	0, cr0, [r7], {-0}
    2d9c:	00000000 	andeq	r0, r0, r0
    2da0:	00b90409 	adcseq	r0, r9, r9, lsl #8
    2da4:	01040000 	mrseq	r0, (UNDEF: 4)
    2da8:	00002a08 	andeq	r2, r0, r8, lsl #20
    2dac:	00b20500 	adcseq	r0, r2, r0, lsl #10
    2db0:	d9080000 	stmdble	r8, {}	; <UNPREDICTABLE>
    2db4:	02000002 	andeq	r0, r0, #2, 0
    2db8:	00ca0e21 	sbceq	r0, sl, r1, lsr #28
    2dbc:	04090000 	streq	r0, [r9], #-0
    2dc0:	0000009d 	muleq	r0, sp, r0
    2dc4:	0003d40a 	andeq	sp, r3, sl, lsl #8
    2dc8:	05040100 	streq	r0, [r4, #-256]	; 0xffffff00
    2dcc:	00000025 	andeq	r0, r0, r5, lsr #32
    2dd0:	000090ec 	andeq	r9, r0, ip, ror #1
    2dd4:	0000002c 	andeq	r0, r0, ip, lsr #32
    2dd8:	014b9c01 	cmpeq	fp, r1, lsl #24
    2ddc:	5f0b0000 	svcpl	0x000b0000
    2de0:	01003173 	tsteq	r0, r3, ror r1
    2de4:	00ac1904 	adceq	r1, ip, r4, lsl #18
    2de8:	131a0000 	tstne	sl, #0, 0
    2dec:	13160000 	tstne	r6, #0, 0
    2df0:	5f0b0000 	svcpl	0x000b0000
    2df4:	01003273 	tsteq	r0, r3, ror r2
    2df8:	00ac2a04 	adceq	r2, ip, r4, lsl #20
    2dfc:	133f0000 	teqne	pc, #0, 0
    2e00:	133b0000 	teqne	fp, #0, 0
    2e04:	6e0b0000 	cdpvs	0, 0, cr0, cr11, cr0, {0}
    2e08:	36040100 	strcc	r0, [r4], -r0, lsl #2
    2e0c:	0000002c 	andeq	r0, r0, ip, lsr #32
    2e10:	00001366 	andeq	r1, r0, r6, ror #6
    2e14:	00001360 	andeq	r1, r0, r0, ror #6
    2e18:	0031730c 	eorseq	r7, r1, ip, lsl #6
    2e1c:	4b1a0501 	blmi	684228 <__bss_end__+0x67a948>
    2e20:	99000001 	stmdbls	r0, {r0}
    2e24:	91000013 	tstls	r0, r3, lsl r0
    2e28:	0c000013 	stceq	0, cr0, [r0], {19}
    2e2c:	01003273 	tsteq	r0, r3, ror r2
    2e30:	014b2c05 	cmpeq	fp, r5, lsl #24
    2e34:	13d50000 	bicsne	r0, r5, #0, 0
    2e38:	13cf0000 	bicne	r0, pc, #0, 0
    2e3c:	09000000 	stmdbeq	r0, {}	; <UNPREDICTABLE>
    2e40:	00006204 	andeq	r6, r0, r4, lsl #4
	...

Disassembly of section .debug_abbrev:

00000000 <.debug_abbrev>:
       0:	25011101 	strcs	r1, [r1, #-257]	; 0xfffffeff
       4:	030b130e 	movweq	r1, #45838	; 0xb30e
       8:	110e1b0e 	tstne	lr, lr, lsl #22
       c:	10061201 	andne	r1, r6, r1, lsl #4
      10:	02000017 	andeq	r0, r0, #23, 0
      14:	0b0b0024 	bleq	2c00ac <__bss_end__+0x2b67cc>
      18:	08030b3e 	stmdaeq	r3, {r1, r2, r3, r4, r5, r8, r9, fp}
      1c:	24030000 	strcs	r0, [r3], #-0
      20:	3e0b0b00 	vmlacc.f64	d0, d11, d0
      24:	000e030b 	andeq	r0, lr, fp, lsl #6
      28:	01150400 	tsteq	r5, r0, lsl #8
      2c:	13491927 	movtne	r1, #39207	; 0x9927
      30:	00001301 	andeq	r1, r0, r1, lsl #6
      34:	49000505 	stmdbmi	r0, {r0, r2, r8, sl}
      38:	06000013 			; <UNDEFINED> instruction: 0x06000013
      3c:	0e030034 	mcreq	0, 0, r0, cr3, cr4, {1}
      40:	0b3b0b3a 	bleq	ec2d30 <__bss_end__+0xeb9450>
      44:	13490b39 	movtne	r0, #39737	; 0x9b39
      48:	193c193f 	ldmdbne	ip!, {r0, r1, r2, r3, r4, r5, r8, fp, ip}
      4c:	0f070000 	svceq	0x00070000
      50:	490b0b00 	stmdbmi	fp, {r8, r9, fp}
      54:	08000013 	stmdaeq	r0, {r0, r1, r4}
      58:	13490026 	movtne	r0, #36902	; 0x9026
      5c:	2e090000 	cdpcs	0, 0, cr0, cr9, cr0, {0}
      60:	03193f01 	tsteq	r9, #1, 30
      64:	3b0b3a0e 	blcc	2ce8a4 <__bss_end__+0x2c4fc4>
      68:	270b390b 	strcs	r3, [fp, -fp, lsl #18]
      6c:	12011119 	andne	r1, r1, #1073741830	; 0x40000006
      70:	97184006 	ldrls	r4, [r8, -r6]
      74:	13011942 	movwne	r1, #6466	; 0x1942
      78:	340a0000 	strcc	r0, [sl], #-0
      7c:	490e0300 	stmdbmi	lr, {r8, r9}
      80:	02193413 	andseq	r3, r9, #318767104	; 0x13000000
      84:	0b000018 	bleq	ec <__code_start__-0x7f14>
      88:	0111010b 	tsteq	r1, fp, lsl #2
      8c:	13010612 	movwne	r0, #5650	; 0x1612
      90:	340c0000 	strcc	r0, [ip], #-0
      94:	3a080300 	bcc	200c9c <__bss_end__+0x1f73bc>
      98:	390b3b0b 	stmdbcc	fp, {r0, r1, r3, r8, r9, fp, ip, sp}
      9c:	0213490b 	andseq	r4, r3, #180224	; 0x2c000
      a0:	1742b717 	smlaldne	fp, r2, r7, r7
      a4:	0b0d0000 	bleq	3400ac <__bss_end__+0x3367cc>
      a8:	00175501 	andseq	r5, r7, r1, lsl #10
      ac:	82890e00 	addhi	r0, r9, #0, 28
      b0:	01110101 	tsteq	r1, r1, lsl #2
      b4:	13011331 	movwne	r1, #4913	; 0x1331
      b8:	8a0f0000 	bhi	3c00c0 <__bss_end__+0x3b67e0>
      bc:	02000182 	andeq	r0, r0, #-2147483616	; 0x80000020
      c0:	18429118 	stmdane	r2, {r3, r4, r8, ip, pc}^
      c4:	89100000 	ldmdbhi	r0, {}	; <UNPREDICTABLE>
      c8:	11000182 	smlabbne	r0, r2, r1, r0
      cc:	00133101 	andseq	r3, r3, r1, lsl #2
      d0:	82891100 	addhi	r1, r9, #0
      d4:	01110101 	tsteq	r1, r1, lsl #2
      d8:	00001331 	andeq	r1, r0, r1, lsr r3
      dc:	49010112 	stmdbmi	r1, {r1, r4, r8}
      e0:	00130113 	andseq	r0, r3, r3, lsl r1
      e4:	00211300 	eoreq	r1, r1, r0, lsl #6
      e8:	0b2f1349 	bleq	bc4e14 <__bss_end__+0xbbb534>
      ec:	0f140000 	svceq	0x00140000
      f0:	000b0b00 	andeq	r0, fp, r0, lsl #22
      f4:	002e1500 	eoreq	r1, lr, r0, lsl #10
      f8:	193c193f 	ldmdbne	ip!, {r0, r1, r2, r3, r4, r5, r8, fp, ip}
      fc:	0e030e6e 	cdpeq	14, 0, cr0, cr3, cr14, {3}
     100:	0b3b0b3a 	bleq	ec2df0 <__bss_end__+0xeb9510>
     104:	00000b39 	andeq	r0, r0, r9, lsr fp
     108:	01110100 	tsteq	r1, r0, lsl #2
     10c:	0b130e25 	bleq	4c39a8 <__bss_end__+0x4ba0c8>
     110:	0e1b0e03 	cdpeq	14, 1, cr0, cr11, cr3, {0}
     114:	06120111 			; <UNDEFINED> instruction: 0x06120111
     118:	00001710 	andeq	r1, r0, r0, lsl r7
     11c:	0b002402 	bleq	912c <dsb+0x4>
     120:	030b3e0b 	movweq	r3, #48651	; 0xbe0b
     124:	03000008 	movweq	r0, #8
     128:	0b0b0024 	bleq	2c01c0 <__bss_end__+0x2b68e0>
     12c:	0e030b3e 	vmoveq.16	d3[0], r0
     130:	15040000 	strne	r0, [r4, #-0]
     134:	49192701 	ldmdbmi	r9, {r0, r8, r9, sl, sp}
     138:	00130113 	andseq	r0, r3, r3, lsl r1
     13c:	00050500 	andeq	r0, r5, r0, lsl #10
     140:	00001349 	andeq	r1, r0, r9, asr #6
     144:	03003406 	movweq	r3, #1030	; 0x406
     148:	3b0b3a0e 	blcc	2ce988 <__bss_end__+0x2c50a8>
     14c:	490b390b 	stmdbmi	fp, {r0, r1, r3, r8, fp, ip, sp}
     150:	3c193f13 	ldccc	15, cr3, [r9], {19}
     154:	07000019 	smladeq	r0, r9, r0, r0
     158:	0b0b000f 	bleq	2c019c <__bss_end__+0x2b68bc>
     15c:	00001349 	andeq	r1, r0, r9, asr #6
     160:	49002608 	stmdbmi	r0, {r3, r9, sl, sp}
     164:	09000013 	stmdbeq	r0, {r0, r1, r4}
     168:	0e030034 	mcreq	0, 0, r0, cr3, cr4, {1}
     16c:	0b3b0b3a 	bleq	ec2e5c <__bss_end__+0xeb957c>
     170:	13490b39 	movtne	r0, #39737	; 0x9b39
     174:	00001802 	andeq	r1, r0, r2, lsl #16
     178:	0300340a 	movweq	r3, #1034	; 0x40a
     17c:	3b0b3a0e 	blcc	2ce9bc <__bss_end__+0x2c50dc>
     180:	490b390b 	stmdbmi	fp, {r0, r1, r3, r8, fp, ip, sp}
     184:	02193f13 	andseq	r3, r9, #76	; 0x4c
     188:	0b000018 	bleq	1f0 <__code_start__-0x7e10>
     18c:	0b0b000f 	bleq	2c01d0 <__bss_end__+0x2b68f0>
     190:	2e0c0000 	cdpcs	0, 0, cr0, cr12, cr0, {0}
     194:	03193f01 	tsteq	r9, #1, 30
     198:	3b0b3a0e 	blcc	2ce9d8 <__bss_end__+0x2c50f8>
     19c:	270b390b 	strcs	r3, [fp, -fp, lsl #18]
     1a0:	11134919 	tstne	r3, r9, lsl r9
     1a4:	40061201 	andmi	r1, r6, r1, lsl #4
     1a8:	19429718 	stmdbne	r2, {r3, r4, r8, r9, sl, ip, pc}^
     1ac:	00001301 	andeq	r1, r0, r1, lsl #6
     1b0:	0300340d 	movweq	r3, #1037	; 0x40d
     1b4:	3413490e 	ldrcc	r4, [r3], #-2318	; 0xfffff6f2
     1b8:	00180219 	andseq	r0, r8, r9, lsl r2
     1bc:	82890e00 	addhi	r0, r9, #0, 28
     1c0:	01110101 	tsteq	r1, r1, lsl #2
     1c4:	13011331 	movwne	r1, #4913	; 0x1331
     1c8:	8a0f0000 	bhi	3c01d0 <__bss_end__+0x3b68f0>
     1cc:	02000182 	andeq	r0, r0, #-2147483616	; 0x80000020
     1d0:	18429118 	stmdane	r2, {r3, r4, r8, ip, pc}^
     1d4:	89100000 	ldmdbhi	r0, {}	; <UNPREDICTABLE>
     1d8:	11000182 	smlabbne	r0, r2, r1, r0
     1dc:	00133101 	andseq	r3, r3, r1, lsl #2
     1e0:	01011100 	mrseq	r1, (UNDEF: 17)
     1e4:	13011349 	movwne	r1, #4937	; 0x1349
     1e8:	21120000 	tstcs	r2, r0
     1ec:	2f134900 	svccs	0x00134900
     1f0:	1300000b 	movwne	r0, #11
     1f4:	193f012e 	ldmdbne	pc!, {r1, r2, r3, r5, r8}	; <UNPREDICTABLE>
     1f8:	0b3a0e03 	bleq	e83a0c <__bss_end__+0xe7a12c>
     1fc:	0b390b3b 	bleq	e42ef0 <__bss_end__+0xe39610>
     200:	01111927 	tsteq	r1, r7, lsr #18
     204:	18400612 	stmdane	r0, {r1, r4, r9, sl}^
     208:	01194297 			; <UNDEFINED> instruction: 0x01194297
     20c:	14000013 	strne	r0, [r0], #-19	; 0xffffffed
     210:	0e030005 	cdpeq	0, 0, cr0, cr3, cr5, {0}
     214:	0b3b0b3a 	bleq	ec2f04 <__bss_end__+0xeb9624>
     218:	13490b39 	movtne	r0, #39737	; 0x9b39
     21c:	42b71702 	adcsmi	r1, r7, #524288	; 0x80000
     220:	15000017 	strne	r0, [r0, #-23]	; 0xffffffe9
     224:	1331011d 	teqne	r1, #1073741831	; 0x40000007
     228:	42b80152 	adcsmi	r0, r8, #-2147483628	; 0x80000014
     22c:	5817550b 	ldmdapl	r7, {r0, r1, r3, r8, sl, ip, lr}
     230:	570b590b 	strpl	r5, [fp, -fp, lsl #18]
     234:	0013010b 	andseq	r0, r3, fp, lsl #2
     238:	00051600 	andeq	r1, r5, r0, lsl #12
     23c:	17021331 	smladxne	r2, r1, r3, r1
     240:	001742b7 			; <UNDEFINED> instruction: 0x001742b7
     244:	000b1700 	andeq	r1, fp, r0, lsl #14
     248:	00001755 	andeq	r1, r0, r5, asr r7
     24c:	31000518 	tstcc	r0, r8, lsl r5
     250:	19000013 	stmdbne	r0, {r0, r1, r4}
     254:	01018289 	smlabbeq	r1, r9, r2, r8
     258:	13310111 	teqne	r1, #1073741828	; 0x40000004
     25c:	1d1a0000 	ldcne	0, cr0, [sl, #-0]
     260:	52133101 	andspl	r3, r3, #1073741824	; 0x40000000
     264:	0b42b801 	bleq	10ae270 <__bss_end__+0x10a4990>
     268:	06120111 			; <UNDEFINED> instruction: 0x06120111
     26c:	0b590b58 	bleq	1642fd4 <__bss_end__+0x16396f4>
     270:	13010b57 	movwne	r0, #6999	; 0x1b57
     274:	341b0000 	ldrcc	r0, [fp], #-0
     278:	3a080300 	bcc	200e80 <__bss_end__+0x1f75a0>
     27c:	390b3b0b 	stmdbcc	fp, {r0, r1, r3, r8, r9, fp, ip, sp}
     280:	0213490b 	andseq	r4, r3, #180224	; 0x2c000
     284:	1742b717 	smlaldne	fp, r2, r7, r7
     288:	2e1c0000 	cdpcs	0, 1, cr0, cr12, cr0, {0}
     28c:	3a0e0301 	bcc	380e98 <__bss_end__+0x3775b8>
     290:	390b3b0b 	stmdbcc	fp, {r0, r1, r3, r8, r9, fp, ip, sp}
     294:	4919270b 	ldmdbmi	r9, {r0, r1, r3, r8, r9, sl, sp}
     298:	010b2013 	tsteq	fp, r3, lsl r0
     29c:	1d000013 	stcne	0, cr0, [r0, #-76]	; 0xffffffb4
     2a0:	08030005 	stmdaeq	r3, {r0, r2}
     2a4:	0b3b0b3a 	bleq	ec2f94 <__bss_end__+0xeb96b4>
     2a8:	13490b39 	movtne	r0, #39737	; 0x9b39
     2ac:	341e0000 	ldrcc	r0, [lr], #-0
     2b0:	490e0300 	stmdbmi	lr, {r8, r9}
     2b4:	00193413 	andseq	r3, r9, r3, lsl r4
     2b8:	002e1f00 	eoreq	r1, lr, r0, lsl #30
     2bc:	193c193f 	ldmdbne	ip!, {r0, r1, r2, r3, r4, r5, r8, fp, ip}
     2c0:	0e030e6e 	cdpeq	14, 0, cr0, cr3, cr14, {3}
     2c4:	0b3b0b3a 	bleq	ec2fb4 <__bss_end__+0xeb96d4>
     2c8:	00000b39 	andeq	r0, r0, r9, lsr fp
     2cc:	01110100 	tsteq	r1, r0, lsl #2
     2d0:	0b130e25 	bleq	4c3b6c <__bss_end__+0x4ba28c>
     2d4:	0e1b0e03 	cdpeq	14, 1, cr0, cr11, cr3, {0}
     2d8:	06120111 			; <UNDEFINED> instruction: 0x06120111
     2dc:	00001710 	andeq	r1, r0, r0, lsl r7
     2e0:	03001602 	movweq	r1, #1538	; 0x602
     2e4:	3b0b3a0e 	blcc	2ceb24 <__bss_end__+0x2c5244>
     2e8:	490b390b 	stmdbmi	fp, {r0, r1, r3, r8, fp, ip, sp}
     2ec:	03000013 	movweq	r0, #19
     2f0:	0e030113 	mcreq	1, 0, r0, cr3, cr3, {0}
     2f4:	0b3a0b0b 	bleq	e82f28 <__bss_end__+0xe79648>
     2f8:	13010b3b 	movwne	r0, #6971	; 0x1b3b
     2fc:	0d040000 	stceq	0, cr0, [r4, #-0]
     300:	490e0300 	stmdbmi	lr, {r8, r9}
     304:	340b3813 	strcc	r3, [fp], #-2067	; 0xfffff7ed
     308:	05000019 	streq	r0, [r0, #-25]	; 0xffffffe7
     30c:	0b0b000f 	bleq	2c0350 <__bss_end__+0x2b6a70>
     310:	24060000 	strcs	r0, [r6], #-0
     314:	3e0b0b00 	vmlacc.f64	d0, d11, d0
     318:	0008030b 	andeq	r0, r8, fp, lsl #6
     31c:	00240700 	eoreq	r0, r4, r0, lsl #14
     320:	0b3e0b0b 	bleq	f82f54 <__bss_end__+0xf79674>
     324:	00000e03 	andeq	r0, r0, r3, lsl #28
     328:	27011508 	strcs	r1, [r1, -r8, lsl #10]
     32c:	01134919 	tsteq	r3, r9, lsl r9
     330:	09000013 	stmdbeq	r0, {r0, r1, r4}
     334:	13490005 	movtne	r0, #36869	; 0x9005
     338:	340a0000 	strcc	r0, [sl], #-0
     33c:	3a0e0300 	bcc	380f44 <__bss_end__+0x377664>
     340:	390b3b0b 	stmdbcc	fp, {r0, r1, r3, r8, r9, fp, ip, sp}
     344:	3f13490b 	svccc	0x0013490b
     348:	00193c19 	andseq	r3, r9, r9, lsl ip
     34c:	000f0b00 	andeq	r0, pc, r0, lsl #22
     350:	13490b0b 	movtne	r0, #39691	; 0x9b0b
     354:	260c0000 	strcs	r0, [ip], -r0
     358:	00134900 	andseq	r4, r3, r0, lsl #18
     35c:	012e0d00 			; <UNDEFINED> instruction: 0x012e0d00
     360:	0e03193f 			; <UNDEFINED> instruction: 0x0e03193f
     364:	0b3b0b3a 	bleq	ec3054 <__bss_end__+0xeb9774>
     368:	19270b39 	stmdbne	r7!, {r0, r3, r4, r5, r8, r9, fp}
     36c:	01111349 	tsteq	r1, r9, asr #6
     370:	18400612 	stmdane	r0, {r1, r4, r9, sl}^
     374:	01194297 			; <UNDEFINED> instruction: 0x01194297
     378:	0e000013 	mcreq	0, 0, r0, cr0, cr3, {0}
     37c:	08030005 	stmdaeq	r3, {r0, r2}
     380:	0b3b0b3a 	bleq	ec3070 <__bss_end__+0xeb9790>
     384:	13490b39 	movtne	r0, #39737	; 0x9b39
     388:	00001802 	andeq	r1, r0, r2, lsl #16
     38c:	0000180f 	andeq	r1, r0, pc, lsl #16
     390:	00341000 	eorseq	r1, r4, r0
     394:	0b3a0803 	bleq	e823a8 <__bss_end__+0xe78ac8>
     398:	0b390b3b 	bleq	e4308c <__bss_end__+0xe397ac>
     39c:	18021349 	stmdane	r2, {r0, r3, r6, r8, r9, ip}
     3a0:	34110000 	ldrcc	r0, [r1], #-0
     3a4:	3a0e0300 	bcc	380fac <__bss_end__+0x3776cc>
     3a8:	390b3b0b 	stmdbcc	fp, {r0, r1, r3, r8, r9, fp, ip, sp}
     3ac:	0213490b 	andseq	r4, r3, #180224	; 0x2c000
     3b0:	12000018 	andne	r0, r0, #24, 0
     3b4:	08030034 	stmdaeq	r3, {r2, r4, r5}
     3b8:	0b3b0b3a 	bleq	ec30a8 <__bss_end__+0xeb97c8>
     3bc:	13490b39 	movtne	r0, #39737	; 0x9b39
     3c0:	42b71702 	adcsmi	r1, r7, #524288	; 0x80000
     3c4:	13000017 	movwne	r0, #23
     3c8:	01018289 	smlabbeq	r1, r9, r2, r8
     3cc:	13310111 	teqne	r1, #1073741828	; 0x40000004
     3d0:	00001301 	andeq	r1, r0, r1, lsl #6
     3d4:	01828a14 	orreq	r8, r2, r4, lsl sl
     3d8:	91180200 	tstls	r8, r0, lsl #4
     3dc:	00001842 	andeq	r1, r0, r2, asr #16
     3e0:	01828915 	orreq	r8, r2, r5, lsl r9
     3e4:	00011101 	andeq	r1, r1, r1, lsl #2
     3e8:	01011600 	tsteq	r1, r0, lsl #12
     3ec:	13011349 	movwne	r1, #4937	; 0x1349
     3f0:	21170000 	tstcs	r7, r0
     3f4:	2f134900 	svccs	0x00134900
     3f8:	18000005 	stmdane	r0, {r0, r2}
     3fc:	193f002e 	ldmdbne	pc!, {r1, r2, r3, r5}	; <UNPREDICTABLE>
     400:	0e6e193c 			; <UNDEFINED> instruction: 0x0e6e193c
     404:	0b3a0e03 	bleq	e83c18 <__bss_end__+0xe7a338>
     408:	0b390b3b 	bleq	e430fc <__bss_end__+0xe3981c>
     40c:	01000000 	mrseq	r0, (UNDEF: 0)
     410:	0e250111 	mcreq	1, 1, r0, cr5, cr1, {0}
     414:	0e030b13 	vmoveq.32	d3[0], r0
     418:	01110e1b 	tsteq	r1, fp, lsl lr
     41c:	17100612 			; <UNDEFINED> instruction: 0x17100612
     420:	24020000 	strcs	r0, [r2], #-0
     424:	3e0b0b00 	vmlacc.f64	d0, d11, d0
     428:	0008030b 	andeq	r0, r8, fp, lsl #6
     42c:	00240300 	eoreq	r0, r4, r0, lsl #6
     430:	0b3e0b0b 	bleq	f83064 <__bss_end__+0xf79784>
     434:	00000e03 	andeq	r0, r0, r3, lsl #28
     438:	27011504 	strcs	r1, [r1, -r4, lsl #10]
     43c:	01134919 	tsteq	r3, r9, lsl r9
     440:	05000013 	streq	r0, [r0, #-19]	; 0xffffffed
     444:	13490005 	movtne	r0, #36869	; 0x9005
     448:	34060000 	strcc	r0, [r6], #-0
     44c:	3a0e0300 	bcc	381054 <__bss_end__+0x377774>
     450:	390b3b0b 	stmdbcc	fp, {r0, r1, r3, r8, r9, fp, ip, sp}
     454:	3f13490b 	svccc	0x0013490b
     458:	00193c19 	andseq	r3, r9, r9, lsl ip
     45c:	000f0700 	andeq	r0, pc, r0, lsl #14
     460:	13490b0b 	movtne	r0, #39691	; 0x9b0b
     464:	26080000 	strcs	r0, [r8], -r0
     468:	00134900 	andseq	r4, r3, r0, lsl #18
     46c:	00340900 	eorseq	r0, r4, r0, lsl #18
     470:	0b3a1347 	bleq	e85194 <__bss_end__+0xe7b8b4>
     474:	0b390b3b 	bleq	e43168 <__bss_end__+0xe39888>
     478:	00001802 	andeq	r1, r0, r2, lsl #16
     47c:	3f012e0a 	svccc	0x00012e0a
     480:	3a0e0319 	bcc	3810ec <__bss_end__+0x37780c>
     484:	390b3b0b 	stmdbcc	fp, {r0, r1, r3, r8, r9, fp, ip, sp}
     488:	1119270b 	tstne	r9, fp, lsl #14
     48c:	40061201 	andmi	r1, r6, r1, lsl #4
     490:	19429718 	stmdbne	r2, {r3, r4, r8, r9, sl, ip, pc}^
     494:	00001301 	andeq	r1, r0, r1, lsl #6
     498:	0300050b 	movweq	r0, #1291	; 0x50b
     49c:	3b0b3a08 	blcc	2cecc4 <__bss_end__+0x2c53e4>
     4a0:	490b390b 	stmdbmi	fp, {r0, r1, r3, r8, fp, ip, sp}
     4a4:	00180213 	andseq	r0, r8, r3, lsl r2
     4a8:	002e0c00 	eoreq	r0, lr, r0, lsl #24
     4ac:	0e03193f 			; <UNDEFINED> instruction: 0x0e03193f
     4b0:	0b3b0b3a 	bleq	ec31a0 <__bss_end__+0xeb98c0>
     4b4:	19270b39 	stmdbne	r7!, {r0, r3, r4, r5, r8, r9, fp}
     4b8:	06120111 			; <UNDEFINED> instruction: 0x06120111
     4bc:	42971840 	addsmi	r1, r7, #64, 16	; 0x400000
     4c0:	0d000019 	stceq	0, cr0, [r0, #-100]	; 0xffffff9c
     4c4:	0e03012e 	adfeqsp	f0, f3, #0.5
     4c8:	0b3b0b3a 	bleq	ec31b8 <__bss_end__+0xeb98d8>
     4cc:	19270b39 	stmdbne	r7!, {r0, r3, r4, r5, r8, r9, fp}
     4d0:	01111349 	tsteq	r1, r9, asr #6
     4d4:	18400612 	stmdane	r0, {r1, r4, r9, sl}^
     4d8:	01194297 			; <UNDEFINED> instruction: 0x01194297
     4dc:	0e000013 	mcreq	0, 0, r0, cr0, cr3, {0}
     4e0:	08030005 	stmdaeq	r3, {r0, r2}
     4e4:	0b3b0b3a 	bleq	ec31d4 <__bss_end__+0xeb98f4>
     4e8:	13490b39 	movtne	r0, #39737	; 0x9b39
     4ec:	42b71702 	adcsmi	r1, r7, #524288	; 0x80000
     4f0:	0f000017 	svceq	0x00000017
     4f4:	01018289 	smlabbeq	r1, r9, r2, r8
     4f8:	13310111 	teqne	r1, #1073741828	; 0x40000004
     4fc:	8a100000 	bhi	400504 <__bss_end__+0x3f6c24>
     500:	02000182 	andeq	r0, r0, #-2147483616	; 0x80000020
     504:	18429118 	stmdane	r2, {r3, r4, r8, ip, pc}^
     508:	2e110000 	cdpcs	0, 1, cr0, cr1, cr0, {0}
     50c:	3c193f00 	ldccc	15, cr3, [r9], {-0}
     510:	030e6e19 	movweq	r6, #60953	; 0xee19
     514:	3b0b3a0e 	blcc	2ced54 <__bss_end__+0x2c5474>
     518:	000b390b 	andeq	r3, fp, fp, lsl #18
     51c:	11010000 	mrsne	r0, (UNDEF: 1)
     520:	130e2501 	movwne	r2, #58625	; 0xe501
     524:	1b0e030b 	blne	381158 <__bss_end__+0x377878>
     528:	1201110e 	andne	r1, r1, #-2147483645	; 0x80000003
     52c:	00171006 	andseq	r1, r7, r6
     530:	00240200 	eoreq	r0, r4, r0, lsl #4
     534:	0b3e0b0b 	bleq	f83168 <__bss_end__+0xf79888>
     538:	00000803 	andeq	r0, r0, r3, lsl #16
     53c:	0b002403 	bleq	9550 <buf.3928+0x74>
     540:	030b3e0b 	movweq	r3, #48651	; 0xbe0b
     544:	0400000e 	streq	r0, [r0], #-14
     548:	19270115 	stmdbne	r7!, {r0, r2, r4, r8}
     54c:	13011349 	movwne	r1, #4937	; 0x1349
     550:	05050000 	streq	r0, [r5, #-0]
     554:	00134900 	andseq	r4, r3, r0, lsl #18
     558:	00340600 	eorseq	r0, r4, r0, lsl #12
     55c:	0b3a0e03 	bleq	e83d70 <__bss_end__+0xe7a490>
     560:	0b390b3b 	bleq	e43254 <__bss_end__+0xe39974>
     564:	193f1349 	ldmdbne	pc!, {r0, r3, r6, r8, r9, ip}	; <UNPREDICTABLE>
     568:	0000193c 	andeq	r1, r0, ip, lsr r9
     56c:	0b000f07 	bleq	4190 <__code_start__-0x3e70>
     570:	0013490b 	andseq	r4, r3, fp, lsl #18
     574:	00260800 	eoreq	r0, r6, r0, lsl #16
     578:	00001349 	andeq	r1, r0, r9, asr #6
     57c:	47003409 	strmi	r3, [r0, -r9, lsl #8]
     580:	3b0b3a13 	blcc	2cedd4 <__bss_end__+0x2c54f4>
     584:	020b390b 	andeq	r3, fp, #180224	; 0x2c000
     588:	0a000018 	beq	5f0 <__code_start__-0x7a10>
     58c:	193f012e 	ldmdbne	pc!, {r1, r2, r3, r5, r8}	; <UNPREDICTABLE>
     590:	0b3a0e03 	bleq	e83da4 <__bss_end__+0xe7a4c4>
     594:	0b390b3b 	bleq	e43288 <__bss_end__+0xe399a8>
     598:	13491927 	movtne	r1, #39207	; 0x9927
     59c:	06120111 			; <UNDEFINED> instruction: 0x06120111
     5a0:	42961840 	addsmi	r1, r6, #64, 16	; 0x400000
     5a4:	0b000019 	bleq	610 <__code_start__-0x79f0>
     5a8:	08030005 	stmdaeq	r3, {r0, r2}
     5ac:	0b3b0b3a 	bleq	ec329c <__bss_end__+0xeb99bc>
     5b0:	13490b39 	movtne	r0, #39737	; 0x9b39
     5b4:	42b71702 	adcsmi	r1, r7, #524288	; 0x80000
     5b8:	00000017 	andeq	r0, r0, r7, lsl r0
     5bc:	25011101 	strcs	r1, [r1, #-257]	; 0xfffffeff
     5c0:	030b130e 	movweq	r1, #45838	; 0xb30e
     5c4:	110e1b0e 	tstne	lr, lr, lsl #22
     5c8:	10061201 	andne	r1, r6, r1, lsl #4
     5cc:	02000017 	andeq	r0, r0, #23, 0
     5d0:	0b0b0024 	bleq	2c0668 <__bss_end__+0x2b6d88>
     5d4:	08030b3e 	stmdaeq	r3, {r1, r2, r3, r4, r5, r8, r9, fp}
     5d8:	24030000 	strcs	r0, [r3], #-0
     5dc:	3e0b0b00 	vmlacc.f64	d0, d11, d0
     5e0:	000e030b 	andeq	r0, lr, fp, lsl #6
     5e4:	00160400 	andseq	r0, r6, r0, lsl #8
     5e8:	0b3a0e03 	bleq	e83dfc <__bss_end__+0xe7a51c>
     5ec:	0b390b3b 	bleq	e432e0 <__bss_end__+0xe39a00>
     5f0:	00001349 	andeq	r1, r0, r9, asr #6
     5f4:	27011505 	strcs	r1, [r1, -r5, lsl #10]
     5f8:	01134919 	tsteq	r3, r9, lsl r9
     5fc:	06000013 			; <UNDEFINED> instruction: 0x06000013
     600:	13490005 	movtne	r0, #36869	; 0x9005
     604:	34070000 	strcc	r0, [r7], #-0
     608:	3a0e0300 	bcc	381210 <__bss_end__+0x377930>
     60c:	390b3b0b 	stmdbcc	fp, {r0, r1, r3, r8, r9, fp, ip, sp}
     610:	3f13490b 	svccc	0x0013490b
     614:	00193c19 	andseq	r3, r9, r9, lsl ip
     618:	000f0800 	andeq	r0, pc, r0, lsl #16
     61c:	13490b0b 	movtne	r0, #39691	; 0x9b0b
     620:	26090000 	strcs	r0, [r9], -r0
     624:	00134900 	andseq	r4, r3, r0, lsl #18
     628:	01130a00 	tsteq	r3, r0, lsl #20
     62c:	0b0b0e03 	bleq	2c3e40 <__bss_end__+0x2ba560>
     630:	0b3b0b3a 	bleq	ec3320 <__bss_end__+0xeb9a40>
     634:	00001301 	andeq	r1, r0, r1, lsl #6
     638:	03000d0b 	movweq	r0, #3339	; 0xd0b
     63c:	3813490e 	ldmdacc	r3, {r1, r2, r3, r8, fp, lr}
     640:	0019340b 	andseq	r3, r9, fp, lsl #8
     644:	000f0c00 	andeq	r0, pc, r0, lsl #24
     648:	00000b0b 	andeq	r0, r0, fp, lsl #22
     64c:	3f012e0d 	svccc	0x00012e0d
     650:	3a0e0319 	bcc	3812bc <__bss_end__+0x3779dc>
     654:	390b3b0b 	stmdbcc	fp, {r0, r1, r3, r8, r9, fp, ip, sp}
     658:	4919270b 	ldmdbmi	r9, {r0, r1, r3, r8, r9, sl, sp}
     65c:	12011113 	andne	r1, r1, #-1073741820	; 0xc0000004
     660:	97184006 	ldrls	r4, [r8, -r6]
     664:	13011942 	movwne	r1, #6466	; 0x1942
     668:	050e0000 	streq	r0, [lr, #-0]
     66c:	3a080300 	bcc	201274 <__bss_end__+0x1f7994>
     670:	390b3b0b 	stmdbcc	fp, {r0, r1, r3, r8, r9, fp, ip, sp}
     674:	0213490b 	andseq	r4, r3, #180224	; 0x2c000
     678:	1742b717 	smlaldne	fp, r2, r7, r7
     67c:	050f0000 	streq	r0, [pc, #-0]	; 684 <__code_start__-0x797c>
     680:	3a0e0300 	bcc	381288 <__bss_end__+0x3779a8>
     684:	390b3b0b 	stmdbcc	fp, {r0, r1, r3, r8, r9, fp, ip, sp}
     688:	0213490b 	andseq	r4, r3, #180224	; 0x2c000
     68c:	10000018 	andne	r0, r0, r8, lsl r0
     690:	08030034 	stmdaeq	r3, {r2, r4, r5}
     694:	0b3b0b3a 	bleq	ec3384 <__bss_end__+0xeb9aa4>
     698:	13490b39 	movtne	r0, #39737	; 0x9b39
     69c:	42b71702 	adcsmi	r1, r7, #524288	; 0x80000
     6a0:	11000017 	tstne	r0, r7, lsl r0
     6a4:	08030034 	stmdaeq	r3, {r2, r4, r5}
     6a8:	0b3b0b3a 	bleq	ec3398 <__bss_end__+0xeb9ab8>
     6ac:	13490b39 	movtne	r0, #39737	; 0x9b39
     6b0:	34120000 	ldrcc	r0, [r2], #-0
     6b4:	3a0e0300 	bcc	3812bc <__bss_end__+0x3779dc>
     6b8:	390b3b0b 	stmdbcc	fp, {r0, r1, r3, r8, r9, fp, ip, sp}
     6bc:	0213490b 	andseq	r4, r3, #180224	; 0x2c000
     6c0:	1742b717 	smlaldne	fp, r2, r7, r7
     6c4:	34130000 	ldrcc	r0, [r3], #-0
     6c8:	490e0300 	stmdbmi	lr, {r8, r9}
     6cc:	02193413 	andseq	r3, r9, #318767104	; 0x13000000
     6d0:	14000018 	strne	r0, [r0], #-24	; 0xffffffe8
     6d4:	0111010b 	tsteq	r1, fp, lsl #2
     6d8:	00000612 	andeq	r0, r0, r2, lsl r6
     6dc:	03003415 	movweq	r3, #1045	; 0x415
     6e0:	3b0b3a08 	blcc	2cef08 <__bss_end__+0x2c5628>
     6e4:	490b390b 	stmdbmi	fp, {r0, r1, r3, r8, fp, ip, sp}
     6e8:	00180213 	andseq	r0, r8, r3, lsl r2
     6ec:	00341600 	eorseq	r1, r4, r0, lsl #12
     6f0:	0b3a0e03 	bleq	e83f04 <__bss_end__+0xe7a624>
     6f4:	0b390b3b 	bleq	e433e8 <__bss_end__+0xe39b08>
     6f8:	18021349 	stmdane	r2, {r0, r3, r6, r8, r9, ip}
     6fc:	0b170000 	bleq	5c0704 <__bss_end__+0x5b6e24>
     700:	12011101 	andne	r1, r1, #1073741824	; 0x40000000
     704:	00130106 	andseq	r0, r3, r6, lsl #2
     708:	82891800 	addhi	r1, r9, #0, 16
     70c:	01110101 	tsteq	r1, r1, lsl #2
     710:	13011331 	movwne	r1, #4913	; 0x1331
     714:	8a190000 	bhi	64071c <__bss_end__+0x636e3c>
     718:	02000182 	andeq	r0, r0, #-2147483616	; 0x80000020
     71c:	18429118 	stmdane	r2, {r3, r4, r8, ip, pc}^
     720:	891a0000 	ldmdbhi	sl, {}	; <UNPREDICTABLE>
     724:	11000182 	smlabbne	r0, r2, r1, r0
     728:	00133101 	andseq	r3, r3, r1, lsl #2
     72c:	82891b00 	addhi	r1, r9, #0, 22
     730:	01110101 	tsteq	r1, r1, lsl #2
     734:	00001301 	andeq	r1, r0, r1, lsl #6
     738:	4901011c 	stmdbmi	r1, {r2, r3, r4, r8}
     73c:	00130113 	andseq	r0, r3, r3, lsl r1
     740:	00211d00 	eoreq	r1, r1, r0, lsl #26
     744:	0b2f1349 	bleq	bc5470 <__bss_end__+0xbbbb90>
     748:	2e1e0000 	cdpcs	0, 1, cr0, cr14, cr0, {0}
     74c:	3a0e0301 	bcc	381358 <__bss_end__+0x377a78>
     750:	390b3b0b 	stmdbcc	fp, {r0, r1, r3, r8, r9, fp, ip, sp}
     754:	4919270b 	ldmdbmi	r9, {r0, r1, r3, r8, r9, sl, sp}
     758:	12011113 	andne	r1, r1, #-1073741820	; 0xc0000004
     75c:	97184006 	ldrls	r4, [r8, -r6]
     760:	13011942 	movwne	r1, #6466	; 0x1942
     764:	051f0000 	ldreq	r0, [pc, #-0]	; 76c <__code_start__-0x7894>
     768:	3a0e0300 	bcc	381370 <__bss_end__+0x377a90>
     76c:	390b3b0b 	stmdbcc	fp, {r0, r1, r3, r8, r9, fp, ip, sp}
     770:	0213490b 	andseq	r4, r3, #180224	; 0x2c000
     774:	1742b717 	smlaldne	fp, r2, r7, r7
     778:	2e200000 	cdpcs	0, 2, cr0, cr0, cr0, {0}
     77c:	3a080301 	bcc	201388 <__bss_end__+0x1f7aa8>
     780:	390b3b0b 	stmdbcc	fp, {r0, r1, r3, r8, r9, fp, ip, sp}
     784:	4919270b 	ldmdbmi	r9, {r0, r1, r3, r8, r9, sl, sp}
     788:	12011113 	andne	r1, r1, #-1073741820	; 0xc0000004
     78c:	97184006 	ldrls	r4, [r8, -r6]
     790:	13011942 	movwne	r1, #6466	; 0x1942
     794:	2e210000 	cdpcs	0, 2, cr0, cr1, cr0, {0}
     798:	03193f01 	tsteq	r9, #1, 30
     79c:	3b0b3a0e 	blcc	2cefdc <__bss_end__+0x2c56fc>
     7a0:	270b390b 	strcs	r3, [fp, -fp, lsl #18]
     7a4:	12011119 	andne	r1, r1, #1073741830	; 0x40000006
     7a8:	97184006 	ldrls	r4, [r8, -r6]
     7ac:	13011942 	movwne	r1, #6466	; 0x1942
     7b0:	2e220000 	cdpcs	0, 2, cr0, cr2, cr0, {0}
     7b4:	3c193f00 	ldccc	15, cr3, [r9], {-0}
     7b8:	030e6e19 	movweq	r6, #60953	; 0xee19
     7bc:	3b0b3a0e 	blcc	2ceffc <__bss_end__+0x2c571c>
     7c0:	000b390b 	andeq	r3, fp, fp, lsl #18
     7c4:	11010000 	mrsne	r0, (UNDEF: 1)
     7c8:	130e2501 	movwne	r2, #58625	; 0xe501
     7cc:	1b0e030b 	blne	381400 <__bss_end__+0x377b20>
     7d0:	1201110e 	andne	r1, r1, #-2147483645	; 0x80000003
     7d4:	00171006 	andseq	r1, r7, r6
     7d8:	00240200 	eoreq	r0, r4, r0, lsl #4
     7dc:	0b3e0b0b 	bleq	f83410 <__bss_end__+0xf79b30>
     7e0:	00000803 	andeq	r0, r0, r3, lsl #16
     7e4:	0b002403 	bleq	97f8 <buf.3928+0x31c>
     7e8:	030b3e0b 	movweq	r3, #48651	; 0xbe0b
     7ec:	0400000e 	streq	r0, [r0], #-14
     7f0:	19270115 	stmdbne	r7!, {r0, r2, r4, r8}
     7f4:	13011349 	movwne	r1, #4937	; 0x1349
     7f8:	05050000 	streq	r0, [r5, #-0]
     7fc:	00134900 	andseq	r4, r3, r0, lsl #18
     800:	00340600 	eorseq	r0, r4, r0, lsl #12
     804:	0b3a0e03 	bleq	e84018 <__bss_end__+0xe7a738>
     808:	0b390b3b 	bleq	e434fc <__bss_end__+0xe39c1c>
     80c:	193f1349 	ldmdbne	pc!, {r0, r3, r6, r8, r9, ip}	; <UNPREDICTABLE>
     810:	0000193c 	andeq	r1, r0, ip, lsr r9
     814:	0b000f07 	bleq	4438 <__code_start__-0x3bc8>
     818:	0013490b 	andseq	r4, r3, fp, lsl #18
     81c:	00260800 	eoreq	r0, r6, r0, lsl #16
     820:	00001349 	andeq	r1, r0, r9, asr #6
     824:	3f012e09 	svccc	0x00012e09
     828:	3a0e0319 	bcc	381494 <__bss_end__+0x377bb4>
     82c:	390b3b0b 	stmdbcc	fp, {r0, r1, r3, r8, r9, fp, ip, sp}
     830:	8719270b 	ldrhi	r2, [r9, -fp, lsl #14]
     834:	01111901 	tsteq	r1, r1, lsl #18
     838:	18400612 	stmdane	r0, {r1, r4, r9, sl}^
     83c:	01194297 			; <UNDEFINED> instruction: 0x01194297
     840:	0a000013 	beq	894 <__code_start__-0x776c>
     844:	01018289 	smlabbeq	r1, r9, r2, r8
     848:	13010111 	movwne	r0, #4369	; 0x1111
     84c:	8a0b0000 	bhi	2c0854 <__bss_end__+0x2b6f74>
     850:	02000182 	andeq	r0, r0, #-2147483616	; 0x80000020
     854:	18429118 	stmdane	r2, {r3, r4, r8, ip, pc}^
     858:	890c0000 	stmdbhi	ip, {}	; <UNPREDICTABLE>
     85c:	11000182 	smlabbne	r0, r2, r1, r0
     860:	00133101 	andseq	r3, r3, r1, lsl #2
     864:	82890d00 	addhi	r0, r9, #0, 26
     868:	01110101 	tsteq	r1, r1, lsl #2
     86c:	13011331 	movwne	r1, #4913	; 0x1331
     870:	2e0e0000 	cdpcs	0, 0, cr0, cr14, cr0, {0}
     874:	3c193f00 	ldccc	15, cr3, [r9], {-0}
     878:	030e6e19 	movweq	r6, #60953	; 0xee19
     87c:	3b0b3a0e 	blcc	2cf0bc <__bss_end__+0x2c57dc>
     880:	000b390b 	andeq	r3, fp, fp, lsl #18
     884:	11010000 	mrsne	r0, (UNDEF: 1)
     888:	130e2501 	movwne	r2, #58625	; 0xe501
     88c:	1b0e030b 	blne	3814c0 <__bss_end__+0x377be0>
     890:	1201110e 	andne	r1, r1, #-2147483645	; 0x80000003
     894:	00171006 	andseq	r1, r7, r6
     898:	00240200 	eoreq	r0, r4, r0, lsl #4
     89c:	0b3e0b0b 	bleq	f834d0 <__bss_end__+0xf79bf0>
     8a0:	00000803 	andeq	r0, r0, r3, lsl #16
     8a4:	0b002403 	bleq	98b8 <buf.3928+0x3dc>
     8a8:	030b3e0b 	movweq	r3, #48651	; 0xbe0b
     8ac:	0400000e 	streq	r0, [r0], #-14
     8b0:	19270115 	stmdbne	r7!, {r0, r2, r4, r8}
     8b4:	13011349 	movwne	r1, #4937	; 0x1349
     8b8:	05050000 	streq	r0, [r5, #-0]
     8bc:	00134900 	andseq	r4, r3, r0, lsl #18
     8c0:	00340600 	eorseq	r0, r4, r0, lsl #12
     8c4:	0b3a0e03 	bleq	e840d8 <__bss_end__+0xe7a7f8>
     8c8:	0b390b3b 	bleq	e435bc <__bss_end__+0xe39cdc>
     8cc:	193f1349 	ldmdbne	pc!, {r0, r3, r6, r8, r9, ip}	; <UNPREDICTABLE>
     8d0:	0000193c 	andeq	r1, r0, ip, lsr r9
     8d4:	0b000f07 	bleq	44f8 <__code_start__-0x3b08>
     8d8:	0013490b 	andseq	r4, r3, fp, lsl #18
     8dc:	00260800 	eoreq	r0, r6, r0, lsl #16
     8e0:	00001349 	andeq	r1, r0, r9, asr #6
     8e4:	3f012e09 	svccc	0x00012e09
     8e8:	3a0e0319 	bcc	381554 <__bss_end__+0x377c74>
     8ec:	390b3b0b 	stmdbcc	fp, {r0, r1, r3, r8, r9, fp, ip, sp}
     8f0:	1201110b 	andne	r1, r1, #-1073741822	; 0xc0000002
     8f4:	97184006 	ldrls	r4, [r8, -r6]
     8f8:	13011942 	movwne	r1, #6466	; 0x1942
     8fc:	2e0a0000 	cdpcs	0, 0, cr0, cr10, cr0, {0}
     900:	03193f00 	tsteq	r9, #0, 30
     904:	3b0b3a0e 	blcc	2cf144 <__bss_end__+0x2c5864>
     908:	270b390b 	strcs	r3, [fp, -fp, lsl #18]
     90c:	00193c19 	andseq	r3, r9, r9, lsl ip
     910:	00340b00 	eorseq	r0, r4, r0, lsl #22
     914:	0b3a0803 	bleq	e82928 <__bss_end__+0xe79048>
     918:	0b390b3b 	bleq	e4360c <__bss_end__+0xe39d2c>
     91c:	17021349 	strne	r1, [r2, -r9, asr #6]
     920:	001742b7 			; <UNDEFINED> instruction: 0x001742b7
     924:	00340c00 	eorseq	r0, r4, r0, lsl #24
     928:	0b3a0e03 	bleq	e8413c <__bss_end__+0xe7a85c>
     92c:	0b390b3b 	bleq	e43620 <__bss_end__+0xe39d40>
     930:	00001349 	andeq	r1, r0, r9, asr #6
     934:	0182890d 	orreq	r8, r2, sp, lsl #18
     938:	31011100 	mrscc	r1, (UNDEF: 17)
     93c:	0e000013 	mcreq	0, 0, r0, cr0, cr3, {0}
     940:	193f002e 	ldmdbne	pc!, {r1, r2, r3, r5}	; <UNPREDICTABLE>
     944:	0e6e193c 			; <UNDEFINED> instruction: 0x0e6e193c
     948:	0b3a0e03 	bleq	e8415c <__bss_end__+0xe7a87c>
     94c:	0b390b3b 	bleq	e43640 <__bss_end__+0xe39d60>
     950:	01000000 	mrseq	r0, (UNDEF: 0)
     954:	0e250111 	mcreq	1, 1, r0, cr5, cr1, {0}
     958:	0e030b13 	vmoveq.32	d3[0], r0
     95c:	17550e1b 	smmlane	r5, fp, lr, r0
     960:	17100111 			; <UNDEFINED> instruction: 0x17100111
     964:	24020000 	strcs	r0, [r2], #-0
     968:	3e0b0b00 	vmlacc.f64	d0, d11, d0
     96c:	0008030b 	andeq	r0, r8, fp, lsl #6
     970:	00260300 	eoreq	r0, r6, r0, lsl #6
     974:	00001349 	andeq	r1, r0, r9, asr #6
     978:	0b002404 	bleq	9990 <__bss_end__+0xb0>
     97c:	030b3e0b 	movweq	r3, #48651	; 0xbe0b
     980:	0500000e 	streq	r0, [r0, #-14]
     984:	19270115 	stmdbne	r7!, {r0, r2, r4, r8}
     988:	13011349 	movwne	r1, #4937	; 0x1349
     98c:	05060000 	streq	r0, [r6, #-0]
     990:	00134900 	andseq	r4, r3, r0, lsl #18
     994:	00340700 	eorseq	r0, r4, r0, lsl #14
     998:	0b3a0e03 	bleq	e841ac <__bss_end__+0xe7a8cc>
     99c:	0b390b3b 	bleq	e43690 <__bss_end__+0xe39db0>
     9a0:	193f1349 	ldmdbne	pc!, {r0, r3, r6, r8, r9, ip}	; <UNPREDICTABLE>
     9a4:	0000193c 	andeq	r1, r0, ip, lsr r9
     9a8:	0b000f08 	bleq	45d0 <__code_start__-0x3a30>
     9ac:	0013490b 	andseq	r4, r3, fp, lsl #18
     9b0:	00340900 	eorseq	r0, r4, r0, lsl #18
     9b4:	0b3a0e03 	bleq	e841c8 <__bss_end__+0xe7a8e8>
     9b8:	0b390b3b 	bleq	e436ac <__bss_end__+0xe39dcc>
     9bc:	00001349 	andeq	r1, r0, r9, asr #6
     9c0:	3f012e0a 	svccc	0x00012e0a
     9c4:	3a0e0319 	bcc	381630 <__bss_end__+0x377d50>
     9c8:	390b3b0b 	stmdbcc	fp, {r0, r1, r3, r8, r9, fp, ip, sp}
     9cc:	8719270b 	ldrhi	r2, [r9, -fp, lsl #14]
     9d0:	01111901 	tsteq	r1, r1, lsl #18
     9d4:	18400612 	stmdane	r0, {r1, r4, r9, sl}^
     9d8:	01194297 			; <UNDEFINED> instruction: 0x01194297
     9dc:	0b000013 	bleq	a30 <__code_start__-0x75d0>
     9e0:	0e030034 	mcreq	0, 0, r0, cr3, cr4, {1}
     9e4:	0b3b0b3a 	bleq	ec36d4 <__bss_end__+0xeb9df4>
     9e8:	13490b39 	movtne	r0, #39737	; 0x9b39
     9ec:	42b71702 	adcsmi	r1, r7, #524288	; 0x80000
     9f0:	0c000017 	stceq	0, cr0, [r0], {23}
     9f4:	00018289 	andeq	r8, r1, r9, lsl #5
     9f8:	13310111 	teqne	r1, #1073741828	; 0x40000004
     9fc:	890d0000 	stmdbhi	sp, {}	; <UNPREDICTABLE>
     a00:	11010182 	smlabbne	r1, r2, r1, r0
     a04:	01133101 	tsteq	r3, r1, lsl #2
     a08:	0e000013 	mcreq	0, 0, r0, cr0, cr3, {0}
     a0c:	0001828a 	andeq	r8, r1, sl, lsl #5
     a10:	42911802 	addsmi	r1, r1, #131072	; 0x20000
     a14:	0f000018 	svceq	0x00000018
     a18:	193f012e 	ldmdbne	pc!, {r1, r2, r3, r5, r8}	; <UNPREDICTABLE>
     a1c:	0b3a0e03 	bleq	e84230 <__bss_end__+0xe7a950>
     a20:	0b390b3b 	bleq	e43714 <__bss_end__+0xe39e34>
     a24:	01111927 	tsteq	r1, r7, lsr #18
     a28:	18400612 	stmdane	r0, {r1, r4, r9, sl}^
     a2c:	01194297 			; <UNDEFINED> instruction: 0x01194297
     a30:	10000013 	andne	r0, r0, r3, lsl r0
     a34:	193f012e 	ldmdbne	pc!, {r1, r2, r3, r5, r8}	; <UNPREDICTABLE>
     a38:	0b3a0e03 	bleq	e8424c <__bss_end__+0xe7a96c>
     a3c:	0b390b3b 	bleq	e43730 <__bss_end__+0xe39e50>
     a40:	13491927 	movtne	r1, #39207	; 0x9927
     a44:	06120111 			; <UNDEFINED> instruction: 0x06120111
     a48:	42971840 	addsmi	r1, r7, #64, 16	; 0x400000
     a4c:	00130119 	andseq	r0, r3, r9, lsl r1
     a50:	002e1100 	eoreq	r1, lr, r0, lsl #2
     a54:	193c193f 	ldmdbne	ip!, {r0, r1, r2, r3, r4, r5, r8, fp, ip}
     a58:	0e030e6e 	cdpeq	14, 0, cr0, cr3, cr14, {3}
     a5c:	0b3b0b3a 	bleq	ec374c <__bss_end__+0xeb9e6c>
     a60:	00000b39 	andeq	r0, r0, r9, lsr fp
     a64:	01110100 	tsteq	r1, r0, lsl #2
     a68:	0b130e25 	bleq	4c4304 <__bss_end__+0x4baa24>
     a6c:	0e1b0e03 	cdpeq	14, 1, cr0, cr11, cr3, {0}
     a70:	06120111 			; <UNDEFINED> instruction: 0x06120111
     a74:	00001710 	andeq	r1, r0, r0, lsl r7
     a78:	0b002402 	bleq	9a88 <__bss_end__+0x1a8>
     a7c:	030b3e0b 	movweq	r3, #48651	; 0xbe0b
     a80:	03000008 	movweq	r0, #8
     a84:	0b0b0024 	bleq	2c0b1c <__bss_end__+0x2b723c>
     a88:	0e030b3e 	vmoveq.16	d3[0], r0
     a8c:	15040000 	strne	r0, [r4, #-0]
     a90:	49192701 	ldmdbmi	r9, {r0, r8, r9, sl, sp}
     a94:	00130113 	andseq	r0, r3, r3, lsl r1
     a98:	00050500 	andeq	r0, r5, r0, lsl #10
     a9c:	00001349 	andeq	r1, r0, r9, asr #6
     aa0:	03003406 	movweq	r3, #1030	; 0x406
     aa4:	3b0b3a0e 	blcc	2cf2e4 <__bss_end__+0x2c5a04>
     aa8:	490b390b 	stmdbmi	fp, {r0, r1, r3, r8, fp, ip, sp}
     aac:	3c193f13 	ldccc	15, cr3, [r9], {19}
     ab0:	07000019 	smladeq	r0, r9, r0, r0
     ab4:	0b0b000f 	bleq	2c0af8 <__bss_end__+0x2b7218>
     ab8:	00001349 	andeq	r1, r0, r9, asr #6
     abc:	49002608 	stmdbmi	r0, {r3, r9, sl, sp}
     ac0:	09000013 	stmdbeq	r0, {r0, r1, r4}
     ac4:	193f012e 	ldmdbne	pc!, {r1, r2, r3, r5, r8}	; <UNPREDICTABLE>
     ac8:	0b3a0e03 	bleq	e842dc <__bss_end__+0xe7a9fc>
     acc:	0b390b3b 	bleq	e437c0 <__bss_end__+0xe39ee0>
     ad0:	01111927 	tsteq	r1, r7, lsr #18
     ad4:	18400612 	stmdane	r0, {r1, r4, r9, sl}^
     ad8:	01194297 			; <UNDEFINED> instruction: 0x01194297
     adc:	0a000013 	beq	b30 <__code_start__-0x74d0>
     ae0:	08030005 	stmdaeq	r3, {r0, r2}
     ae4:	0b3b0b3a 	bleq	ec37d4 <__bss_end__+0xeb9ef4>
     ae8:	13490b39 	movtne	r0, #39737	; 0x9b39
     aec:	42b71702 	adcsmi	r1, r7, #524288	; 0x80000
     af0:	0b000017 	bleq	b54 <__code_start__-0x74ac>
     af4:	01018289 	smlabbeq	r1, r9, r2, r8
     af8:	13310111 	teqne	r1, #1073741828	; 0x40000004
     afc:	8a0c0000 	bhi	300b04 <__bss_end__+0x2f7224>
     b00:	02000182 	andeq	r0, r0, #-2147483616	; 0x80000020
     b04:	18429118 	stmdane	r2, {r3, r4, r8, ip, pc}^
     b08:	340d0000 	strcc	r0, [sp], #-0
     b0c:	3a080300 	bcc	201714 <__bss_end__+0x1f7e34>
     b10:	390b3b0b 	stmdbcc	fp, {r0, r1, r3, r8, r9, fp, ip, sp}
     b14:	0213490b 	andseq	r4, r3, #180224	; 0x2c000
     b18:	1742b717 	smlaldne	fp, r2, r7, r7
     b1c:	0b0e0000 	bleq	380b24 <__bss_end__+0x377244>
     b20:	12011101 	andne	r1, r1, #1073741824	; 0x40000000
     b24:	00130106 	andseq	r0, r3, r6, lsl #2
     b28:	82890f00 	addhi	r0, r9, #0, 30
     b2c:	01110001 	tsteq	r1, r1
     b30:	00001331 	andeq	r1, r0, r1, lsr r3
     b34:	3f012e10 	svccc	0x00012e10
     b38:	3a0e0319 	bcc	3817a4 <__bss_end__+0x377ec4>
     b3c:	390b3b0b 	stmdbcc	fp, {r0, r1, r3, r8, r9, fp, ip, sp}
     b40:	4919270b 	ldmdbmi	r9, {r0, r1, r3, r8, r9, sl, sp}
     b44:	12011113 	andne	r1, r1, #-1073741820	; 0xc0000004
     b48:	97184006 	ldrls	r4, [r8, -r6]
     b4c:	13011942 	movwne	r1, #6466	; 0x1942
     b50:	2e110000 	cdpcs	0, 1, cr0, cr1, cr0, {0}
     b54:	3c193f00 	ldccc	15, cr3, [r9], {-0}
     b58:	030e6e19 	movweq	r6, #60953	; 0xee19
     b5c:	3b0b3a0e 	blcc	2cf39c <__bss_end__+0x2c5abc>
     b60:	000b390b 	andeq	r3, fp, fp, lsl #18
     b64:	11010000 	mrsne	r0, (UNDEF: 1)
     b68:	130e2501 	movwne	r2, #58625	; 0xe501
     b6c:	1b0e030b 	blne	3817a0 <__bss_end__+0x377ec0>
     b70:	1201110e 	andne	r1, r1, #-2147483645	; 0x80000003
     b74:	00171006 	andseq	r1, r7, r6
     b78:	00240200 	eoreq	r0, r4, r0, lsl #4
     b7c:	0b3e0b0b 	bleq	f837b0 <__bss_end__+0xf79ed0>
     b80:	00000803 	andeq	r0, r0, r3, lsl #16
     b84:	0b002403 	bleq	9b98 <__bss_end__+0x2b8>
     b88:	030b3e0b 	movweq	r3, #48651	; 0xbe0b
     b8c:	0400000e 	streq	r0, [r0], #-14
     b90:	13490035 	movtne	r0, #36917	; 0x9035
     b94:	16050000 	strne	r0, [r5], -r0
     b98:	3a0e0300 	bcc	3817a0 <__bss_end__+0x377ec0>
     b9c:	390b3b0b 	stmdbcc	fp, {r0, r1, r3, r8, r9, fp, ip, sp}
     ba0:	0013490b 	andseq	r4, r3, fp, lsl #18
     ba4:	01150600 	tsteq	r5, r0, lsl #12
     ba8:	13491927 	movtne	r1, #39207	; 0x9927
     bac:	00001301 	andeq	r1, r0, r1, lsl #6
     bb0:	49000507 	stmdbmi	r0, {r0, r1, r2, r8, sl}
     bb4:	08000013 	stmdaeq	r0, {r0, r1, r4}
     bb8:	0e030034 	mcreq	0, 0, r0, cr3, cr4, {1}
     bbc:	0b3b0b3a 	bleq	ec38ac <__bss_end__+0xeb9fcc>
     bc0:	13490b39 	movtne	r0, #39737	; 0x9b39
     bc4:	193c193f 	ldmdbne	ip!, {r0, r1, r2, r3, r4, r5, r8, fp, ip}
     bc8:	0f090000 	svceq	0x00090000
     bcc:	490b0b00 	stmdbmi	fp, {r8, r9, fp}
     bd0:	0a000013 	beq	c24 <__code_start__-0x73dc>
     bd4:	13490026 	movtne	r0, #36902	; 0x9026
     bd8:	040b0000 	streq	r0, [fp], #-0
     bdc:	0b0b3e01 	bleq	2d03e8 <__bss_end__+0x2c6b08>
     be0:	3a13490b 	bcc	4d3014 <__bss_end__+0x4c9734>
     be4:	390b3b0b 	stmdbcc	fp, {r0, r1, r3, r8, r9, fp, ip, sp}
     be8:	0013010b 	andseq	r0, r3, fp, lsl #2
     bec:	00280c00 	eoreq	r0, r8, r0, lsl #24
     bf0:	0b1c0e03 	bleq	704404 <__bss_end__+0x6fab24>
     bf4:	130d0000 	movwne	r0, #53248	; 0xd000
     bf8:	0b0e0301 	bleq	381804 <__bss_end__+0x377f24>
     bfc:	3b0b3a0b 	blcc	2cf430 <__bss_end__+0x2c5b50>
     c00:	010b390b 	tsteq	fp, fp, lsl #18
     c04:	0e000013 	mcreq	0, 0, r0, cr0, cr3, {0}
     c08:	0803000d 	stmdaeq	r3, {r0, r2, r3}
     c0c:	0b3b0b3a 	bleq	ec38fc <__bss_end__+0xeba01c>
     c10:	13490b39 	movtne	r0, #39737	; 0x9b39
     c14:	00000b38 	andeq	r0, r0, r8, lsr fp
     c18:	03000d0f 	movweq	r0, #3343	; 0xd0f
     c1c:	3b0b3a0e 	blcc	2cf45c <__bss_end__+0x2c5b7c>
     c20:	490b390b 	stmdbmi	fp, {r0, r1, r3, r8, fp, ip, sp}
     c24:	000b3813 	andeq	r3, fp, r3, lsl r8
     c28:	00341000 	eorseq	r1, r4, r0
     c2c:	0b3a0e03 	bleq	e84440 <__bss_end__+0xe7ab60>
     c30:	0b390b3b 	bleq	e43924 <__bss_end__+0xe3a044>
     c34:	061c1349 	ldreq	r1, [ip], -r9, asr #6
     c38:	2e110000 	cdpcs	0, 1, cr0, cr1, cr0, {0}
     c3c:	03193f01 	tsteq	r9, #1, 30
     c40:	3b0b3a0e 	blcc	2cf480 <__bss_end__+0x2c5ba0>
     c44:	270b390b 	strcs	r3, [fp, -fp, lsl #18]
     c48:	12011119 	andne	r1, r1, #1073741830	; 0x40000006
     c4c:	97184006 	ldrls	r4, [r8, -r6]
     c50:	13011942 	movwne	r1, #6466	; 0x1942
     c54:	89120000 	ldmdbhi	r2, {}	; <UNPREDICTABLE>
     c58:	11000182 	smlabbne	r0, r2, r1, r0
     c5c:	00133101 	andseq	r3, r3, r1, lsl #2
     c60:	012e1300 			; <UNDEFINED> instruction: 0x012e1300
     c64:	0e03193f 			; <UNDEFINED> instruction: 0x0e03193f
     c68:	0b3b0b3a 	bleq	ec3958 <__bss_end__+0xeba078>
     c6c:	19270b39 	stmdbne	r7!, {r0, r3, r4, r5, r8, r9, fp}
     c70:	01111349 	tsteq	r1, r9, asr #6
     c74:	18400612 	stmdane	r0, {r1, r4, r9, sl}^
     c78:	01194297 			; <UNDEFINED> instruction: 0x01194297
     c7c:	14000013 	strne	r0, [r0], #-19	; 0xffffffed
     c80:	01018289 	smlabbeq	r1, r9, r2, r8
     c84:	13310111 	teqne	r1, #1073741828	; 0x40000004
     c88:	8a150000 	bhi	540c90 <__bss_end__+0x5373b0>
     c8c:	02000182 	andeq	r0, r0, #-2147483616	; 0x80000020
     c90:	18429118 	stmdane	r2, {r3, r4, r8, ip, pc}^
     c94:	05160000 	ldreq	r0, [r6, #-0]
     c98:	3a080300 	bcc	2018a0 <__bss_end__+0x1f7fc0>
     c9c:	390b3b0b 	stmdbcc	fp, {r0, r1, r3, r8, r9, fp, ip, sp}
     ca0:	0213490b 	andseq	r4, r3, #180224	; 0x2c000
     ca4:	1742b717 	smlaldne	fp, r2, r7, r7
     ca8:	89170000 	ldmdbhi	r7, {}	; <UNPREDICTABLE>
     cac:	11010182 	smlabbne	r1, r2, r1, r0
     cb0:	01133101 	tsteq	r3, r1, lsl #2
     cb4:	18000013 	stmdane	r0, {r0, r1, r4}
     cb8:	08030034 	stmdaeq	r3, {r2, r4, r5}
     cbc:	0b3b0b3a 	bleq	ec39ac <__bss_end__+0xeba0cc>
     cc0:	13490b39 	movtne	r0, #39737	; 0x9b39
     cc4:	42b71702 	adcsmi	r1, r7, #524288	; 0x80000
     cc8:	19000017 	stmdbne	r0, {r0, r1, r2, r4}
     ccc:	0e030034 	mcreq	0, 0, r0, cr3, cr4, {1}
     cd0:	0b3b0b3a 	bleq	ec39c0 <__bss_end__+0xeba0e0>
     cd4:	13490b39 	movtne	r0, #39737	; 0x9b39
     cd8:	0000051c 	andeq	r0, r0, ip, lsl r5
     cdc:	03012e1a 	movweq	r2, #7706	; 0x1e1a
     ce0:	3b0b3a0e 	blcc	2cf520 <__bss_end__+0x2c5c40>
     ce4:	270b390b 	strcs	r3, [fp, -fp, lsl #18]
     ce8:	12011119 	andne	r1, r1, #1073741830	; 0x40000006
     cec:	97184006 	ldrls	r4, [r8, -r6]
     cf0:	13011942 	movwne	r1, #6466	; 0x1942
     cf4:	051b0000 	ldreq	r0, [fp, #-0]
     cf8:	3a0e0300 	bcc	381900 <__bss_end__+0x378020>
     cfc:	390b3b0b 	stmdbcc	fp, {r0, r1, r3, r8, r9, fp, ip, sp}
     d00:	0213490b 	andseq	r4, r3, #180224	; 0x2c000
     d04:	1742b717 	smlaldne	fp, r2, r7, r7
     d08:	351c0000 	ldrcc	r0, [ip, #-0]
     d0c:	1d000000 	stcne	0, cr0, [r0, #-0]
     d10:	193f002e 	ldmdbne	pc!, {r1, r2, r3, r5}	; <UNPREDICTABLE>
     d14:	0e6e193c 			; <UNDEFINED> instruction: 0x0e6e193c
     d18:	0b3a0e03 	bleq	e8452c <__bss_end__+0xe7ac4c>
     d1c:	0b390b3b 	bleq	e43a10 <__bss_end__+0xe3a130>
     d20:	01000000 	mrseq	r0, (UNDEF: 0)
     d24:	0e250111 	mcreq	1, 1, r0, cr5, cr1, {0}
     d28:	0e030b13 	vmoveq.32	d3[0], r0
     d2c:	01110e1b 	tsteq	r1, fp, lsl lr
     d30:	17100612 			; <UNDEFINED> instruction: 0x17100612
     d34:	24020000 	strcs	r0, [r2], #-0
     d38:	3e0b0b00 	vmlacc.f64	d0, d11, d0
     d3c:	0008030b 	andeq	r0, r8, fp, lsl #6
     d40:	00240300 	eoreq	r0, r4, r0, lsl #6
     d44:	0b3e0b0b 	bleq	f83978 <__bss_end__+0xf7a098>
     d48:	00000e03 	andeq	r0, r0, r3, lsl #28
     d4c:	49003504 	stmdbmi	r0, {r2, r8, sl, ip, sp}
     d50:	05000013 	streq	r0, [r0, #-19]	; 0xffffffed
     d54:	19270115 	stmdbne	r7!, {r0, r2, r4, r8}
     d58:	13011349 	movwne	r1, #4937	; 0x1349
     d5c:	05060000 	streq	r0, [r6, #-0]
     d60:	00134900 	andseq	r4, r3, r0, lsl #18
     d64:	00340700 	eorseq	r0, r4, r0, lsl #14
     d68:	0b3a0e03 	bleq	e8457c <__bss_end__+0xe7ac9c>
     d6c:	0b390b3b 	bleq	e43a60 <__bss_end__+0xe3a180>
     d70:	193f1349 	ldmdbne	pc!, {r0, r3, r6, r8, r9, ip}	; <UNPREDICTABLE>
     d74:	0000193c 	andeq	r1, r0, ip, lsr r9
     d78:	0b000f08 	bleq	49a0 <__code_start__-0x3660>
     d7c:	0013490b 	andseq	r4, r3, fp, lsl #18
     d80:	00260900 	eoreq	r0, r6, r0, lsl #18
     d84:	00001349 	andeq	r1, r0, r9, asr #6
     d88:	3e01040a 	cdpcc	4, 0, cr0, cr1, cr10, {0}
     d8c:	490b0b0b 	stmdbmi	fp, {r0, r1, r3, r8, r9, fp}
     d90:	3b0b3a13 	blcc	2cf5e4 <__bss_end__+0x2c5d04>
     d94:	010b390b 	tsteq	fp, fp, lsl #18
     d98:	0b000013 	bleq	dec <__code_start__-0x7214>
     d9c:	0e030028 	cdpeq	0, 0, cr0, cr3, cr8, {1}
     da0:	00000b1c 	andeq	r0, r0, ip, lsl fp
     da4:	0300160c 	movweq	r1, #1548	; 0x60c
     da8:	3b0b3a0e 	blcc	2cf5e8 <__bss_end__+0x2c5d08>
     dac:	490b390b 	stmdbmi	fp, {r0, r1, r3, r8, fp, ip, sp}
     db0:	0d000013 	stceq	0, cr0, [r0, #-76]	; 0xffffffb4
     db4:	0e030034 	mcreq	0, 0, r0, cr3, cr4, {1}
     db8:	0b3b0b3a 	bleq	ec3aa8 <__bss_end__+0xeba1c8>
     dbc:	13490b39 	movtne	r0, #39737	; 0x9b39
     dc0:	2e0e0000 	cdpcs	0, 0, cr0, cr14, cr0, {0}
     dc4:	03193f01 	tsteq	r9, #1, 30
     dc8:	3b0b3a0e 	blcc	2cf608 <__bss_end__+0x2c5d28>
     dcc:	270b390b 	strcs	r3, [fp, -fp, lsl #18]
     dd0:	12011119 	andne	r1, r1, #1073741830	; 0x40000006
     dd4:	97184006 	ldrls	r4, [r8, -r6]
     dd8:	13011942 	movwne	r1, #6466	; 0x1942
     ddc:	050f0000 	streq	r0, [pc, #-0]	; de4 <__code_start__-0x721c>
     de0:	3a080300 	bcc	2019e8 <__bss_end__+0x1f8108>
     de4:	390b3b0b 	stmdbcc	fp, {r0, r1, r3, r8, r9, fp, ip, sp}
     de8:	0213490b 	andseq	r4, r3, #180224	; 0x2c000
     dec:	1742b717 	smlaldne	fp, r2, r7, r7
     df0:	05100000 	ldreq	r0, [r0, #-0]
     df4:	3a0e0300 	bcc	3819fc <__bss_end__+0x37811c>
     df8:	390b3b0b 	stmdbcc	fp, {r0, r1, r3, r8, r9, fp, ip, sp}
     dfc:	0213490b 	andseq	r4, r3, #180224	; 0x2c000
     e00:	1742b717 	smlaldne	fp, r2, r7, r7
     e04:	34110000 	ldrcc	r0, [r1], #-0
     e08:	3a0e0300 	bcc	381a10 <__bss_end__+0x378130>
     e0c:	390b3b0b 	stmdbcc	fp, {r0, r1, r3, r8, r9, fp, ip, sp}
     e10:	0213490b 	andseq	r4, r3, #180224	; 0x2c000
     e14:	1742b717 	smlaldne	fp, r2, r7, r7
     e18:	89120000 	ldmdbhi	r2, {}	; <UNPREDICTABLE>
     e1c:	11010182 	smlabbne	r1, r2, r1, r0
     e20:	01133101 	tsteq	r3, r1, lsl #2
     e24:	13000013 	movwne	r0, #19
     e28:	0001828a 	andeq	r8, r1, sl, lsl #5
     e2c:	42911802 	addsmi	r1, r1, #131072	; 0x20000
     e30:	14000018 	strne	r0, [r0], #-24	; 0xffffffe8
     e34:	01018289 	smlabbeq	r1, r9, r2, r8
     e38:	13310111 	teqne	r1, #1073741828	; 0x40000004
     e3c:	2e150000 	cdpcs	0, 1, cr0, cr5, cr0, {0}
     e40:	03193f01 	tsteq	r9, #1, 30
     e44:	3b0b3a0e 	blcc	2cf684 <__bss_end__+0x2c5da4>
     e48:	270b390b 	strcs	r3, [fp, -fp, lsl #18]
     e4c:	11134919 	tstne	r3, r9, lsl r9
     e50:	40061201 	andmi	r1, r6, r1, lsl #4
     e54:	19429718 	stmdbne	r2, {r3, r4, r8, r9, sl, ip, pc}^
     e58:	00001301 	andeq	r1, r0, r1, lsl #6
     e5c:	03003416 	movweq	r3, #1046	; 0x416
     e60:	3b0b3a08 	blcc	2cf688 <__bss_end__+0x2c5da8>
     e64:	490b390b 	stmdbmi	fp, {r0, r1, r3, r8, fp, ip, sp}
     e68:	b7170213 			; <UNDEFINED> instruction: 0xb7170213
     e6c:	00001742 	andeq	r1, r0, r2, asr #14
     e70:	03003417 	movweq	r3, #1047	; 0x417
     e74:	3b0b3a0e 	blcc	2cf6b4 <__bss_end__+0x2c5dd4>
     e78:	490b390b 	stmdbmi	fp, {r0, r1, r3, r8, fp, ip, sp}
     e7c:	00061c13 	andeq	r1, r6, r3, lsl ip
     e80:	82891800 	addhi	r1, r9, #0, 16
     e84:	01110001 	tsteq	r1, r1
     e88:	00001331 	andeq	r1, r0, r1, lsr r3
     e8c:	3f002e19 	svccc	0x00002e19
     e90:	6e193c19 	mrcvs	12, 0, r3, cr9, cr9, {0}
     e94:	3a0e030e 	bcc	381ad4 <__bss_end__+0x3781f4>
     e98:	390b3b0b 	stmdbcc	fp, {r0, r1, r3, r8, r9, fp, ip, sp}
     e9c:	0000000b 	andeq	r0, r0, fp
     ea0:	25011101 	strcs	r1, [r1, #-257]	; 0xfffffeff
     ea4:	030b130e 	movweq	r1, #45838	; 0xb30e
     ea8:	110e1b0e 	tstne	lr, lr, lsl #22
     eac:	10061201 	andne	r1, r6, r1, lsl #4
     eb0:	02000017 	andeq	r0, r0, #23, 0
     eb4:	0b0b0024 	bleq	2c0f4c <__bss_end__+0x2b766c>
     eb8:	08030b3e 	stmdaeq	r3, {r1, r2, r3, r4, r5, r8, r9, fp}
     ebc:	24030000 	strcs	r0, [r3], #-0
     ec0:	3e0b0b00 	vmlacc.f64	d0, d11, d0
     ec4:	000e030b 	andeq	r0, lr, fp, lsl #6
     ec8:	01150400 	tsteq	r5, r0, lsl #8
     ecc:	13491927 	movtne	r1, #39207	; 0x9927
     ed0:	00001301 	andeq	r1, r0, r1, lsl #6
     ed4:	49000505 	stmdbmi	r0, {r0, r2, r8, sl}
     ed8:	06000013 			; <UNDEFINED> instruction: 0x06000013
     edc:	0e030034 	mcreq	0, 0, r0, cr3, cr4, {1}
     ee0:	0b3b0b3a 	bleq	ec3bd0 <__bss_end__+0xeba2f0>
     ee4:	13490b39 	movtne	r0, #39737	; 0x9b39
     ee8:	193c193f 	ldmdbne	ip!, {r0, r1, r2, r3, r4, r5, r8, fp, ip}
     eec:	0f070000 	svceq	0x00070000
     ef0:	490b0b00 	stmdbmi	fp, {r8, r9, fp}
     ef4:	08000013 	stmdaeq	r0, {r0, r1, r4}
     ef8:	13490026 	movtne	r0, #36902	; 0x9026
     efc:	2e090000 	cdpcs	0, 0, cr0, cr9, cr0, {0}
     f00:	03193f01 	tsteq	r9, #1, 30
     f04:	3b0b3a0e 	blcc	2cf744 <__bss_end__+0x2c5e64>
     f08:	270b390b 	strcs	r3, [fp, -fp, lsl #18]
     f0c:	11134919 	tstne	r3, r9, lsl r9
     f10:	40061201 	andmi	r1, r6, r1, lsl #4
     f14:	19429718 	stmdbne	r2, {r3, r4, r8, r9, sl, ip, pc}^
     f18:	00001301 	andeq	r1, r0, r1, lsl #6
     f1c:	0300050a 	movweq	r0, #1290	; 0x50a
     f20:	3b0b3a0e 	blcc	2cf760 <__bss_end__+0x2c5e80>
     f24:	490b390b 	stmdbmi	fp, {r0, r1, r3, r8, fp, ip, sp}
     f28:	00180213 	andseq	r0, r8, r3, lsl r2
     f2c:	00050b00 	andeq	r0, r5, r0, lsl #22
     f30:	0b3a0803 	bleq	e82f44 <__bss_end__+0xe79664>
     f34:	0b390b3b 	bleq	e43c28 <__bss_end__+0xe3a348>
     f38:	17021349 	strne	r1, [r2, -r9, asr #6]
     f3c:	001742b7 			; <UNDEFINED> instruction: 0x001742b7
     f40:	00340c00 	eorseq	r0, r4, r0, lsl #24
     f44:	0b3a0803 	bleq	e82f58 <__bss_end__+0xe79678>
     f48:	0b390b3b 	bleq	e43c3c <__bss_end__+0xe3a35c>
     f4c:	17021349 	strne	r1, [r2, -r9, asr #6]
     f50:	001742b7 			; <UNDEFINED> instruction: 0x001742b7
     f54:	11010000 	mrsne	r0, (UNDEF: 1)
     f58:	130e2501 	movwne	r2, #58625	; 0xe501
     f5c:	1b0e030b 	blne	381b90 <__bss_end__+0x3782b0>
     f60:	1201110e 	andne	r1, r1, #-2147483645	; 0x80000003
     f64:	00171006 	andseq	r1, r7, r6
     f68:	00240200 	eoreq	r0, r4, r0, lsl #4
     f6c:	0b3e0b0b 	bleq	f83ba0 <__bss_end__+0xf7a2c0>
     f70:	00000803 	andeq	r0, r0, r3, lsl #16
     f74:	0b002403 	bleq	9f88 <__bss_end__+0x6a8>
     f78:	030b3e0b 	movweq	r3, #48651	; 0xbe0b
     f7c:	0400000e 	streq	r0, [r0], #-14
     f80:	19270115 	stmdbne	r7!, {r0, r2, r4, r8}
     f84:	13011349 	movwne	r1, #4937	; 0x1349
     f88:	05050000 	streq	r0, [r5, #-0]
     f8c:	00134900 	andseq	r4, r3, r0, lsl #18
     f90:	00340600 	eorseq	r0, r4, r0, lsl #12
     f94:	0b3a0e03 	bleq	e847a8 <__bss_end__+0xe7aec8>
     f98:	0b390b3b 	bleq	e43c8c <__bss_end__+0xe3a3ac>
     f9c:	193f1349 	ldmdbne	pc!, {r0, r3, r6, r8, r9, ip}	; <UNPREDICTABLE>
     fa0:	0000193c 	andeq	r1, r0, ip, lsr r9
     fa4:	0b000f07 	bleq	4bc8 <__code_start__-0x3438>
     fa8:	0013490b 	andseq	r4, r3, fp, lsl #18
     fac:	00260800 	eoreq	r0, r6, r0, lsl #16
     fb0:	00001349 	andeq	r1, r0, r9, asr #6
     fb4:	3f012e09 	svccc	0x00012e09
     fb8:	3a0e0319 	bcc	381c24 <__bss_end__+0x378344>
     fbc:	390b3b0b 	stmdbcc	fp, {r0, r1, r3, r8, r9, fp, ip, sp}
     fc0:	4919270b 	ldmdbmi	r9, {r0, r1, r3, r8, r9, sl, sp}
     fc4:	12011113 	andne	r1, r1, #-1073741820	; 0xc0000004
     fc8:	97184006 	ldrls	r4, [r8, -r6]
     fcc:	00001942 	andeq	r1, r0, r2, asr #18
     fd0:	0300050a 	movweq	r0, #1290	; 0x50a
     fd4:	3b0b3a08 	blcc	2cf7fc <__bss_end__+0x2c5f1c>
     fd8:	490b390b 	stmdbmi	fp, {r0, r1, r3, r8, fp, ip, sp}
     fdc:	b7170213 			; <UNDEFINED> instruction: 0xb7170213
     fe0:	00001742 	andeq	r1, r0, r2, asr #14
     fe4:	01110100 	tsteq	r1, r0, lsl #2
     fe8:	0b130e25 	bleq	4c4884 <__bss_end__+0x4bafa4>
     fec:	0e1b0e03 	cdpeq	14, 1, cr0, cr11, cr3, {0}
     ff0:	06120111 			; <UNDEFINED> instruction: 0x06120111
     ff4:	00001710 	andeq	r1, r0, r0, lsl r7
     ff8:	0b002402 	bleq	a008 <__bss_end__+0x728>
     ffc:	030b3e0b 	movweq	r3, #48651	; 0xbe0b
    1000:	03000008 	movweq	r0, #8
    1004:	0b0b0024 	bleq	2c109c <__bss_end__+0x2b77bc>
    1008:	0e030b3e 	vmoveq.16	d3[0], r0
    100c:	15040000 	strne	r0, [r4, #-0]
    1010:	49192701 	ldmdbmi	r9, {r0, r8, r9, sl, sp}
    1014:	00130113 	andseq	r0, r3, r3, lsl r1
    1018:	00050500 	andeq	r0, r5, r0, lsl #10
    101c:	00001349 	andeq	r1, r0, r9, asr #6
    1020:	03003406 	movweq	r3, #1030	; 0x406
    1024:	3b0b3a0e 	blcc	2cf864 <__bss_end__+0x2c5f84>
    1028:	490b390b 	stmdbmi	fp, {r0, r1, r3, r8, fp, ip, sp}
    102c:	3c193f13 	ldccc	15, cr3, [r9], {19}
    1030:	07000019 	smladeq	r0, r9, r0, r0
    1034:	0b0b000f 	bleq	2c1078 <__bss_end__+0x2b7798>
    1038:	00001349 	andeq	r1, r0, r9, asr #6
    103c:	49002608 	stmdbmi	r0, {r3, r9, sl, sp}
    1040:	09000013 	stmdbeq	r0, {r0, r1, r4}
    1044:	193f012e 	ldmdbne	pc!, {r1, r2, r3, r5, r8}	; <UNPREDICTABLE>
    1048:	0b3a0e03 	bleq	e8485c <__bss_end__+0xe7af7c>
    104c:	0b390b3b 	bleq	e43d40 <__bss_end__+0xe3a460>
    1050:	13491927 	movtne	r1, #39207	; 0x9927
    1054:	06120111 			; <UNDEFINED> instruction: 0x06120111
    1058:	42971840 	addsmi	r1, r7, #64, 16	; 0x400000
    105c:	00130119 	andseq	r0, r3, r9, lsl r1
    1060:	00050a00 	andeq	r0, r5, r0, lsl #20
    1064:	0b3a0803 	bleq	e83078 <__bss_end__+0xe79798>
    1068:	0b390b3b 	bleq	e43d5c <__bss_end__+0xe3a47c>
    106c:	18021349 	stmdane	r2, {r0, r3, r6, r8, r9, ip}
    1070:	050b0000 	streq	r0, [fp, #-0]
    1074:	3a080300 	bcc	201c7c <__bss_end__+0x1f839c>
    1078:	390b3b0b 	stmdbcc	fp, {r0, r1, r3, r8, r9, fp, ip, sp}
    107c:	0213490b 	andseq	r4, r3, #180224	; 0x2c000
    1080:	1742b717 	smlaldne	fp, r2, r7, r7
    1084:	340c0000 	strcc	r0, [ip], #-0
    1088:	3a080300 	bcc	201c90 <__bss_end__+0x1f83b0>
    108c:	390b3b0b 	stmdbcc	fp, {r0, r1, r3, r8, r9, fp, ip, sp}
    1090:	0213490b 	andseq	r4, r3, #180224	; 0x2c000
    1094:	1742b717 	smlaldne	fp, r2, r7, r7
    1098:	01000000 	mrseq	r0, (UNDEF: 0)
    109c:	0e250111 	mcreq	1, 1, r0, cr5, cr1, {0}
    10a0:	0e030b13 	vmoveq.32	d3[0], r0
    10a4:	17550e1b 	smmlane	r5, fp, lr, r0
    10a8:	17100111 			; <UNDEFINED> instruction: 0x17100111
    10ac:	24020000 	strcs	r0, [r2], #-0
    10b0:	3e0b0b00 	vmlacc.f64	d0, d11, d0
    10b4:	0008030b 	andeq	r0, r8, fp, lsl #6
    10b8:	00160300 	andseq	r0, r6, r0, lsl #6
    10bc:	0b3a0e03 	bleq	e848d0 <__bss_end__+0xe7aff0>
    10c0:	0b390b3b 	bleq	e43db4 <__bss_end__+0xe3a4d4>
    10c4:	00001349 	andeq	r1, r0, r9, asr #6
    10c8:	0b002404 	bleq	a0e0 <__bss_end__+0x800>
    10cc:	030b3e0b 	movweq	r3, #48651	; 0xbe0b
    10d0:	0500000e 	streq	r0, [r0, #-14]
    10d4:	13490026 	movtne	r0, #36902	; 0x9026
    10d8:	15060000 	strne	r0, [r6, #-0]
    10dc:	49192701 	ldmdbmi	r9, {r0, r8, r9, sl, sp}
    10e0:	00130113 	andseq	r0, r3, r3, lsl r1
    10e4:	00050700 	andeq	r0, r5, r0, lsl #14
    10e8:	00001349 	andeq	r1, r0, r9, asr #6
    10ec:	03003408 	movweq	r3, #1032	; 0x408
    10f0:	3b0b3a0e 	blcc	2cf930 <__bss_end__+0x2c6050>
    10f4:	490b390b 	stmdbmi	fp, {r0, r1, r3, r8, fp, ip, sp}
    10f8:	3c193f13 	ldccc	15, cr3, [r9], {19}
    10fc:	09000019 	stmdbeq	r0, {r0, r3, r4}
    1100:	0b0b000f 	bleq	2c1144 <__bss_end__+0x2b7864>
    1104:	00001349 	andeq	r1, r0, r9, asr #6
    1108:	3f012e0a 	svccc	0x00012e0a
    110c:	3a0e0319 	bcc	381d78 <__bss_end__+0x378498>
    1110:	390b3b0b 	stmdbcc	fp, {r0, r1, r3, r8, r9, fp, ip, sp}
    1114:	4919270b 	ldmdbmi	r9, {r0, r1, r3, r8, r9, sl, sp}
    1118:	12011113 	andne	r1, r1, #-1073741820	; 0xc0000004
    111c:	97184006 	ldrls	r4, [r8, -r6]
    1120:	13011942 	movwne	r1, #6466	; 0x1942
    1124:	050b0000 	streq	r0, [fp, #-0]
    1128:	3a080300 	bcc	201d30 <__bss_end__+0x1f8450>
    112c:	390b3b0b 	stmdbcc	fp, {r0, r1, r3, r8, r9, fp, ip, sp}
    1130:	0213490b 	andseq	r4, r3, #180224	; 0x2c000
    1134:	1742b717 	smlaldne	fp, r2, r7, r7
    1138:	340c0000 	strcc	r0, [ip], #-0
    113c:	3a080300 	bcc	201d44 <__bss_end__+0x1f8464>
    1140:	390b3b0b 	stmdbcc	fp, {r0, r1, r3, r8, r9, fp, ip, sp}
    1144:	0213490b 	andseq	r4, r3, #180224	; 0x2c000
    1148:	1742b717 	smlaldne	fp, r2, r7, r7
    114c:	Address 0x000000000000114c is out of bounds.


Disassembly of section .debug_loc:

00000000 <.debug_loc>:
       0:	00000003 	andeq	r0, r0, r3
       4:	00000020 	andeq	r0, r0, r0, lsr #32
       8:	00000024 	andeq	r0, r0, r4, lsr #32
       c:	9f300002 	svcls	0x00300002
      10:	00000024 	andeq	r0, r0, r4, lsr #32
      14:	00000098 	muleq	r0, r8, r0
      18:	00550001 	subseq	r0, r5, r1
	...
      24:	3c000000 	stccc	0, cr0, [r0], {-0}
      28:	40000000 	andmi	r0, r0, r0
      2c:	01000000 	mrseq	r0, (UNDEF: 0)
      30:	00405000 	subeq	r5, r0, r0
      34:	00800000 	addeq	r0, r0, r0
      38:	00010000 	andeq	r0, r1, r0
      3c:	00000054 	andeq	r0, r0, r4, asr r0
	...
      4c:	28000000 	stmdacs	r0, {}	; <UNPREDICTABLE>
      50:	50000002 	andpl	r0, r0, r2
      54:	01000002 	tsteq	r0, r2
      58:	02505000 	subseq	r5, r0, #0, 0
      5c:	02600000 	rsbeq	r0, r0, #0, 0
      60:	00030000 	andeq	r0, r3, r0
      64:	609f7d70 	addsvs	r7, pc, r0, ror sp	; <UNPREDICTABLE>
      68:	6c000002 	stcvs	0, cr0, [r0], {2}
      6c:	04000002 	streq	r0, [r0], #-2
      70:	5001f300 	andpl	pc, r1, r0, lsl #6
      74:	00026c9f 	muleq	r2, pc, ip	; <UNPREDICTABLE>
      78:	00026f00 	andeq	r6, r2, r0, lsl #30
      7c:	50000100 	andpl	r0, r0, r0, lsl #2
      80:	0000026f 	andeq	r0, r0, pc, ror #4
      84:	000002ac 	andeq	r0, r0, ip, lsr #5
      88:	01f30004 	mvnseq	r0, r4
      8c:	00009f50 	andeq	r9, r0, r0, asr pc
      90:	00000000 	andeq	r0, r0, r0
      94:	00010000 	andeq	r0, r1, r0
      98:	0000024c 	andeq	r0, r0, ip, asr #4
      9c:	00000254 	andeq	r0, r0, r4, asr r2
      a0:	9f340002 	svcls	0x00340002
	...
      ac:	00000001 	andeq	r0, r0, r1
      b0:	0000024c 	andeq	r0, r0, ip, asr #4
      b4:	00000250 	andeq	r0, r0, r0, asr r2
      b8:	50500001 	subspl	r0, r0, r1
      bc:	54000002 	strpl	r0, [r0], #-2
      c0:	03000002 	movweq	r0, #2
      c4:	9f7d7000 	svcls	0x007d7000
	...
      d0:	01fc0001 	mvnseq	r0, r1
      d4:	02040000 	andeq	r0, r4, #0, 0
      d8:	00020000 	andeq	r0, r2, r0
      dc:	00009f34 	andeq	r9, r0, r4, lsr pc
	...
      f8:	00d00000 	sbcseq	r0, r0, r0
      fc:	010c0000 	mrseq	r0, (UNDEF: 12)
     100:	00010000 	andeq	r0, r1, r0
     104:	00010c50 	andeq	r0, r1, r0, asr ip
     108:	00012000 	andeq	r2, r1, r0
     10c:	f3000400 	vshl.u8	d0, d0, d0
     110:	209f5001 	addscs	r5, pc, r1
     114:	38000001 	stmdacc	r0, {r0}
     118:	01000001 	tsteq	r0, r1
     11c:	01385000 	teqeq	r8, r0
     120:	01400000 	mrseq	r0, (UNDEF: 64)
     124:	00040000 	andeq	r0, r4, r0
     128:	9f5001f3 	svcls	0x005001f3
     12c:	00000140 	andeq	r0, r0, r0, asr #2
     130:	00000143 	andeq	r0, r0, r3, asr #2
     134:	43500001 	cmpmi	r0, #1, 0
     138:	64000001 	strvs	r0, [r0], #-1
     13c:	04000001 	streq	r0, [r0], #-1
     140:	5001f300 	andpl	pc, r1, r0, lsl #6
     144:	0001649f 	muleq	r1, pc, r4	; <UNPREDICTABLE>
     148:	00016700 	andeq	r6, r1, r0, lsl #14
     14c:	50000100 	andpl	r0, r0, r0, lsl #2
     150:	00000167 	andeq	r0, r0, r7, ror #2
     154:	00000188 	andeq	r0, r0, r8, lsl #3
     158:	01f30004 	mvnseq	r0, r4
     15c:	01889f50 	orreq	r9, r8, r0, asr pc
     160:	018b0000 	orreq	r0, fp, r0
     164:	00010000 	andeq	r0, r1, r0
     168:	00018b50 	andeq	r8, r1, r0, asr fp
     16c:	0001dc00 	andeq	sp, r1, r0, lsl #24
     170:	f3000400 	vshl.u8	d0, d0, d0
     174:	009f5001 	addseq	r5, pc, r1
	...
     194:	0000d000 	andeq	sp, r0, r0
     198:	00011000 	andeq	r1, r1, r0
     19c:	51000100 	mrspl	r0, (UNDEF: 16)
     1a0:	00000110 	andeq	r0, r0, r0, lsl r1
     1a4:	00000118 	andeq	r0, r0, r8, lsl r1
     1a8:	01710003 	cmneq	r1, r3
     1ac:	0001189f 	muleq	r1, pc, r8	; <UNPREDICTABLE>
     1b0:	00012000 	andeq	r2, r1, r0
     1b4:	f3000400 	vshl.u8	d0, d0, d0
     1b8:	209f5101 	addscs	r5, pc, r1, lsl #2
     1bc:	34000001 	strcc	r0, [r0], #-1
     1c0:	01000001 	tsteq	r0, r1
     1c4:	01345100 	teqeq	r4, r0, lsl #2
     1c8:	01400000 	mrseq	r0, (UNDEF: 64)
     1cc:	00040000 	andeq	r0, r4, r0
     1d0:	9f5101f3 	svcls	0x005101f3
     1d4:	00000140 	andeq	r0, r0, r0, asr #2
     1d8:	00000143 	andeq	r0, r0, r3, asr #2
     1dc:	43510001 	cmpmi	r1, #1, 0
     1e0:	64000001 	strvs	r0, [r0], #-1
     1e4:	04000001 	streq	r0, [r0], #-1
     1e8:	5101f300 	mrspl	pc, SP_irq	; <UNPREDICTABLE>
     1ec:	0001649f 	muleq	r1, pc, r4	; <UNPREDICTABLE>
     1f0:	00016700 	andeq	r6, r1, r0, lsl #14
     1f4:	51000100 	mrspl	r0, (UNDEF: 16)
     1f8:	00000167 	andeq	r0, r0, r7, ror #2
     1fc:	00000188 	andeq	r0, r0, r8, lsl #3
     200:	01f30004 	mvnseq	r0, r4
     204:	01889f51 	orreq	r9, r8, r1, asr pc
     208:	018b0000 	orreq	r0, fp, r0
     20c:	00010000 	andeq	r0, r1, r0
     210:	00018b51 	andeq	r8, r1, r1, asr fp
     214:	0001dc00 	andeq	sp, r1, r0, lsl #24
     218:	f3000400 	vshl.u8	d0, d0, d0
     21c:	009f5101 	addseq	r5, pc, r1, lsl #2
     220:	00000000 	andeq	r0, r0, r0
     224:	03000000 	movweq	r0, #0
     228:	0000f000 	andeq	pc, r0, r0
     22c:	0000f400 	andeq	pc, r0, r0, lsl #8
     230:	51000100 	mrspl	r0, (UNDEF: 16)
	...
     23c:	010c0000 	mrseq	r0, (UNDEF: 12)
     240:	01100000 	tsteq	r0, r0
     244:	00010000 	andeq	r0, r1, r0
     248:	00000051 	andeq	r0, r0, r1, asr r0
     24c:	00000000 	andeq	r0, r0, r0
     250:	0c000000 	stceq	0, cr0, [r0], {-0}
     254:	10000001 	andne	r0, r0, r1
     258:	01000001 	tsteq	r0, r1
     25c:	00005000 	andeq	r5, r0, r0
	...
     27c:	00000024 	andeq	r0, r0, r4, lsr #32
     280:	24500001 	ldrbcs	r0, [r0], #-1
     284:	28000000 	stmdacs	r0, {}	; <UNPREDICTABLE>
     288:	03000000 	movweq	r0, #0
     28c:	9f7d7000 	svcls	0x007d7000
     290:	00000028 	andeq	r0, r0, r8, lsr #32
     294:	00000034 	andeq	r0, r0, r4, lsr r0
     298:	34530001 	ldrbcc	r0, [r3], #-1
     29c:	48000000 	stmdami	r0, {}	; <UNPREDICTABLE>
     2a0:	09000000 	stmdbeq	r0, {}	; <UNPREDICTABLE>
     2a4:	5001f300 	andpl	pc, r1, r0, lsl #6
     2a8:	fc090323 	stc2	3, cr0, [r9], {35}	; 0x23
     2ac:	00489f1a 	subeq	r9, r8, sl, lsl pc
     2b0:	00600000 	rsbeq	r0, r0, r0
     2b4:	00010000 	andeq	r0, r1, r0
     2b8:	00006050 	andeq	r6, r0, r0, asr r0
     2bc:	00006800 	andeq	r6, r0, r0, lsl #16
     2c0:	f3000400 	vshl.u8	d0, d0, d0
     2c4:	689f5001 	ldmvs	pc, {r0, ip, lr}	; <UNPREDICTABLE>
     2c8:	6b000000 	blvs	2d0 <__code_start__-0x7d30>
     2cc:	01000000 	mrseq	r0, (UNDEF: 0)
     2d0:	006b5000 	rsbeq	r5, fp, r0
     2d4:	008c0000 	addeq	r0, ip, r0
     2d8:	00040000 	andeq	r0, r4, r0
     2dc:	9f5001f3 	svcls	0x005001f3
     2e0:	0000008c 	andeq	r0, r0, ip, lsl #1
     2e4:	000000d0 	ldrdeq	r0, [r0], -r0	; <UNPREDICTABLE>
     2e8:	01f30009 	mvnseq	r0, r9
     2ec:	09032350 	stmdbeq	r3, {r4, r6, r8, r9, sp}
     2f0:	009f1afc 			; <UNDEFINED> instruction: 0x009f1afc
	...
     2fc:	30000000 	andcc	r0, r0, r0
     300:	48000000 	stmdami	r0, {}	; <UNPREDICTABLE>
     304:	01000000 	mrseq	r0, (UNDEF: 0)
     308:	008c5000 	addeq	r5, ip, r0
     30c:	00a40000 	adceq	r0, r4, r0
     310:	00010000 	andeq	r0, r1, r0
     314:	00000050 	andeq	r0, r0, r0, asr r0
     318:	00000000 	andeq	r0, r0, r0
     31c:	20000200 	andcs	r0, r0, r0, lsl #4
     320:	28000000 	stmdacs	r0, {}	; <UNPREDICTABLE>
     324:	02000000 	andeq	r0, r0, #0, 0
     328:	009f3400 	addseq	r3, pc, r0, lsl #8
     32c:	00000000 	andeq	r0, r0, r0
     330:	02000000 	andeq	r0, r0, #0, 0
     334:	20000000 	andcs	r0, r0, r0
     338:	24000000 	strcs	r0, [r0], #-0
     33c:	01000000 	mrseq	r0, (UNDEF: 0)
     340:	00245000 	eoreq	r5, r4, r0
     344:	00280000 	eoreq	r0, r8, r0
     348:	00030000 	andeq	r0, r3, r0
     34c:	009f7d70 	addseq	r7, pc, r0, ror sp	; <UNPREDICTABLE>
     350:	00000000 	andeq	r0, r0, r0
     354:	02000000 	andeq	r0, r0, #0, 0
     358:	00003804 	andeq	r3, r0, r4, lsl #16
     35c:	00003800 	andeq	r3, r0, r0, lsl #16
     360:	34000200 	strcc	r0, [r0], #-512	; 0xfffffe00
     364:	0000009f 	muleq	r0, pc, r0	; <UNPREDICTABLE>
     368:	00000000 	andeq	r0, r0, r0
     36c:	38040200 	stmdacc	r4, {r9}
     370:	38000000 	stmdacc	r0, {}	; <UNPREDICTABLE>
     374:	01000000 	mrseq	r0, (UNDEF: 0)
     378:	00005300 	andeq	r5, r0, r0, lsl #6
	...
     388:	0000002c 	andeq	r0, r0, ip, lsr #32
     38c:	00000038 	andeq	r0, r0, r8, lsr r0
     390:	38500001 	ldmdacc	r0, {r0}^
     394:	48000000 	stmdami	r0, {}	; <UNPREDICTABLE>
     398:	01000000 	mrseq	r0, (UNDEF: 0)
     39c:	00485400 	subeq	r5, r8, r0, lsl #8
     3a0:	00580000 	subseq	r0, r8, r0
     3a4:	00010000 	andeq	r0, r1, r0
     3a8:	00000050 	andeq	r0, r0, r0, asr r0
	...
     3b8:	00000b00 	andeq	r0, r0, r0, lsl #22
     3bc:	50000100 	andpl	r0, r0, r0, lsl #2
     3c0:	0000000b 	andeq	r0, r0, fp
     3c4:	00000014 	andeq	r0, r0, r4, lsl r0
     3c8:	00540001 	subseq	r0, r4, r1
	...
     3d4:	00000101 	andeq	r0, r0, r1, lsl #2
     3d8:	08000000 	stmdaeq	r0, {}	; <UNPREDICTABLE>
     3dc:	01000000 	mrseq	r0, (UNDEF: 0)
     3e0:	00085000 	andeq	r5, r8, r0
     3e4:	00340000 	eorseq	r0, r4, r0
     3e8:	00010000 	andeq	r0, r1, r0
     3ec:	00000054 	andeq	r0, r0, r4, asr r0
	...
     3f8:	88000000 	stmdahi	r0, {}	; <UNPREDICTABLE>
     3fc:	b8000002 	stmdalt	r0, {r1}
     400:	01000002 	tsteq	r0, r2
     404:	02b85000 	adcseq	r5, r8, #0, 0
     408:	06ec0000 	strbteq	r0, [ip], r0
     40c:	00010000 	andeq	r0, r1, r0
     410:	0006ec59 	andeq	lr, r6, r9, asr ip
     414:	00072000 	andeq	r2, r7, r0
     418:	f3000400 	vshl.u8	d0, d0, d0
     41c:	009f5001 	addseq	r5, pc, r1
	...
     42c:	00028800 	andeq	r8, r2, r0, lsl #16
     430:	0002a000 	andeq	sl, r2, r0
     434:	51000100 	mrspl	r0, (UNDEF: 16)
     438:	000002a0 	andeq	r0, r0, r0, lsr #5
     43c:	000002b8 			; <UNDEFINED> instruction: 0x000002b8
     440:	01710003 	cmneq	r1, r3
     444:	0002b89f 	muleq	r2, pc, r8	; <UNPREDICTABLE>
     448:	00072000 	andeq	r2, r7, r0
     44c:	f3000400 	vshl.u8	d0, d0, d0
     450:	009f5101 	addseq	r5, pc, r1, lsl #2
	...
     464:	88000000 	stmdahi	r0, {}	; <UNPREDICTABLE>
     468:	b8000002 	stmdalt	r0, {r1}
     46c:	01000002 	tsteq	r0, r2
     470:	02b85200 	adcseq	r5, r8, #0, 4
     474:	03ec0000 	mvneq	r0, #0, 0
     478:	00010000 	andeq	r0, r1, r0
     47c:	0003ec56 	andeq	lr, r3, r6, asr ip
     480:	0004a000 	andeq	sl, r4, r0
     484:	5b000100 	blpl	88c <__code_start__-0x7774>
     488:	000004a0 	andeq	r0, r0, r0, lsr #9
     48c:	000004c0 	andeq	r0, r0, r0, asr #9
     490:	c0560001 	subsgt	r0, r6, r1
     494:	44000004 	strmi	r0, [r0], #-4
     498:	01000005 	tsteq	r0, r5
     49c:	05445b00 	strbeq	r5, [r4, #-2816]	; 0xfffff500
     4a0:	06ec0000 	strbteq	r0, [ip], r0
     4a4:	00010000 	andeq	r0, r1, r0
     4a8:	00000056 	andeq	r0, r0, r6, asr r0
     4ac:	00000000 	andeq	r0, r0, r0
     4b0:	00000100 	andeq	r0, r0, r0, lsl #2
     4b4:	00000000 	andeq	r0, r0, r0
     4b8:	00000101 	andeq	r0, r0, r1, lsl #2
     4bc:	00000000 	andeq	r0, r0, r0
     4c0:	00000202 	andeq	r0, r0, r2, lsl #4
     4c4:	00029c00 	andeq	r9, r2, r0, lsl #24
     4c8:	0002b800 	andeq	fp, r2, r0, lsl #16
     4cc:	50000100 	andpl	r0, r0, r0, lsl #2
     4d0:	000002b8 			; <UNDEFINED> instruction: 0x000002b8
     4d4:	000002bc 			; <UNDEFINED> instruction: 0x000002bc
     4d8:	bc540001 	mrrclt	0, 0, r0, r4, cr1
     4dc:	c0000002 	andgt	r0, r0, r2
     4e0:	03000002 	movweq	r0, #2
     4e4:	9f017400 	svcls	0x00017400
     4e8:	000002c0 	andeq	r0, r0, r0, asr #5
     4ec:	000002e4 	andeq	r0, r0, r4, ror #5
     4f0:	e4540001 	ldrb	r0, [r4], #-1
     4f4:	e8000002 	stmda	r0, {r1}
     4f8:	03000002 	movweq	r0, #2
     4fc:	9f017400 	svcls	0x00017400
     500:	000002e8 	andeq	r0, r0, r8, ror #5
     504:	000006bc 			; <UNDEFINED> instruction: 0x000006bc
     508:	bc540001 	mrrclt	0, 0, r0, r4, cr1
     50c:	c0000006 	andgt	r0, r0, r6
     510:	03000006 	movweq	r0, #6
     514:	9f017400 	svcls	0x00017400
     518:	000006c0 	andeq	r0, r0, r0, asr #13
     51c:	000006d8 	ldrdeq	r0, [r0], -r8
     520:	d8540001 	ldmdale	r4, {r0}^
     524:	e0000006 	and	r0, r0, r6
     528:	03000006 	movweq	r0, #6
     52c:	9f017400 	svcls	0x00017400
     530:	000006e0 	andeq	r0, r0, r0, ror #13
     534:	000006ec 	andeq	r0, r0, ip, ror #13
     538:	00540001 	subseq	r0, r4, r1
	...
     544:	a4000000 	strge	r0, [r0], #-0
     548:	ec000002 	stc	0, cr0, [r0], {2}
     54c:	01000006 	tsteq	r0, r6
     550:	06ec5800 	strbteq	r5, [ip], r0, lsl #16
     554:	07200000 	streq	r0, [r0, -r0]!
     558:	000a0000 	andeq	r0, sl, r0
     55c:	f35101f3 	vbsl	q8, <illegal reg q8.5>, <illegal reg q9.5>
     560:	31225001 			; <UNDEFINED> instruction: 0x31225001
     564:	00009f1c 	andeq	r9, r0, ip, lsl pc
     568:	00000000 	andeq	r0, r0, r0
     56c:	00010000 	andeq	r0, r1, r0
     570:	00000000 	andeq	r0, r0, r0
     574:	00000408 	andeq	r0, r0, r8, lsl #8
     578:	0000045c 	andeq	r0, r0, ip, asr r4
     57c:	c0570001 	subsgt	r0, r7, r1
     580:	e4000004 	str	r0, [r0], #-4
     584:	01000004 	tsteq	r0, r4
     588:	05285700 	streq	r5, [r8, #-1792]!	; 0xfffff900
     58c:	05440000 	strbeq	r0, [r4, #-0]
     590:	00010000 	andeq	r0, r1, r0
     594:	00000057 	andeq	r0, r0, r7, asr r0
     598:	00000000 	andeq	r0, r0, r0
     59c:	00000100 	andeq	r0, r0, r0, lsl #2
     5a0:	0002ac00 	andeq	sl, r2, r0, lsl #24
     5a4:	0002b800 	andeq	fp, r2, r0, lsl #16
     5a8:	52000100 	andpl	r0, r0, #0
     5ac:	000002b8 			; <UNDEFINED> instruction: 0x000002b8
     5b0:	00000720 	andeq	r0, r0, r0, lsr #14
     5b4:	c8910003 	ldmgt	r1, {r0, r1}
     5b8:	0000007d 	andeq	r0, r0, sp, ror r0
	...
     5c8:	01010000 	mrseq	r0, (UNDEF: 1)
	...
     5d4:	5c000000 	stcpl	0, cr0, [r0], {-0}
     5d8:	74000004 	strvc	r0, [r0], #-4
     5dc:	01000004 	tsteq	r0, r4
     5e0:	04745000 	ldrbteq	r5, [r4], #-0
     5e4:	04a00000 	strteq	r0, [r0], #0
     5e8:	00010000 	andeq	r0, r1, r0
     5ec:	0004e457 	andeq	lr, r4, r7, asr r4
     5f0:	0004fc00 	andeq	pc, r4, r0, lsl #24
     5f4:	50000100 	andpl	r0, r0, r0, lsl #2
     5f8:	000004fc 	strdeq	r0, [r0], -ip
     5fc:	00000528 	andeq	r0, r0, r8, lsr #10
     600:	8c570001 	mrrchi	0, 0, r0, r7, cr1
     604:	8c000005 	stchi	0, cr0, [r0], {5}
     608:	01000005 	tsteq	r0, r5
     60c:	058c5000 	streq	r5, [ip]
     610:	05940000 	ldreq	r0, [r4]
     614:	00010000 	andeq	r0, r1, r0
     618:	0005c457 	andeq	ip, r5, r7, asr r4
     61c:	0005c800 	andeq	ip, r5, r0, lsl #16
     620:	50000100 	andpl	r0, r0, r0, lsl #2
     624:	000005f8 	strdeq	r0, [r0], -r8
     628:	000005fc 	strdeq	r0, [r0], -ip
     62c:	2c500001 	mrrccs	0, 0, r0, r0, cr1	; <UNPREDICTABLE>
     630:	30000006 	andcc	r0, r0, r6
     634:	01000006 	tsteq	r0, r6
     638:	06745000 	ldrbteq	r5, [r4], -r0
     63c:	06780000 	ldrbteq	r0, [r8], -r0
     640:	00010000 	andeq	r0, r1, r0
     644:	0006b850 	andeq	fp, r6, r0, asr r8
     648:	0006d800 	andeq	sp, r6, r0, lsl #16
     64c:	57000100 	strpl	r0, [r0, -r0, lsl #2]
	...
     658:	00000002 	andeq	r0, r0, r2
     65c:	02f40000 	rscseq	r0, r4, #0, 0
     660:	02f80000 	rscseq	r0, r8, #0, 0
     664:	00020000 	andeq	r0, r2, r0
     668:	02f89f30 	rscseq	r9, r8, #48, 30	; 0xc0
     66c:	03140000 	tsteq	r4, #0, 0
     670:	00010000 	andeq	r0, r1, r0
     674:	00031c55 	andeq	r1, r3, r5, asr ip
     678:	0006d800 	andeq	sp, r6, r0, lsl #16
     67c:	55000100 	strpl	r0, [r0, #-256]	; 0xffffff00
	...
     688:	00000001 	andeq	r0, r0, r1
     68c:	00000000 	andeq	r0, r0, r0
     690:	03b80000 			; <UNDEFINED> instruction: 0x03b80000
     694:	043c0000 	ldrteq	r0, [ip], #-0
     698:	00010000 	andeq	r0, r1, r0
     69c:	00043c56 	andeq	r3, r4, r6, asr ip
     6a0:	0004a000 	andeq	sl, r4, r0
     6a4:	7b000300 	blvc	12ac <__code_start__-0x6d54>
     6a8:	04a09f7e 	strteq	r9, [r0], #3966	; 0xf7e
     6ac:	04c40000 	strbeq	r0, [r4], #0
     6b0:	00010000 	andeq	r0, r1, r0
     6b4:	0004c456 	andeq	ip, r4, r6, asr r4
     6b8:	00052800 	andeq	r2, r5, r0, lsl #16
     6bc:	7b000300 	blvc	12c4 <__code_start__-0x6d3c>
     6c0:	05289f7e 	streq	r9, [r8, #-3966]!	; 0xfffff082
     6c4:	05440000 	strbeq	r0, [r4, #-0]
     6c8:	00010000 	andeq	r0, r1, r0
     6cc:	00000056 	andeq	r0, r0, r6, asr r0
	...
     6d8:	70000000 	andvc	r0, r0, r0
     6dc:	94000000 	strls	r0, [r0], #-0
     6e0:	01000000 	mrseq	r0, (UNDEF: 0)
     6e4:	00945000 	addseq	r5, r4, r0
     6e8:	00fc0000 	rscseq	r0, ip, r0
     6ec:	00030000 	andeq	r0, r3, r0
     6f0:	fc9f0270 	ldc2	2, cr0, [pc], {112}	; 0x70
     6f4:	24000000 	strcs	r0, [r0], #-0
     6f8:	04000002 	streq	r0, [r0], #-2
     6fc:	5001f300 	andpl	pc, r1, r0, lsl #6
     700:	0000009f 	muleq	r0, pc, r0	; <UNPREDICTABLE>
	...
     718:	00007000 	andeq	r7, r0, r0
     71c:	0000e000 	andeq	lr, r0, r0
     720:	51000100 	mrspl	r0, (UNDEF: 16)
     724:	000000e0 	andeq	r0, r0, r0, ror #1
     728:	00000154 	andeq	r0, r0, r4, asr r1
     72c:	54550001 	ldrbpl	r0, [r5], #-1
     730:	58000001 	stmdapl	r0, {r0}
     734:	01000001 	tsteq	r0, r1
     738:	01585100 	cmpeq	r8, r0, lsl #2
     73c:	01b00000 	movseq	r0, r0
     740:	00010000 	andeq	r0, r1, r0
     744:	0001b055 	andeq	fp, r1, r5, asr r0
     748:	0001c000 	andeq	ip, r1, r0
     74c:	51000100 	mrspl	r0, (UNDEF: 16)
     750:	000001c0 	andeq	r0, r0, r0, asr #3
     754:	000001e4 	andeq	r0, r0, r4, ror #3
     758:	e4550001 	ldrb	r0, [r5], #-1
     75c:	f8000001 			; <UNDEFINED> instruction: 0xf8000001
     760:	01000001 	tsteq	r0, r1
     764:	01f85100 	mvnseq	r5, r0, lsl #2
     768:	02240000 	eoreq	r0, r4, #0, 0
     76c:	00010000 	andeq	r0, r1, r0
     770:	00000055 	andeq	r0, r0, r5, asr r0
	...
     77c:	00007000 	andeq	r7, r0, r0
     780:	00008400 	andeq	r8, r0, r0, lsl #8
     784:	52000100 	andpl	r0, r0, #0
     788:	00000084 	andeq	r0, r0, r4, lsl #1
     78c:	00000224 	andeq	r0, r0, r4, lsr #4
     790:	00540001 	subseq	r0, r4, r1
	...
     7a0:	00000001 	andeq	r0, r0, r1
     7a4:	70000000 	andvc	r0, r0, r0
     7a8:	f4000000 	vst4.8	{d0-d3}, [r0], r0
     7ac:	01000000 	mrseq	r0, (UNDEF: 0)
     7b0:	014c5300 	mrseq	r5, SPSR_mon
     7b4:	01800000 	orreq	r0, r0, r0
     7b8:	00010000 	andeq	r0, r1, r0
     7bc:	00018053 	andeq	r8, r1, r3, asr r0
     7c0:	00018c00 	andeq	r8, r1, r0, lsl #24
     7c4:	f3000400 	vshl.u8	d0, d0, d0
     7c8:	b09f5301 	addslt	r5, pc, r1, lsl #6
     7cc:	e8000001 	stmda	r0, {r0}
     7d0:	01000001 	tsteq	r0, r1
     7d4:	01e85300 	mvneq	r5, r0, lsl #6
     7d8:	01ff0000 	mvnseq	r0, r0
     7dc:	00010000 	andeq	r0, r1, r0
     7e0:	0001ff5c 	andeq	pc, r1, ip, asr pc	; <UNPREDICTABLE>
     7e4:	00022400 	andeq	r2, r2, r0, lsl #8
     7e8:	f3000400 	vshl.u8	d0, d0, d0
     7ec:	009f5301 	addseq	r5, pc, r1, lsl #6
	...
     7fc:	00007000 	andeq	r7, r0, r0
     800:	00008c00 	andeq	r8, r0, r0, lsl #24
     804:	91000200 	mrsls	r0, R8_usr
     808:	00008c00 	andeq	r8, r0, r0, lsl #24
     80c:	00019300 	andeq	r9, r1, r0, lsl #6
     810:	52000100 	andpl	r0, r0, #0
     814:	000001b0 			; <UNDEFINED> instruction: 0x000001b0
     818:	000001f4 	strdeq	r0, [r0], -r4
     81c:	00520001 	subseq	r0, r2, r1
     820:	00000000 	andeq	r0, r0, r0
     824:	01000000 	mrseq	r0, (UNDEF: 0)
     828:	01010000 	mrseq	r0, (UNDEF: 1)
	...
     834:	01010101 	tsteq	r1, r1, lsl #2
     838:	01010000 	mrseq	r0, (UNDEF: 1)
	...
     844:	8c000000 	stchi	0, cr0, [r0], {-0}
     848:	fc000000 	stc2	0, cr0, [r0], {-0}
     84c:	04000000 	streq	r0, [r0], #-0
     850:	7fa09100 	svcvc	0x00a09100
     854:	0000fc9f 	muleq	r0, pc, ip	; <UNPREDICTABLE>
     858:	00013c00 	andeq	r3, r1, r0, lsl #24
     85c:	50000100 	andpl	r0, r0, r0, lsl #2
     860:	0000013c 	andeq	r0, r0, ip, lsr r1
     864:	00000148 	andeq	r0, r0, r8, asr #2
     868:	02710003 	rsbseq	r0, r1, #3, 0
     86c:	0001489f 	muleq	r1, pc, r8	; <UNPREDICTABLE>
     870:	00014c00 	andeq	r4, r1, r0, lsl #24
     874:	50000100 	andpl	r0, r0, r0, lsl #2
     878:	0000014c 	andeq	r0, r0, ip, asr #2
     87c:	00000158 	andeq	r0, r0, r8, asr r1
     880:	a0910004 	addsge	r0, r1, r4
     884:	01589f7f 	cmpeq	r8, pc, ror pc
     888:	016c0000 	cmneq	ip, r0
     88c:	00010000 	andeq	r0, r1, r0
     890:	00016c51 	andeq	r6, r1, r1, asr ip
     894:	00017800 	andeq	r7, r1, r0, lsl #16
     898:	71000300 	mrsvc	r0, LR_irq
     89c:	01789f7f 	cmneq	r8, pc, ror pc
     8a0:	01840000 	orreq	r0, r4, r0
     8a4:	00030000 	andeq	r0, r3, r0
     8a8:	849f0171 	ldrhi	r0, [pc], #369	; 8b0 <__code_start__-0x7750>
     8ac:	93000001 	movwls	r0, #1
     8b0:	01000001 	tsteq	r0, r1
     8b4:	01b05000 	movseq	r5, r0
     8b8:	01b00000 	movseq	r0, r0
     8bc:	00040000 	andeq	r0, r4, r0
     8c0:	9f7fa091 	svcls	0x007fa091
     8c4:	000001b0 			; <UNDEFINED> instruction: 0x000001b0
     8c8:	000001b8 			; <UNDEFINED> instruction: 0x000001b8
     8cc:	a1910004 	orrsge	r0, r1, r4
     8d0:	01b89f7f 			; <UNDEFINED> instruction: 0x01b89f7f
     8d4:	01bc0000 			; <UNDEFINED> instruction: 0x01bc0000
     8d8:	00010000 	andeq	r0, r1, r0
     8dc:	0001bc50 	andeq	fp, r1, r0, asr ip
     8e0:	0001c000 	andeq	ip, r1, r0
     8e4:	91000400 	tstls	r0, r0, lsl #8
     8e8:	c09f7fa0 	addsgt	r7, pc, r0, lsr #31
     8ec:	d4000001 	strle	r0, [r0], #-1
     8f0:	01000001 	tsteq	r0, r1
     8f4:	01d45000 	bicseq	r5, r4, r0
     8f8:	01e40000 	mvneq	r0, r0
     8fc:	00030000 	andeq	r0, r3, r0
     900:	e49f7f70 	ldr	r7, [pc], #3952	; 908 <__code_start__-0x76f8>
     904:	24000001 	strcs	r0, [r0], #-1
     908:	04000002 	streq	r0, [r0], #-2
     90c:	7fa09100 	svcvc	0x00a09100
     910:	0000009f 	muleq	r0, pc, r0	; <UNPREDICTABLE>
	...
     91c:	00000101 	andeq	r0, r0, r1, lsl #2
	...
     92c:	00009000 	andeq	r9, r0, r0
     930:	0000dc00 	andeq	sp, r0, r0, lsl #24
     934:	5c000100 	stfpls	f0, [r0], {-0}
     938:	000000dc 	ldrdeq	r0, [r0], -ip
     93c:	000000f4 	strdeq	r0, [r0], -r4
     940:	f4530001 			; <UNDEFINED> instruction: 0xf4530001
     944:	4c000000 	stcmi	0, cr0, [r0], {-0}
     948:	01000001 	tsteq	r0, r1
     94c:	014c5c00 	cmpeq	ip, r0, lsl #24
     950:	01580000 	cmpeq	r8, r0
     954:	00010000 	andeq	r0, r1, r0
     958:	00015853 	andeq	r5, r1, r3, asr r8
     95c:	00017400 	andeq	r7, r1, r0, lsl #8
     960:	5c000100 	stfpls	f0, [r0], {-0}
     964:	000001b0 			; <UNDEFINED> instruction: 0x000001b0
     968:	000001c0 	andeq	r0, r0, r0, asr #3
     96c:	c0530001 	subsgt	r0, r3, r1
     970:	dc000001 	stcle	0, cr0, [r0], {1}
     974:	01000001 	tsteq	r0, r1
     978:	01e45c00 	mvneq	r5, r0, lsl #24
     97c:	01e80000 	mvneq	r0, r0
     980:	00010000 	andeq	r0, r1, r0
     984:	0001e853 	andeq	lr, r1, r3, asr r8
     988:	0001ff00 	andeq	pc, r1, r0, lsl #30
     98c:	5c000100 	stfpls	f0, [r0], {-0}
     990:	000001ff 	strdeq	r0, [r0], -pc	; <UNPREDICTABLE>
     994:	00000224 	andeq	r0, r0, r4, lsr #4
     998:	01f30004 	mvnseq	r0, r4
     99c:	00009f53 	andeq	r9, r0, r3, asr pc
     9a0:	00000000 	andeq	r0, r0, r0
     9a4:	01010000 	mrseq	r0, (UNDEF: 1)
     9a8:	00000001 	andeq	r0, r0, r1
     9ac:	00dc0000 	sbcseq	r0, ip, r0
     9b0:	00f00000 	rscseq	r0, r0, r0
     9b4:	00020000 	andeq	r0, r2, r0
     9b8:	00f09f30 	rscseq	r9, r0, r0, lsr pc
     9bc:	00f80000 	rscseq	r0, r8, r0
     9c0:	00020000 	andeq	r0, r2, r0
     9c4:	00fc9f31 	rscseq	r9, ip, r1, lsr pc
     9c8:	014c0000 	mrseq	r0, (UNDEF: 76)
     9cc:	00010000 	andeq	r0, r1, r0
     9d0:	00014c56 	andeq	r4, r1, r6, asr ip
     9d4:	00015400 	andeq	r5, r1, r0, lsl #8
     9d8:	30000200 	andcc	r0, r0, r0, lsl #4
     9dc:	0000009f 	muleq	r0, pc, r0	; <UNPREDICTABLE>
	...
     9e8:	00000101 	andeq	r0, r0, r1, lsl #2
     9ec:	38000101 	stmdacc	r0, {r0, r8}
     9f0:	54000000 	strpl	r0, [r0], #-0
     9f4:	01000000 	mrseq	r0, (UNDEF: 0)
     9f8:	00545000 	subseq	r5, r4, r0
     9fc:	00580000 	subseq	r0, r8, r0
     a00:	00010000 	andeq	r0, r1, r0
     a04:	00005852 	andeq	r5, r0, r2, asr r8
     a08:	00006000 	andeq	r6, r0, r0
     a0c:	72000300 	andvc	r0, r0, #0, 6
     a10:	00609f01 	rsbeq	r9, r0, r1, lsl #30
     a14:	00640000 	rsbeq	r0, r4, r0
     a18:	00010000 	andeq	r0, r1, r0
     a1c:	00006452 	andeq	r6, r0, r2, asr r4
     a20:	00007000 	andeq	r7, r0, r0
     a24:	72000300 	andvc	r0, r0, #0, 6
     a28:	00009f01 	andeq	r9, r0, r1, lsl #30
	...
     a34:	00380000 	eorseq	r0, r8, r0
     a38:	00500000 	subseq	r0, r0, r0
     a3c:	00010000 	andeq	r0, r1, r0
     a40:	00005051 	andeq	r5, r0, r1, asr r0
     a44:	00007000 	andeq	r7, r0, r0
     a48:	f3000400 	vshl.u8	d0, d0, d0
     a4c:	009f5101 	addseq	r5, pc, r1, lsl #2
	...
     a5c:	38000101 	stmdacc	r0, {r0, r8}
     a60:	50000000 	andpl	r0, r0, r0
     a64:	01000000 	mrseq	r0, (UNDEF: 0)
     a68:	00505200 	subseq	r5, r0, r0, lsl #4
     a6c:	005c0000 	subseq	r0, ip, r0
     a70:	00010000 	andeq	r0, r1, r0
     a74:	00005c51 	andeq	r5, r0, r1, asr ip
     a78:	00006000 	andeq	r6, r0, r0
     a7c:	71000300 	mrsvc	r0, LR_irq
     a80:	00609f01 	rsbeq	r9, r0, r1, lsl #30
     a84:	00700000 	rsbseq	r0, r0, r0
     a88:	00010000 	andeq	r0, r1, r0
     a8c:	00000051 	andeq	r0, r0, r1, asr r0
	...
     a98:	00003800 	andeq	r3, r0, r0, lsl #16
     a9c:	00004c00 	andeq	r4, r0, r0, lsl #24
     aa0:	53000100 	movwpl	r0, #256	; 0x100
     aa4:	0000004c 	andeq	r0, r0, ip, asr #32
     aa8:	00000068 	andeq	r0, r0, r8, rrx
     aac:	00530001 	subseq	r0, r3, r1
	...
     abc:	40000000 	andmi	r0, r0, r0
     ac0:	48000000 	stmdami	r0, {}	; <UNPREDICTABLE>
     ac4:	01000000 	mrseq	r0, (UNDEF: 0)
     ac8:	00485c00 	subeq	r5, r8, r0, lsl #24
     acc:	004c0000 	subeq	r0, ip, r0
     ad0:	00080000 	andeq	r0, r8, r0
     ad4:	00730072 	rsbseq	r0, r3, r2, ror r0
     ad8:	9f01231c 	svcls	0x0001231c
     adc:	0000004c 	andeq	r0, r0, ip, asr #32
     ae0:	00000054 	andeq	r0, r0, r4, asr r0
     ae4:	00720009 	rsbseq	r0, r2, r9
     ae8:	1c5301f3 	ldfnee	f0, [r3], {243}	; 0xf3
     aec:	549f0123 	ldrpl	r0, [pc], #291	; af4 <__code_start__-0x750c>
     af0:	70000000 	andvc	r0, r0, r0
     af4:	0a000000 	beq	afc <__code_start__-0x7504>
     af8:	5201f300 	andpl	pc, r1, #0, 6
     afc:	1c5301f3 	ldfnee	f0, [r3], {243}	; 0xf3
     b00:	009f0123 	addseq	r0, pc, r3, lsr #2
     b04:	00000000 	andeq	r0, r0, r0
     b08:	01000000 	mrseq	r0, (UNDEF: 0)
     b0c:	00004c00 	andeq	r4, r0, r0, lsl #24
     b10:	00007000 	andeq	r7, r0, r0
     b14:	50000100 	andpl	r0, r0, r0, lsl #2
	...
     b20:	00010100 	andeq	r0, r1, r0, lsl #2
     b24:	00140000 	andseq	r0, r4, r0
     b28:	001c0000 	andseq	r0, ip, r0
     b2c:	00010000 	andeq	r0, r1, r0
     b30:	00001c50 	andeq	r1, r0, r0, asr ip
     b34:	00002400 	andeq	r2, r0, r0, lsl #8
     b38:	70000300 	andvc	r0, r0, r0, lsl #6
     b3c:	00249f01 	eoreq	r9, r4, r1, lsl #30
     b40:	00380000 	eorseq	r0, r8, r0
     b44:	00010000 	andeq	r0, r1, r0
     b48:	00000050 	andeq	r0, r0, r0, asr r0
	...
     b54:	00001400 	andeq	r1, r0, r0, lsl #8
     b58:	00001800 	andeq	r1, r0, r0, lsl #16
     b5c:	51000100 	mrspl	r0, (UNDEF: 16)
     b60:	00000018 	andeq	r0, r0, r8, lsl r0
     b64:	00000038 	andeq	r0, r0, r8, lsr r0
     b68:	01f30004 	mvnseq	r0, r4
     b6c:	00009f51 	andeq	r9, r0, r1, asr pc
	...
     b78:	00000018 	andeq	r0, r0, r8, lsl r0
     b7c:	00000038 	andeq	r0, r0, r8, lsr r0
     b80:	00510001 	subseq	r0, r1, r1
	...
     b94:	00000400 	andeq	r0, r0, r0, lsl #8
     b98:	50000100 	andpl	r0, r0, r0, lsl #2
     b9c:	00000004 	andeq	r0, r0, r4
     ba0:	0000000c 	andeq	r0, r0, ip
     ba4:	30700003 	rsbscc	r0, r0, r3
     ba8:	00000c9f 	muleq	r0, pc, ip	; <UNPREDICTABLE>
     bac:	00001400 	andeq	r1, r0, r0, lsl #8
     bb0:	f3000400 	vshl.u8	d0, d0, d0
     bb4:	009f5001 	addseq	r5, pc, r1
	...
     bc0:	24000000 	strcs	r0, [r0], #-0
     bc4:	68000002 	stmdavs	r0, {r1}
     bc8:	01000002 	tsteq	r0, r2
     bcc:	02685000 	rsbeq	r5, r8, #0, 0
     bd0:	02880000 	addeq	r0, r8, #0, 0
     bd4:	00040000 	andeq	r0, r4, r0
     bd8:	9f5001f3 	svcls	0x005001f3
	...
     be8:	00000224 	andeq	r0, r0, r4, lsr #4
     bec:	00000264 	andeq	r0, r0, r4, ror #4
     bf0:	64510001 	ldrbvs	r0, [r1], #-1
     bf4:	88000002 	stmdahi	r0, {r1}
     bf8:	04000002 	streq	r0, [r0], #-2
     bfc:	5101f300 	mrspl	pc, SP_irq	; <UNPREDICTABLE>
     c00:	0000009f 	muleq	r0, pc, r0	; <UNPREDICTABLE>
     c04:	00000000 	andeq	r0, r0, r0
     c08:	01010000 	mrseq	r0, (UNDEF: 1)
     c0c:	08000000 	stmdaeq	r0, {}	; <UNPREDICTABLE>
     c10:	10000000 	andne	r0, r0, r0
     c14:	01000000 	mrseq	r0, (UNDEF: 0)
     c18:	00105300 	andseq	r5, r0, r0, lsl #6
     c1c:	00180000 	andseq	r0, r8, r0
     c20:	00030000 	andeq	r0, r3, r0
     c24:	189f0473 	ldmne	pc, {r0, r1, r4, r5, r6, sl}	; <UNPREDICTABLE>
     c28:	1f000000 	svcne	0x00000000
     c2c:	01000000 	mrseq	r0, (UNDEF: 0)
     c30:	00005300 	andeq	r5, r0, r0, lsl #6
     c34:	00000000 	andeq	r0, r0, r0
     c38:	00010000 	andeq	r0, r1, r0
     c3c:	00008c5c 	andeq	r8, r0, ip, asr ip
     c40:	00008c78 	andeq	r8, r0, r8, ror ip
     c44:	1c0c0006 	stcne	0, cr0, [ip], {6}
     c48:	9f201000 	svcls	0x00201000
	...
     c54:	8c5c0002 	mrrchi	0, 0, r0, ip, cr2
     c58:	8c780000 	ldclhi	0, cr0, [r8], #-0
     c5c:	00060000 	andeq	r0, r6, r0
     c60:	1000240c 	andne	r2, r0, ip, lsl #8
     c64:	00009f20 	andeq	r9, r0, r0, lsr #30
     c68:	00000000 	andeq	r0, r0, r0
     c6c:	00030000 	andeq	r0, r3, r0
     c70:	00008c5c 	andeq	r8, r0, ip, asr ip
     c74:	00008c78 	andeq	r8, r0, r8, ror ip
     c78:	b4080005 	strlt	r0, [r8], #-5
     c7c:	009f2447 	addseq	r2, pc, r7, asr #8
     c80:	00000000 	andeq	r0, r0, r0
     c84:	04000000 	streq	r0, [r0], #-0
     c88:	008c5c00 	addeq	r5, ip, r0, lsl #24
     c8c:	008c7800 	addeq	r7, ip, r0, lsl #16
     c90:	08000300 	stmdaeq	r0, {r8, r9}
     c94:	00009f20 	andeq	r9, r0, r0, lsr #30
     c98:	00000000 	andeq	r0, r0, r0
     c9c:	00020000 	andeq	r0, r2, r0
     ca0:	00000000 	andeq	r0, r0, r0
     ca4:	00008c2c 	andeq	r8, r0, ip, lsr #24
     ca8:	00008c30 	andeq	r8, r0, r0, lsr ip
     cac:	9f300002 	svcls	0x00300002
     cb0:	00008c30 	andeq	r8, r0, r0, lsr ip
     cb4:	00008c34 	andeq	r8, r0, r4, lsr ip
     cb8:	38530001 	ldmdacc	r3, {r0}^
     cbc:	4000008c 	andmi	r0, r0, ip, lsl #1
     cc0:	0100008c 	smlabbeq	r0, ip, r0, r0
     cc4:	00005300 	andeq	r5, r0, r0, lsl #6
     cc8:	00000000 	andeq	r0, r0, r0
     ccc:	00020000 	andeq	r0, r2, r0
     cd0:	8c140000 	ldchi	0, cr0, [r4], {-0}
     cd4:	8c180000 	ldchi	0, cr0, [r8], {-0}
     cd8:	00020000 	andeq	r0, r2, r0
     cdc:	8c189f30 	ldchi	15, cr9, [r8], {48}	; 0x30
     ce0:	8c1c0000 	ldchi	0, cr0, [ip], {-0}
     ce4:	00010000 	andeq	r0, r1, r0
     ce8:	00000050 	andeq	r0, r0, r0, asr r0
	...
     cf4:	00006c00 	andeq	r6, r0, r0, lsl #24
     cf8:	00007800 	andeq	r7, r0, r0, lsl #16
     cfc:	50000100 	andpl	r0, r0, r0, lsl #2
     d00:	00000078 	andeq	r0, r0, r8, ror r0
     d04:	00000084 	andeq	r0, r0, r4, lsl #1
     d08:	01f30004 	mvnseq	r0, r4
     d0c:	00009f50 	andeq	r9, r0, r0, asr pc
	...
     d18:	00540000 	subseq	r0, r4, r0
     d1c:	00600000 	rsbeq	r0, r0, r0
     d20:	00010000 	andeq	r0, r1, r0
     d24:	00006050 	andeq	r6, r0, r0, asr r0
     d28:	00006c00 	andeq	r6, r0, r0, lsl #24
     d2c:	f3000400 	vshl.u8	d0, d0, d0
     d30:	009f5001 	addseq	r5, pc, r1
	...
     d3c:	30000000 	andcc	r0, r0, r0
     d40:	3b000000 	blcc	d48 <__code_start__-0x72b8>
     d44:	01000000 	mrseq	r0, (UNDEF: 0)
     d48:	003b5000 	eorseq	r5, fp, r0
     d4c:	00540000 	subseq	r0, r4, r0
     d50:	00010000 	andeq	r0, r1, r0
     d54:	00000055 	andeq	r0, r0, r5, asr r0
     d58:	00000000 	andeq	r0, r0, r0
     d5c:	40000000 	andmi	r0, r0, r0
     d60:	54000000 	strpl	r0, [r0], #-0
     d64:	01000000 	mrseq	r0, (UNDEF: 0)
     d68:	00005400 	andeq	r5, r0, r0, lsl #8
	...
     d74:	00000044 	andeq	r0, r0, r4, asr #32
     d78:	00000048 	andeq	r0, r0, r8, asr #32
     d7c:	00500001 	subseq	r0, r0, r1
	...
     d88:	24000000 	strcs	r0, [r0], #-0
     d8c:	27000000 	strcs	r0, [r0, -r0]
     d90:	01000000 	mrseq	r0, (UNDEF: 0)
     d94:	00275000 	eoreq	r5, r7, r0
     d98:	00300000 	eorseq	r0, r0, r0
     d9c:	00010000 	andeq	r0, r1, r0
     da0:	00000054 	andeq	r0, r0, r4, asr r0
	...
     dac:	00013800 	andeq	r3, r1, r0, lsl #16
     db0:	00014300 	andeq	r4, r1, r0, lsl #6
     db4:	50000100 	andpl	r0, r0, r0, lsl #2
     db8:	00000143 	andeq	r0, r0, r3, asr #2
     dbc:	00000168 	andeq	r0, r0, r8, ror #2
     dc0:	00540001 	subseq	r0, r4, r1
	...
     dcc:	00012800 	andeq	r2, r1, r0, lsl #16
     dd0:	00013800 	andeq	r3, r1, r0, lsl #16
     dd4:	54000100 	strpl	r0, [r0], #-256	; 0xffffff00
	...
     de8:	0000000f 	andeq	r0, r0, pc
     dec:	0f500001 	svceq	0x00500001
     df0:	20000000 	andcs	r0, r0, r0
     df4:	01000000 	mrseq	r0, (UNDEF: 0)
     df8:	00005400 	andeq	r5, r0, r0, lsl #8
	...
     e08:	000f0000 	andeq	r0, pc, r0
     e0c:	00010000 	andeq	r0, r1, r0
     e10:	00000f51 	andeq	r0, r0, r1, asr pc
     e14:	00002000 	andeq	r2, r0, r0
     e18:	55000100 	strpl	r0, [r0, #-256]	; 0xffffff00
	...
     e28:	014c0000 	mrseq	r0, (UNDEF: 76)
     e2c:	01800000 	orreq	r0, r0, r0
     e30:	00010000 	andeq	r0, r1, r0
     e34:	00018050 	andeq	r8, r1, r0, asr r0
     e38:	00018c00 	andeq	r8, r1, r0, lsl #24
     e3c:	54000100 	strpl	r0, [r0], #-256	; 0xffffff00
     e40:	0000018c 	andeq	r0, r0, ip, lsl #3
     e44:	000001ac 	andeq	r0, r0, ip, lsr #3
     e48:	01f30004 	mvnseq	r0, r4
     e4c:	00009f50 	andeq	r9, r0, r0, asr pc
	...
     e58:	014c0000 	mrseq	r0, (UNDEF: 76)
     e5c:	01830000 	orreq	r0, r3, r0
     e60:	00010000 	andeq	r0, r1, r0
     e64:	00018351 	andeq	r8, r1, r1, asr r3
     e68:	0001ac00 	andeq	sl, r1, r0, lsl #24
     e6c:	f3000400 	vshl.u8	d0, d0, d0
     e70:	009f5101 	addseq	r5, pc, r1, lsl #2
	...
     e7c:	00017c00 	andeq	r7, r1, r0, lsl #24
     e80:	0001ac00 	andeq	sl, r1, r0, lsl #24
     e84:	57000100 	strpl	r0, [r0, -r0, lsl #2]
	...
     e90:	01840000 	orreq	r0, r4, r0
     e94:	01a00000 	moveq	r0, r0
     e98:	00010000 	andeq	r0, r1, r0
     e9c:	00000050 	andeq	r0, r0, r0, asr r0
     ea0:	00000000 	andeq	r0, r0, r0
     ea4:	90000000 	andls	r0, r0, r0
     ea8:	ac000001 	stcge	0, cr0, [r0], {1}
     eac:	01000001 	tsteq	r0, r1
     eb0:	00005400 	andeq	r5, r0, r0, lsl #8
     eb4:	00000000 	andeq	r0, r0, r0
     eb8:	00010000 	andeq	r0, r1, r0
     ebc:	00000190 	muleq	r0, r0, r1
     ec0:	000001ac 	andeq	r0, r0, ip, lsr #3
     ec4:	74370005 	ldrtvc	r0, [r7], #-5
     ec8:	009f2400 	addseq	r2, pc, r0, lsl #8
	...
     ed4:	98000000 	stmdals	r0, {}	; <UNPREDICTABLE>
     ed8:	9c000001 	stcls	0, cr0, [r0], {1}
     edc:	01000001 	tsteq	r0, r1
     ee0:	019c5100 	orrseq	r5, ip, r0, lsl #2
     ee4:	01a00000 	moveq	r0, r0
     ee8:	00090000 	andeq	r0, r9, r0
     eec:	24007437 	strcs	r7, [r0], #-1079	; 0xfffffbc9
     ef0:	1a007020 	bne	1cf78 <__bss_end__+0x13698>
     ef4:	0000009f 	muleq	r0, pc, r0	; <UNPREDICTABLE>
	...
     f04:	00011400 	andeq	r1, r1, r0, lsl #8
     f08:	00012000 	andeq	r2, r1, r0
     f0c:	50000100 	andpl	r0, r0, r0, lsl #2
     f10:	00000120 	andeq	r0, r0, r0, lsr #2
     f14:	00000124 	andeq	r0, r0, r4, lsr #2
     f18:	01f30004 	mvnseq	r0, r4
     f1c:	01249f50 			; <UNDEFINED> instruction: 0x01249f50
     f20:	01300000 	teqeq	r0, r0
     f24:	00010000 	andeq	r0, r1, r0
     f28:	00013050 	andeq	r3, r1, r0, asr r0
     f2c:	00014c00 	andeq	r4, r1, r0, lsl #24
     f30:	54000100 	strpl	r0, [r0], #-256	; 0xffffff00
	...
     f3c:	012c0001 			; <UNDEFINED> instruction: 0x012c0001
     f40:	01440000 	mrseq	r0, (UNDEF: 68)
     f44:	00020000 	andeq	r0, r2, r0
     f48:	00009f30 	andeq	r9, r0, r0, lsr pc
	...
     f54:	00000134 	andeq	r0, r0, r4, lsr r1
     f58:	00000140 	andeq	r0, r0, r0, asr #2
     f5c:	00500001 	subseq	r0, r0, r1
     f60:	00000000 	andeq	r0, r0, r0
     f64:	01000000 	mrseq	r0, (UNDEF: 0)
     f68:	00013400 	andeq	r3, r1, r0, lsl #8
     f6c:	00014c00 	andeq	r4, r1, r0, lsl #24
     f70:	31000500 	tstcc	r0, r0, lsl #10
     f74:	9f240074 	svcls	0x00240074
	...
     f84:	00c00000 	sbceq	r0, r0, r0
     f88:	00ec0000 	rsceq	r0, ip, r0
     f8c:	00010000 	andeq	r0, r1, r0
     f90:	0000ec50 	andeq	lr, r0, r0, asr ip
     f94:	0000f800 	andeq	pc, r0, r0, lsl #16
     f98:	54000100 	strpl	r0, [r0], #-256	; 0xffffff00
     f9c:	000000f8 	strdeq	r0, [r0], -r8
     fa0:	00000114 	andeq	r0, r0, r4, lsl r1
     fa4:	01f30004 	mvnseq	r0, r4
     fa8:	00009f50 	andeq	r9, r0, r0, asr pc
	...
     fb4:	000000e8 	andeq	r0, r0, r8, ror #1
     fb8:	00000114 	andeq	r0, r0, r4, lsl r1
     fbc:	00560001 	subseq	r0, r6, r1
	...
     fc8:	0000f000 	andeq	pc, r0, r0
     fcc:	00010800 	andeq	r0, r1, r0, lsl #16
     fd0:	50000100 	andpl	r0, r0, r0, lsl #2
	...
     fdc:	00fc0000 	rscseq	r0, ip, r0
     fe0:	01140000 	tsteq	r4, r0
     fe4:	00010000 	andeq	r0, r1, r0
     fe8:	00000054 	andeq	r0, r0, r4, asr r0
     fec:	00000000 	andeq	r0, r0, r0
     ff0:	fc000100 	stc2	1, cr0, [r0], {-0}
     ff4:	14000000 	strne	r0, [r0], #-0
     ff8:	05000001 	streq	r0, [r0, #-1]
     ffc:	00743700 	rsbseq	r3, r4, r0, lsl #14
    1000:	00009f24 	andeq	r9, r0, r4, lsr #30
    1004:	00000000 	andeq	r0, r0, r0
    1008:	00020000 	andeq	r0, r2, r0
    100c:	00fc0000 	rscseq	r0, ip, r0
    1010:	01040000 	mrseq	r0, (UNDEF: 4)
    1014:	00090000 	andeq	r0, r9, r0
    1018:	24007437 	strcs	r7, [r0], #-1079	; 0xfffffbc9
    101c:	1a007020 	bne	1d0a4 <__bss_end__+0x137c4>
    1020:	0001049f 	muleq	r1, pc, r4	; <UNPREDICTABLE>
    1024:	00010b00 	andeq	r0, r1, r0, lsl #22
    1028:	51000100 	mrspl	r0, (UNDEF: 16)
	...
    103c:	000000a4 	andeq	r0, r0, r4, lsr #1
    1040:	000000b3 	strheq	r0, [r0], -r3
    1044:	b3500001 	cmplt	r0, #1, 0
    1048:	b8000000 	stmdalt	r0, {}	; <UNPREDICTABLE>
    104c:	04000000 	streq	r0, [r0], #-0
    1050:	5001f300 	andpl	pc, r1, r0, lsl #6
    1054:	0000b89f 	muleq	r0, pc, r8	; <UNPREDICTABLE>
    1058:	0000bb00 	andeq	fp, r0, r0, lsl #22
    105c:	50000100 	andpl	r0, r0, r0, lsl #2
    1060:	000000bb 	strheq	r0, [r0], -fp
    1064:	000000c0 	andeq	r0, r0, r0, asr #1
    1068:	01f30004 	mvnseq	r0, r4
    106c:	00009f50 	andeq	r9, r0, r0, asr pc
	...
    107c:	00a40000 	adceq	r0, r4, r0
    1080:	00b30000 	adcseq	r0, r3, r0
    1084:	00010000 	andeq	r0, r1, r0
    1088:	0000b351 	andeq	fp, r0, r1, asr r3
    108c:	0000b800 	andeq	fp, r0, r0, lsl #16
    1090:	f3000400 	vshl.u8	d0, d0, d0
    1094:	b89f5101 	ldmlt	pc, {r0, r8, ip, lr}	; <UNPREDICTABLE>
    1098:	bb000000 	bllt	10a0 <__code_start__-0x6f60>
    109c:	01000000 	mrseq	r0, (UNDEF: 0)
    10a0:	00bb5100 	adcseq	r5, fp, r0, lsl #2
    10a4:	00c00000 	sbceq	r0, r0, r0
    10a8:	00040000 	andeq	r0, r4, r0
    10ac:	9f5101f3 	svcls	0x005101f3
	...
    10bc:	00000080 	andeq	r0, r0, r0, lsl #1
    10c0:	00000098 	muleq	r0, r8, r0
    10c4:	98500001 	ldmdals	r0, {r0}^
    10c8:	a4000000 	strge	r0, [r0], #-0
    10cc:	04000000 	streq	r0, [r0], #-0
    10d0:	5001f300 	andpl	pc, r1, r0, lsl #6
    10d4:	0000009f 	muleq	r0, pc, r0	; <UNPREDICTABLE>
	...
    10e0:	00005c00 	andeq	r5, r0, r0, lsl #24
    10e4:	00007400 	andeq	r7, r0, r0, lsl #8
    10e8:	50000100 	andpl	r0, r0, r0, lsl #2
    10ec:	00000074 	andeq	r0, r0, r4, ror r0
    10f0:	00000080 	andeq	r0, r0, r0, lsl #1
    10f4:	01f30004 	mvnseq	r0, r4
    10f8:	00009f50 	andeq	r9, r0, r0, asr pc
	...
    110c:	0000002c 	andeq	r0, r0, ip, lsr #32
    1110:	2c500001 	mrrccs	0, 0, r0, r0, cr1	; <UNPREDICTABLE>
    1114:	38000000 	stmdacc	r0, {}	; <UNPREDICTABLE>
    1118:	01000000 	mrseq	r0, (UNDEF: 0)
    111c:	00385400 	eorseq	r5, r8, r0, lsl #8
    1120:	005c0000 	subseq	r0, ip, r0
    1124:	00040000 	andeq	r0, r4, r0
    1128:	9f5001f3 	svcls	0x005001f3
	...
    1134:	00280000 	eoreq	r0, r8, r0
    1138:	005c0000 	subseq	r0, ip, r0
    113c:	00010000 	andeq	r0, r1, r0
    1140:	00000056 	andeq	r0, r0, r6, asr r0
    1144:	00000000 	andeq	r0, r0, r0
    1148:	30000000 	andcc	r0, r0, r0
    114c:	44000000 	strmi	r0, [r0], #-0
    1150:	01000000 	mrseq	r0, (UNDEF: 0)
    1154:	00005000 	andeq	r5, r0, r0
	...
    1160:	0000003c 	andeq	r0, r0, ip, lsr r0
    1164:	0000005c 	andeq	r0, r0, ip, asr r0
    1168:	00540001 	subseq	r0, r4, r1
    116c:	00000000 	andeq	r0, r0, r0
    1170:	01000000 	mrseq	r0, (UNDEF: 0)
    1174:	00003c00 	andeq	r3, r0, r0, lsl #24
    1178:	00005c00 	andeq	r5, r0, r0, lsl #24
    117c:	37000500 	strcc	r0, [r0, -r0, lsl #10]
    1180:	9f240074 	svcls	0x00240074
	...
    118c:	00440000 	subeq	r0, r4, r0
    1190:	00500000 	subseq	r0, r0, r0
    1194:	00010000 	andeq	r0, r1, r0
    1198:	00000050 	andeq	r0, r0, r0, asr r0
    119c:	00000000 	andeq	r0, r0, r0
    11a0:	44000100 	strmi	r0, [r0], #-256	; 0xffffff00
    11a4:	5c000000 	stcpl	0, cr0, [r0], {-0}
    11a8:	05000000 	streq	r0, [r0, #-0]
    11ac:	00743100 	rsbseq	r3, r4, r0, lsl #2
    11b0:	00009f24 	andeq	r9, r0, r4, lsr #30
	...
    11c0:	001c0000 	andseq	r0, ip, r0
    11c4:	00010000 	andeq	r0, r1, r0
    11c8:	00001c51 	andeq	r1, r0, r1, asr ip
    11cc:	00003400 	andeq	r3, r0, r0, lsl #8
    11d0:	f3000400 	vshl.u8	d0, d0, d0
    11d4:	009f5101 	addseq	r5, pc, r1, lsl #2
    11d8:	00000000 	andeq	r0, r0, r0
    11dc:	02000000 	andeq	r0, r0, #0, 0
    11e0:	00000000 	andeq	r0, r0, r0
    11e4:	00000101 	andeq	r0, r0, r1, lsl #2
    11e8:	00000000 	andeq	r0, r0, r0
    11ec:	00000400 	andeq	r0, r0, r0, lsl #8
    11f0:	50000100 	andpl	r0, r0, r0, lsl #2
    11f4:	00000004 	andeq	r0, r0, r4
    11f8:	0000001c 	andeq	r0, r0, ip, lsl r0
    11fc:	1c520001 	mrrcne	0, 0, r0, r2, cr1
    1200:	24000000 	strcs	r0, [r0], #-0
    1204:	01000000 	mrseq	r0, (UNDEF: 0)
    1208:	00245300 	eoreq	r5, r4, r0, lsl #6
    120c:	00280000 	eoreq	r0, r8, r0
    1210:	00030000 	andeq	r0, r3, r0
    1214:	289f0173 	ldmcs	pc, {r0, r1, r4, r5, r6, r8}	; <UNPREDICTABLE>
    1218:	34000000 	strcc	r0, [r0], #-0
    121c:	01000000 	mrseq	r0, (UNDEF: 0)
    1220:	00005300 	andeq	r5, r0, r0, lsl #6
    1224:	00000000 	andeq	r0, r0, r0
    1228:	00030000 	andeq	r0, r3, r0
    122c:	00000000 	andeq	r0, r0, r0
    1230:	00240000 	eoreq	r0, r4, r0
    1234:	00010000 	andeq	r0, r1, r0
    1238:	00002451 	andeq	r2, r0, r1, asr r4
    123c:	00003400 	andeq	r3, r0, r0, lsl #8
    1240:	71000300 	mrsvc	r0, LR_irq
    1244:	00009f7f 	andeq	r9, r0, pc, ror pc
	...
    1250:	00100000 	andseq	r0, r0, r0
    1254:	001c0000 	andseq	r0, ip, r0
    1258:	00010000 	andeq	r0, r1, r0
    125c:	0000245c 	andeq	r2, r0, ip, asr r4
    1260:	00003400 	andeq	r3, r0, r0, lsl #8
    1264:	52000100 	andpl	r0, r0, #0
	...
    1278:	00000018 	andeq	r0, r0, r8, lsl r0
    127c:	18500001 	ldmdane	r0, {r0}^
    1280:	24000000 	strcs	r0, [r0], #-0
    1284:	01000000 	mrseq	r0, (UNDEF: 0)
    1288:	00005000 	andeq	r5, r0, r0
	...
    1298:	001c0000 	andseq	r0, ip, r0
    129c:	00010000 	andeq	r0, r1, r0
    12a0:	00001c51 	andeq	r1, r0, r1, asr ip
    12a4:	00002c00 	andeq	r2, r0, r0, lsl #24
    12a8:	51000100 	mrspl	r0, (UNDEF: 16)
	...
    12bc:	00040000 	andeq	r0, r4, r0
    12c0:	00010000 	andeq	r0, r1, r0
    12c4:	00000451 	andeq	r0, r0, r1, asr r4
    12c8:	00000c00 	andeq	r0, r0, r0, lsl #24
    12cc:	51000100 	mrspl	r0, (UNDEF: 16)
    12d0:	0000000c 	andeq	r0, r0, ip
    12d4:	00000020 	andeq	r0, r0, r0, lsr #32
    12d8:	7f710003 	svcvc	0x00710003
    12dc:	0000009f 	muleq	r0, pc, r0	; <UNPREDICTABLE>
    12e0:	00000000 	andeq	r0, r0, r0
    12e4:	00000200 	andeq	r0, r0, r0, lsl #4
    12e8:	00000000 	andeq	r0, r0, r0
    12ec:	04000000 	streq	r0, [r0], #-0
    12f0:	01000000 	mrseq	r0, (UNDEF: 0)
    12f4:	00045000 	andeq	r5, r4, r0
    12f8:	00140000 	andseq	r0, r4, r0
    12fc:	00010000 	andeq	r0, r1, r0
    1300:	0000145c 	andeq	r1, r0, ip, asr r4
    1304:	00002000 	andeq	r2, r0, r0
    1308:	7c000300 	stcvc	3, cr0, [r0], {-0}
    130c:	00009f7f 	andeq	r9, r0, pc, ror pc
    1310:	00000000 	andeq	r0, r0, r0
    1314:	03000000 	movweq	r0, #0
    1318:	90ec0003 	rscls	r0, ip, r3
    131c:	90ec0000 	rscls	r0, ip, r0
    1320:	00010000 	andeq	r0, r1, r0
    1324:	0090ec50 	addseq	lr, r0, r0, asr ip
    1328:	00911800 	addseq	r1, r1, r0, lsl #16
    132c:	f3000400 	vshl.u8	d0, d0, d0
    1330:	009f5001 	addseq	r5, pc, r1
	...
    133c:	ec000303 	stc	3, cr0, [r0], {3}
    1340:	ec000090 	stc	0, cr0, [r0], {144}	; 0x90
    1344:	01000090 	swpeq	r0, r0, [r0]	; <UNPREDICTABLE>
    1348:	90ec5100 	rscls	r5, ip, r0, lsl #2
    134c:	91180000 	tstls	r8, r0
    1350:	00040000 	andeq	r0, r4, r0
    1354:	9f5101f3 	svcls	0x005101f3
	...
    1360:	00030300 	andeq	r0, r3, r0, lsl #6
    1364:	90ec0000 	rscls	r0, ip, r0
    1368:	90ec0000 	rscls	r0, ip, r0
    136c:	00010000 	andeq	r0, r1, r0
    1370:	0090ec52 	addseq	lr, r0, r2, asr ip
    1374:	0090f400 	addseq	pc, r0, r0, lsl #8
    1378:	52000100 	andpl	r0, r0, #0
    137c:	000090f4 	strdeq	r9, [r0], -r4
    1380:	00009118 	andeq	r9, r0, r8, lsl r1
    1384:	01720003 	cmneq	r2, r3
    1388:	0000009f 	muleq	r0, pc, r0	; <UNPREDICTABLE>
    138c:	00000000 	andeq	r0, r0, r0
    1390:	01010200 	mrseq	r0, R9_usr
    1394:	00000000 	andeq	r0, r0, r0
    1398:	0090ec00 	addseq	lr, r0, r0, lsl #24
    139c:	0090f800 	addseq	pc, r0, r0, lsl #16
    13a0:	50000100 	andpl	r0, r0, r0, lsl #2
    13a4:	000090f8 	strdeq	r9, [r0], -r8
    13a8:	000090fc 	strdeq	r9, [r0], -ip
    13ac:	01700003 	cmneq	r0, r3
    13b0:	0090fc9f 	umullseq	pc, r0, pc, ip	; <UNPREDICTABLE>
    13b4:	00910c00 	addseq	r0, r1, r0, lsl #24
    13b8:	50000100 	andpl	r0, r0, r0, lsl #2
    13bc:	00009110 	andeq	r9, r0, r0, lsl r1
    13c0:	00009114 	andeq	r9, r0, r4, lsl r1
    13c4:	00500001 	subseq	r0, r0, r1
    13c8:	00000000 	andeq	r0, r0, r0
    13cc:	02000000 	andeq	r0, r0, #0, 0
    13d0:	00000000 	andeq	r0, r0, r0
    13d4:	0090ec00 	addseq	lr, r0, r0, lsl #24
    13d8:	0090fc00 	addseq	pc, r0, r0, lsl #24
    13dc:	51000100 	mrspl	r0, (UNDEF: 16)
    13e0:	000090fc 	strdeq	r9, [r0], -ip
    13e4:	00009100 	andeq	r9, r0, r0, lsl #2
    13e8:	01710003 	cmneq	r1, r3
    13ec:	0091009f 	umullseq	r0, r1, pc, r0	; <UNPREDICTABLE>
    13f0:	00911800 	addseq	r1, r1, r0, lsl #16
    13f4:	51000100 	mrspl	r0, (UNDEF: 16)
	...

Disassembly of section .debug_aranges:

00000000 <.debug_aranges>:
   0:	0000001c 	andeq	r0, r0, ip, lsl r0
   4:	00000002 	andeq	r0, r0, r2
   8:	00040000 	andeq	r0, r4, r0
   c:	00000000 	andeq	r0, r0, r0
  10:	00008020 	andeq	r8, r0, r0, lsr #32
  14:	000000b8 	strheq	r0, [r0], -r8
	...
  20:	0000001c 	andeq	r0, r0, ip, lsl r0
  24:	02650002 	rsbeq	r0, r5, #2, 0
  28:	00040000 	andeq	r0, r4, r0
  2c:	00000000 	andeq	r0, r0, r0
  30:	000080d8 	ldrdeq	r8, [r0], -r8	; <UNPREDICTABLE>
  34:	000002fc 	strdeq	r0, [r0], -ip
	...
  40:	0000001c 	andeq	r0, r0, ip, lsl r0
  44:	09aa0002 	stmibeq	sl!, {r1}
  48:	00040000 	andeq	r0, r4, r0
  4c:	00000000 	andeq	r0, r0, r0
  50:	000083d4 	ldrdeq	r8, [r0], -r4
  54:	00000058 	andeq	r0, r0, r8, asr r0
	...
  60:	0000001c 	andeq	r0, r0, ip, lsl r0
  64:	0b4b0002 	bleq	12c0074 <__bss_end__+0x12b6794>
  68:	00040000 	andeq	r0, r4, r0
  6c:	00000000 	andeq	r0, r0, r0
  70:	0000842c 	andeq	r8, r0, ip, lsr #8
  74:	0000003c 	andeq	r0, r0, ip, lsr r0
	...
  80:	0000001c 	andeq	r0, r0, ip, lsl r0
  84:	0c980002 	ldceq	0, cr0, [r8], {2}
  88:	00040000 	andeq	r0, r4, r0
  8c:	00000000 	andeq	r0, r0, r0
  90:	00008468 	andeq	r8, r0, r8, ror #8
  94:	00000034 	andeq	r0, r0, r4, lsr r0
	...
  a0:	0000001c 	andeq	r0, r0, ip, lsl r0
  a4:	0d8f0002 	stceq	0, cr0, [pc, #8]	; b4 <__code_start__-0x7f4c>
  a8:	00040000 	andeq	r0, r4, r0
  ac:	00000000 	andeq	r0, r0, r0
  b0:	0000849c 	muleq	r0, ip, r4
  b4:	00000720 	andeq	r0, r0, r0, lsr #14
	...
  c0:	0000001c 	andeq	r0, r0, ip, lsl r0
  c4:	18280002 	stmdane	r8!, {r1}
  c8:	00040000 	andeq	r0, r4, r0
  cc:	00000000 	andeq	r0, r0, r0
  d0:	00008bbc 			; <UNDEFINED> instruction: 0x00008bbc
  d4:	0000002c 	andeq	r0, r0, ip, lsr #32
	...
  e0:	0000001c 	andeq	r0, r0, ip, lsl r0
  e4:	195b0002 	ldmdbne	fp, {r1}^
  e8:	00040000 	andeq	r0, r4, r0
  ec:	00000000 	andeq	r0, r0, r0
  f0:	00008be8 	andeq	r8, r0, r8, ror #23
  f4:	0000002c 	andeq	r0, r0, ip, lsr #32
	...
 100:	0000001c 	andeq	r0, r0, ip, lsl r0
 104:	1aa20002 	bne	fe880114 <__bss_end__+0xfe876834>
 108:	00040000 	andeq	r0, r4, r0
 10c:	00000000 	andeq	r0, r0, r0
 110:	00008c14 	andeq	r8, r0, r4, lsl ip
 114:	0000007c 	andeq	r0, r0, ip, ror r0
	...
 120:	0000001c 	andeq	r0, r0, ip, lsl r0
 124:	1cc60002 	stclne	0, cr0, [r6], {2}
 128:	00040000 	andeq	r0, r4, r0
 12c:	00000000 	andeq	r0, r0, r0
 130:	00008c90 	muleq	r0, r0, ip
 134:	00000084 	andeq	r0, r0, r4, lsl #1
	...
 140:	0000001c 	andeq	r0, r0, ip, lsl r0
 144:	1f170002 	svcne	0x00170002
 148:	00040000 	andeq	r0, r4, r0
 14c:	00000000 	andeq	r0, r0, r0
 150:	00008d14 	andeq	r8, r0, r4, lsl sp
 154:	000001ac 	andeq	r0, r0, ip, lsr #3
	...
 160:	0000001c 	andeq	r0, r0, ip, lsl r0
 164:	24830002 	strcs	r0, [r3], #2
 168:	00040000 	andeq	r0, r4, r0
 16c:	00000000 	andeq	r0, r0, r0
 170:	00008ec0 	andeq	r8, r0, r0, asr #29
 174:	000001ac 	andeq	r0, r0, ip, lsr #3
	...
 180:	0000001c 	andeq	r0, r0, ip, lsl r0
 184:	29ab0002 	stmibcs	fp!, {r1}
 188:	00040000 	andeq	r0, r4, r0
 18c:	00000000 	andeq	r0, r0, r0
 190:	0000906c 	andeq	r9, r0, ip, rrx
 194:	00000034 	andeq	r0, r0, r4, lsr r0
	...
 1a0:	0000001c 	andeq	r0, r0, ip, lsl r0
 1a4:	2ae60002 	bcs	ff9801b4 <__bss_end__+0xff9768d4>
 1a8:	00040000 	andeq	r0, r4, r0
 1ac:	00000000 	andeq	r0, r0, r0
 1b0:	000090a0 	andeq	r9, r0, r0, lsr #1
 1b4:	0000002c 	andeq	r0, r0, ip, lsr #32
	...
 1c0:	0000001c 	andeq	r0, r0, ip, lsl r0
 1c4:	2be10002 	blcs	ff8401d4 <__bss_end__+0xff8368f4>
 1c8:	00040000 	andeq	r0, r4, r0
 1cc:	00000000 	andeq	r0, r0, r0
 1d0:	000090cc 	andeq	r9, r0, ip, asr #1
 1d4:	00000020 	andeq	r0, r0, r0, lsr #32
	...
 1e0:	0000001c 	andeq	r0, r0, ip, lsl r0
 1e4:	2cf40002 	ldclcs	0, cr0, [r4], #8
 1e8:	00040000 	andeq	r0, r4, r0
 1ec:	00000000 	andeq	r0, r0, r0
 1f0:	000090ec 	andeq	r9, r0, ip, ror #1
 1f4:	0000002c 	andeq	r0, r0, ip, lsr #32
	...

Disassembly of section .debug_ranges:

00000000 <.debug_ranges>:
   0:	0000002c 	andeq	r0, r0, ip, lsr #32
   4:	00000058 	andeq	r0, r0, r8, asr r0
   8:	00000060 	andeq	r0, r0, r0, rrx
   c:	00000080 	andeq	r0, r0, r0, lsl #1
	...
  18:	00000020 	andeq	r0, r0, r0, lsr #32
  1c:	00000020 	andeq	r0, r0, r0, lsr #32
  20:	00000020 	andeq	r0, r0, r0, lsr #32
  24:	00000028 	andeq	r0, r0, r8, lsr #32
	...
  30:	000001fc 	strdeq	r0, [r0], -ip
  34:	000001fc 	strdeq	r0, [r0], -ip
  38:	000001fc 	strdeq	r0, [r0], -ip
  3c:	00000204 	andeq	r0, r0, r4, lsl #4
	...
  48:	0000024c 	andeq	r0, r0, ip, asr #4
  4c:	0000024c 	andeq	r0, r0, ip, asr #4
  50:	0000024c 	andeq	r0, r0, ip, asr #4
  54:	00000254 	andeq	r0, r0, r4, asr r2
	...
  60:	00008c14 	andeq	r8, r0, r4, lsl ip
  64:	00008c90 	muleq	r0, r0, ip
	...
  70:	000090ec 	andeq	r9, r0, ip, ror #1
  74:	00009118 	andeq	r9, r0, r8, lsl r1
	...

Disassembly of section .debug_line:

00000000 <.debug_line>:
       0:	000000e1 	andeq	r0, r0, r1, ror #1
       4:	00570003 	subseq	r0, r7, r3
       8:	01020000 	mrseq	r0, (UNDEF: 2)
       c:	000d0efb 	strdeq	r0, [sp], -fp
      10:	01010101 	tsteq	r1, r1, lsl #2
      14:	01000000 	mrseq	r0, (UNDEF: 0)
      18:	2f010000 	svccs	0x00010000
      1c:	72657355 	rsbvc	r7, r5, #1409286145	; 0x54000001
      20:	64612f73 	strbtvs	r2, [r1], #-3955	; 0xfffff08d
      24:	2f6e696d 	svccs	0x006e696d
      28:	342d5343 	strtcc	r5, [sp], #-835	; 0xfffffcbd
      2c:	632f4e39 			; <UNDEFINED> instruction: 0x632f4e39
      30:	6e393473 	mrcvs	4, 1, r3, cr9, cr3, {3}
      34:	6131322d 	teqvs	r1, sp, lsr #4
      38:	2f2f7475 	svccs	0x002f7475
      3c:	7062696c 	rsbvc	r6, r2, ip, ror #18
      40:	6e692f69 	cdpvs	15, 6, cr2, cr9, cr9, {3}
      44:	64756c63 	ldrbtvs	r6, [r5], #-3171	; 0xfffff39d
      48:	31000065 	tstcc	r0, r5, rrx
      4c:	7365742d 	cmnvc	r5, #754974720	; 0x2d000000
      50:	00632e74 	rsbeq	r2, r3, r4, ror lr
      54:	72000000 	andvc	r0, r0, #0, 0
      58:	682e6970 	stmdavs	lr!, {r4, r5, r6, r8, fp, sp, lr}
      5c:	00000100 	andeq	r0, r0, r0, lsl #2
      60:	00140500 	andseq	r0, r4, r0, lsl #10
      64:	80200205 	eorhi	r0, r0, r5, lsl #4
      68:	05140000 	ldreq	r0, [r4, #-0]
      6c:	014b4b05 	cmpeq	fp, r5, lsl #22
      70:	05134a4a 	ldreq	r4, [r3, #-2634]	; 0xfffff5b6
      74:	0d050109 	stfeqs	f0, [r5, #-36]	; 0xffffffdc
      78:	14050106 	strne	r0, [r5], #-262	; 0xfffffefa
      7c:	02040200 	andeq	r0, r4, #0, 4
      80:	05052e06 	streq	r2, [r5, #-3590]	; 0xfffff1fa
      84:	02040200 	andeq	r0, r4, #0, 4
      88:	09050106 	stmdbeq	r5, {r1, r2, r8}
      8c:	13054b06 	movwne	r4, #23302	; 0x5b06
      90:	09050106 	stmdbeq	r5, {r1, r2, r8}
      94:	06018306 	streq	r8, [r1], -r6, lsl #6
      98:	822e062e 	eorhi	r0, lr, #48234496	; 0x2e00000
      9c:	02000113 	andeq	r0, r0, #-1073741820	; 0xc0000004
      a0:	002e0204 	eoreq	r0, lr, r4, lsl #4
      a4:	01020402 	tsteq	r2, r2, lsl #8
      a8:	02001c05 	andeq	r1, r0, #1280	; 0x500
      ac:	050f0204 	streq	r0, [pc, #-516]	; fffffeb0 <__bss_end__+0xffff65d0>
      b0:	0402001d 	streq	r0, [r2], #-29	; 0xffffffe3
      b4:	00010602 	andeq	r0, r1, r2, lsl #12
      b8:	2e020402 	cdpcs	4, 0, cr0, cr2, cr2, {0}
      bc:	02000905 	andeq	r0, r0, #81920	; 0x14000
      c0:	31060104 	tstcc	r6, r4, lsl #2
      c4:	01040200 	mrseq	r0, R12_usr
      c8:	04020001 	streq	r0, [r2], #-1
      cc:	0200d601 	andeq	sp, r0, #1048576	; 0x100000
      d0:	2e060104 	adfcss	f0, f6, f4
      d4:	14060505 	strne	r0, [r6], #-1285	; 0xfffffafb
      d8:	054a4a01 	strbeq	r4, [sl, #-2561]	; 0xfffff5ff
      dc:	4a130601 	bmi	4c18e8 <__bss_end__+0x4b8008>
      e0:	01001002 	tsteq	r0, r2
      e4:	0002ce01 	andeq	ip, r2, r1, lsl #28
      e8:	58000300 	stmdapl	r0, {r8, r9}
      ec:	02000000 	andeq	r0, r0, #0, 0
      f0:	0d0efb01 	vstreq	d15, [lr, #-4]
      f4:	01010100 	mrseq	r0, (UNDEF: 17)
      f8:	00000001 	andeq	r0, r0, r1
      fc:	01000001 	tsteq	r0, r1
     100:	6573552f 	ldrbvs	r5, [r3, #-1327]!	; 0xfffffad1
     104:	612f7372 			; <UNDEFINED> instruction: 0x612f7372
     108:	6e696d64 	cdpvs	13, 6, cr6, cr9, cr4, {3}
     10c:	2d53432f 	ldclcs	3, cr4, [r3, #-188]	; 0xffffff44
     110:	2f4e3934 	svccs	0x004e3934
     114:	39347363 	ldmdbcc	r4!, {r0, r1, r5, r6, r8, r9, ip, sp, lr}
     118:	31322d6e 	teqcc	r2, lr, ror #26
     11c:	2f747561 	svccs	0x00747561
     120:	62696c2f 	rsbvs	r6, r9, #12032	; 0x2f00
     124:	692f6970 	stmdbvs	pc!, {r4, r5, r6, r8, fp, sp, lr}	; <UNPREDICTABLE>
     128:	756c636e 	strbvc	r6, [ip, #-878]!	; 0xfffffc92
     12c:	00006564 	andeq	r6, r0, r4, ror #10
     130:	6c616d6b 	stclvs	13, cr6, [r1], #-428	; 0xfffffe54
     134:	2e636f6c 	cdpcs	15, 6, cr6, cr3, cr12, {3}
     138:	00000063 	andeq	r0, r0, r3, rrx
     13c:	69707200 	ldmdbvs	r0!, {r9, ip, sp, lr}^
     140:	0100682e 	tsteq	r0, lr, lsr #16
     144:	05000000 	streq	r0, [r0, #-0]
     148:	02050020 	andeq	r0, r5, #32, 0
     14c:	000080d8 	ldrdeq	r8, [r0], -r8	; <UNPREDICTABLE>
     150:	06013303 	streq	r3, [r1], -r3, lsl #6
     154:	06050501 	streq	r0, [r5], -r1, lsl #10
     158:	2e06014b 	adfcssm	f0, f6, #3.0
     15c:	02040200 	andeq	r0, r4, #0, 4
     160:	02002e06 	andeq	r2, r0, #96	; 0x60
     164:	00010204 	andeq	r0, r1, r4, lsl #4
     168:	13020402 	movwne	r0, #9218	; 0x2402
     16c:	02040200 	andeq	r0, r4, #0, 4
     170:	05138201 	ldreq	r8, [r3, #-513]	; 0xfffffdff
     174:	016b0318 	cmneq	fp, r8, lsl r3
     178:	01130505 	tsteq	r3, r5, lsl #10
     17c:	0f060106 	svceq	0x00060106
     180:	05130115 	ldreq	r0, [r3, #-277]	; 0xfffffeeb
     184:	0501060e 	streq	r0, [r1, #-1550]	; 0xfffff9f2
     188:	052e2e16 	streq	r2, [lr, #-3606]!	; 0xfffff1ea
     18c:	14030605 	strne	r0, [r3], #-1541	; 0xfffff9fb
     190:	060e0501 	streq	r0, [lr], -r1, lsl #10
     194:	06050501 	streq	r0, [r5], -r1, lsl #10
     198:	060a054b 	streq	r0, [sl], -fp, asr #10
     19c:	05052e01 	streq	r2, [r5, #-3585]	; 0xfffff1ff
     1a0:	05012f06 	streq	r2, [r1, #-3846]	; 0xfffff0fa
     1a4:	015f0318 	cmpeq	pc, r8, lsl r3	; <UNPREDICTABLE>
     1a8:	06130505 	ldreq	r0, [r3], -r5, lsl #10
     1ac:	01200301 			; <UNDEFINED> instruction: 0x01200301
     1b0:	02040200 	andeq	r0, r4, #0, 4
     1b4:	02004a06 	andeq	r4, r0, #24576	; 0x6000
     1b8:	00010204 	andeq	r0, r1, r4, lsl #4
     1bc:	13020402 	movwne	r0, #9218	; 0x2402
     1c0:	02000105 	andeq	r0, r0, #1073741825	; 0x40000001
     1c4:	13060204 	movwne	r0, #25092	; 0x6204
     1c8:	02000505 	andeq	r0, r0, #20971520	; 0x1400000
     1cc:	03060104 	movweq	r0, #24836	; 0x6104
     1d0:	02004a79 	andeq	r4, r0, #495616	; 0x79000
     1d4:	00010104 	andeq	r0, r1, r4, lsl #2
     1d8:	06010402 	streq	r0, [r1], -r2, lsl #8
     1dc:	040200ba 	streq	r0, [r2], #-186	; 0xffffff46
     1e0:	002e0601 	eoreq	r0, lr, r1, lsl #12
     1e4:	2f010402 	svccs	0x00010402
     1e8:	01040200 	mrseq	r0, R12_usr
     1ec:	0402002e 	streq	r0, [r2], #-46	; 0xffffffd2
     1f0:	0200d601 	andeq	sp, r0, #1048576	; 0x100000
     1f4:	00320104 	eorseq	r0, r2, r4, lsl #2
     1f8:	01010402 	tsteq	r1, r2, lsl #8
     1fc:	01040200 	mrseq	r0, R12_usr
     200:	0200ba06 	andeq	fp, r0, #24576	; 0x6000
     204:	2e060104 	adfcss	f0, f6, f4
     208:	44083c05 	strmi	r3, [r8], #-3077	; 0xfffff3fb
     20c:	05050106 	streq	r0, [r5, #-262]	; 0xfffffefa
     210:	00014b06 	andeq	r4, r1, r6, lsl #22
     214:	4a020402 	bmi	81224 <__bss_end__+0x77944>
     218:	02040200 	andeq	r0, r4, #0, 4
     21c:	04020001 	streq	r0, [r2], #-1
     220:	02001302 	andeq	r1, r0, #134217728	; 0x8000000
     224:	82010204 	andhi	r0, r1, #4, 4	; 0x40000000
     228:	18050113 	stmdane	r5, {r0, r1, r4, r8}
     22c:	05015a03 	streq	r5, [r1, #-2563]	; 0xfffff5fd
     230:	11051305 	tstne	r5, r5, lsl #6
     234:	052e0106 	streq	r0, [lr, #-262]!	; 0xfffffefa
     238:	01250305 			; <UNDEFINED> instruction: 0x01250305
     23c:	02040200 	andeq	r0, r4, #0, 4
     240:	02004a06 	andeq	r4, r0, #24576	; 0x6000
     244:	05140204 	ldreq	r0, [r4, #-516]	; 0xfffffdfc
     248:	04020007 	streq	r0, [r2], #-7
     24c:	05010602 	streq	r0, [r1, #-1538]	; 0xfffff9fe
     250:	014d0605 	cmpeq	sp, r5, lsl #12
     254:	4f031805 	svcmi	0x00031805
     258:	1305054a 	movwne	r0, #21834	; 0x554a
     25c:	01061905 	tsteq	r6, r5, lsl #18
     260:	0305052e 	movweq	r0, #21806	; 0x552e
     264:	01050130 	tsteq	r5, r0, lsr r1
     268:	0005054c 	andeq	r0, r5, ip, asr #10
     26c:	06010402 	streq	r0, [r1], -r2, lsl #8
     270:	004a7703 	subeq	r7, sl, r3, lsl #14
     274:	01010402 	tsteq	r1, r2, lsl #8
     278:	01040200 	mrseq	r0, R12_usr
     27c:	02009e06 	andeq	r9, r0, #96	; 0x60
     280:	002e0104 	eoreq	r0, lr, r4, lsl #2
     284:	06010402 	streq	r0, [r1], -r2, lsl #8
     288:	0402002e 	streq	r0, [r2], #-46	; 0xffffffd2
     28c:	02002f01 	andeq	r2, r0, #1, 30
     290:	002e0104 	eoreq	r0, lr, r4, lsl #2
     294:	d6010402 	strle	r0, [r1], -r2, lsl #8
     298:	01040200 	mrseq	r0, R12_usr
     29c:	0402002f 	streq	r0, [r2], #-47	; 0xffffffd1
     2a0:	02002e01 	andeq	r2, r0, #1, 28
     2a4:	05d60104 	ldrbeq	r0, [r6, #260]	; 0x104
     2a8:	10053109 	andne	r3, r5, r9, lsl #2
     2ac:	052e0106 	streq	r0, [lr, #-262]!	; 0xfffffefa
     2b0:	04020005 	streq	r0, [r2], #-5
     2b4:	00300601 	eorseq	r0, r0, r1, lsl #12
     2b8:	01010402 	tsteq	r1, r2, lsl #8
     2bc:	01040200 	mrseq	r0, R12_usr
     2c0:	031905d6 	tsteq	r9, #897581056	; 0x35800000
     2c4:	0574080c 	ldrbeq	r0, [r4, #-2060]!	; 0xfffff7f4
     2c8:	08051305 	stmdaeq	r5, {r0, r2, r8, r9, ip}
     2cc:	07050106 	streq	r0, [r5, -r6, lsl #2]
     2d0:	4919054a 	ldmdbmi	r9, {r1, r3, r6, r8, sl}
     2d4:	31060505 	tstcc	r6, r5, lsl #10
     2d8:	01060c05 	tsteq	r6, r5, lsl #24
     2dc:	67060505 	strvs	r0, [r6, -r5, lsl #10]
     2e0:	48031805 	stmdami	r3, {r0, r2, fp, ip}
     2e4:	13050501 	movwne	r0, #21761	; 0x5501
     2e8:	06010601 	streq	r0, [r1], -r1, lsl #12
     2ec:	1301150f 	movwne	r1, #5391	; 0x150f
     2f0:	01060e05 	tsteq	r6, r5, lsl #28
     2f4:	2e2e1605 	cfmadda32cs	mvax0, mvax1, mvfx14, mvfx5
     2f8:	36030a05 	strcc	r0, [r3], -r5, lsl #20
     2fc:	06050501 	streq	r0, [r5], -r1, lsl #10
     300:	0601054b 	streq	r0, [r1], -fp, asr #10
     304:	062d054b 	strteq	r0, [sp], -fp, asr #10
     308:	050106a4 	streq	r0, [r1, #-1700]	; 0xfffff95c
     30c:	014b0605 	cmpeq	fp, r5, lsl #12
     310:	02040200 	andeq	r0, r4, #0, 4
     314:	04020082 	streq	r0, [r2], #-130	; 0xffffff7e
     318:	0c051302 	stceq	3, cr1, [r5], {2}
     31c:	02040200 	andeq	r0, r4, #0, 4
     320:	05050106 	streq	r0, [r5, #-262]	; 0xfffffefa
     324:	02040200 	andeq	r0, r4, #0, 4
     328:	18056706 	stmdane	r5, {r1, r2, r8, r9, sl, sp, lr}
     32c:	02040200 	andeq	r0, r4, #0, 4
     330:	017fbd03 	cmneq	pc, r3, lsl #26
     334:	02000505 	andeq	r0, r0, #20971520	; 0x1400000
     338:	00130204 	andseq	r0, r3, r4, lsl #4
     33c:	01020402 	tsteq	r2, r2, lsl #8
     340:	02040200 	andeq	r0, r4, #0, 4
     344:	02000106 	andeq	r0, r0, #-2147483647	; 0x80000001
     348:	0f060204 	svceq	0x00060204
     34c:	02040200 	andeq	r0, r4, #0, 4
     350:	04020015 	streq	r0, [r2], #-21	; 0xffffffeb
     354:	02000102 	andeq	r0, r0, #-2147483648	; 0x80000000
     358:	05130204 	ldreq	r0, [r3, #-516]	; 0xfffffdfc
     35c:	0402000e 	streq	r0, [r2], #-14
     360:	05010602 	streq	r0, [r1, #-1538]	; 0xfffff9fe
     364:	04020016 	streq	r0, [r2], #-22	; 0xffffffea
     368:	02002e02 	andeq	r2, r0, #2, 28
     36c:	052e0204 	streq	r0, [lr, #-516]!	; 0xfffffdfc
     370:	0402000a 	streq	r0, [r2], #-10
     374:	00c10302 	sbceq	r0, r1, r2, lsl #6
     378:	00050501 	andeq	r0, r5, r1, lsl #10
     37c:	06020402 	streq	r0, [r2], -r2, lsl #8
     380:	0402004b 	streq	r0, [r2], #-75	; 0xffffffb5
     384:	052e0602 	streq	r0, [lr, #-1538]!	; 0xfffff9fe
     388:	04020001 	streq	r0, [r2], #-1
     38c:	05052f02 	streq	r2, [r5, #-3842]	; 0xfffff0fe
     390:	01040200 	mrseq	r0, R12_usr
     394:	02004606 	andeq	r4, r0, #6291456	; 0x600000
     398:	002e0104 	eoreq	r0, lr, r4, lsl #2
     39c:	d6010402 	strle	r0, [r1], -r2, lsl #8
     3a0:	0b031605 	bleq	c5bbc <__bss_end__+0xbc2dc>
     3a4:	2f0505f2 	svccs	0x000505f2
     3a8:	1e059e01 	cdpne	14, 0, cr9, cr5, cr1, {0}
     3ac:	2f05058a 	svccs	0x0005058a
     3b0:	08029e01 	stmdaeq	r2, {r0, r9, sl, fp, ip, pc}
     3b4:	15010100 	strne	r0, [r1, #-256]	; 0xffffff00
     3b8:	03000001 	movweq	r0, #1
     3bc:	0000e300 	andeq	lr, r0, r0, lsl #6
     3c0:	fb010200 	blx	40bca <__bss_end__+0x372ea>
     3c4:	01000d0e 	tsteq	r0, lr, lsl #26
     3c8:	00010101 	andeq	r0, r1, r1, lsl #2
     3cc:	00010000 	andeq	r0, r1, r0
     3d0:	2f2e0100 	svccs	0x002e0100
     3d4:	6362696c 	cmnvs	r2, #108, 18	; 0x1b0000
     3d8:	706f2f00 	rsbvc	r2, pc, r0, lsl #30
     3dc:	6f682f74 	svcvs	0x00682f74
     3e0:	7262656d 	rsbvc	r6, r2, #457179136	; 0x1b400000
     3e4:	432f7765 			; <UNDEFINED> instruction: 0x432f7765
     3e8:	616c6c65 	cmnvs	ip, r5, ror #24
     3ec:	72612f72 	rsbvc	r2, r1, #456	; 0x1c8
     3f0:	6f6e2d6d 	svcvs	0x006e2d6d
     3f4:	652d656e 	strvs	r6, [sp, #-1390]!	; 0xfffffa92
     3f8:	2d696261 	sfmcs	f6, 2, [r9, #-388]!	; 0xfffffe7c
     3fc:	74736574 	ldrbtvc	r6, [r3], #-1396	; 0xfffffa8c
     400:	322d392f 	eorcc	r3, sp, #770048	; 0xbc000
     404:	71393130 	teqvc	r9, r0, lsr r1
     408:	73632d34 	cmnvc	r3, #52, 26	; 0xd00
     40c:	65373031 	ldrvs	r3, [r7, #-49]!	; 0xffffffcf
     410:	62696c2f 	rsbvs	r6, r9, #12032	; 0x2f00
     414:	6363672f 	cmnvs	r3, #12320768	; 0xbc0000
     418:	6d72612f 	ldfvse	f6, [r2, #-188]!	; 0xffffff44
     41c:	6e6f6e2d 	cdpvs	14, 6, cr6, cr15, cr13, {1}
     420:	61652d65 	cmnvs	r5, r5, ror #26
     424:	392f6962 	stmdbcc	pc!, {r1, r5, r6, r8, fp, sp, lr}	; <UNPREDICTABLE>
     428:	312e322e 			; <UNDEFINED> instruction: 0x312e322e
     42c:	636e692f 	cmnvs	lr, #770048	; 0xbc000
     430:	6564756c 	strbvs	r7, [r4, #-1388]!	; 0xfffffa94
     434:	73552f00 	cmpvc	r5, #0, 30
     438:	2f737265 	svccs	0x00737265
     43c:	696d6461 	stmdbvs	sp!, {r0, r5, r6, sl, sp, lr}^
     440:	53432f6e 	movtpl	r2, #16238	; 0x3f6e
     444:	4e39342d 	cdpmi	4, 3, cr3, cr9, cr13, {1}
     448:	3473632f 	ldrbtcc	r6, [r3], #-815	; 0xfffffcd1
     44c:	322d6e39 	eorcc	r6, sp, #912	; 0x390
     450:	74756131 	ldrbtvc	r6, [r5], #-305	; 0xfffffecf
     454:	696c2f2f 	stmdbvs	ip!, {r0, r1, r2, r3, r5, r8, r9, sl, fp, sp}^
     458:	2f697062 	svccs	0x00697062
     45c:	6c636e69 	stclvs	14, cr6, [r3], #-420	; 0xfffffe5c
     460:	00656475 	rsbeq	r6, r5, r5, ror r4
     464:	69727000 	ldmdbvs	r2!, {ip, sp, lr}^
     468:	2e6b746e 	cdpcs	4, 6, cr7, cr11, cr14, {3}
     46c:	00010063 	andeq	r0, r1, r3, rrx
     470:	64747300 	ldrbtvs	r7, [r4], #-768	; 0xfffffd00
     474:	2e677261 	cdpcs	2, 6, cr7, cr7, cr1, {3}
     478:	00020068 	andeq	r0, r2, r8, rrx
     47c:	69707200 	ldmdbvs	r0!, {r9, ip, sp, lr}^
     480:	0300682e 	movweq	r6, #2094	; 0x82e
     484:	623c0000 	eorsvs	r0, ip, #0, 0
     488:	746c6975 	strbtvc	r6, [ip], #-2421	; 0xfffff68b
     48c:	3e6e692d 	vmulcc.f16	s13, s28, s27	; <UNPREDICTABLE>
     490:	00000000 	andeq	r0, r0, r0
     494:	702d6176 	eorvc	r6, sp, r6, ror r1
     498:	746e6972 	strbtvc	r6, [lr], #-2418	; 0xfffff68e
     49c:	00682e6b 	rsbeq	r2, r8, fp, ror #28
     4a0:	00000001 	andeq	r0, r0, r1
     4a4:	05002205 	streq	r2, [r0, #-517]	; 0xfffffdfb
     4a8:	0083d402 	addeq	sp, r3, r2, lsl #8
     4ac:	01061700 	tsteq	r6, r0, lsl #14
     4b0:	68060505 	stmdavs	r6, {r0, r2, r8, sl}
     4b4:	09051413 	stmdbeq	r5, {r0, r1, r4, sl, ip}
     4b8:	0612054b 	ldreq	r0, [r2], -fp, asr #10
     4bc:	06050501 	streq	r0, [r5], -r1, lsl #10
     4c0:	660616bb 			; <UNDEFINED> instruction: 0x660616bb
     4c4:	01053406 	tsteq	r5, r6, lsl #8
     4c8:	02661306 	rsbeq	r1, r6, #402653184	; 0x18000000
     4cc:	01010008 	tsteq	r1, r8
     4d0:	0000009d 	muleq	r0, sp, r0
     4d4:	005f0003 	subseq	r0, pc, r3
     4d8:	01020000 	mrseq	r0, (UNDEF: 2)
     4dc:	000d0efb 	strdeq	r0, [sp], -fp
     4e0:	01010101 	tsteq	r1, r1, lsl #2
     4e4:	01000000 	mrseq	r0, (UNDEF: 0)
     4e8:	2e010000 	cdpcs	0, 0, cr0, cr1, cr0, {0}
     4ec:	62696c2f 	rsbvs	r6, r9, #12032	; 0x2f00
     4f0:	552f0063 	strpl	r0, [pc, #-99]!	; 495 <__code_start__-0x7b6b>
     4f4:	73726573 	cmnvc	r2, #482344960	; 0x1cc00000
     4f8:	6d64612f 	stfvse	f6, [r4, #-188]!	; 0xffffff44
     4fc:	432f6e69 			; <UNDEFINED> instruction: 0x432f6e69
     500:	39342d53 	ldmdbcc	r4!, {r0, r1, r4, r6, r8, sl, fp, sp}
     504:	73632f4e 	cmnvc	r3, #312	; 0x138
     508:	2d6e3934 			; <UNDEFINED> instruction: 0x2d6e3934
     50c:	75613132 	strbvc	r3, [r1, #-306]!	; 0xfffffece
     510:	6c2f2f74 	stcvs	15, cr2, [pc], #-464	; 348 <__code_start__-0x7cb8>
     514:	69706269 	ldmdbvs	r0!, {r0, r3, r5, r6, r9, sp, lr}^
     518:	636e692f 	cmnvs	lr, #770048	; 0xbc000
     51c:	6564756c 	strbvs	r7, [r4, #-1388]!	; 0xfffffa94
     520:	75700000 	ldrbvc	r0, [r0, #-0]!
     524:	61686374 	smcvs	34356	; 0x8634
     528:	00632e72 	rsbeq	r2, r3, r2, ror lr
     52c:	72000001 	andvc	r0, r0, #1, 0
     530:	682e6970 	stmdavs	lr!, {r4, r5, r6, r8, fp, sp, lr}
     534:	00000200 	andeq	r0, r0, r0, lsl #4
     538:	00240500 	eoreq	r0, r4, r0, lsl #10
     53c:	842c0205 	strthi	r0, [ip], #-517	; 0xfffffdfb
     540:	06140000 	ldreq	r0, [r4], -r0
     544:	06260501 	strteq	r0, [r6], -r1, lsl #10
     548:	2e34054a 	cdpcs	5, 3, cr0, cr4, cr10, {2}
     54c:	01060105 	tsteq	r6, r5, lsl #2
     550:	4f061b05 	svcmi	0x00061b05
     554:	05130505 	ldreq	r0, [r3, #-1285]	; 0xfffffafb
     558:	05010611 	streq	r0, [r1, #-1553]	; 0xfffff9ef
     55c:	23056701 	movwcs	r6, #22273	; 0x5701
     560:	05056706 	streq	r6, [r5, #-1798]	; 0xfffff8fa
     564:	06110513 			; <UNDEFINED> instruction: 0x06110513
     568:	4b010501 	blmi	41974 <__bss_end__+0x38094>
     56c:	01000402 	tsteq	r0, r2, lsl #8
     570:	0000aa01 	andeq	sl, r0, r1, lsl #20
     574:	5c000300 	stcpl	3, cr0, [r0], {-0}
     578:	02000000 	andeq	r0, r0, #0, 0
     57c:	0d0efb01 	vstreq	d15, [lr, #-4]
     580:	01010100 	mrseq	r0, (UNDEF: 17)
     584:	00000001 	andeq	r0, r0, r1
     588:	01000001 	tsteq	r0, r1
     58c:	696c2f2e 	stmdbvs	ip!, {r1, r2, r3, r5, r8, r9, sl, fp, sp}^
     590:	2f006362 	svccs	0x00006362
     594:	72657355 	rsbvc	r7, r5, #1409286145	; 0x54000001
     598:	64612f73 	strbtvs	r2, [r1], #-3955	; 0xfffff08d
     59c:	2f6e696d 	svccs	0x006e696d
     5a0:	342d5343 	strtcc	r5, [sp], #-835	; 0xfffffcbd
     5a4:	632f4e39 			; <UNDEFINED> instruction: 0x632f4e39
     5a8:	6e393473 	mrcvs	4, 1, r3, cr9, cr3, {3}
     5ac:	6131322d 	teqvs	r1, sp, lsr #4
     5b0:	2f2f7475 	svccs	0x002f7475
     5b4:	7062696c 	rsbvc	r6, r2, ip, ror #18
     5b8:	6e692f69 	cdpvs	15, 6, cr2, cr9, cr9, {3}
     5bc:	64756c63 	ldrbtvs	r6, [r5], #-3171	; 0xfffff39d
     5c0:	70000065 	andvc	r0, r0, r5, rrx
     5c4:	2e6b7475 	mcrcs	4, 3, r7, cr11, cr5, {3}
     5c8:	00010063 	andeq	r0, r1, r3, rrx
     5cc:	69707200 	ldmdbvs	r0!, {r9, ip, sp, lr}^
     5d0:	0200682e 	andeq	r6, r0, #3014656	; 0x2e0000
     5d4:	05000000 	streq	r0, [r0, #-0]
     5d8:	02050022 	andeq	r0, r5, #34, 0	; 0x22
     5dc:	00008468 	andeq	r8, r0, r8, ror #8
     5e0:	05010615 	streq	r0, [r1, #-1557]	; 0xfffff9eb
     5e4:	054b0605 	strbeq	r0, [fp, #-1541]	; 0xfffff9fb
     5e8:	0402000b 	streq	r0, [r2], #-11
     5ec:	05050101 	streq	r0, [r5, #-257]	; 0xfffffeff
     5f0:	01040200 	mrseq	r0, R12_usr
     5f4:	09052e06 	stmdbeq	r5, {r1, r2, r9, sl, fp, sp}
     5f8:	02040200 	andeq	r0, r4, #0, 4
     5fc:	0f054b06 	svceq	0x00054b06
     600:	02040200 	andeq	r0, r4, #0, 4
     604:	00100565 	andseq	r0, r0, r5, ror #10
     608:	06020402 	streq	r0, [r2], -r2, lsl #8
     60c:	04020001 	streq	r0, [r2], #-1
     610:	05052e02 	streq	r2, [r5, #-3586]	; 0xfffff1fe
     614:	01053206 	tsteq	r5, r6, lsl #4
     618:	06021306 	streq	r1, [r2], -r6, lsl #6
     61c:	f5010100 			; <UNDEFINED> instruction: 0xf5010100
     620:	03000005 	movweq	r0, #5
     624:	0000f900 	andeq	pc, r0, r0, lsl #18
     628:	fb010200 	blx	40e32 <__bss_end__+0x37552>
     62c:	01000d0e 	tsteq	r0, lr, lsl #26
     630:	00010101 	andeq	r0, r1, r1, lsl #2
     634:	00010000 	andeq	r0, r1, r0
     638:	2f2e0100 	svccs	0x002e0100
     63c:	6362696c 	cmnvs	r2, #108, 18	; 0x1b0000
     640:	706f2f00 	rsbvc	r2, pc, r0, lsl #30
     644:	6f682f74 	svcvs	0x00682f74
     648:	7262656d 	rsbvc	r6, r2, #457179136	; 0x1b400000
     64c:	432f7765 			; <UNDEFINED> instruction: 0x432f7765
     650:	616c6c65 	cmnvs	ip, r5, ror #24
     654:	72612f72 	rsbvc	r2, r1, #456	; 0x1c8
     658:	6f6e2d6d 	svcvs	0x006e2d6d
     65c:	652d656e 	strvs	r6, [sp, #-1390]!	; 0xfffffa92
     660:	2d696261 	sfmcs	f6, 2, [r9, #-388]!	; 0xfffffe7c
     664:	74736574 	ldrbtvc	r6, [r3], #-1396	; 0xfffffa8c
     668:	322d392f 	eorcc	r3, sp, #770048	; 0xbc000
     66c:	71393130 	teqvc	r9, r0, lsr r1
     670:	73632d34 	cmnvc	r3, #52, 26	; 0xd00
     674:	65373031 	ldrvs	r3, [r7, #-49]!	; 0xffffffcf
     678:	62696c2f 	rsbvs	r6, r9, #12032	; 0x2f00
     67c:	6363672f 	cmnvs	r3, #12320768	; 0xbc0000
     680:	6d72612f 	ldfvse	f6, [r2, #-188]!	; 0xffffff44
     684:	6e6f6e2d 	cdpvs	14, 6, cr6, cr15, cr13, {1}
     688:	61652d65 	cmnvs	r5, r5, ror #26
     68c:	392f6962 	stmdbcc	pc!, {r1, r5, r6, r8, fp, sp, lr}	; <UNPREDICTABLE>
     690:	312e322e 			; <UNDEFINED> instruction: 0x312e322e
     694:	636e692f 	cmnvs	lr, #770048	; 0xbc000
     698:	6564756c 	strbvs	r7, [r4, #-1388]!	; 0xfffffa94
     69c:	73552f00 	cmpvc	r5, #0, 30
     6a0:	2f737265 	svccs	0x00737265
     6a4:	696d6461 	stmdbvs	sp!, {r0, r5, r6, sl, sp, lr}^
     6a8:	53432f6e 	movtpl	r2, #16238	; 0x3f6e
     6ac:	4e39342d 	cdpmi	4, 3, cr3, cr9, cr13, {1}
     6b0:	3473632f 	ldrbtcc	r6, [r3], #-815	; 0xfffffcd1
     6b4:	322d6e39 	eorcc	r6, sp, #912	; 0x390
     6b8:	74756131 	ldrbtvc	r6, [r5], #-305	; 0xfffffecf
     6bc:	696c2f2f 	stmdbvs	ip!, {r0, r1, r2, r3, r5, r8, r9, sl, fp, sp}^
     6c0:	2f697062 	svccs	0x00697062
     6c4:	6c636e69 	stclvs	14, cr6, [r3], #-420	; 0xfffffe5c
     6c8:	00656475 	rsbeq	r6, r5, r5, ror r4
     6cc:	2d617600 	stclcs	6, cr7, [r1, #-0]
     6d0:	6e697270 	mcrvs	2, 3, r7, cr9, cr0, {3}
     6d4:	632e6b74 			; <UNDEFINED> instruction: 0x632e6b74
     6d8:	00000100 	andeq	r0, r0, r0, lsl #2
     6dc:	69647473 	stmdbvs	r4!, {r0, r1, r4, r5, r6, sl, ip, sp, lr}^
     6e0:	672d746e 	strvs	r7, [sp, -lr, ror #8]!
     6e4:	682e6363 	stmdavs	lr!, {r0, r1, r5, r6, r8, r9, sp, lr}
     6e8:	00000200 	andeq	r0, r0, r0, lsl #4
     6ec:	2e697072 	mcrcs	0, 3, r7, cr9, cr2, {3}
     6f0:	00030068 	andeq	r0, r3, r8, rrx
     6f4:	69707200 	ldmdbvs	r0!, {r9, ip, sp, lr}^
     6f8:	746e692d 	strbtvc	r6, [lr], #-2349	; 0xfffff6d3
     6fc:	616e7265 	cmnvs	lr, r5, ror #4
     700:	00682e6c 	rsbeq	r2, r8, ip, ror #28
     704:	73000003 	movwvc	r0, #3
     708:	72616474 	rsbvc	r6, r1, #116, 8	; 0x74000000
     70c:	00682e67 	rsbeq	r2, r8, r7, ror #28
     710:	3c000002 	stccc	0, cr0, [r0], {2}
     714:	6c697562 	cfstr64vs	mvdx7, [r9], #-392	; 0xfffffe78
     718:	6e692d74 	mcrvs	13, 3, r2, cr9, cr4, {3}
     71c:	0000003e 	andeq	r0, r0, lr, lsr r0
     720:	1b050000 	blne	140728 <__bss_end__+0x136e48>
     724:	9c020500 	cfstr32ls	mvfx0, [r2], {-0}
     728:	03000084 	movweq	r0, #132	; 0x84
     72c:	1d050126 	stfnes	f0, [r5, #-152]	; 0xffffff68
     730:	062d0501 	strteq	r0, [sp], -r1, lsl #10
     734:	2e010501 	cfsh32cs	mvfx0, mvfx1, #1
     738:	0633054a 	ldrteq	r0, [r3], -sl, asr #10
     73c:	13020551 	movwne	r0, #9553	; 0x2551
     740:	01060605 	tsteq	r6, r5, lsl #12
     744:	30060205 	andcc	r0, r6, r5, lsl #4
     748:	02000805 	andeq	r0, r0, #327680	; 0x50000
     74c:	05010104 	streq	r0, [r1, #-260]	; 0xfffffefc
     750:	04020002 	streq	r0, [r2], #-2
     754:	05010601 	streq	r0, [r1, #-1537]	; 0xfffff9ff
     758:	04020003 	streq	r0, [r2], #-3
     75c:	052f0602 	streq	r0, [pc, #-1538]!	; 162 <__code_start__-0x7e9e>
     760:	04020008 	streq	r0, [r2], #-8
     764:	05010602 	streq	r0, [r1, #-1538]	; 0xfffff9fe
     768:	04020015 	streq	r0, [r2], #-21	; 0xffffffeb
     76c:	05490602 	strbeq	r0, [r9, #-1538]	; 0xfffff9fe
     770:	04020018 	streq	r0, [r2], #-24	; 0xffffffe8
     774:	00010602 	andeq	r0, r1, r2, lsl #12
     778:	2e020402 	cdpcs	4, 0, cr0, cr2, cr2, {0}
     77c:	30060205 	andcc	r0, r6, r5, lsl #4
     780:	01060505 	tsteq	r6, r5, lsl #10
     784:	4b060205 	blmi	180fa0 <__bss_end__+0x1776c0>
     788:	13060105 	movwne	r0, #24837	; 0x6105
     78c:	31063e05 	tstcc	r6, r5, lsl #28
     790:	05140205 	ldreq	r0, [r4, #-517]	; 0xfffffdfb
     794:	0501060e 	streq	r0, [r1, #-1550]	; 0xfffff9f2
     798:	02052e06 	andeq	r2, r5, #96	; 0x60
     79c:	04052f06 	streq	r2, [r5], #-3846	; 0xfffff0fa
     7a0:	03050106 	movweq	r0, #20742	; 0x5106
     7a4:	11052f06 	tstne	r5, r6, lsl #30
     7a8:	09050106 	stmdbeq	r5, {r1, r2, r8}
     7ac:	0602052e 	streq	r0, [r2], -lr, lsr #10
     7b0:	07051530 	smladxeq	r5, r0, r5, r1
     7b4:	02050106 	andeq	r0, r5, #-2147483647	; 0x80000001
     7b8:	000b052e 	andeq	r0, fp, lr, lsr #10
     7bc:	06010402 	streq	r0, [r1], -r2, lsl #8
     7c0:	0002052e 	andeq	r0, r2, lr, lsr #10
     7c4:	06010402 	streq	r0, [r1], -r2, lsl #8
     7c8:	00030501 	andeq	r0, r3, r1, lsl #10
     7cc:	06030402 	streq	r0, [r3], -r2, lsl #8
     7d0:	000c052f 	andeq	r0, ip, pc, lsr #10
     7d4:	06030402 	streq	r0, [r3], -r2, lsl #8
     7d8:	000a0501 	andeq	r0, sl, r1, lsl #10
     7dc:	2e030402 	cdpcs	4, 0, cr0, cr3, cr2, {0}
     7e0:	02001705 	andeq	r1, r0, #1310720	; 0x140000
     7e4:	2d060304 	stccs	3, cr0, [r6, #-16]
     7e8:	03040200 	movweq	r0, #16896	; 0x4200
     7ec:	02050106 	andeq	r0, r5, #-2147483647	; 0x80000001
     7f0:	09053006 	stmdbeq	r5, {r1, r2, ip, sp}
     7f4:	052e0106 	streq	r0, [lr, #-262]!	; 0xfffffefa
     7f8:	05300602 	ldreq	r0, [r0, #-1538]!	; 0xfffff9fe
     7fc:	05130601 	ldreq	r0, [r3, #-1537]	; 0xfffff9ff
     800:	06310649 	ldrteq	r0, [r1], -r9, asr #12
     804:	06020501 	streq	r0, [r2], -r1, lsl #10
     808:	060405a0 	streq	r0, [r4], -r0, lsr #11
     80c:	06030501 	streq	r0, [r3], -r1, lsl #10
     810:	0609052f 	streq	r0, [r9], -pc, lsr #10
     814:	06020501 	streq	r0, [r2], -r1, lsl #10
     818:	0b051330 	bleq	1454e0 <__bss_end__+0x13bc00>
     81c:	02050106 	andeq	r0, r5, #-2147483647	; 0x80000001
     820:	2e063006 	cdpcs	0, 0, cr3, cr6, cr6, {0}
     824:	02060405 	andeq	r0, r6, #83886080	; 0x5000000
     828:	05131524 	ldreq	r1, [r3, #-1316]	; 0xfffffadc
     82c:	2e01060f 	cfmadd32cs	mvax0, mvfx0, mvfx1, mvfx15
     830:	054a0605 	strbeq	r0, [sl, #-1541]	; 0xfffff9fb
     834:	134b0605 	movtne	r0, #46597	; 0xb605
     838:	01060905 	tsteq	r6, r5, lsl #18
     83c:	2f060505 	svccs	0x00060505
     840:	10060b05 	andne	r0, r6, r5, lsl #22
     844:	02000d05 	andeq	r0, r0, #320	; 0x140
     848:	052c0104 	streq	r0, [ip, #-260]!	; 0xfffffefc
     84c:	04020004 	streq	r0, [r2], #-4
     850:	05340601 	ldreq	r0, [r4, #-1537]!	; 0xfffff9ff
     854:	04020005 	streq	r0, [r2], #-5
     858:	1b051301 	blne	145464 <__bss_end__+0x13bb84>
     85c:	01040200 	mrseq	r0, R12_usr
     860:	07050106 	streq	r0, [r5, -r6, lsl #2]
     864:	01040200 	mrseq	r0, R12_usr
     868:	001805d6 			; <UNDEFINED> instruction: 0x001805d6
     86c:	2e010402 	cdpcs	4, 0, cr0, cr1, cr2, {0}
     870:	02000a05 	andeq	r0, r0, #20480	; 0x5000
     874:	054a0104 	strbeq	r0, [sl, #-260]	; 0xfffffefc
     878:	0402000b 	streq	r0, [r2], #-11
     87c:	052f0601 	streq	r0, [pc, #-1537]!	; 283 <__code_start__-0x7d7d>
     880:	0402000e 	streq	r0, [r2], #-14
     884:	052e0601 	streq	r0, [lr, #-1537]!	; 0xfffff9ff
     888:	04020004 	streq	r0, [r2], #-4
     88c:	4b062e01 	blmi	18c098 <__bss_end__+0x1827b8>
     890:	01060605 	tsteq	r6, r5, lsl #12
     894:	2f060505 	svccs	0x00060505
     898:	01060a05 	tsteq	r6, r5, lsl #20
     89c:	2e4a0705 	cdpcs	7, 4, cr0, cr10, cr5, {0}
     8a0:	76030d05 	strvc	r0, [r3], -r5, lsl #26
     8a4:	0b054a2e 	bleq	153164 <__bss_end__+0x149884>
     8a8:	000d050d 	andeq	r0, sp, sp, lsl #10
     8ac:	06010402 	streq	r0, [r1], -r2, lsl #8
     8b0:	052e1403 	streq	r1, [lr, #-1027]!	; 0xfffffbfd
     8b4:	04020011 	streq	r0, [r2], #-17	; 0xffffffef
     8b8:	2d051301 	stccs	3, cr1, [r5, #-4]
     8bc:	01040200 	mrseq	r0, R12_usr
     8c0:	2a050106 	bcs	140ce0 <__bss_end__+0x137400>
     8c4:	01040200 	mrseq	r0, R12_usr
     8c8:	0016052e 	andseq	r0, r6, lr, lsr #10
     8cc:	4a010402 	bmi	418dc <__bss_end__+0x37ffc>
     8d0:	02001405 	andeq	r1, r0, #83886080	; 0x5000000
     8d4:	4b060104 	blmi	180cec <__bss_end__+0x17740c>
     8d8:	02000d05 	andeq	r0, r0, #320	; 0x140
     8dc:	01060104 	tsteq	r6, r4, lsl #2
     8e0:	01040200 	mrseq	r0, R12_usr
     8e4:	052f064a 	streq	r0, [pc, #-1610]!	; 2a2 <__code_start__-0x7d5e>
     8e8:	4a010612 	bmi	42138 <__bss_end__+0x38858>
     8ec:	2f060d05 	svccs	0x00060d05
     8f0:	01061205 	tsteq	r6, r5, lsl #4
     8f4:	4b061905 	blmi	186d10 <__bss_end__+0x17d430>
     8f8:	02000405 	andeq	r0, r0, #83886080	; 0x5000000
     8fc:	11030204 	tstne	r3, r4, lsl #4
     900:	04020001 	streq	r0, [r2], #-1
     904:	02050102 	andeq	r0, r5, #-2147483648	; 0x80000000
     908:	02040200 	andeq	r0, r4, #0, 4
     90c:	00090515 	andeq	r0, r9, r5, lsl r5
     910:	06020402 	streq	r0, [r2], -r2, lsl #8
     914:	04020001 	streq	r0, [r2], #-1
     918:	01054a02 	tsteq	r5, r2, lsl #20
     91c:	02040200 	andeq	r0, r4, #0, 4
     920:	0604059f 			; <UNDEFINED> instruction: 0x0604059f
     924:	054a6e03 	strbeq	r6, [sl, #-3587]	; 0xfffff1fd
     928:	05010609 	streq	r0, [r1, #-1545]	; 0xfffff9f7
     92c:	052f0604 	streq	r0, [pc, #-1540]!	; 330 <__code_start__-0x7cd0>
     930:	05110606 	ldreq	r0, [r1, #-1542]	; 0xfffff9fa
     934:	0b052f04 	bleq	14c54c <__bss_end__+0x142c6c>
     938:	052e6303 	streq	r6, [lr, #-771]!	; 0xfffffcfd
     93c:	04020019 	streq	r0, [r2], #-25	; 0xffffffe7
     940:	24030601 	strcs	r0, [r3], #-1537	; 0xfffff9ff
     944:	001a052e 	andseq	r0, sl, lr, lsr #10
     948:	13010402 	movwne	r0, #5122	; 0x1402
     94c:	02002805 	andeq	r2, r0, #327680	; 0x50000
     950:	01060104 	tsteq	r6, r4, lsl #2
     954:	02002505 	andeq	r2, r0, #20971520	; 0x1400000
     958:	052e0104 	streq	r0, [lr, #-260]!	; 0xfffffefc
     95c:	0402001f 	streq	r0, [r2], #-31	; 0xffffffe1
     960:	0b054a01 	bleq	15316c <__bss_end__+0x14988c>
     964:	01040200 	mrseq	r0, R12_usr
     968:	04054b06 	streq	r4, [r5], #-2822	; 0xfffff4fa
     96c:	01040200 	mrseq	r0, R12_usr
     970:	02000106 	andeq	r0, r0, #-2147483647	; 0x80000001
     974:	004a0104 	subeq	r0, sl, r4, lsl #2
     978:	06010402 	streq	r0, [r1], -r2, lsl #8
     97c:	0402004e 	streq	r0, [r2], #-78	; 0xffffffb2
     980:	02000101 	andeq	r0, r0, #1073741824	; 0x40000000
     984:	00010104 	andeq	r0, r1, r4, lsl #2
     988:	01010402 	tsteq	r1, r2, lsl #8
     98c:	01040200 	mrseq	r0, R12_usr
     990:	02002e06 	andeq	r2, r0, #96	; 0x60
     994:	00660104 	rsbeq	r0, r6, r4, lsl #2
     998:	2e010402 	cdpcs	4, 0, cr0, cr1, cr2, {0}
     99c:	01040200 	mrseq	r0, R12_usr
     9a0:	48054a06 	stmdami	r5, {r1, r2, r9, fp, lr}
     9a4:	087fa603 	ldmdaeq	pc!, {r0, r1, r9, sl, sp, pc}^	; <UNPREDICTABLE>
     9a8:	13050520 	movwne	r0, #21792	; 0x5520
     9ac:	002e0601 	eoreq	r0, lr, r1, lsl #12
     9b0:	06020402 	streq	r0, [r2], -r2, lsl #8
     9b4:	0402002e 	streq	r0, [r2], #-46	; 0xffffffd2
     9b8:	02000102 	andeq	r0, r0, #-2147483648	; 0x80000000
     9bc:	05130204 	ldreq	r0, [r3, #-516]	; 0xfffffdfc
     9c0:	04020011 	streq	r0, [r2], #-17	; 0xffffffef
     9c4:	05010602 	streq	r0, [r1, #-1538]	; 0xfffff9fe
     9c8:	04020005 	streq	r0, [r2], #-5
     9cc:	054b0602 	strbeq	r0, [fp, #-1538]	; 0xfffff9fe
     9d0:	04020007 	streq	r0, [r2], #-7
     9d4:	05010602 	streq	r0, [r1, #-1538]	; 0xfffff9fe
     9d8:	054b0609 	strbeq	r0, [fp, #-1545]	; 0xfffff9f7
     9dc:	0501060e 	streq	r0, [r1, #-1550]	; 0xfffff9f2
     9e0:	04020048 	streq	r0, [r2], #-72	; 0xffffffb8
     9e4:	05056201 	streq	r6, [r5, #-513]	; 0xfffffdff
     9e8:	01040200 	mrseq	r0, R12_usr
     9ec:	02004b06 	andeq	r4, r0, #6144	; 0x1800
     9f0:	00010104 	andeq	r0, r1, r4, lsl #2
     9f4:	06010402 	streq	r0, [r1], -r2, lsl #8
     9f8:	0402009e 	streq	r0, [r2], #-158	; 0xffffff62
     9fc:	02002e01 	andeq	r2, r0, #1, 28
     a00:	2e060104 	adfcss	f0, f6, f4
     a04:	e1034005 	tst	r3, r5
     a08:	0106d600 	tsteq	r6, r0, lsl #12
     a0c:	9f060205 	svcls	0x00060205
     a10:	01061e05 	tsteq	r6, r5, lsl #28
     a14:	052e1205 	streq	r1, [lr, #-517]!	; 0xfffffdfb
     a18:	052f0605 	streq	r0, [pc, #-1541]!	; 41b <__code_start__-0x7be5>
     a1c:	09051402 	stmdbeq	r5, {r1, sl, ip}
     a20:	05050106 	streq	r0, [r5, #-262]	; 0xfffffefa
     a24:	02054b06 	andeq	r4, r5, #6144	; 0x1800
     a28:	06080513 			; <UNDEFINED> instruction: 0x06080513
     a2c:	3302050d 	movwcc	r0, #9485	; 0x250d
     a30:	4c060405 	cfstrsmi	mvf0, [r6], {5}
     a34:	01060f05 	tsteq	r6, r5, lsl #30
     a38:	052e0905 	streq	r0, [lr, #-2309]!	; 0xfffff6fb
     a3c:	052c0608 	streq	r0, [ip, #-1544]!	; 0xfffff9f8
     a40:	052e0602 	streq	r0, [lr, #-1538]!	; 0xfffff9fe
     a44:	0402000d 	streq	r0, [r2], #-13
     a48:	03054a01 	movweq	r4, #23041	; 0x5a01
     a4c:	05054b06 	streq	r4, [r5, #-2822]	; 0xfffff4fa
     a50:	08050106 	stmdaeq	r5, {r1, r2, r8}
     a54:	0e054d06 	cdpeq	13, 0, cr4, cr5, cr6, {0}
     a58:	0a050106 	beq	140e78 <__bss_end__+0x137598>
     a5c:	0604052e 	streq	r0, [r4], -lr, lsr #10
     a60:	0609052f 	streq	r0, [r9], -pc, lsr #10
     a64:	06040501 	streq	r0, [r4], -r1, lsl #10
     a68:	0607052f 	streq	r0, [r7], -pc, lsr #10
     a6c:	04052e01 	streq	r2, [r5], #-3585	; 0xfffff1ff
     a70:	07053006 	streq	r3, [r5, -r6]
     a74:	04050106 	streq	r0, [r5], #-262	; 0xfffffefa
     a78:	14133006 	ldrne	r3, [r3], #-6
     a7c:	10060d05 	andne	r0, r6, r5, lsl #26
     a80:	30060905 	andcc	r0, r6, r5, lsl #18
     a84:	01061205 	tsteq	r6, r5, lsl #4
     a88:	052e0a05 	streq	r0, [lr, #-2565]!	; 0xfffff5fb
     a8c:	05056609 	streq	r6, [r5, #-1545]	; 0xfffff9f7
     a90:	12054b06 	andne	r4, r5, #6144	; 0x1800
     a94:	16050106 	strne	r0, [r5], -r6, lsl #2
     a98:	2e0b052e 	cfsh32cs	mvfx0, mvfx11, #30
     a9c:	2f060505 	svccs	0x00060505
     aa0:	01060805 	tsteq	r6, r5, lsl #16
     aa4:	0604052e 	streq	r0, [r4], -lr, lsr #10
     aa8:	014a0130 	cmpeq	sl, r0, lsr r1
     aac:	04020015 	streq	r0, [r2], #-21	; 0xffffffeb
     ab0:	0f360201 	svceq	0x00360201
     ab4:	01040200 	mrseq	r0, R12_usr
     ab8:	04020001 	streq	r0, [r2], #-1
     abc:	1105d601 	tstne	r5, r1, lsl #12
     ac0:	00011334 	andeq	r1, r1, r4, lsr r3
     ac4:	06020402 	streq	r0, [r2], -r2, lsl #8
     ac8:	040200ba 	streq	r0, [r2], #-186	; 0xffffff46
     acc:	00ba0603 	adcseq	r0, sl, r3, lsl #12
     ad0:	01030402 	tsteq	r3, r2, lsl #8
     ad4:	03040200 	movweq	r0, #16896	; 0x4200
     ad8:	00150514 	andseq	r0, r5, r4, lsl r5
     adc:	06030402 	streq	r0, [r3], -r2, lsl #8
     ae0:	00110501 	andseq	r0, r1, r1, lsl #10
     ae4:	06030402 	streq	r0, [r3], -r2, lsl #8
     ae8:	001a052f 	andseq	r0, sl, pc, lsr #10
     aec:	06030402 	streq	r0, [r3], -r2, lsl #8
     af0:	00110501 	andseq	r0, r1, r1, lsl #10
     af4:	06030402 	streq	r0, [r3], -r2, lsl #8
     af8:	040200d7 	streq	r0, [r2], #-215	; 0xffffff29
     afc:	02001303 	andeq	r1, r0, #201326592	; 0xc000000
     b00:	05170304 	ldreq	r0, [r7, #-772]	; 0xfffffcfc
     b04:	04020014 	streq	r0, [r2], #-20	; 0xffffffec
     b08:	05010603 	streq	r0, [r1, #-1539]	; 0xfffff9fd
     b0c:	04020013 	streq	r0, [r2], #-19	; 0xffffffed
     b10:	18058203 	stmdane	r5, {r0, r1, r9, pc}
     b14:	1b054e06 	blne	154334 <__bss_end__+0x14aa54>
     b18:	1a050106 	bne	140f38 <__bss_end__+0x137658>
     b1c:	06090582 	streq	r0, [r9], -r2, lsl #11
     b20:	060d054b 	streq	r0, [sp], -fp, asr #10
     b24:	09052e01 	stmdbeq	r5, {r0, r9, sl, fp, sp}
     b28:	ba06f306 	blt	1bd748 <__bss_end__+0x1b3e68>
     b2c:	30061505 	andcc	r1, r6, r5, lsl #10
     b30:	01061805 	tsteq	r6, r5, lsl #16
     b34:	05661705 	strbeq	r1, [r6, #-1797]!	; 0xfffff8fb
     b38:	054b0619 	strbeq	r0, [fp, #-1561]	; 0xfffff9e7
     b3c:	6f030615 	svcvs	0x00030615
     b40:	06110566 	ldreq	r0, [r1], -r6, ror #10
     b44:	05d60148 	ldrbeq	r0, [r6, #328]	; 0x148
     b48:	2e0b0309 	cdpcs	3, 0, cr0, cr11, cr9, {0}
     b4c:	01060d05 	tsteq	r6, r5, lsl #26
     b50:	0609052e 	streq	r0, [r9], -lr, lsr #10
     b54:	05ba06f3 	ldreq	r0, [sl, #1779]!	; 0x6f3
     b58:	062f0615 			; <UNDEFINED> instruction: 0x062f0615
     b5c:	05667503 	strbeq	r7, [r6, #-1283]!	; 0xfffffafd
     b60:	13030619 	movwne	r0, #13849	; 0x3619
     b64:	0615054a 	ldreq	r0, [r5], -sl, asr #10
     b68:	06666d03 	strbteq	r6, [r6], -r3, lsl #26
     b6c:	014a1503 	cmpeq	sl, r3, lsl #10
     b70:	052e06ba 	streq	r0, [lr, #-1722]!	; 0xfffff946
     b74:	011a0605 	tsteq	sl, r5, lsl #12
     b78:	0e032e9e 	mcreq	14, 0, r2, cr3, cr14, {4}
     b7c:	06090501 	streq	r0, [r9], -r1, lsl #10
     b80:	06050501 	streq	r0, [r5], -r1, lsl #10
     b84:	04057508 	streq	r7, [r5], #-1288	; 0xfffffaf8
     b88:	05011803 	streq	r1, [r1, #-2051]	; 0xfffff7fd
     b8c:	05010607 	streq	r0, [r1, #-1543]	; 0xfffff9f9
     b90:	05310604 	ldreq	r0, [r1, #-1540]!	; 0xfffff9fc
     b94:	2e670305 	cdpcs	3, 6, cr0, cr7, cr5, {0}
     b98:	01061c05 	tsteq	r6, r5, lsl #24
     b9c:	05820905 	streq	r0, [r2, #2309]	; 0x905
     ba0:	31f30605 	mvnscc	r0, r5, lsl #12
     ba4:	01061c05 	tsteq	r6, r5, lsl #24
     ba8:	05820905 	streq	r0, [r2, #2309]	; 0x905
     bac:	30f30605 	rscscc	r0, r3, r5, lsl #12
     bb0:	01061b05 	tsteq	r6, r5, lsl #22
     bb4:	05820905 	streq	r0, [r2, #2309]	; 0x905
     bb8:	30f30605 	rscscc	r0, r3, r5, lsl #12
     bbc:	01060705 	tsteq	r6, r5, lsl #14
     bc0:	83060505 	movwhi	r0, #25861	; 0x6505
     bc4:	06090530 			; <UNDEFINED> instruction: 0x06090530
     bc8:	06050501 	streq	r0, [r5], -r1, lsl #10
     bcc:	11057508 	tstne	r5, r8, lsl #10
     bd0:	06220530 			; <UNDEFINED> instruction: 0x06220530
     bd4:	06050501 	streq	r0, [r5], -r1, lsl #10
     bd8:	8311054b 	tsthi	r1, #314572800	; 0x12c00000
     bdc:	01830505 	orreq	r0, r3, r5, lsl #10
     be0:	0e05359e 	mcreq	5, 0, r3, cr5, cr14, {4}
     be4:	0a050106 	beq	141004 <__bss_end__+0x137724>
     be8:	052d062e 	streq	r0, [sp, #-1582]!	; 0xfffff9d2
     bec:	05010604 	streq	r0, [r1, #-1540]	; 0xfffff9fc
     bf0:	04020013 	streq	r0, [r2], #-19	; 0xffffffed
     bf4:	10054a01 	andne	r4, r5, r1, lsl #20
     bf8:	01040200 	mrseq	r0, R12_usr
     bfc:	0402002e 	streq	r0, [r2], #-46	; 0xffffffd2
     c00:	02056601 	andeq	r6, r5, #1048576	; 0x100000
     c04:	07051606 	streq	r1, [r5, -r6, lsl #12]
     c08:	02050106 	andeq	r0, r5, #-2147483647	; 0x80000001
     c0c:	01054b06 	tsteq	r5, r6, lsl #22
     c10:	02661306 	rsbeq	r1, r6, #402653184	; 0x18000000
     c14:	0101001a 	tsteq	r1, sl, lsl r0
     c18:	00000084 	andeq	r0, r0, r4, lsl #1
     c1c:	00690003 	rsbeq	r0, r9, r3
     c20:	01020000 	mrseq	r0, (UNDEF: 2)
     c24:	000d0efb 	strdeq	r0, [sp], -fp
     c28:	01010101 	tsteq	r1, r1, lsl #2
     c2c:	01000000 	mrseq	r0, (UNDEF: 0)
     c30:	2e010000 	cdpcs	0, 0, cr0, cr1, cr0, {0}
     c34:	6174732f 	cmnvs	r4, pc, lsr #6
     c38:	732d6666 			; <UNDEFINED> instruction: 0x732d6666
     c3c:	2f006372 	svccs	0x00006372
     c40:	72657355 	rsbvc	r7, r5, #1409286145	; 0x54000001
     c44:	64612f73 	strbtvs	r2, [r1], #-3955	; 0xfffff08d
     c48:	2f6e696d 	svccs	0x006e696d
     c4c:	342d5343 	strtcc	r5, [sp], #-835	; 0xfffffcbd
     c50:	632f4e39 			; <UNDEFINED> instruction: 0x632f4e39
     c54:	6e393473 	mrcvs	4, 1, r3, cr9, cr3, {3}
     c58:	6131322d 	teqvs	r1, sp, lsr #4
     c5c:	2f2f7475 	svccs	0x002f7475
     c60:	7062696c 	rsbvc	r6, r2, ip, ror #18
     c64:	6e692f69 	cdpvs	15, 6, cr2, cr9, cr9, {3}
     c68:	64756c63 	ldrbtvs	r6, [r5], #-3171	; 0xfffff39d
     c6c:	63000065 	movwvs	r0, #101	; 0x65
     c70:	6e61656c 	cdpvs	5, 6, cr6, cr1, cr12, {3}
     c74:	6265722d 	rsbvs	r7, r5, #-805306366	; 0xd0000002
     c78:	2e746f6f 	cdpcs	15, 7, cr6, cr4, cr15, {3}
     c7c:	00010063 	andeq	r0, r1, r3, rrx
     c80:	69707200 	ldmdbvs	r0!, {r9, ip, sp, lr}^
     c84:	0200682e 	andeq	r6, r0, #3014656	; 0x2e0000
     c88:	05000000 	streq	r0, [r0, #-0]
     c8c:	02050019 	andeq	r0, r5, #25, 0
     c90:	00008bbc 			; <UNDEFINED> instruction: 0x00008bbc
     c94:	2f050515 	svccs	0x00050515
     c98:	024b2f83 	subeq	r2, fp, #524	; 0x20c
     c9c:	01010006 	tsteq	r1, r6
     ca0:	00000098 	muleq	r0, r8, r0
     ca4:	00630003 	rsbeq	r0, r3, r3
     ca8:	01020000 	mrseq	r0, (UNDEF: 2)
     cac:	000d0efb 	strdeq	r0, [sp], -fp
     cb0:	01010101 	tsteq	r1, r1, lsl #2
     cb4:	01000000 	mrseq	r0, (UNDEF: 0)
     cb8:	2e010000 	cdpcs	0, 0, cr0, cr1, cr0, {0}
     cbc:	6174732f 	cmnvs	r4, pc, lsr #6
     cc0:	732d6666 			; <UNDEFINED> instruction: 0x732d6666
     cc4:	2f006372 	svccs	0x00006372
     cc8:	72657355 	rsbvc	r7, r5, #1409286145	; 0x54000001
     ccc:	64612f73 	strbtvs	r2, [r1], #-3955	; 0xfffff08d
     cd0:	2f6e696d 	svccs	0x006e696d
     cd4:	342d5343 	strtcc	r5, [sp], #-835	; 0xfffffcbd
     cd8:	632f4e39 			; <UNDEFINED> instruction: 0x632f4e39
     cdc:	6e393473 	mrcvs	4, 1, r3, cr9, cr3, {3}
     ce0:	6131322d 	teqvs	r1, sp, lsr #4
     ce4:	2f2f7475 	svccs	0x002f7475
     ce8:	7062696c 	rsbvc	r6, r2, ip, ror #18
     cec:	6e692f69 	cdpvs	15, 6, cr2, cr9, cr9, {3}
     cf0:	64756c63 	ldrbtvs	r6, [r5], #-3171	; 0xfffff39d
     cf4:	63000065 	movwvs	r0, #101	; 0x65
     cf8:	72617473 	rsbvc	r7, r1, #1929379840	; 0x73000000
     cfc:	00632e74 	rsbeq	r2, r3, r4, ror lr
     d00:	72000001 	andvc	r0, r0, #1, 0
     d04:	682e6970 	stmdavs	lr!, {r4, r5, r6, r8, fp, sp, lr}
     d08:	00000200 	andeq	r0, r0, r0, lsl #4
     d0c:	00100500 	andseq	r0, r0, r0, lsl #10
     d10:	8be80205 	blhi	ffa0152c <__bss_end__+0xff9f7c4c>
     d14:	05140000 	ldreq	r0, [r4, #-0]
     d18:	02052f05 	andeq	r2, r5, #5, 30
     d1c:	14050513 	strne	r0, [r5], #-1299	; 0xfffffaed
     d20:	0a051413 	beq	145d74 <__bss_end__+0x13c494>
     d24:	31060f06 	tstcc	r6, r6, lsl #30
     d28:	054b0905 	strbeq	r0, [fp, #-2309]	; 0xfffff6fb
     d2c:	4a010610 	bmi	42574 <__bss_end__+0x38c94>
     d30:	30060505 	andcc	r0, r6, r5, lsl #10
     d34:	022f0205 	eoreq	r0, pc, #1342177280	; 0x50000000
     d38:	01010006 	tsteq	r1, r6
     d3c:	000000d3 	ldrdeq	r0, [r0], -r3
     d40:	00630003 	rsbeq	r0, r3, r3
     d44:	01020000 	mrseq	r0, (UNDEF: 2)
     d48:	000d0efb 	strdeq	r0, [sp], -fp
     d4c:	01010101 	tsteq	r1, r1, lsl #2
     d50:	01000000 	mrseq	r0, (UNDEF: 0)
     d54:	2e010000 	cdpcs	0, 0, cr0, cr1, cr0, {0}
     d58:	6174732f 	cmnvs	r4, pc, lsr #6
     d5c:	732d6666 			; <UNDEFINED> instruction: 0x732d6666
     d60:	2f006372 	svccs	0x00006372
     d64:	72657355 	rsbvc	r7, r5, #1409286145	; 0x54000001
     d68:	64612f73 	strbtvs	r2, [r1], #-3955	; 0xfffff08d
     d6c:	2f6e696d 	svccs	0x006e696d
     d70:	342d5343 	strtcc	r5, [sp], #-835	; 0xfffffcbd
     d74:	632f4e39 			; <UNDEFINED> instruction: 0x632f4e39
     d78:	6e393473 	mrcvs	4, 1, r3, cr9, cr3, {3}
     d7c:	6131322d 	teqvs	r1, sp, lsr #4
     d80:	2f2f7475 	svccs	0x002f7475
     d84:	7062696c 	rsbvc	r6, r2, ip, ror #18
     d88:	6e692f69 	cdpvs	15, 6, cr2, cr9, cr9, {3}
     d8c:	64756c63 	ldrbtvs	r6, [r5], #-3171	; 0xfffff39d
     d90:	72000065 	andvc	r0, r0, #101, 0	; 0x65
     d94:	6f6f6265 	svcvs	0x006f6265
     d98:	00632e74 	rsbeq	r2, r3, r4, ror lr
     d9c:	72000001 	andvc	r0, r0, #1, 0
     da0:	682e6970 	stmdavs	lr!, {r4, r5, r6, r8, fp, sp, lr}
     da4:	00000200 	andeq	r0, r0, r0, lsl #4
     da8:	00190500 	andseq	r0, r9, r0, lsl #10
     dac:	8c140205 	lfmhi	f0, 4, [r4], {5}
     db0:	0d030000 	stceq	0, cr0, [r3, #-0]
     db4:	13050501 	movwne	r0, #21761	; 0x5501
     db8:	13053113 	movwne	r3, #20755	; 0x5113
     dbc:	01050106 	tsteq	r5, r6, lsl #2
     dc0:	061b052f 	ldreq	r0, [fp], -pc, lsr #10
     dc4:	13050585 	movwne	r0, #21893	; 0x5585
     dc8:	2f090514 	svccs	0x00090514
     dcc:	01061605 	tsteq	r6, r5, lsl #12
     dd0:	052e0e05 	streq	r0, [lr, #-3589]!	; 0xfffff1fb
     dd4:	052f0605 	streq	r0, [pc, #-1541]!	; 7d7 <__code_start__-0x7829>
     dd8:	052f0601 	streq	r0, [pc, #-1537]!	; 7df <__code_start__-0x7821>
     ddc:	05300617 	ldreq	r0, [r0, #-1559]!	; 0xfffff9e9
     de0:	08052f05 	stmdaeq	r5, {r0, r2, r8, r9, sl, fp, sp}
     de4:	07050106 	streq	r0, [r5, -r6, lsl #2]
     de8:	0605052e 	streq	r0, [r5], -lr, lsr #10
     dec:	2f4a0b03 	svccs	0x004a0b03
     df0:	1313134d 	tstne	r3, #872415233	; 0x34000001
     df4:	02006715 	andeq	r6, r0, #5505024	; 0x540000
     df8:	05670104 	strbeq	r0, [r7, #-260]!	; 0xfffffefc
     dfc:	0402000d 	streq	r0, [r2], #-13
     e00:	0a050101 	beq	14120c <__bss_end__+0x13792c>
     e04:	01040200 	mrseq	r0, R12_usr
     e08:	03090501 	movweq	r0, #38145	; 0x9501
     e0c:	0c022e6a 	stceq	14, cr2, [r2], {106}	; 0x6a
     e10:	d9010100 	stmdble	r1, {r8}
     e14:	03000000 	movweq	r0, #0
     e18:	00006200 	andeq	r6, r0, r0, lsl #4
     e1c:	fb010200 	blx	41626 <__bss_end__+0x37d46>
     e20:	01000d0e 	tsteq	r0, lr, lsl #26
     e24:	00010101 	andeq	r0, r1, r1, lsl #2
     e28:	00010000 	andeq	r0, r1, r0
     e2c:	2f2e0100 	svccs	0x002e0100
     e30:	66617473 			; <UNDEFINED> instruction: 0x66617473
     e34:	72732d66 	rsbsvc	r2, r3, #6528	; 0x1980
     e38:	552f0063 	strpl	r0, [pc, #-99]!	; ddd <__code_start__-0x7223>
     e3c:	73726573 	cmnvc	r2, #482344960	; 0x1cc00000
     e40:	6d64612f 	stfvse	f6, [r4, #-188]!	; 0xffffff44
     e44:	432f6e69 			; <UNDEFINED> instruction: 0x432f6e69
     e48:	39342d53 	ldmdbcc	r4!, {r0, r1, r4, r6, r8, sl, fp, sp}
     e4c:	73632f4e 	cmnvc	r3, #312	; 0x138
     e50:	2d6e3934 			; <UNDEFINED> instruction: 0x2d6e3934
     e54:	75613132 	strbvc	r3, [r1, #-306]!	; 0xfffffece
     e58:	6c2f2f74 	stcvs	15, cr2, [pc], #-464	; c90 <__code_start__-0x7370>
     e5c:	69706269 	ldmdbvs	r0!, {r0, r3, r5, r6, r9, sp, lr}^
     e60:	636e692f 	cmnvs	lr, #770048	; 0xbc000
     e64:	6564756c 	strbvs	r7, [r4, #-1388]!	; 0xfffffa94
     e68:	69740000 	ldmdbvs	r4!, {}^	; <UNPREDICTABLE>
     e6c:	2e72656d 	cdpcs	5, 7, cr6, cr2, cr13, {3}
     e70:	00010063 	andeq	r0, r1, r3, rrx
     e74:	69707200 	ldmdbvs	r0!, {r9, ip, sp, lr}^
     e78:	0200682e 	andeq	r6, r0, #3014656	; 0x2e0000
     e7c:	05000000 	streq	r0, [r0, #-0]
     e80:	02050023 	andeq	r0, r5, #35, 0	; 0x23
     e84:	00008c90 	muleq	r0, r0, ip
     e88:	2f050515 	svccs	0x00050515
     e8c:	01060c05 	tsteq	r6, r5, lsl #24
     e90:	054b0105 	strbeq	r0, [fp, #-261]	; 0xfffffefb
     e94:	054d061f 	strbeq	r0, [sp, #-1567]	; 0xfffff9e1
     e98:	052f3105 	streq	r3, [pc, #-261]!	; d9b <__code_start__-0x7265>
     e9c:	05010612 	streq	r0, [r1, #-1554]	; 0xfffff9ee
     ea0:	2f4b0605 	svccs	0x004b0605
     ea4:	13060105 	movwne	r0, #24837	; 0x6105
     ea8:	4c061c05 	stcmi	12, cr1, [r6], {5}
     eac:	05050106 	streq	r0, [r5, #-262]	; 0xfffffefa
     eb0:	13054b06 	movwne	r4, #23302	; 0x5b06
     eb4:	052e0106 	streq	r0, [lr, #-262]!	; 0xfffffefa
     eb8:	052f0605 	streq	r0, [pc, #-1541]!	; 8bb <__code_start__-0x7745>
     ebc:	17051309 	strne	r1, [r5, -r9, lsl #6]
     ec0:	09050106 	stmdbeq	r5, {r1, r2, r8}
     ec4:	11052f06 	tstne	r5, r6, lsl #30
     ec8:	0c050106 	stfeqs	f0, [r5], {6}
     ecc:	061c052e 	ldreq	r0, [ip], -lr, lsr #10
     ed0:	0501066b 	streq	r0, [r1, #-1643]	; 0xfffff995
     ed4:	062f0605 	strteq	r0, [pc], -r5, lsl #12
     ed8:	4b01054a 	blmi	42408 <__bss_end__+0x38b28>
     edc:	2f061e05 	svccs	0x00061e05
     ee0:	05050106 	streq	r0, [r5, #-262]	; 0xfffffefa
     ee4:	4a062f06 	bmi	18cb04 <__bss_end__+0x183224>
     ee8:	024b0105 	subeq	r0, fp, #1073741825	; 0x40000001
     eec:	01010002 	tsteq	r1, r2
     ef0:	000001b5 			; <UNDEFINED> instruction: 0x000001b5
     ef4:	009e0003 	addseq	r0, lr, r3
     ef8:	01020000 	mrseq	r0, (UNDEF: 2)
     efc:	000d0efb 	strdeq	r0, [sp], -fp
     f00:	01010101 	tsteq	r1, r1, lsl #2
     f04:	01000000 	mrseq	r0, (UNDEF: 0)
     f08:	2f010000 	svccs	0x00010000
     f0c:	656d6f68 	strbvs	r6, [sp, #-3944]!	; 0xfffff098
     f10:	676e652f 	strbvs	r6, [lr, -pc, lsr #10]!
     f14:	2f72656c 	svccs	0x0072656c
     f18:	73616c63 	cmnvc	r1, #25344	; 0x6300
     f1c:	73632f73 	cmnvc	r3, #460	; 0x1cc
     f20:	65303431 	ldrvs	r3, [r0, #-1073]!	; 0xfffffbcf
     f24:	7331322d 	teqvc	r1, #-805306366	; 0xd0000002
     f28:	2f2f7270 	svccs	0x002f7270
     f2c:	7062696c 	rsbvc	r6, r2, ip, ror #18
     f30:	6e692f69 	cdpvs	15, 6, cr2, cr9, cr9, {3}
     f34:	64756c63 	ldrbtvs	r6, [r5], #-3171	; 0xfffff39d
     f38:	752f0065 	strvc	r0, [pc, #-101]!	; edb <__code_start__-0x7125>
     f3c:	6c2f7273 	sfmvs	f7, 4, [pc], #-460	; d78 <__code_start__-0x7288>
     f40:	672f6269 	strvs	r6, [pc, -r9, ror #4]!
     f44:	612f6363 			; <UNDEFINED> instruction: 0x612f6363
     f48:	6e2d6d72 	mcrvs	13, 1, r6, cr13, cr2, {3}
     f4c:	2d656e6f 	stclcs	14, cr6, [r5, #-444]!	; 0xfffffe44
     f50:	69626165 	stmdbvs	r2!, {r0, r2, r5, r6, r8, sp, lr}^
     f54:	322e392f 	eorcc	r3, lr, #770048	; 0xbc000
     f58:	692f312e 	stmdbvs	pc!, {r1, r2, r3, r5, r8, ip, sp}	; <UNPREDICTABLE>
     f5c:	756c636e 	strbvc	r6, [ip, #-878]!	; 0xfffffc92
     f60:	00006564 	andeq	r6, r0, r4, ror #10
     f64:	74726175 	ldrbtvc	r6, [r2], #-373	; 0xfffffe8b
     f68:	0000632e 	andeq	r6, r0, lr, lsr #6
     f6c:	70720000 	rsbsvc	r0, r2, r0
     f70:	00682e69 	rsbeq	r2, r8, r9, ror #28
     f74:	75000001 	strvc	r0, [r0, #-1]
     f78:	2e747261 	cdpcs	2, 7, cr7, cr4, cr1, {3}
     f7c:	00010068 	andeq	r0, r1, r8, rrx
     f80:	69706700 	ldmdbvs	r0!, {r8, r9, sl, sp, lr}^
     f84:	00682e6f 	rsbeq	r2, r8, pc, ror #28
     f88:	73000001 	movwvc	r0, #1
     f8c:	6e696474 	mcrvs	4, 3, r6, cr9, cr4, {3}
     f90:	00682e74 	rsbeq	r2, r8, r4, ror lr
     f94:	00000002 	andeq	r0, r0, r2
     f98:	05003805 	streq	r3, [r0, #-2053]	; 0xfffff7fb
     f9c:	008d1402 	addeq	r1, sp, r2, lsl #8
     fa0:	012d0300 			; <UNDEFINED> instruction: 0x012d0300
     fa4:	05050106 	streq	r0, [r5, #-262]	; 0xfffffefa
     fa8:	11056706 	tstne	r5, r6, lsl #14
     fac:	05050106 	streq	r0, [r5, #-262]	; 0xfffffefa
     fb0:	6701052e 	strvs	r0, [r1, -lr, lsr #10]
     fb4:	03061605 	movweq	r1, #26117	; 0x6605
     fb8:	05052e0b 	streq	r2, [r5, #-3595]	; 0xfffff1f5
     fbc:	35686735 	strbcc	r6, [r8, #-1845]!	; 0xfffff8cb
     fc0:	2e0c0368 	cdpcs	3, 0, cr0, cr12, cr8, {3}
     fc4:	69696b85 	stmdbvs	r9!, {r0, r2, r7, r8, r9, fp, sp, lr}^
     fc8:	13660c03 	cmnne	r6, #768	; 0x300
     fcc:	0105676b 	tsteq	r5, fp, ror #14
     fd0:	19052f06 	stmdbne	r5, {r1, r2, r8, r9, sl, fp, sp}
     fd4:	05250806 	streq	r0, [r5, #-2054]!	; 0xfffff7fa
     fd8:	0d053405 	cfstrseq	mvf3, [r5, #-20]	; 0xffffffec
     fdc:	01050106 	tsteq	r5, r6, lsl #2
     fe0:	0619054c 	ldreq	r0, [r9], -ip, asr #10
     fe4:	36050567 	strcc	r0, [r5], -r7, ror #10
     fe8:	01060d05 	tsteq	r6, r5, lsl #26
     fec:	054a2805 	strbeq	r2, [sl, #-2053]	; 0xfffff7fb
     ff0:	15053001 	strne	r3, [r5, #-1]
     ff4:	05058706 	streq	r8, [r5, #-1798]	; 0xfffff8fa
     ff8:	09052f2f 	stmdbeq	r5, {r0, r1, r2, r3, r5, r8, r9, sl, fp, sp}
     ffc:	01040200 	mrseq	r0, R12_usr
    1000:	000a0513 	andeq	r0, sl, r3, lsl r5
    1004:	11010402 	tstne	r1, r2, lsl #8
    1008:	02000c05 	andeq	r0, r0, #1280	; 0x500
    100c:	01060104 	tsteq	r6, r4, lsl #2
    1010:	02000a05 	andeq	r0, r0, #20480	; 0x5000
    1014:	052e0104 	streq	r0, [lr, #-260]!	; 0xfffffefc
    1018:	054c0605 	strbeq	r0, [ip, #-1541]	; 0xfffff9fb
    101c:	0501060e 	streq	r0, [r1, #-1550]	; 0xfffff9f2
    1020:	05054a09 	streq	r4, [r5, #-2569]	; 0xfffff5f7
    1024:	052f2f06 	streq	r2, [pc, #-3846]!	; 126 <__code_start__-0x7eda>
    1028:	05130601 	ldreq	r0, [r3, #-1537]	; 0xfffff9ff
    102c:	0667061c 			; <UNDEFINED> instruction: 0x0667061c
    1030:	06050501 	streq	r0, [r5], -r1, lsl #10
    1034:	09052f4b 	stmdbeq	r5, {r0, r1, r3, r6, r8, r9, sl, fp, sp}
    1038:	01040200 	mrseq	r0, R12_usr
    103c:	000a0513 	andeq	r0, sl, r3, lsl r5
    1040:	11010402 	tstne	r1, r2, lsl #8
    1044:	02000c05 	andeq	r0, r0, #1280	; 0x500
    1048:	01060104 	tsteq	r6, r4, lsl #2
    104c:	02000a05 	andeq	r0, r0, #20480	; 0x5000
    1050:	052e0104 	streq	r0, [lr, #-260]!	; 0xfffffefc
    1054:	674c0605 	strbvs	r0, [ip, -r5, lsl #12]
    1058:	2f060105 	svccs	0x00060105
    105c:	4c061905 			; <UNDEFINED> instruction: 0x4c061905
    1060:	052e1b05 	streq	r1, [lr, #-2821]!	; 0xfffff4fb
    1064:	31052e2a 	tstcc	r5, sl, lsr #28
    1068:	01050106 	tsteq	r5, r6, lsl #2
    106c:	061c052e 	ldreq	r0, [ip], -lr, lsr #10
    1070:	2f050531 	svccs	0x00050531
    1074:	052e0903 	streq	r0, [lr, #-2307]!	; 0xfffff6fd
    1078:	0501060e 	streq	r0, [r1, #-1550]	; 0xfffff9f2
    107c:	01054a21 	tsteq	r5, r1, lsr #20
    1080:	052e0a03 	streq	r0, [lr, #-2563]!	; 0xfffff5fd
    1084:	0568061a 	strbeq	r0, [r8, #-1562]!	; 0xfffff9e6
    1088:	04020009 	streq	r0, [r2], #-9
    108c:	0a053001 	beq	14d098 <__bss_end__+0x1437b8>
    1090:	01040200 	mrseq	r0, R12_usr
    1094:	000c0511 	andeq	r0, ip, r1, lsl r5
    1098:	06010402 	streq	r0, [r1], -r2, lsl #8
    109c:	000a0501 	andeq	r0, sl, r1, lsl #10
    10a0:	2e010402 	cdpcs	4, 0, cr0, cr1, cr2, {0}
    10a4:	01000602 	tsteq	r0, r2, lsl #12
    10a8:	0001b701 	andeq	fp, r1, r1, lsl #14
    10ac:	65000300 	strvs	r0, [r0, #-768]	; 0xfffffd00
    10b0:	02000000 	andeq	r0, r0, #0, 0
    10b4:	0d0efb01 	vstreq	d15, [lr, #-4]
    10b8:	01010100 	mrseq	r0, (UNDEF: 17)
    10bc:	00000001 	andeq	r0, r0, r1
    10c0:	01000001 	tsteq	r0, r1
    10c4:	72732f2e 	rsbsvc	r2, r3, #184	; 0xb8
    10c8:	552f0063 	strpl	r0, [pc, #-99]!	; 106d <__code_start__-0x6f93>
    10cc:	73726573 	cmnvc	r2, #482344960	; 0x1cc00000
    10d0:	6d64612f 	stfvse	f6, [r4, #-188]!	; 0xffffff44
    10d4:	432f6e69 			; <UNDEFINED> instruction: 0x432f6e69
    10d8:	39342d53 	ldmdbcc	r4!, {r0, r1, r4, r6, r8, sl, fp, sp}
    10dc:	73632f4e 	cmnvc	r3, #312	; 0x138
    10e0:	2d6e3934 			; <UNDEFINED> instruction: 0x2d6e3934
    10e4:	75613132 	strbvc	r3, [r1, #-306]!	; 0xfffffece
    10e8:	6c2f2f74 	stcvs	15, cr2, [pc], #-464	; f20 <__code_start__-0x70e0>
    10ec:	69706269 	ldmdbvs	r0!, {r0, r3, r5, r6, r9, sp, lr}^
    10f0:	636e692f 	cmnvs	lr, #770048	; 0xbc000
    10f4:	6564756c 	strbvs	r7, [r4, #-1388]!	; 0xfffffa94
    10f8:	70670000 	rsbvc	r0, r7, r0
    10fc:	632e6f69 			; <UNDEFINED> instruction: 0x632e6f69
    1100:	00000100 	andeq	r0, r0, r0, lsl #2
    1104:	2e697072 	mcrcs	0, 3, r7, cr9, cr2, {3}
    1108:	00020068 	andeq	r0, r2, r8, rrx
    110c:	69706700 	ldmdbvs	r0!, {r8, r9, sl, sp, lr}^
    1110:	00682e6f 	rsbeq	r2, r8, pc, ror #28
    1114:	00000002 	andeq	r0, r0, r2
    1118:	05002405 	streq	r2, [r0, #-1029]	; 0xfffffbfb
    111c:	008ec002 	addeq	ip, lr, r2
    1120:	011d0300 	tsteq	sp, r0, lsl #6
    1124:	05130505 	ldreq	r0, [r3, #-1285]	; 0xfffffafb
    1128:	05010608 	streq	r0, [r1, #-1544]	; 0xfffff9f8
    112c:	05054924 	streq	r4, [r5, #-2340]	; 0xfffff6dc
    1130:	30054f06 	andcc	r4, r5, r6, lsl #30
    1134:	2a050106 	bcs	141554 <__bss_end__+0x137c74>
    1138:	2e180566 	cfmsc32cs	mvfx0, mvfx8, mvfx6
    113c:	4b060505 	blmi	182558 <__bss_end__+0x178c78>
    1140:	01061605 	tsteq	r6, r5, lsl #12
    1144:	0605052e 	streq	r0, [r5], -lr, lsr #10
    1148:	06270530 			; <UNDEFINED> instruction: 0x06270530
    114c:	4a0e0501 	bmi	382558 <__bss_end__+0x378c78>
    1150:	2f060505 	svccs	0x00060505
    1154:	060e0514 			; <UNDEFINED> instruction: 0x060e0514
    1158:	06050501 	streq	r0, [r5], -r1, lsl #10
    115c:	6606144b 	strvs	r1, [r6], -fp, asr #8
    1160:	052f0105 	streq	r0, [pc, #-261]!	; 1063 <__code_start__-0x6f9d>
    1164:	054d0620 	strbeq	r0, [sp, #-1568]	; 0xfffff9e0
    1168:	05131405 	ldreq	r1, [r3, #-1029]	; 0xfffffbfb
    116c:	05010608 	streq	r0, [r1, #-1544]	; 0xfffff9f8
    1170:	05054720 	streq	r4, [r5, #-1824]	; 0xfffff8e0
    1174:	66063306 	strvs	r3, [r6], -r6, lsl #6
    1178:	052f0105 	streq	r0, [pc, #-261]!	; 107b <__code_start__-0x6f85>
    117c:	054d0621 	strbeq	r0, [sp, #-1569]	; 0xfffff9df
    1180:	05131405 	ldreq	r1, [r3, #-1029]	; 0xfffffbfb
    1184:	05010608 	streq	r0, [r1, #-1544]	; 0xfffff9f8
    1188:	05054721 	streq	r4, [r5, #-1825]	; 0xfffff8df
    118c:	66063306 	strvs	r3, [r6], -r6, lsl #6
    1190:	052f0105 	streq	r0, [pc, #-261]!	; 1093 <__code_start__-0x6f6d>
    1194:	064d062b 	strbeq	r0, [sp], -fp, lsr #12
    1198:	06050501 	streq	r0, [r5], -r1, lsl #10
    119c:	0608052f 	streq	r0, [r8], -pc, lsr #10
    11a0:	06090501 	streq	r0, [r9], -r1, lsl #10
    11a4:	062e064b 	strteq	r0, [lr], -fp, asr #12
    11a8:	06010530 			; <UNDEFINED> instruction: 0x06010530
    11ac:	0623052f 	strteq	r0, [r3], -pc, lsr #10
    11b0:	13050535 	movwne	r0, #21813	; 0x5535
    11b4:	01060805 	tsteq	r6, r5, lsl #16
    11b8:	05492305 	strbeq	r2, [r9, #-773]	; 0xfffffcfb
    11bc:	054d0605 	strbeq	r0, [sp, #-1541]	; 0xfffff9fb
    11c0:	05010630 	streq	r0, [r1, #-1584]	; 0xfffff9d0
    11c4:	1805662a 	stmdane	r5, {r1, r3, r5, r9, sl, sp, lr}
    11c8:	0605052e 	streq	r0, [r5], -lr, lsr #10
    11cc:	0616054b 	ldreq	r0, [r6], -fp, asr #10
    11d0:	05052e01 	streq	r2, [r5, #-3585]	; 0xfffff1ff
    11d4:	27053006 	strcs	r3, [r5, -r6]
    11d8:	0e050106 	adfeqs	f0, f5, f6
    11dc:	0605054a 	streq	r0, [r5], -sl, asr #10
    11e0:	0614142f 	ldreq	r1, [r4], -pc, lsr #8
    11e4:	01052e4a 	tsteq	r5, sl, asr #28
    11e8:	061d052f 	ldreq	r0, [sp], -pc, lsr #10
    11ec:	1305054d 	movwne	r0, #21837	; 0x554d
    11f0:	01060805 	tsteq	r6, r5, lsl #16
    11f4:	054b1005 	strbeq	r1, [fp, #-5]
    11f8:	1d053501 	cfstr32ne	mvfx3, [r5, #-4]
    11fc:	052e7703 	streq	r7, [lr, #-1795]!	; 0xfffff8fd
    1200:	134d0605 	movtne	r0, #54789	; 0xd605
    1204:	06150513 			; <UNDEFINED> instruction: 0x06150513
    1208:	05052e01 	streq	r2, [r5, #-3585]	; 0xfffff1ff
    120c:	05132f06 	ldreq	r2, [r3, #-3846]	; 0xfffff0fa
    1210:	6601061b 			; <UNDEFINED> instruction: 0x6601061b
    1214:	2f060505 	svccs	0x00060505
    1218:	13060105 	movwne	r0, #24837	; 0x6105
    121c:	4c063c05 	stcmi	12, cr3, [r6], {5}
    1220:	05130505 	ldreq	r0, [r3, #-1285]	; 0xfffffafb
    1224:	05010608 	streq	r0, [r1, #-1544]	; 0xfffff9f8
    1228:	0505653c 	streq	r6, [r5, #-1340]	; 0xfffffac4
    122c:	30056906 	andcc	r6, r5, r6, lsl #18
    1230:	2a050106 	bcs	141650 <__bss_end__+0x137d70>
    1234:	2e180566 	cfmsc32cs	mvfx0, mvfx8, mvfx6
    1238:	4b060505 	blmi	182654 <__bss_end__+0x178d74>
    123c:	01061605 	tsteq	r6, r5, lsl #12
    1240:	0605052e 	streq	r0, [r5], -lr, lsr #10
    1244:	06270530 			; <UNDEFINED> instruction: 0x06270530
    1248:	4a0e0501 	bmi	382654 <__bss_end__+0x378d74>
    124c:	2f060505 	svccs	0x00060505
    1250:	060e0514 			; <UNDEFINED> instruction: 0x060e0514
    1254:	06050501 	streq	r0, [r5], -r1, lsl #10
    1258:	2e2e064c 	cfmadda32cs	mvax2, mvax0, mvfx14, mvfx12
    125c:	02300105 	eorseq	r0, r0, #1073741825	; 0x40000001
    1260:	01010004 	tsteq	r1, r4
    1264:	000000e9 	andeq	r0, r0, r9, ror #1
    1268:	005e0003 	subseq	r0, lr, r3
    126c:	01020000 	mrseq	r0, (UNDEF: 2)
    1270:	000d0efb 	strdeq	r0, [sp], -fp
    1274:	01010101 	tsteq	r1, r1, lsl #2
    1278:	01000000 	mrseq	r0, (UNDEF: 0)
    127c:	2e010000 	cdpcs	0, 0, cr0, cr1, cr0, {0}
    1280:	62696c2f 	rsbvs	r6, r9, #12032	; 0x2f00
    1284:	552f0063 	strpl	r0, [pc, #-99]!	; 1229 <__code_start__-0x6dd7>
    1288:	73726573 	cmnvc	r2, #482344960	; 0x1cc00000
    128c:	6d64612f 	stfvse	f6, [r4, #-188]!	; 0xffffff44
    1290:	432f6e69 			; <UNDEFINED> instruction: 0x432f6e69
    1294:	39342d53 	ldmdbcc	r4!, {r0, r1, r4, r6, r8, sl, fp, sp}
    1298:	73632f4e 	cmnvc	r3, #312	; 0x138
    129c:	2d6e3934 			; <UNDEFINED> instruction: 0x2d6e3934
    12a0:	75613132 	strbvc	r3, [r1, #-306]!	; 0xfffffece
    12a4:	6c2f2f74 	stcvs	15, cr2, [pc], #-464	; 10dc <__code_start__-0x6f24>
    12a8:	69706269 	ldmdbvs	r0!, {r0, r3, r5, r6, r9, sp, lr}^
    12ac:	636e692f 	cmnvs	lr, #770048	; 0xbc000
    12b0:	6564756c 	strbvs	r7, [r4, #-1388]!	; 0xfffffa94
    12b4:	74730000 	ldrbtvc	r0, [r3], #-0
    12b8:	74616372 	strbtvc	r6, [r1], #-882	; 0xfffffc8e
    12bc:	0100632e 	tsteq	r0, lr, lsr #6
    12c0:	70720000 	rsbsvc	r0, r2, r0
    12c4:	00682e69 	rsbeq	r2, r8, r9, ror #28
    12c8:	00000002 	andeq	r0, r0, r2
    12cc:	05002c05 	streq	r2, [r0, #-3077]	; 0xfffff3fb
    12d0:	00906c02 	addseq	r6, r0, r2, lsl #24
    12d4:	05051500 	streq	r1, [r5, #-1280]	; 0xfffffb00
    12d8:	0b051313 	bleq	145f2c <__bss_end__+0x13c64c>
    12dc:	05051106 	streq	r1, [r5, #-262]	; 0xfffffefa
    12e0:	01040200 	mrseq	r0, R12_usr
    12e4:	02003006 	andeq	r3, r0, #6, 0
    12e8:	05150104 	ldreq	r0, [r5, #-260]	; 0xfffffefc
    12ec:	04020009 	streq	r0, [r2], #-9
    12f0:	10051301 	andne	r1, r5, r1, lsl #6
    12f4:	01040200 	mrseq	r0, R12_usr
    12f8:	0b052e06 	bleq	14cb18 <__bss_end__+0x143238>
    12fc:	01040200 	mrseq	r0, R12_usr
    1300:	0402002e 	streq	r0, [r2], #-46	; 0xffffffd2
    1304:	052f0601 	streq	r0, [pc, #-1537]!	; d0b <__code_start__-0x72f5>
    1308:	04020005 	streq	r0, [r2], #-5
    130c:	06010601 	streq	r0, [r1], -r1, lsl #12
    1310:	0608054e 	streq	r0, [r8], -lr, asr #10
    1314:	00050501 	andeq	r0, r5, r1, lsl #10
    1318:	06010402 	streq	r0, [r1], -r2, lsl #8
    131c:	0009052f 	andeq	r0, r9, pc, lsr #10
    1320:	13010402 	movwne	r0, #5122	; 0x1402
    1324:	02000b05 	andeq	r0, r0, #5120	; 0x1400
    1328:	01060104 	tsteq	r6, r4, lsl #2
    132c:	02000905 	andeq	r0, r0, #81920	; 0x14000
    1330:	4b060104 	blmi	181748 <__bss_end__+0x177e68>
    1334:	02000f05 	andeq	r0, r0, #5, 30
    1338:	01060104 	tsteq	r6, r4, lsl #2
    133c:	02000d05 	andeq	r0, r0, #320	; 0x140
    1340:	2f060104 	svccs	0x00060104
    1344:	02000505 	andeq	r0, r0, #20971520	; 0x1400000
    1348:	01060104 	tsteq	r6, r4, lsl #2
    134c:	01000602 	tsteq	r0, r2, lsl #12
    1350:	0000a201 	andeq	sl, r0, r1, lsl #4
    1354:	5e000300 	cdppl	3, 0, cr0, cr0, cr0, {0}
    1358:	02000000 	andeq	r0, r0, #0, 0
    135c:	0d0efb01 	vstreq	d15, [lr, #-4]
    1360:	01010100 	mrseq	r0, (UNDEF: 17)
    1364:	00000001 	andeq	r0, r0, r1
    1368:	01000001 	tsteq	r0, r1
    136c:	696c2f2e 	stmdbvs	ip!, {r1, r2, r3, r5, r8, r9, sl, fp, sp}^
    1370:	2f006362 	svccs	0x00006362
    1374:	72657355 	rsbvc	r7, r5, #1409286145	; 0x54000001
    1378:	64612f73 	strbtvs	r2, [r1], #-3955	; 0xfffff08d
    137c:	2f6e696d 	svccs	0x006e696d
    1380:	342d5343 	strtcc	r5, [sp], #-835	; 0xfffffcbd
    1384:	632f4e39 			; <UNDEFINED> instruction: 0x632f4e39
    1388:	6e393473 	mrcvs	4, 1, r3, cr9, cr3, {3}
    138c:	6131322d 	teqvs	r1, sp, lsr #4
    1390:	2f2f7475 	svccs	0x002f7475
    1394:	7062696c 	rsbvc	r6, r2, ip, ror #18
    1398:	6e692f69 	cdpvs	15, 6, cr2, cr9, cr9, {3}
    139c:	64756c63 	ldrbtvs	r6, [r5], #-3171	; 0xfffff39d
    13a0:	73000065 	movwvc	r0, #101	; 0x65
    13a4:	6d637274 	sfmvs	f7, 2, [r3, #-464]!	; 0xfffffe30
    13a8:	00632e70 	rsbeq	r2, r3, r0, ror lr
    13ac:	72000001 	andvc	r0, r0, #1, 0
    13b0:	682e6970 	stmdavs	lr!, {r4, r5, r6, r8, fp, sp, lr}
    13b4:	00000200 	andeq	r0, r0, r0, lsl #4
    13b8:	002a0500 	eoreq	r0, sl, r0, lsl #10
    13bc:	90a00205 	adcls	r0, r0, r5, lsl #4
    13c0:	05140000 	ldreq	r0, [r4, #-0]
    13c4:	0f051309 	svceq	0x00051309
    13c8:	06100501 	ldreq	r0, [r0], -r1, lsl #10
    13cc:	2e0f0501 	cfsh32cs	mvfx0, mvfx15, #1
    13d0:	02001c05 	andeq	r1, r0, #1280	; 0x500
    13d4:	054a0104 	strbeq	r0, [sl, #-260]	; 0xfffffefc
    13d8:	04020013 	streq	r0, [r2], #-19	; 0xffffffed
    13dc:	11052e01 	tstne	r5, r1, lsl #28
    13e0:	16052f06 	strne	r2, [r5], -r6, lsl #30
    13e4:	052e2e06 	streq	r2, [lr, #-3590]!	; 0xfffff1fa
    13e8:	052f0609 	streq	r0, [pc, #-1545]!	; de7 <__code_start__-0x7219>
    13ec:	05010615 	streq	r0, [r1, #-1557]	; 0xfffff9eb
    13f0:	04022f01 	streq	r2, [r2], #-3841	; 0xfffff0ff
    13f4:	a0010100 	andge	r0, r1, r0, lsl #2
    13f8:	03000000 	movweq	r0, #0
    13fc:	00005e00 	andeq	r5, r0, r0, lsl #28
    1400:	fb010200 	blx	41c0a <__bss_end__+0x3832a>
    1404:	01000d0e 	tsteq	r0, lr, lsl #26
    1408:	00010101 	andeq	r0, r1, r1, lsl #2
    140c:	00010000 	andeq	r0, r1, r0
    1410:	2f2e0100 	svccs	0x002e0100
    1414:	6362696c 	cmnvs	r2, #108, 18	; 0x1b0000
    1418:	73552f00 	cmpvc	r5, #0, 30
    141c:	2f737265 	svccs	0x00737265
    1420:	696d6461 	stmdbvs	sp!, {r0, r5, r6, sl, sp, lr}^
    1424:	53432f6e 	movtpl	r2, #16238	; 0x3f6e
    1428:	4e39342d 	cdpmi	4, 3, cr3, cr9, cr13, {1}
    142c:	3473632f 	ldrbtcc	r6, [r3], #-815	; 0xfffffcd1
    1430:	322d6e39 	eorcc	r6, sp, #912	; 0x390
    1434:	74756131 	ldrbtvc	r6, [r5], #-305	; 0xfffffecf
    1438:	696c2f2f 	stmdbvs	ip!, {r0, r1, r2, r3, r5, r8, r9, sl, fp, sp}^
    143c:	2f697062 	svccs	0x00697062
    1440:	6c636e69 	stclvs	14, cr6, [r3], #-420	; 0xfffffe5c
    1444:	00656475 	rsbeq	r6, r5, r5, ror r4
    1448:	72747300 	rsbsvc	r7, r4, #0, 6
    144c:	2e797063 	cdpcs	0, 7, cr7, cr9, cr3, {3}
    1450:	00010063 	andeq	r0, r1, r3, rrx
    1454:	69707200 	ldmdbvs	r0!, {r9, ip, sp, lr}^
    1458:	0200682e 	andeq	r6, r0, #3014656	; 0x2e0000
    145c:	05000000 	streq	r0, [r0, #-0]
    1460:	0205002a 	andeq	r0, r5, #42, 0	; 0x2a
    1464:	000090cc 	andeq	r9, r0, ip, asr #1
    1468:	13050514 	movwne	r0, #21780	; 0x5514
    146c:	06140513 			; <UNDEFINED> instruction: 0x06140513
    1470:	00220511 	eoreq	r0, r2, r1, lsl r5
    1474:	06010402 	streq	r0, [r1], -r2, lsl #8
    1478:	000b052f 	andeq	r0, fp, pc, lsr #10
    147c:	01010402 	tsteq	r1, r2, lsl #8
    1480:	02001505 	andeq	r1, r0, #20971520	; 0x1400000
    1484:	01060104 	tsteq	r6, r4, lsl #2
    1488:	02001305 	andeq	r1, r0, #335544320	; 0x14000000
    148c:	054a0104 	strbeq	r0, [sl, #-260]	; 0xfffffefc
    1490:	0402000b 	streq	r0, [r2], #-11
    1494:	06024a01 	streq	r4, [r2], -r1, lsl #20
    1498:	03010100 	movweq	r0, #4352	; 0x1100
    149c:	03000001 	movweq	r0, #1
    14a0:	0000c700 	andeq	ip, r0, r0, lsl #14
    14a4:	fb010200 	blx	41cae <__bss_end__+0x383ce>
    14a8:	01000d0e 	tsteq	r0, lr, lsl #26
    14ac:	00010101 	andeq	r0, r1, r1, lsl #2
    14b0:	00010000 	andeq	r0, r1, r0
    14b4:	2f2e0100 	svccs	0x002e0100
    14b8:	6362696c 	cmnvs	r2, #108, 18	; 0x1b0000
    14bc:	73552f00 	cmpvc	r5, #0, 30
    14c0:	2f737265 	svccs	0x00737265
    14c4:	696d6461 	stmdbvs	sp!, {r0, r5, r6, sl, sp, lr}^
    14c8:	53432f6e 	movtpl	r2, #16238	; 0x3f6e
    14cc:	4e39342d 	cdpmi	4, 3, cr3, cr9, cr13, {1}
    14d0:	3473632f 	ldrbtcc	r6, [r3], #-815	; 0xfffffcd1
    14d4:	322d6e39 	eorcc	r6, sp, #912	; 0x390
    14d8:	74756131 	ldrbtvc	r6, [r5], #-305	; 0xfffffecf
    14dc:	696c2f2f 	stmdbvs	ip!, {r0, r1, r2, r3, r5, r8, r9, sl, fp, sp}^
    14e0:	2f697062 	svccs	0x00697062
    14e4:	6c636e69 	stclvs	14, cr6, [r3], #-420	; 0xfffffe5c
    14e8:	00656475 	rsbeq	r6, r5, r5, ror r4
    14ec:	74706f2f 	ldrbtvc	r6, [r0], #-3887	; 0xfffff0d1
    14f0:	6d6f682f 	stclvs	8, cr6, [pc, #-188]!	; 143c <__code_start__-0x6bc4>
    14f4:	65726265 	ldrbvs	r6, [r2, #-613]!	; 0xfffffd9b
    14f8:	65432f77 	strbvs	r2, [r3, #-3959]	; 0xfffff089
    14fc:	72616c6c 	rsbvc	r6, r1, #108, 24	; 0x6c00
    1500:	6d72612f 	ldfvse	f6, [r2, #-188]!	; 0xffffff44
    1504:	6e6f6e2d 	cdpvs	14, 6, cr6, cr15, cr13, {1}
    1508:	61652d65 	cmnvs	r5, r5, ror #26
    150c:	742d6962 	strtvc	r6, [sp], #-2402	; 0xfffff69e
    1510:	2f747365 	svccs	0x00747365
    1514:	30322d39 	eorscc	r2, r2, r9, lsr sp
    1518:	34713931 	ldrbtcc	r3, [r1], #-2353	; 0xfffff6cf
    151c:	3173632d 	cmncc	r3, sp, lsr #6
    1520:	2f653730 	svccs	0x00653730
    1524:	2f62696c 	svccs	0x0062696c
    1528:	2f636367 	svccs	0x00636367
    152c:	2d6d7261 	sfmcs	f7, 2, [sp, #-388]!	; 0xfffffe7c
    1530:	656e6f6e 	strbvs	r6, [lr, #-3950]!	; 0xfffff092
    1534:	6261652d 	rsbvs	r6, r1, #188743680	; 0xb400000
    1538:	2e392f69 	cdpcs	15, 3, cr2, cr9, cr9, {3}
    153c:	2f312e32 	svccs	0x00312e32
    1540:	6c636e69 	stclvs	14, cr6, [r3], #-420	; 0xfffffe5c
    1544:	00656475 	rsbeq	r6, r5, r5, ror r4
    1548:	72747300 	rsbsvc	r7, r4, #0, 6
    154c:	706d636e 	rsbvc	r6, sp, lr, ror #6
    1550:	0100632e 	tsteq	r0, lr, lsr #6
    1554:	70720000 	rsbsvc	r0, r2, r0
    1558:	00682e69 	rsbeq	r2, r8, r9, ror #28
    155c:	73000002 	movwvc	r0, #2
    1560:	65646474 	strbvs	r6, [r4, #-1140]!	; 0xfffffb8c
    1564:	00682e66 	rsbeq	r2, r8, r6, ror #28
    1568:	00000003 	andeq	r0, r0, r3
    156c:	05003905 	streq	r3, [r0, #-2309]	; 0xfffff6fb
    1570:	0090ec02 	addseq	lr, r0, r2, lsl #24
    1574:	05051500 	streq	r1, [r5, #-1280]	; 0xfffffb00
    1578:	0a051313 	beq	1461cc <__bss_end__+0x13c8ec>
    157c:	4a010601 	bmi	42d88 <__bss_end__+0x394a8>
    1580:	2f060905 	svccs	0x00060905
    1584:	01060c05 	tsteq	r6, r5, lsl #24
    1588:	052e1305 	streq	r1, [lr, #-773]!	; 0xfffffcfb
    158c:	0d052e0b 	stceq	14, cr2, [r5, #-44]	; 0xffffffd4
    1590:	1b054b06 	blne	1541b0 <__bss_end__+0x14a8d0>
    1594:	052e0106 	streq	r0, [lr, #-262]!	; 0xfffffefa
    1598:	0105300c 	tsteq	r5, ip
    159c:	0002022f 	andeq	r0, r2, pc, lsr #4
    15a0:	Address 0x00000000000015a0 is out of bounds.


Disassembly of section .debug_str:

00000000 <.debug_str>:
   0:	6c616d6b 	stclvs	13, cr6, [r1], #-428	; 0xfffffe54
   4:	5f636f6c 	svcpl	0x00636f6c
   8:	67696c61 	strbvs	r6, [r9, -r1, ror #24]!
   c:	0064656e 	rsbeq	r6, r4, lr, ror #10
  10:	65742d31 	ldrbvs	r2, [r4, #-3377]!	; 0xfffff2cf
  14:	632e7473 			; <UNDEFINED> instruction: 0x632e7473
  18:	746f6e00 	strbtvc	r6, [pc], #-3584	; 20 <__code_start__-0x7fe0>
  1c:	6e69616d 	powvsez	f6, f1, #5.0
  20:	736e7500 	cmnvc	lr, #0, 10
  24:	656e6769 	strbvs	r6, [lr, #-1897]!	; 0xfffff897
  28:	68632064 	stmdavs	r3!, {r2, r5, r6, sp}^
  2c:	63007261 	movwvs	r7, #609	; 0x261
  30:	6e61656c 	cdpvs	5, 6, cr6, cr1, cr12, {3}
  34:	6265725f 	rsbvs	r7, r5, #-268435451	; 0xf0000005
  38:	00746f6f 	rsbseq	r6, r4, pc, ror #30
  3c:	726f6873 	rsbvc	r6, pc, #7536640	; 0x730000
  40:	6e752074 	mrcvs	0, 3, r2, cr5, cr4, {3}
  44:	6e676973 			; <UNDEFINED> instruction: 0x6e676973
  48:	69206465 	stmdbvs	r0!, {r0, r2, r5, r6, sl, sp, lr}
  4c:	5f00746e 	svcpl	0x0000746e
  50:	4e55465f 	mrcmi	6, 2, r4, cr5, cr15, {2}
  54:	4f495443 	svcmi	0x00495443
  58:	005f5f4e 	subseq	r5, pc, lr, asr #30
  5c:	676e6f6c 	strbvs	r6, [lr, -ip, ror #30]!
  60:	6e6f6c20 	cdpvs	12, 6, cr6, cr15, cr0, {1}
  64:	6e752067 	cdpvs	0, 7, cr2, cr5, cr7, {3}
  68:	6e676973 			; <UNDEFINED> instruction: 0x6e676973
  6c:	69206465 	stmdbvs	r0!, {r0, r2, r5, r6, sl, sp, lr}
  70:	6c00746e 	cfstrsvs	mvf7, [r0], {110}	; 0x6e
  74:	20676e6f 	rsbcs	r6, r7, pc, ror #28
  78:	676e6f6c 	strbvs	r6, [lr, -ip, ror #30]!
  7c:	746e6920 	strbtvc	r6, [lr], #-2336	; 0xfffff6e0
  80:	69707200 	ldmdbvs	r0!, {r9, ip, sp, lr}^
  84:	7475705f 	ldrbtvc	r7, [r5], #-95	; 0xffffffa1
  88:	72616863 	rsbvc	r6, r1, #6488064	; 0x630000
  8c:	73552f00 	cmpvc	r5, #0, 30
  90:	2f737265 	svccs	0x00737265
  94:	696d6461 	stmdbvs	sp!, {r0, r5, r6, sl, sp, lr}^
  98:	53432f6e 	movtpl	r2, #16238	; 0x3f6e
  9c:	4e39342d 	cdpmi	4, 3, cr3, cr9, cr13, {1}
  a0:	3473632f 	ldrbtcc	r6, [r3], #-815	; 0xfffffcd1
  a4:	322d6e39 	eorcc	r6, sp, #912	; 0x390
  a8:	74756131 	ldrbtvc	r6, [r5], #-305	; 0xfffffecf
  ac:	62616c2f 	rsbvs	r6, r1, #12032	; 0x2f00
  b0:	2d352f73 	ldccs	15, cr2, [r5, #-460]!	; 0xfffffe34
  b4:	65746e69 	ldrbvs	r6, [r4, #-3689]!	; 0xfffff197
  b8:	70757272 	rsbsvc	r7, r5, r2, ror r2
  bc:	302f7374 	eorcc	r7, pc, r4, ror r3	; <UNPREDICTABLE>
  c0:	616d6b2d 	cmnvs	sp, sp, lsr #22
  c4:	636f6c6c 	cmnvs	pc, #108, 24	; 0x6c00
  c8:	6f687300 	svcvs	0x00687300
  cc:	69207472 	stmdbvs	r0!, {r1, r4, r5, r6, sl, ip, sp, lr}
  d0:	6b00746e 	blvs	1d290 <__bss_end__+0x139b0>
  d4:	6c6c616d 	stfvse	f6, [ip], #-436	; 0xfffffe4c
  d8:	695f636f 	ldmdbvs	pc, {r0, r1, r2, r3, r5, r6, r8, r9, sp, lr}^	; <UNPREDICTABLE>
  dc:	5f74696e 	svcpl	0x0074696e
  e0:	5f746573 	svcpl	0x00746573
  e4:	72617473 	rsbvc	r7, r1, #1929379840	; 0x73000000
  e8:	4e470074 	mcrmi	0, 2, r0, cr7, cr4, {3}
  ec:	39432055 	stmdbcc	r3, {r0, r2, r4, r6, sp}^
  f0:	2e392039 	mrccs	0, 1, r2, cr9, cr9, {1}
  f4:	20312e32 	eorscs	r2, r1, r2, lsr lr
  f8:	39313032 	ldmdbcc	r1!, {r1, r4, r5, ip, sp}
  fc:	35323031 	ldrcc	r3, [r2, #-49]!	; 0xffffffcf
 100:	65722820 	ldrbvs	r2, [r2, #-2080]!	; 0xfffff7e0
 104:	7361656c 	cmnvc	r1, #108, 10	; 0x1b000000
 108:	5b202965 	blpl	80a6a4 <__bss_end__+0x800dc4>
 10c:	2f4d5241 	svccs	0x004d5241
 110:	2d6d7261 	sfmcs	f7, 2, [sp, #-388]!	; 0xfffffe7c
 114:	72622d39 	rsbvc	r2, r2, #3648	; 0xe40
 118:	68636e61 	stmdavs	r3!, {r0, r5, r6, r9, sl, fp, sp, lr}^
 11c:	76657220 	strbtvc	r7, [r5], -r0, lsr #4
 120:	6f697369 	svcvs	0x00697369
 124:	3732206e 	ldrcc	r2, [r2, -lr, rrx]!
 128:	39393537 	ldmdbcc	r9!, {r0, r1, r2, r4, r5, r8, sl, ip, sp}
 12c:	6d2d205d 	stcvs	0, cr2, [sp, #-372]!	; 0xfffffe8c
 130:	3d757063 	ldclcc	0, cr7, [r5, #-396]!	; 0xfffffe74
 134:	316d7261 	cmncc	sp, r1, ror #4
 138:	6a363731 	bvs	d8de04 <__bss_end__+0xd84524>
 13c:	732d667a 			; <UNDEFINED> instruction: 0x732d667a
 140:	746d2d20 	strbtvc	r2, [sp], #-3360	; 0xfffff2e0
 144:	3d656e75 	stclcc	14, cr6, [r5, #-468]!	; 0xfffffe2c
 148:	316d7261 	cmncc	sp, r1, ror #4
 14c:	6a363731 	bvs	d8de18 <__bss_end__+0xd84538>
 150:	732d667a 			; <UNDEFINED> instruction: 0x732d667a
 154:	666d2d20 	strbtvs	r2, [sp], -r0, lsr #26
 158:	74616f6c 	strbtvc	r6, [r1], #-3948	; 0xfffff094
 15c:	6962612d 	stmdbvs	r2!, {r0, r2, r3, r5, r8, sp, lr}^
 160:	666f733d 			; <UNDEFINED> instruction: 0x666f733d
 164:	6d2d2074 	stcvs	0, cr2, [sp, #-464]!	; 0xfffffe30
 168:	206d7261 	rsbcs	r7, sp, r1, ror #4
 16c:	72616d2d 	rsbvc	r6, r1, #2880	; 0xb40
 170:	613d6863 	teqvs	sp, r3, ror #16
 174:	36766d72 			; <UNDEFINED> instruction: 0x36766d72
 178:	2d207a6b 	vstmdbcs	r0!, {s14-s120}
 17c:	62646767 	rsbvs	r6, r4, #27000832	; 0x19c0000
 180:	674f2d20 	strbvs	r2, [pc, -r0, lsr #26]
 184:	74732d20 	ldrbtvc	r2, [r3], #-3360	; 0xfffff2e0
 188:	6e673d64 	cdpvs	13, 6, cr3, cr7, cr4, {3}
 18c:	20393975 	eorscs	r3, r9, r5, ror r9
 190:	7266662d 	rsbvc	r6, r6, #47185920	; 0x2d00000
 194:	74736565 	ldrbtvc	r6, [r3], #-1381	; 0xfffffa9b
 198:	69646e61 	stmdbvs	r4!, {r0, r5, r6, r9, sl, fp, sp, lr}^
 19c:	6900676e 	stmdbvs	r0, {r1, r2, r3, r5, r6, r8, r9, sl, sp, lr}
 1a0:	6c615f73 	stclvs	15, cr5, [r1], #-460	; 0xfffffe34
 1a4:	656e6769 	strbvs	r6, [lr, #-1897]!	; 0xfffff897
 1a8:	6d6b0064 	stclvs	0, cr0, [fp, #-400]!	; 0xfffffe70
 1ac:	6f6c6c61 	svcvs	0x006c6c61
 1b0:	6e695f63 	cdpvs	15, 6, cr5, cr9, cr3, {3}
 1b4:	6b007469 	blvs	1d360 <__bss_end__+0x13a80>
 1b8:	65657266 	strbvs	r7, [r5, #-614]!	; 0xfffffd9a
 1bc:	6c6c615f 	stfvse	f6, [ip], #-380	; 0xfffffe84
 1c0:	696e6900 	stmdbvs	lr!, {r8, fp, sp, lr}^
 1c4:	00705f74 	rsbseq	r5, r0, r4, ror pc
 1c8:	705f7369 	subsvc	r7, pc, r9, ror #6
 1cc:	0032776f 	eorseq	r7, r2, pc, ror #14
 1d0:	67696c61 	strbvs	r6, [r9, -r1, ror #24]!
 1d4:	6e656d6e 	cdpvs	13, 6, cr6, cr5, cr14, {3}
 1d8:	70720074 	rsbsvc	r0, r2, r4, ror r0
 1dc:	65725f69 	ldrbvs	r5, [r2, #-3945]!	; 0xfffff097
 1e0:	5f746573 	svcpl	0x00746573
 1e4:	63747570 	cmnvs	r4, #112, 10	; 0x1c000000
 1e8:	756f7200 	strbvc	r7, [pc, #-512]!	; fffffff0 <__bss_end__+0xffff6710>
 1ec:	7075646e 	rsbsvc	r6, r5, lr, ror #8
 1f0:	756f6400 	strbvc	r6, [pc, #-1024]!	; fffffdf8 <__bss_end__+0xffff6518>
 1f4:	00656c62 	rsbeq	r6, r5, r2, ror #24
 1f8:	70616568 	rsbvc	r6, r1, r8, ror #10
 1fc:	616d6b00 	cmnvs	sp, r0, lsl #22
 200:	636f6c6c 	cmnvs	pc, #108, 24	; 0x6c00
 204:	6b00632e 	blvs	18ec4 <__bss_end__+0xf5e4>
 208:	6c6c616d 	stfvse	f6, [ip], #-436	; 0xfffffe4c
 20c:	685f636f 	ldmdavs	pc, {r0, r1, r2, r3, r5, r6, r8, r9, sp, lr}^	; <UNPREDICTABLE>
 210:	5f706165 	svcpl	0x00706165
 214:	00727470 	rsbseq	r7, r2, r0, ror r4
 218:	65685f5f 	strbvs	r5, [r8, #-3935]!	; 0xfffff0a1
 21c:	735f7061 	cmpvc	pc, #97, 0	; 0x61
 220:	74726174 	ldrbtvc	r6, [r2], #-372	; 0xfffffe8c
 224:	6e005f5f 	mcrvs	15, 0, r5, cr0, cr15, {2}
 228:	65747962 	ldrbvs	r7, [r4, #-2402]!	; 0xfffff69e
 22c:	615f0073 	cmpvs	pc, r3, ror r0	; <UNPREDICTABLE>
 230:	00726464 	rsbseq	r6, r2, r4, ror #8
 234:	73677261 	cmnvc	r7, #268435462	; 0x10000006
 238:	5f617600 	svcpl	0x00617600
 23c:	6e697270 	mcrvs	2, 3, r7, cr9, cr0, {3}
 240:	5f006b74 	svcpl	0x00006b74
 244:	756e675f 	strbvc	r6, [lr, #-1887]!	; 0xfffff8a1
 248:	61765f63 	cmnvs	r6, r3, ror #30
 24c:	73696c5f 	cmnvc	r9, #24320	; 0x5f00
 250:	5f5f0074 	svcpl	0x005f0074
 254:	2e007061 	cdpcs	0, 0, cr7, cr0, cr1, {3}
 258:	62696c2f 	rsbvs	r6, r9, #12032	; 0x2f00
 25c:	72702f63 	rsbsvc	r2, r0, #396	; 0x18c
 260:	6b746e69 	blvs	1d1bc0c <__bss_end__+0x1d1232c>
 264:	5f00632e 	svcpl	0x0000632e
 268:	5f61765f 	svcpl	0x0061765f
 26c:	7473696c 	ldrbtvc	r6, [r3], #-2412	; 0xfffff694
 270:	73552f00 	cmpvc	r5, #0, 30
 274:	2f737265 	svccs	0x00737265
 278:	696d6461 	stmdbvs	sp!, {r0, r5, r6, sl, sp, lr}^
 27c:	53432f6e 	movtpl	r2, #16238	; 0x3f6e
 280:	4e39342d 	cdpmi	4, 3, cr3, cr9, cr13, {1}
 284:	3473632f 	ldrbtcc	r6, [r3], #-815	; 0xfffffcd1
 288:	322d6e39 	eorcc	r6, sp, #912	; 0x390
 28c:	74756131 	ldrbtvc	r6, [r5], #-305	; 0xfffffecf
 290:	62696c2f 	rsbvs	r6, r9, #12032	; 0x2f00
 294:	69006970 	stmdbvs	r0, {r4, r5, r6, r8, fp, sp, lr}
 298:	7265746e 	rsbvc	r7, r5, #1845493760	; 0x6e000000
 29c:	5f6c616e 	svcpl	0x006c616e
 2a0:	63747570 	cmnvs	r4, #112, 10	; 0x1c000000
 2a4:	00726168 	rsbseq	r6, r2, r8, ror #2
 2a8:	5f697072 	svcpl	0x00697072
 2ac:	5f746573 	svcpl	0x00746573
 2b0:	63747570 	cmnvs	r4, #112, 10	; 0x1c000000
 2b4:	6c2f2e00 	stcvs	14, cr2, [pc], #-0	; 2bc <__code_start__-0x7d44>
 2b8:	2f636269 	svccs	0x00636269
 2bc:	63747570 	cmnvs	r4, #112, 10	; 0x1c000000
 2c0:	2e726168 	rpwcssz	f6, f2, #0.0
 2c4:	61750063 	cmnvs	r5, r3, rrx
 2c8:	705f7472 	subsvc	r7, pc, r2, ror r4	; <UNPREDICTABLE>
 2cc:	00637475 	rsbeq	r7, r3, r5, ror r4
 2d0:	65746e69 	ldrbvs	r6, [r4, #-3689]!	; 0xfffff197
 2d4:	6c616e72 	stclvs	14, cr6, [r1], #-456	; 0xfffffe38
 2d8:	7475705f 	ldrbtvc	r7, [r5], #-95	; 0xffffffa1
 2dc:	2f2e006b 	svccs	0x002e006b
 2e0:	6362696c 	cmnvs	r2, #108, 18	; 0x1b0000
 2e4:	7475702f 	ldrbtvc	r7, [r5], #-47	; 0xffffffd1
 2e8:	00632e6b 	rsbeq	r2, r3, fp, ror #28
 2ec:	69647369 	stmdbvs	r4!, {r0, r3, r5, r6, r8, r9, ip, sp, lr}^
 2f0:	00746967 	rsbseq	r6, r4, r7, ror #18
 2f4:	746e6975 	strbtvc	r6, [lr], #-2421	; 0xfffff68b
 2f8:	745f3436 	ldrbvc	r3, [pc], #-1078	; 300 <__code_start__-0x7d00>
 2fc:	6c2f2e00 	stcvs	14, cr2, [pc], #-0	; 304 <__code_start__-0x7cfc>
 300:	2f636269 	svccs	0x00636269
 304:	702d6176 	eorvc	r6, sp, r6, ror r1
 308:	746e6972 	strbtvc	r6, [lr], #-2418	; 0xfffff68e
 30c:	00632e6b 	rsbeq	r2, r3, fp, ror #28
 310:	6f635f5f 	svcvs	0x00635f5f
 314:	735f6564 	cmpvc	pc, #100, 10	; 0x19000000
 318:	74726174 	ldrbtvc	r6, [r2], #-372	; 0xfffffe8c
 31c:	5f005f5f 	svcpl	0x00005f5f
 320:	7373625f 	cmnvc	r3, #-268435451	; 0xf0000005
 324:	6174735f 	cmnvs	r4, pc, asr r3
 328:	5f5f7472 	svcpl	0x005f7472
 32c:	64697700 	strbtvs	r7, [r9], #-1792	; 0xfffff900
 330:	5f006874 	svcpl	0x00006874
 334:	7461645f 	strbtvc	r6, [r1], #-1119	; 0xfffffba1
 338:	6e655f61 	cdpvs	15, 6, cr5, cr5, cr1, {3}
 33c:	005f5f64 	subseq	r5, pc, r4, ror #30
 340:	63747570 	cmnvs	r4, #112, 10	; 0x1c000000
 344:	0070665f 	rsbseq	r6, r0, pc, asr r6
 348:	73625f5f 	cmnvc	r2, #380	; 0x17c
 34c:	6e655f73 	mcrvs	15, 3, r5, cr5, cr3, {3}
 350:	005f5f64 	subseq	r5, pc, r4, ror #30
 354:	746e6975 	strbtvc	r6, [lr], #-2421	; 0xfffff68b
 358:	745f3233 	ldrbvc	r3, [pc], #-563	; 360 <__code_start__-0x7ca0>
 35c:	69707200 	ldmdbvs	r0!, {r9, ip, sp, lr}^
 360:	7465735f 	strbtvc	r7, [r5], #-863	; 0xfffffca1
 364:	74756f5f 	ldrbtvc	r6, [r5], #-3935	; 0xfffff0a1
 368:	00747570 	rsbseq	r7, r4, r0, ror r5
 36c:	5f746d66 	svcpl	0x00746d66
 370:	72617473 	rsbvc	r7, r1, #1929379840	; 0x73000000
 374:	74730074 	ldrbtvc	r0, [r3], #-116	; 0xffffff8c
 378:	74616372 	strbtvc	r6, [r1], #-882	; 0xfffffc8e
 37c:	72747300 	rsbsvc	r7, r4, #0, 6
 380:	00797063 	rsbseq	r7, r9, r3, rrx
 384:	5f67656e 	svcpl	0x0067656e
 388:	5f5f0070 	svcpl	0x005f0070
 38c:	65646f63 	strbvs	r6, [r4, #-3939]!	; 0xfffff09d
 390:	646e655f 	strbtvs	r6, [lr], #-1375	; 0xfffffaa1
 394:	65005f5f 	strvs	r5, [r0, #-3935]	; 0xfffff0a1
 398:	0074696d 	rsbseq	r6, r4, sp, ror #18
 39c:	73747570 	cmnvc	r4, #112, 10	; 0x1c000000
 3a0:	0070665f 	rsbseq	r6, r0, pc, asr r6
 3a4:	65766572 	ldrbvs	r6, [r6, #-1394]!	; 0xfffffa8e
 3a8:	00657372 	rsbeq	r7, r5, r2, ror r3
 3ac:	63727473 	cmnvs	r2, #1929379840	; 0x73000000
 3b0:	5f00706d 	svcpl	0x0000706d
 3b4:	7461645f 	strbtvc	r6, [r1], #-1119	; 0xfffffba1
 3b8:	74735f61 	ldrbtvc	r5, [r3], #-3937	; 0xfffff09f
 3bc:	5f747261 	svcpl	0x00747261
 3c0:	5f5f005f 	svcpl	0x005f005f
 3c4:	676f7270 			; <UNDEFINED> instruction: 0x676f7270
 3c8:	646e655f 	strbtvs	r6, [lr], #-1375	; 0xfffffaa1
 3cc:	6e005f5f 	mcrvs	15, 0, r5, cr0, cr15, {2}
 3d0:	00316d75 	eorseq	r6, r1, r5, ror sp
 3d4:	6e727473 	mrcvs	4, 3, r7, cr2, cr3, {3}
 3d8:	00706d63 	rsbseq	r6, r0, r3, ror #26
 3dc:	65736162 	ldrbvs	r6, [r3, #-354]!	; 0xfffffe9e
 3e0:	67697300 	strbvs	r7, [r9, -r0, lsl #6]!
 3e4:	5f64656e 	svcpl	0x0064656e
 3e8:	70720070 	rsbsvc	r0, r2, r0, ror r0
 3ec:	65725f69 	ldrbvs	r5, [r2, #-3945]!	; 0xfffff097
 3f0:	746f6f62 	strbtvc	r6, [pc], #-3938	; 3f8 <__code_start__-0x7c08>
 3f4:	6c656400 	cfstrdvs	mvd6, [r5], #-0
 3f8:	6d5f7961 	vldrvs.16	s15, [pc, #-194]	; 33e <__code_start__-0x7cc2>	; <UNPREDICTABLE>
 3fc:	2f2e0073 	svccs	0x002e0073
 400:	66617473 			; <UNDEFINED> instruction: 0x66617473
 404:	72732d66 	rsbsvc	r2, r3, #6528	; 0x1980
 408:	6c632f63 	stclvs	15, cr2, [r3], #-396	; 0xfffffe74
 40c:	2d6e6165 	stfcse	f6, [lr, #-404]!	; 0xfffffe6c
 410:	6f626572 	svcvs	0x00626572
 414:	632e746f 			; <UNDEFINED> instruction: 0x632e746f
 418:	72617500 	rsbvc	r7, r1, #0, 10
 41c:	6c665f74 	stclvs	15, cr5, [r6], #-464	; 0xfffffe30
 420:	5f687375 	svcpl	0x00687375
 424:	5f007874 	svcpl	0x00007874
 428:	61747363 	cmnvs	r4, r3, ror #6
 42c:	62007472 	andvs	r7, r0, #1912602624	; 0x72000000
 430:	655f7373 	ldrbvs	r7, [pc, #-883]	; c5 <__code_start__-0x7f3b>
 434:	2e00646e 	cdpcs	4, 0, cr6, cr0, cr14, {3}
 438:	6174732f 	cmnvs	r4, pc, lsr #6
 43c:	732d6666 			; <UNDEFINED> instruction: 0x732d6666
 440:	632f6372 			; <UNDEFINED> instruction: 0x632f6372
 444:	72617473 	rsbvc	r7, r1, #1929379840	; 0x73000000
 448:	00632e74 	rsbeq	r2, r3, r4, ror lr
 44c:	575f4d50 			; <UNDEFINED> instruction: 0x575f4d50
 450:	00474f44 	subeq	r4, r7, r4, asr #30
 454:	33545550 	cmpcc	r4, #80, 10	; 0x14000000
 458:	65730032 	ldrbvs	r0, [r3, #-50]!	; 0xffffffce
 45c:	73755f74 	cmnvc	r5, #116, 30	; 0x1d0
 460:	6c5f7265 	lfmvs	f7, 2, [pc], {101}	; 0x65
 464:	6c657665 	stclvs	6, cr7, [r5], #-404	; 0xfffffe6c
 468:	732f2e00 			; <UNDEFINED> instruction: 0x732f2e00
 46c:	66666174 			; <UNDEFINED> instruction: 0x66666174
 470:	6372732d 	cmnvs	r2, #-1275068416	; 0xb4000000
 474:	6265722f 	rsbvs	r7, r5, #-268435454	; 0xf0000002
 478:	2e746f6f 	cdpcs	15, 7, cr6, cr4, cr15, {3}
 47c:	4d500063 	ldclmi	0, cr0, [r0, #-396]	; 0xfffffe74
 480:	5341505f 	movtpl	r5, #4191	; 0x105f
 484:	524f5753 	subpl	r5, pc, #21757952	; 0x14c0000
 488:	74610044 	strbtvc	r0, [r1], #-68	; 0xffffffbc
 48c:	6573755f 	ldrbvs	r7, [r3, #-1375]!	; 0xfffffaa1
 490:	656c5f72 	strbvs	r5, [ip, #-3954]!	; 0xfffff08e
 494:	006c6576 	rsbeq	r6, ip, r6, ror r5
 498:	525f4d50 	subspl	r4, pc, #80, 26	; 0x1400
 49c:	5f435453 	svcpl	0x00435453
 4a0:	46435257 			; <UNDEFINED> instruction: 0x46435257
 4a4:	55465f47 	strbpl	r5, [r6, #-3911]	; 0xfffff0b9
 4a8:	525f4c4c 	subspl	r4, pc, #76, 24	; 0x4c00
 4ac:	54455345 	strbpl	r5, [r5], #-837	; 0xfffffcbb
 4b0:	5f4d5000 	svcpl	0x004d5000
 4b4:	43545352 	cmpmi	r4, #1207959553	; 0x48000001
 4b8:	73706300 	cmnvc	r0, #0, 6
 4bc:	65640072 	strbvs	r0, [r4, #-114]!	; 0xffffff8e
 4c0:	61625f76 	smcvs	9718	; 0x25f6
 4c4:	65697272 	strbvs	r7, [r9, #-626]!	; 0xfffffd8e
 4c8:	65640072 	strbvs	r0, [r4, #-114]!	; 0xffffff8e
 4cc:	5f79616c 	svcpl	0x0079616c
 4d0:	00636573 	rsbeq	r6, r3, r3, ror r5
 4d4:	74732f2e 	ldrbtvc	r2, [r3], #-3886	; 0xfffff0d2
 4d8:	2d666661 	stclcs	6, cr6, [r6, #-388]!	; 0xfffffe7c
 4dc:	2f637273 	svccs	0x00637273
 4e0:	656d6974 	strbvs	r6, [sp, #-2420]!	; 0xfffff68c
 4e4:	00632e72 	rsbeq	r2, r3, r2, ror lr
 4e8:	33544547 	cmpcc	r4, #297795584	; 0x11c00000
 4ec:	69740032 	ldmdbvs	r4!, {r1, r4, r5}^
 4f0:	5f72656d 	svcpl	0x0072656d
 4f4:	5f746567 	svcpl	0x00746567
 4f8:	63657375 	cmnvs	r5, #-738197503	; 0xd4000001
 4fc:	6c656400 	cfstrdvs	mvd6, [r5], #-0
 500:	755f7961 	ldrbvc	r7, [pc, #-2401]	; fffffba7 <__bss_end__+0xffff62c7>
 504:	69740073 	ldmdbvs	r4!, {r0, r1, r4, r5, r6}^
 508:	5f72656d 	svcpl	0x0072656d
 50c:	5f746567 	svcpl	0x00746567
 510:	63657375 	cmnvs	r5, #-738197503	; 0xd4000001
 514:	7761725f 			; <UNDEFINED> instruction: 0x7761725f
 518:	61747300 	cmnvs	r4, r0, lsl #6
 51c:	61750074 	cmnvs	r5, r4, ror r0
 520:	635f7472 	cmpvs	pc, #1912602624	; 0x72000000
 524:	675f6e61 	ldrbvs	r6, [pc, -r1, ror #28]
 528:	00637465 	rsbeq	r7, r3, r5, ror #8
 52c:	4f495047 	svcmi	0x00495047
 530:	4e55465f 	mrcmi	6, 2, r4, cr5, cr15, {2}
 534:	554f5f43 	strbpl	r5, [pc, #-3907]	; fffff5f9 <__bss_end__+0xffff5d19>
 538:	54555054 	ldrbpl	r5, [r5], #-84	; 0xffffffac
 53c:	78756100 	ldmdavc	r5!, {r8, sp, lr}^
 540:	7265705f 	rsbvc	r7, r5, #95, 0	; 0x5f
 544:	73687069 	cmnvc	r8, #105, 0	; 0x69
 548:	72617500 	rsbvc	r7, r1, #0, 10
 54c:	00632e74 	rsbeq	r2, r3, r4, ror lr
 550:	74726175 	ldrbtvc	r6, [r2], #-373	; 0xfffffe8b
 554:	6e61635f 	mcrvs	3, 3, r6, cr1, cr15, {2}
 558:	7475705f 	ldrbtvc	r7, [r5], #-95	; 0xffffffa1
 55c:	682f0063 	stmdavs	pc!, {r0, r1, r5, r6}	; <UNPREDICTABLE>
 560:	2f656d6f 	svccs	0x00656d6f
 564:	6c676e65 	stclvs	14, cr6, [r7], #-404	; 0xfffffe6c
 568:	632f7265 			; <UNDEFINED> instruction: 0x632f7265
 56c:	7373616c 	cmnvc	r3, #27
 570:	3173632f 	cmncc	r3, pc, lsr #6
 574:	2d653034 	stclcs	0, cr3, [r5, #-208]!	; 0xffffff30
 578:	70733132 	rsbsvc	r3, r3, r2, lsr r1
 57c:	696c2f72 	stmdbvs	ip!, {r1, r4, r5, r6, r8, r9, sl, fp, sp}^
 580:	2f697062 	svccs	0x00697062
 584:	66617473 			; <UNDEFINED> instruction: 0x66617473
 588:	72702d66 	rsbsvc	r2, r0, #6528	; 0x1980
 58c:	74617669 	strbtvc	r7, [r1], #-1641	; 0xfffff997
 590:	61750065 	cmnvs	r5, r5, rrx
 594:	695f7472 	ldmdbvs	pc, {r1, r4, r5, r6, sl, ip, sp, lr}^	; <UNPREDICTABLE>
 598:	0074696e 	rsbseq	r6, r4, lr, ror #18
 59c:	4f495047 	svcmi	0x00495047
 5a0:	4e55465f 	mrcmi	6, 2, r4, cr5, cr15, {2}
 5a4:	4c415f43 	mcrrmi	15, 4, r5, r1, cr3
 5a8:	47003054 	smlsdmi	r0, r4, r0, r3
 5ac:	5f4f4950 	svcpl	0x004f4950
 5b0:	434e5546 	movtmi	r5, #58694	; 0xe546
 5b4:	544c415f 	strbpl	r4, [ip], #-351	; 0xfffffea1
 5b8:	50470031 	subpl	r0, r7, r1, lsr r0
 5bc:	465f4f49 	ldrbmi	r4, [pc], -r9, asr #30
 5c0:	5f434e55 	svcpl	0x00434e55
 5c4:	32544c41 	subscc	r4, r4, #16640	; 0x4100
 5c8:	49504700 	ldmdbmi	r0, {r8, r9, sl, lr}^
 5cc:	55465f4f 	strbpl	r5, [r6, #-3919]	; 0xfffff0b1
 5d0:	415f434e 	cmpmi	pc, lr, asr #6
 5d4:	0033544c 	eorseq	r5, r3, ip, asr #8
 5d8:	4f495047 	svcmi	0x00495047
 5dc:	4e55465f 	mrcmi	6, 2, r4, cr5, cr15, {2}
 5e0:	4c415f43 	mcrrmi	15, 4, r5, r1, cr3
 5e4:	70003554 	andvc	r3, r0, r4, asr r5
 5e8:	32337475 	eorscc	r7, r3, #1962934272	; 0x75000000
 5ec:	75616200 	strbvc	r6, [r1, #-512]!	; 0xfffffe00
 5f0:	75610064 	strbvc	r0, [r1, #-100]!	; 0xffffff9c
 5f4:	6e655f78 	mcrvs	15, 3, r5, cr5, cr8, {3}
 5f8:	656c6261 	strbvs	r6, [ip, #-609]!	; 0xfffffd9f
 5fc:	61750073 	cmnvs	r5, r3, ror r0
 600:	675f7472 			; <UNDEFINED> instruction: 0x675f7472
 604:	00637465 	rsbeq	r7, r3, r5, ror #8
 608:	74726175 	ldrbtvc	r6, [r2], #-373	; 0xfffffe8b
 60c:	5f78745f 	svcpl	0x0078745f
 610:	655f7369 	ldrbvs	r7, [pc, #-873]	; 2af <__code_start__-0x7d51>
 614:	7974706d 	ldmdbvc	r4!, {r0, r2, r3, r5, r6, ip, sp, lr}^
 618:	75616200 	strbvc	r6, [r1, #-512]!	; 0xfffffe00
 61c:	61765f64 	cmnvs	r6, r4, ror #30
 620:	6e63006c 	cdpvs	0, 6, cr0, cr3, cr12, {3}
 624:	75006c74 	strvc	r6, [r0, #-3188]	; 0xfffff38c
 628:	5f747261 	svcpl	0x00747261
 62c:	5f736168 	svcpl	0x00736168
 630:	61746164 	cmnvs	r4, r4, ror #2
 634:	49504700 	ldmdbmi	r0, {r8, r9, sl, lr}^
 638:	55465f4f 	strbpl	r5, [r6, #-3919]	; 0xfffff0b1
 63c:	415f434e 	cmpmi	pc, lr, asr #6
 640:	0034544c 	eorseq	r5, r4, ip, asr #8
 644:	695f726f 	ldmdbvs	pc, {r0, r1, r2, r3, r5, r6, r9, ip, sp, lr}^	; <UNPREDICTABLE>
 648:	0032336e 	eorseq	r3, r2, lr, ror #6
 64c:	61726373 	cmnvs	r2, r3, ror r3
 650:	00686374 	rsbeq	r6, r8, r4, ror r3
 654:	74726175 	ldrbtvc	r6, [r2], #-373	; 0xfffffe8b
 658:	49504700 	ldmdbmi	r0, {r8, r9, sl, lr}^
 65c:	55465f4f 	strbpl	r5, [r6, #-3919]	; 0xfffff0b1
 660:	495f434e 	ldmdbmi	pc, {r1, r2, r3, r6, r8, r9, lr}^	; <UNPREDICTABLE>
 664:	5455504e 	ldrbpl	r5, [r5], #-78	; 0xffffffb2
 668:	69706700 	ldmdbvs	r0!, {r8, r9, sl, sp, lr}^
 66c:	65735f6f 	ldrbvs	r5, [r3, #-3951]!	; 0xfffff091
 670:	75665f74 	strbvc	r5, [r6, #-3956]!	; 0xfffff08c
 674:	6974636e 	ldmdbvs	r4!, {r1, r2, r3, r5, r6, r8, r9, sp, lr}^
 678:	67006e6f 	strvs	r6, [r0, -pc, ror #28]
 67c:	32337465 	eorscc	r7, r3, #1694498816	; 0x65000000
 680:	69706700 	ldmdbvs	r0!, {r8, r9, sl, sp, lr}^
 684:	6c635f6f 	stclvs	15, cr5, [r3], #-444	; 0xfffffe44
 688:	67003072 	smlsdxvs	r0, r2, r0, r3
 68c:	5f6f6970 	svcpl	0x006f6970
 690:	30746573 	rsbscc	r6, r4, r3, ror r5
 694:	69706700 	ldmdbvs	r0!, {r8, r9, sl, sp, lr}^
 698:	72775f6f 	rsbsvc	r5, r7, #444	; 0x1bc
 69c:	00657469 	rsbeq	r7, r5, r9, ror #8
 6a0:	6f697067 	svcvs	0x00697067
 6a4:	6573665f 	ldrbvs	r6, [r3, #-1631]!	; 0xfffff9a1
 6a8:	6600306c 	strvs	r3, [r0], -ip, rrx
 6ac:	74737269 	ldrbtvc	r7, [r3], #-617	; 0xfffffd97
 6b0:	7469625f 	strbtvc	r6, [r9], #-607	; 0xfffffda1
 6b4:	636f6c5f 	cmnvs	pc, #24320	; 0x5f00
 6b8:	6f697461 	svcvs	0x00697461
 6bc:	6962006e 	stmdbvs	r2!, {r1, r2, r3, r5, r6}^
 6c0:	745f7374 	ldrbvc	r7, [pc], #-884	; 6c8 <__code_start__-0x7938>
 6c4:	72775f6f 	rsbsvc	r5, r7, #444	; 0x1bc
 6c8:	00657469 	rsbeq	r7, r5, r9, ror #8
 6cc:	6b73616d 	blvs	1cd8c88 <__bss_end__+0x1ccf3a8>
 6d0:	765f6465 	ldrbvc	r6, [pc], -r5, ror #8
 6d4:	65756c61 	ldrbvs	r6, [r5, #-3169]!	; 0xfffff39f
 6d8:	69706700 	ldmdbvs	r0!, {r8, r9, sl, sp, lr}^
 6dc:	65725f6f 	ldrbvs	r5, [r2, #-3951]!	; 0xfffff091
 6e0:	2e006461 	cdpcs	4, 0, cr6, cr0, cr1, {3}
 6e4:	6372732f 	cmnvs	r2, #-1140850688	; 0xbc000000
 6e8:	6970672f 	ldmdbvs	r0!, {r0, r1, r2, r3, r5, r8, r9, sl, sp, lr}^
 6ec:	00632e6f 	rsbeq	r2, r3, pc, ror #28
 6f0:	6f697067 	svcvs	0x00697067
 6f4:	7465735f 	strbtvc	r7, [r5], #-863	; 0xfffffca1
 6f8:	706e695f 	rsbvc	r6, lr, pc, asr r9
 6fc:	67007475 	smlsdxvs	r0, r5, r4, r7
 700:	5f6f6970 	svcpl	0x006f6970
 704:	5f746573 	svcpl	0x00746573
 708:	0066666f 	rsbeq	r6, r6, pc, ror #12
 70c:	6f697067 	svcvs	0x00697067
 710:	7465735f 	strbtvc	r7, [r5], #-863	; 0xfffffca1
 714:	74756f5f 	ldrbtvc	r6, [r5], #-3935	; 0xfffff0a1
 718:	00747570 	rsbseq	r7, r4, r0, ror r5
 71c:	6f697067 	svcvs	0x00697067
 720:	6e75665f 	mrcvs	6, 3, r6, cr5, cr15, {2}
 724:	00745f63 	rsbseq	r5, r4, r3, ror #30
 728:	73746962 	cmnvc	r4, #1605632	; 0x188000
 72c:	74696200 	strbtvc	r6, [r9], #-512	; 0xfffffe00
 730:	6b73616d 	blvs	1cd8cec <__bss_end__+0x1ccf40c>
 734:	69706700 	ldmdbvs	r0!, {r8, r9, sl, sp, lr}^
 738:	65735f6f 	ldrbvs	r5, [r3, #-3951]!	; 0xfffff091
 73c:	6e6f5f74 	mcrvs	15, 3, r5, cr15, cr4, {3}
 740:	73656400 	cmnvc	r5, #0, 8
 744:	2f2e0074 	svccs	0x002e0074
 748:	6362696c 	cmnvs	r2, #108, 18	; 0x1b0000
 74c:	7274732f 	rsbsvc	r7, r4, #-1140850688	; 0xbc000000
 750:	2e746163 	rpwcssz	f6, f4, f3
 754:	2f2e0063 	svccs	0x002e0063
 758:	6362696c 	cmnvs	r2, #108, 18	; 0x1b0000
 75c:	7274732f 	rsbsvc	r7, r4, #-1140850688	; 0xbc000000
 760:	2e706d63 	cdpcs	13, 7, cr6, cr0, cr3, {3}
 764:	2f2e0063 	svccs	0x002e0063
 768:	6362696c 	cmnvs	r2, #108, 18	; 0x1b0000
 76c:	7274732f 	rsbsvc	r7, r4, #-1140850688	; 0xbc000000
 770:	2e797063 	cdpcs	0, 7, cr7, cr9, cr3, {3}
 774:	69730063 	ldmdbvs	r3!, {r0, r1, r5, r6}^
 778:	745f657a 	ldrbvc	r6, [pc], #-1402	; 780 <__code_start__-0x7880>
 77c:	6c2f2e00 	stcvs	14, cr2, [pc], #-0	; 784 <__code_start__-0x787c>
 780:	2f636269 	svccs	0x00636269
 784:	6e727473 	mrcvs	4, 3, r7, cr2, cr3, {3}
 788:	2e706d63 	cdpcs	13, 7, cr6, cr0, cr3, {3}
 78c:	Address 0x000000000000078c is out of bounds.


Disassembly of section .debug_frame:

00000000 <.debug_frame>:
   0:	0000000c 	andeq	r0, r0, ip
   4:	ffffffff 			; <UNDEFINED> instruction: 0xffffffff
   8:	7c020001 	stcvc	0, cr0, [r2], {1}
   c:	000d0c0e 	andeq	r0, sp, lr, lsl #24
  10:	0000001c 	andeq	r0, r0, ip, lsl r0
  14:	00000000 	andeq	r0, r0, r0
  18:	00008020 	andeq	r8, r0, r0, lsr #32
  1c:	000000b8 	strheq	r0, [r0], -r8
  20:	840c0e42 	strhi	r0, [ip], #-3650	; 0xfffff1be
  24:	8e028503 	cfsh32hi	mvfx8, mvfx2, #3
  28:	180e4201 	stmdane	lr, {r0, r9, lr}
  2c:	0c0e4602 	stceq	6, cr4, [lr], {2}
  30:	0000000c 	andeq	r0, r0, ip
  34:	ffffffff 			; <UNDEFINED> instruction: 0xffffffff
  38:	7c020001 	stcvc	0, cr0, [r2], {1}
  3c:	000d0c0e 	andeq	r0, sp, lr, lsl #24
  40:	0000001c 	andeq	r0, r0, ip, lsl r0
  44:	00000030 	andeq	r0, r0, r0, lsr r0
  48:	000080d8 	ldrdeq	r8, [r0], -r8	; <UNPREDICTABLE>
  4c:	000000d0 	ldrdeq	r0, [r0], -r0	; <UNPREDICTABLE>
  50:	8e040e42 	cdphi	14, 0, cr0, cr4, cr2, {2}
  54:	100e4201 	andne	r4, lr, r1, lsl #4
  58:	040e0a5e 	streq	r0, [lr], #-2654	; 0xfffff5a2
  5c:	00000b42 	andeq	r0, r0, r2, asr #22
  60:	0000001c 	andeq	r0, r0, ip, lsl r0
  64:	00000030 	andeq	r0, r0, r0, lsr r0
  68:	000081a8 	andeq	r8, r0, r8, lsr #3
  6c:	0000010c 	andeq	r0, r0, ip, lsl #2
  70:	8e040e42 	cdphi	14, 0, cr0, cr4, cr2, {2}
  74:	100e4201 	andne	r4, lr, r1, lsl #4
  78:	040e0a62 	streq	r0, [lr], #-2658	; 0xfffff59e
  7c:	00000b42 	andeq	r0, r0, r2, asr #22
  80:	00000014 	andeq	r0, r0, r4, lsl r0
  84:	00000030 	andeq	r0, r0, r0, lsr r0
  88:	000082b4 			; <UNDEFINED> instruction: 0x000082b4
  8c:	0000004c 	andeq	r0, r0, ip, asr #32
  90:	84080e4a 	strhi	r0, [r8], #-3658	; 0xfffff1b6
  94:	00018e02 	andeq	r8, r1, r2, lsl #28
  98:	0000001c 	andeq	r0, r0, ip, lsl r0
  9c:	00000030 	andeq	r0, r0, r0, lsr r0
  a0:	00008300 	andeq	r8, r0, r0, lsl #6
  a4:	00000084 	andeq	r0, r0, r4, lsl #1
  a8:	8e040e42 	cdphi	14, 0, cr0, cr4, cr2, {2}
  ac:	100e4201 	andne	r4, lr, r1, lsl #4
  b0:	040e0a5c 	streq	r0, [lr], #-2652	; 0xfffff5a4
  b4:	00000b42 	andeq	r0, r0, r2, asr #22
  b8:	00000014 	andeq	r0, r0, r4, lsl r0
  bc:	00000030 	andeq	r0, r0, r0, lsr r0
  c0:	00008384 	andeq	r8, r0, r4, lsl #7
  c4:	00000028 	andeq	r0, r0, r8, lsr #32
  c8:	84080e42 	strhi	r0, [r8], #-3650	; 0xfffff1be
  cc:	00018e02 	andeq	r8, r1, r2, lsl #28
  d0:	00000014 	andeq	r0, r0, r4, lsl r0
  d4:	00000030 	andeq	r0, r0, r0, lsr r0
  d8:	000083ac 	andeq	r8, r0, ip, lsr #7
  dc:	00000028 	andeq	r0, r0, r8, lsr #32
  e0:	84080e42 	strhi	r0, [r8], #-3650	; 0xfffff1be
  e4:	00018e02 	andeq	r8, r1, r2, lsl #28
  e8:	0000000c 	andeq	r0, r0, ip
  ec:	ffffffff 			; <UNDEFINED> instruction: 0xffffffff
  f0:	7c020001 	stcvc	0, cr0, [r2], {1}
  f4:	000d0c0e 	andeq	r0, sp, lr, lsl #24
  f8:	00000034 	andeq	r0, r0, r4, lsr r0
  fc:	000000e8 	andeq	r0, r0, r8, ror #1
 100:	000083d4 	ldrdeq	r8, [r0], -r4
 104:	00000058 	andeq	r0, r0, r8, asr r0
 108:	80100e42 	andshi	r0, r0, r2, asr #28
 10c:	82038104 	andhi	r8, r3, #1
 110:	42018302 	andmi	r8, r1, #134217728	; 0x8000000
 114:	07841c0e 	streq	r1, [r4, lr, lsl #24]
 118:	058e0685 	streq	r0, [lr, #1669]	; 0x685
 11c:	5c280e42 	stcpl	14, cr0, [r8], #-264	; 0xfffffef8
 120:	ce421c0e 	cdpgt	12, 4, cr1, cr2, cr14, {0}
 124:	100ec4c5 	andne	ip, lr, r5, asr #9
 128:	c1c2c342 	bicgt	ip, r2, r2, asr #6
 12c:	00000ec0 	andeq	r0, r0, r0, asr #29
 130:	0000000c 	andeq	r0, r0, ip
 134:	ffffffff 			; <UNDEFINED> instruction: 0xffffffff
 138:	7c020001 	stcvc	0, cr0, [r2], {1}
 13c:	000d0c0e 	andeq	r0, sp, lr, lsl #24
 140:	00000014 	andeq	r0, r0, r4, lsl r0
 144:	00000130 	andeq	r0, r0, r0, lsr r1
 148:	0000842c 	andeq	r8, r0, ip, lsr #8
 14c:	00000014 	andeq	r0, r0, r4, lsl r0
 150:	84080e42 	strhi	r0, [r8], #-3650	; 0xfffff1be
 154:	00018e02 	andeq	r8, r1, r2, lsl #28
 158:	0000000c 	andeq	r0, r0, ip
 15c:	00000130 	andeq	r0, r0, r0, lsr r1
 160:	00008440 	andeq	r8, r0, r0, asr #8
 164:	00000018 	andeq	r0, r0, r8, lsl r0
 168:	0000000c 	andeq	r0, r0, ip
 16c:	00000130 	andeq	r0, r0, r0, lsr r1
 170:	00008458 	andeq	r8, r0, r8, asr r4
 174:	00000010 	andeq	r0, r0, r0, lsl r0
 178:	0000000c 	andeq	r0, r0, ip
 17c:	ffffffff 			; <UNDEFINED> instruction: 0xffffffff
 180:	7c020001 	stcvc	0, cr0, [r2], {1}
 184:	000d0c0e 	andeq	r0, sp, lr, lsl #24
 188:	00000014 	andeq	r0, r0, r4, lsl r0
 18c:	00000178 	andeq	r0, r0, r8, ror r1
 190:	00008468 	andeq	r8, r0, r8, ror #8
 194:	00000034 	andeq	r0, r0, r4, lsr r0
 198:	84080e42 	strhi	r0, [r8], #-3650	; 0xfffff1be
 19c:	00018e02 	andeq	r8, r1, r2, lsl #28
 1a0:	0000000c 	andeq	r0, r0, ip
 1a4:	ffffffff 			; <UNDEFINED> instruction: 0xffffffff
 1a8:	7c020001 	stcvc	0, cr0, [r2], {1}
 1ac:	000d0c0e 	andeq	r0, sp, lr, lsl #24
 1b0:	0000000c 	andeq	r0, r0, ip
 1b4:	000001a0 	andeq	r0, r0, r0, lsr #3
 1b8:	0000849c 	muleq	r0, ip, r4
 1bc:	00000014 	andeq	r0, r0, r4, lsl r0
 1c0:	0000000c 	andeq	r0, r0, ip
 1c4:	000001a0 	andeq	r0, r0, r0, lsr #3
 1c8:	000084b0 			; <UNDEFINED> instruction: 0x000084b0
 1cc:	00000024 	andeq	r0, r0, r4, lsr #32
 1d0:	0000000c 	andeq	r0, r0, ip
 1d4:	000001a0 	andeq	r0, r0, r0, lsr #3
 1d8:	000084d4 	ldrdeq	r8, [r0], -r4
 1dc:	00000038 	andeq	r0, r0, r8, lsr r0
 1e0:	00000024 	andeq	r0, r0, r4, lsr #32
 1e4:	000001a0 	andeq	r0, r0, r0, lsr #3
 1e8:	0000850c 	andeq	r8, r0, ip, lsl #10
 1ec:	000001b4 			; <UNDEFINED> instruction: 0x000001b4
 1f0:	84140e42 	ldrhi	r0, [r4], #-3650	; 0xfffff1be
 1f4:	86048505 	strhi	r8, [r4], -r5, lsl #10
 1f8:	8e028703 	cdphi	7, 0, cr8, cr2, cr3, {0}
 1fc:	600e4201 	andvs	r4, lr, r1, lsl #4
 200:	0e0a9a02 	vmlaeq.f32	s18, s20, s4
 204:	000b4214 	andeq	r4, fp, r4, lsl r2
 208:	00000014 	andeq	r0, r0, r4, lsl r0
 20c:	000001a0 	andeq	r0, r0, r0, lsr #3
 210:	000086c0 	andeq	r8, r0, r0, asr #13
 214:	00000064 	andeq	r0, r0, r4, rrx
 218:	8e040e54 	mcrhi	14, 0, r0, cr4, cr4, {2}
 21c:	100e4201 	andne	r4, lr, r1, lsl #4
 220:	0000002c 	andeq	r0, r0, ip, lsr #32
 224:	000001a0 	andeq	r0, r0, r0, lsr #3
 228:	00008724 	andeq	r8, r0, r4, lsr #14
 22c:	00000498 	muleq	r0, r8, r4
 230:	84240e42 	strthi	r0, [r4], #-3650	; 0xfffff1be
 234:	86088509 	strhi	r8, [r8], -r9, lsl #10
 238:	88068707 	stmdahi	r6, {r0, r1, r2, r8, r9, sl, pc}
 23c:	8a048905 	bhi	122658 <__bss_end__+0x118d78>
 240:	8e028b03 	vmlahi.f64	d8, d2, d3
 244:	b80e4201 	stmdalt	lr, {r0, r9, lr}
 248:	022c0302 	eoreq	r0, ip, #134217728	; 0x8000000
 24c:	0000240e 	andeq	r2, r0, lr, lsl #8
 250:	0000000c 	andeq	r0, r0, ip
 254:	ffffffff 			; <UNDEFINED> instruction: 0xffffffff
 258:	7c020001 	stcvc	0, cr0, [r2], {1}
 25c:	000d0c0e 	andeq	r0, sp, lr, lsl #24
 260:	00000014 	andeq	r0, r0, r4, lsl r0
 264:	00000250 	andeq	r0, r0, r0, asr r2
 268:	00008bbc 			; <UNDEFINED> instruction: 0x00008bbc
 26c:	0000002c 	andeq	r0, r0, ip, lsr #32
 270:	84080e42 	strhi	r0, [r8], #-3650	; 0xfffff1be
 274:	00018e02 	andeq	r8, r1, r2, lsl #28
 278:	0000000c 	andeq	r0, r0, ip
 27c:	ffffffff 			; <UNDEFINED> instruction: 0xffffffff
 280:	7c020001 	stcvc	0, cr0, [r2], {1}
 284:	000d0c0e 	andeq	r0, sp, lr, lsl #24
 288:	00000014 	andeq	r0, r0, r4, lsl r0
 28c:	00000278 	andeq	r0, r0, r8, ror r2
 290:	00008be8 	andeq	r8, r0, r8, ror #23
 294:	0000002c 	andeq	r0, r0, ip, lsr #32
 298:	84080e42 	strhi	r0, [r8], #-3650	; 0xfffff1be
 29c:	00018e02 	andeq	r8, r1, r2, lsl #28
 2a0:	0000000c 	andeq	r0, r0, ip
 2a4:	ffffffff 			; <UNDEFINED> instruction: 0xffffffff
 2a8:	7c020001 	stcvc	0, cr0, [r2], {1}
 2ac:	000d0c0e 	andeq	r0, sp, lr, lsl #24
 2b0:	0000000c 	andeq	r0, r0, ip
 2b4:	000002a0 	andeq	r0, r0, r0, lsr #5
 2b8:	00008c14 	andeq	r8, r0, r4, lsl ip
 2bc:	00000018 	andeq	r0, r0, r8, lsl r0
 2c0:	0000000c 	andeq	r0, r0, ip
 2c4:	000002a0 	andeq	r0, r0, r0, lsr #5
 2c8:	00008c2c 	andeq	r8, r0, ip, lsr #24
 2cc:	00000014 	andeq	r0, r0, r4, lsl r0
 2d0:	00000014 	andeq	r0, r0, r4, lsl r0
 2d4:	000002a0 	andeq	r0, r0, r0, lsr #5
 2d8:	00008c40 	andeq	r8, r0, r0, asr #24
 2dc:	00000050 	andeq	r0, r0, r0, asr r0
 2e0:	84080e42 	strhi	r0, [r8], #-3650	; 0xfffff1be
 2e4:	00018e02 	andeq	r8, r1, r2, lsl #28
 2e8:	0000000c 	andeq	r0, r0, ip
 2ec:	ffffffff 			; <UNDEFINED> instruction: 0xffffffff
 2f0:	7c020001 	stcvc	0, cr0, [r2], {1}
 2f4:	000d0c0e 	andeq	r0, sp, lr, lsl #24
 2f8:	00000014 	andeq	r0, r0, r4, lsl r0
 2fc:	000002e8 	andeq	r0, r0, r8, ror #5
 300:	00008c90 	muleq	r0, r0, ip
 304:	00000014 	andeq	r0, r0, r4, lsl r0
 308:	84080e42 	strhi	r0, [r8], #-3650	; 0xfffff1be
 30c:	00018e02 	andeq	r8, r1, r2, lsl #28
 310:	00000014 	andeq	r0, r0, r4, lsl r0
 314:	000002e8 	andeq	r0, r0, r8, ror #5
 318:	00008ca4 	andeq	r8, r0, r4, lsr #25
 31c:	0000001c 	andeq	r0, r0, ip, lsl r0
 320:	84080e42 	strhi	r0, [r8], #-3650	; 0xfffff1be
 324:	00018e02 	andeq	r8, r1, r2, lsl #28
 328:	00000018 	andeq	r0, r0, r8, lsl r0
 32c:	000002e8 	andeq	r0, r0, r8, ror #5
 330:	00008cc0 	andeq	r8, r0, r0, asr #25
 334:	00000024 	andeq	r0, r0, r4, lsr #32
 338:	84100e42 	ldrhi	r0, [r0], #-3650	; 0xfffff1be
 33c:	86038504 	strhi	r8, [r3], -r4, lsl #10
 340:	00018e02 	andeq	r8, r1, r2, lsl #28
 344:	00000014 	andeq	r0, r0, r4, lsl r0
 348:	000002e8 	andeq	r0, r0, r8, ror #5
 34c:	00008ce4 	andeq	r8, r0, r4, ror #25
 350:	00000018 	andeq	r0, r0, r8, lsl r0
 354:	84080e42 	strhi	r0, [r8], #-3650	; 0xfffff1be
 358:	00018e02 	andeq	r8, r1, r2, lsl #28
 35c:	00000014 	andeq	r0, r0, r4, lsl r0
 360:	000002e8 	andeq	r0, r0, r8, ror #5
 364:	00008cfc 	strdeq	r8, [r0], -ip
 368:	00000018 	andeq	r0, r0, r8, lsl r0
 36c:	84080e42 	strhi	r0, [r8], #-3650	; 0xfffff1be
 370:	00018e02 	andeq	r8, r1, r2, lsl #28
 374:	0000000c 	andeq	r0, r0, ip
 378:	ffffffff 			; <UNDEFINED> instruction: 0xffffffff
 37c:	7c020001 	stcvc	0, cr0, [r2], {1}
 380:	000d0c0e 	andeq	r0, sp, lr, lsl #24
 384:	00000018 	andeq	r0, r0, r8, lsl r0
 388:	00000374 	andeq	r0, r0, r4, ror r3
 38c:	00008d14 	andeq	r8, r0, r4, lsl sp
 390:	00000020 	andeq	r0, r0, r0, lsr #32
 394:	84100e42 	ldrhi	r0, [r0], #-3650	; 0xfffff1be
 398:	86038504 	strhi	r8, [r3], -r4, lsl #10
 39c:	00018e02 	andeq	r8, r1, r2, lsl #28
 3a0:	00000014 	andeq	r0, r0, r4, lsl r0
 3a4:	00000374 	andeq	r0, r0, r4, ror r3
 3a8:	00008d34 	andeq	r8, r0, r4, lsr sp
 3ac:	000000b0 	strheq	r0, [r0], -r0	; <UNPREDICTABLE>
 3b0:	84080e42 	strhi	r0, [r8], #-3650	; 0xfffff1be
 3b4:	00018e02 	andeq	r8, r1, r2, lsl #28
 3b8:	00000014 	andeq	r0, r0, r4, lsl r0
 3bc:	00000374 	andeq	r0, r0, r4, ror r3
 3c0:	00008de4 	andeq	r8, r0, r4, ror #27
 3c4:	00000018 	andeq	r0, r0, r8, lsl r0
 3c8:	84080e42 	strhi	r0, [r8], #-3650	; 0xfffff1be
 3cc:	00018e02 	andeq	r8, r1, r2, lsl #28
 3d0:	00000014 	andeq	r0, r0, r4, lsl r0
 3d4:	00000374 	andeq	r0, r0, r4, ror r3
 3d8:	00008dfc 	strdeq	r8, [r0], -ip
 3dc:	00000020 	andeq	r0, r0, r0, lsr #32
 3e0:	84080e42 	strhi	r0, [r8], #-3650	; 0xfffff1be
 3e4:	00018e02 	andeq	r8, r1, r2, lsl #28
 3e8:	00000014 	andeq	r0, r0, r4, lsl r0
 3ec:	00000374 	andeq	r0, r0, r4, ror r3
 3f0:	00008e1c 	andeq	r8, r0, ip, lsl lr
 3f4:	00000030 	andeq	r0, r0, r0, lsr r0
 3f8:	84080e42 	strhi	r0, [r8], #-3650	; 0xfffff1be
 3fc:	00018e02 	andeq	r8, r1, r2, lsl #28
 400:	00000014 	andeq	r0, r0, r4, lsl r0
 404:	00000374 	andeq	r0, r0, r4, ror r3
 408:	00008e4c 	andeq	r8, r0, ip, asr #28
 40c:	00000030 	andeq	r0, r0, r0, lsr r0
 410:	84080e42 	strhi	r0, [r8], #-3650	; 0xfffff1be
 414:	00018e02 	andeq	r8, r1, r2, lsl #28
 418:	00000014 	andeq	r0, r0, r4, lsl r0
 41c:	00000374 	andeq	r0, r0, r4, ror r3
 420:	00008e7c 	andeq	r8, r0, ip, ror lr
 424:	00000010 	andeq	r0, r0, r0, lsl r0
 428:	84080e42 	strhi	r0, [r8], #-3650	; 0xfffff1be
 42c:	00018e02 	andeq	r8, r1, r2, lsl #28
 430:	00000014 	andeq	r0, r0, r4, lsl r0
 434:	00000374 	andeq	r0, r0, r4, ror r3
 438:	00008e8c 	andeq	r8, r0, ip, lsl #29
 43c:	00000020 	andeq	r0, r0, r0, lsr #32
 440:	84080e42 	strhi	r0, [r8], #-3650	; 0xfffff1be
 444:	00018e02 	andeq	r8, r1, r2, lsl #28
 448:	00000014 	andeq	r0, r0, r4, lsl r0
 44c:	00000374 	andeq	r0, r0, r4, ror r3
 450:	00008eac 	andeq	r8, r0, ip, lsr #29
 454:	00000014 	andeq	r0, r0, r4, lsl r0
 458:	84080e42 	strhi	r0, [r8], #-3650	; 0xfffff1be
 45c:	00018e02 	andeq	r8, r1, r2, lsl #28
 460:	0000000c 	andeq	r0, r0, ip
 464:	ffffffff 			; <UNDEFINED> instruction: 0xffffffff
 468:	7c020001 	stcvc	0, cr0, [r2], {1}
 46c:	000d0c0e 	andeq	r0, sp, lr, lsl #24
 470:	0000001c 	andeq	r0, r0, ip, lsl r0
 474:	00000460 	andeq	r0, r0, r0, ror #8
 478:	00008ec0 	andeq	r8, r0, r0, asr #29
 47c:	0000005c 	andeq	r0, r0, ip, asr r0
 480:	84180e46 	ldrhi	r0, [r8], #-3654	; 0xfffff1ba
 484:	86058506 	strhi	r8, [r5], -r6, lsl #10
 488:	88038704 	stmdahi	r3, {r2, r8, r9, sl, pc}
 48c:	00018e02 	andeq	r8, r1, r2, lsl #28
 490:	00000014 	andeq	r0, r0, r4, lsl r0
 494:	00000460 	andeq	r0, r0, r0, ror #8
 498:	00008f1c 	andeq	r8, r0, ip, lsl pc
 49c:	00000024 	andeq	r0, r0, r4, lsr #32
 4a0:	84080e46 	strhi	r0, [r8], #-3654	; 0xfffff1ba
 4a4:	00018e02 	andeq	r8, r1, r2, lsl #28
 4a8:	00000014 	andeq	r0, r0, r4, lsl r0
 4ac:	00000460 	andeq	r0, r0, r0, ror #8
 4b0:	00008f40 	andeq	r8, r0, r0, asr #30
 4b4:	00000024 	andeq	r0, r0, r4, lsr #32
 4b8:	84080e46 	strhi	r0, [r8], #-3654	; 0xfffff1ba
 4bc:	00018e02 	andeq	r8, r1, r2, lsl #28
 4c0:	00000014 	andeq	r0, r0, r4, lsl r0
 4c4:	00000460 	andeq	r0, r0, r0, ror #8
 4c8:	00008f64 	andeq	r8, r0, r4, ror #30
 4cc:	0000001c 	andeq	r0, r0, ip, lsl r0
 4d0:	84080e42 	strhi	r0, [r8], #-3650	; 0xfffff1be
 4d4:	00018e02 	andeq	r8, r1, r2, lsl #28
 4d8:	0000001c 	andeq	r0, r0, ip, lsl r0
 4dc:	00000460 	andeq	r0, r0, r0, ror #8
 4e0:	00008f80 	andeq	r8, r0, r0, lsl #31
 4e4:	00000054 	andeq	r0, r0, r4, asr r0
 4e8:	84180e46 	ldrhi	r0, [r8], #-3654	; 0xfffff1ba
 4ec:	86058506 	strhi	r8, [r5], -r6, lsl #10
 4f0:	88038704 	stmdahi	r3, {r2, r8, r9, sl, pc}
 4f4:	00018e02 	andeq	r8, r1, r2, lsl #28
 4f8:	00000014 	andeq	r0, r0, r4, lsl r0
 4fc:	00000460 	andeq	r0, r0, r0, ror #8
 500:	00008fd4 	ldrdeq	r8, [r0], -r4
 504:	00000038 	andeq	r0, r0, r8, lsr r0
 508:	84080e4a 	strhi	r0, [r8], #-3658	; 0xfffff1b6
 50c:	00018e02 	andeq	r8, r1, r2, lsl #28
 510:	0000001c 	andeq	r0, r0, ip, lsl r0
 514:	00000460 	andeq	r0, r0, r0, ror #8
 518:	0000900c 	andeq	r9, r0, ip
 51c:	00000060 	andeq	r0, r0, r0, rrx
 520:	84180e48 	ldrhi	r0, [r8], #-3656	; 0xfffff1b8
 524:	86058506 	strhi	r8, [r5], -r6, lsl #10
 528:	88038704 	stmdahi	r3, {r2, r8, r9, sl, pc}
 52c:	00018e02 	andeq	r8, r1, r2, lsl #28
 530:	0000000c 	andeq	r0, r0, ip
 534:	ffffffff 			; <UNDEFINED> instruction: 0xffffffff
 538:	7c020001 	stcvc	0, cr0, [r2], {1}
 53c:	000d0c0e 	andeq	r0, sp, lr, lsl #24
 540:	0000000c 	andeq	r0, r0, ip
 544:	00000530 	andeq	r0, r0, r0, lsr r5
 548:	0000906c 	andeq	r9, r0, ip, rrx
 54c:	00000034 	andeq	r0, r0, r4, lsr r0
 550:	0000000c 	andeq	r0, r0, ip
 554:	ffffffff 			; <UNDEFINED> instruction: 0xffffffff
 558:	7c020001 	stcvc	0, cr0, [r2], {1}
 55c:	000d0c0e 	andeq	r0, sp, lr, lsl #24
 560:	0000000c 	andeq	r0, r0, ip
 564:	00000550 	andeq	r0, r0, r0, asr r5
 568:	000090a0 	andeq	r9, r0, r0, lsr #1
 56c:	0000002c 	andeq	r0, r0, ip, lsr #32
 570:	0000000c 	andeq	r0, r0, ip
 574:	ffffffff 			; <UNDEFINED> instruction: 0xffffffff
 578:	7c020001 	stcvc	0, cr0, [r2], {1}
 57c:	000d0c0e 	andeq	r0, sp, lr, lsl #24
 580:	0000000c 	andeq	r0, r0, ip
 584:	00000570 	andeq	r0, r0, r0, ror r5
 588:	000090cc 	andeq	r9, r0, ip, asr #1
 58c:	00000020 	andeq	r0, r0, r0, lsr #32
 590:	0000000c 	andeq	r0, r0, ip
 594:	ffffffff 			; <UNDEFINED> instruction: 0xffffffff
 598:	7c020001 	stcvc	0, cr0, [r2], {1}
 59c:	000d0c0e 	andeq	r0, sp, lr, lsl #24
 5a0:	0000000c 	andeq	r0, r0, ip
 5a4:	00000590 	muleq	r0, r0, r5
 5a8:	000090ec 	andeq	r9, r0, ip, ror #1
 5ac:	0000002c 	andeq	r0, r0, ip, lsr #32
