
5-test.elf:     file format elf32-littlearm


Disassembly of section .text:

00008000 <__code_start__>:
    8000:	e3a0d302 	mov	sp, #134217728	; 0x8000000
    8004:	e3a0b000 	mov	fp, #0, 0
    8008:	eb000367 	bl	8dac <_cstart>
    800c:	eb00037c 	bl	8e04 <rpi_reboot>

00008010 <PUT32>:
    8010:	e5801000 	str	r1, [r0]
    8014:	e12fff1e 	bx	lr

00008018 <GET32>:
    8018:	e5900000 	ldr	r0, [r0]
    801c:	e12fff1e 	bx	lr

00008020 <notmain>:
    8020:	e92d40f0 	push	{r4, r5, r6, r7, lr}
    8024:	e24dd014 	sub	sp, sp, #20, 0
    8028:	eb0003b2 	bl	8ef8 <uart_init>
    802c:	e59f421c 	ldr	r4, [pc, #540]	; 8250 <notmain+0x230>
    8030:	e1a00004 	mov	r0, r4
    8034:	eb000157 	bl	8598 <printk>
    8038:	e59f0214 	ldr	r0, [pc, #532]	; 8254 <notmain+0x234>
    803c:	eb000155 	bl	8598 <printk>
    8040:	e3a00601 	mov	r0, #1048576	; 0x100000
    8044:	eb00011e 	bl	84c4 <kmalloc_init_set_start>
    8048:	e1a00004 	mov	r0, r4
    804c:	eb000151 	bl	8598 <printk>
    8050:	eb000146 	bl	8570 <kmalloc_heap_ptr>
    8054:	e1a01000 	mov	r1, r0
    8058:	e59f01f8 	ldr	r0, [pc, #504]	; 8258 <notmain+0x238>
    805c:	eb00014d 	bl	8598 <printk>
    8060:	e3a00001 	mov	r0, #1, 0
    8064:	eb00008c 	bl	829c <kmalloc>
    8068:	e3500601 	cmp	r0, #1048576	; 0x100000
    806c:	0a000007 	beq	8090 <notmain+0x70>
    8070:	e59f31e4 	ldr	r3, [pc, #484]	; 825c <notmain+0x23c>
    8074:	e58d3000 	str	r3, [sp]
    8078:	e3a0300c 	mov	r3, #12, 0
    807c:	e59f21dc 	ldr	r2, [pc, #476]	; 8260 <notmain+0x240>
    8080:	e59f11dc 	ldr	r1, [pc, #476]	; 8264 <notmain+0x244>
    8084:	e59f01dc 	ldr	r0, [pc, #476]	; 8268 <notmain+0x248>
    8088:	eb000142 	bl	8598 <printk>
    808c:	eb00033b 	bl	8d80 <clean_reboot>
    8090:	e1a06000 	mov	r6, r0
    8094:	e59f01b4 	ldr	r0, [pc, #436]	; 8250 <notmain+0x230>
    8098:	eb00013e 	bl	8598 <printk>
    809c:	e1a01006 	mov	r1, r6
    80a0:	e59f01c4 	ldr	r0, [pc, #452]	; 826c <notmain+0x24c>
    80a4:	eb00013b 	bl	8598 <printk>
    80a8:	e3a04000 	mov	r4, #0, 0
    80ac:	ea00000d 	b	80e8 <notmain+0xc8>
    80b0:	e3a00001 	mov	r0, #1, 0
    80b4:	eb000078 	bl	829c <kmalloc>
    80b8:	e1a05000 	mov	r5, r0
    80bc:	e59f018c 	ldr	r0, [pc, #396]	; 8250 <notmain+0x230>
    80c0:	eb000134 	bl	8598 <printk>
    80c4:	e1a01005 	mov	r1, r5
    80c8:	e59f01a0 	ldr	r0, [pc, #416]	; 8270 <notmain+0x250>
    80cc:	eb000131 	bl	8598 <printk>
    80d0:	e1a03804 	lsl	r3, r4, #16
    80d4:	e1833c04 	orr	r3, r3, r4, lsl #24
    80d8:	e1833404 	orr	r3, r3, r4, lsl #8
    80dc:	e1833004 	orr	r3, r3, r4
    80e0:	e5853000 	str	r3, [r5]
    80e4:	e2844001 	add	r4, r4, #1, 0
    80e8:	e3540013 	cmp	r4, #19, 0
    80ec:	9affffef 	bls	80b0 <notmain+0x90>
    80f0:	e2867004 	add	r7, r6, #4, 0
    80f4:	e1a05007 	mov	r5, r7
    80f8:	e3a03000 	mov	r3, #0, 0
    80fc:	e3530013 	cmp	r3, #19, 0
    8100:	8a000014 	bhi	8158 <notmain+0x138>
    8104:	e1a04803 	lsl	r4, r3, #16
    8108:	e1844c03 	orr	r4, r4, r3, lsl #24
    810c:	e1844403 	orr	r4, r4, r3, lsl #8
    8110:	e1844003 	orr	r4, r4, r3
    8114:	e5952000 	ldr	r2, [r5]
    8118:	e1520004 	cmp	r2, r4
    811c:	02855004 	addeq	r5, r5, #4, 0
    8120:	02833001 	addeq	r3, r3, #1, 0
    8124:	0afffff4 	beq	80fc <notmain+0xdc>
    8128:	eb000135 	bl	8604 <rpi_reset_putc>
    812c:	e58d4008 	str	r4, [sp, #8]
    8130:	e5953000 	ldr	r3, [r5]
    8134:	e58d3004 	str	r3, [sp, #4]
    8138:	e59f3134 	ldr	r3, [pc, #308]	; 8274 <notmain+0x254>
    813c:	e58d3000 	str	r3, [sp]
    8140:	e3a0301f 	mov	r3, #31, 0
    8144:	e59f2114 	ldr	r2, [pc, #276]	; 8260 <notmain+0x240>
    8148:	e59f1114 	ldr	r1, [pc, #276]	; 8264 <notmain+0x244>
    814c:	e59f0124 	ldr	r0, [pc, #292]	; 8278 <notmain+0x258>
    8150:	eb000110 	bl	8598 <printk>
    8154:	eb000309 	bl	8d80 <clean_reboot>
    8158:	e3a01040 	mov	r1, #64, 0	; 0x40
    815c:	e3a00001 	mov	r0, #1, 0
    8160:	eb000081 	bl	836c <kmalloc_aligned>
    8164:	e310003f 	tst	r0, #63, 0	; 0x3f
    8168:	0a000008 	beq	8190 <notmain+0x170>
    816c:	eb000124 	bl	8604 <rpi_reset_putc>
    8170:	e59f3104 	ldr	r3, [pc, #260]	; 827c <notmain+0x25c>
    8174:	e58d3000 	str	r3, [sp]
    8178:	e3a03024 	mov	r3, #36, 0	; 0x24
    817c:	e59f20dc 	ldr	r2, [pc, #220]	; 8260 <notmain+0x240>
    8180:	e59f10dc 	ldr	r1, [pc, #220]	; 8264 <notmain+0x244>
    8184:	e59f00f4 	ldr	r0, [pc, #244]	; 8280 <notmain+0x260>
    8188:	eb000102 	bl	8598 <printk>
    818c:	eb0002fb 	bl	8d80 <clean_reboot>
    8190:	eb0000ec 	bl	8548 <kfree_all>
    8194:	e3a00001 	mov	r0, #1, 0
    8198:	eb00003f 	bl	829c <kmalloc>
    819c:	e1a04000 	mov	r4, r0
    81a0:	e59f00a8 	ldr	r0, [pc, #168]	; 8250 <notmain+0x230>
    81a4:	eb0000fb 	bl	8598 <printk>
    81a8:	e1a01004 	mov	r1, r4
    81ac:	e59f00d0 	ldr	r0, [pc, #208]	; 8284 <notmain+0x264>
    81b0:	eb0000f8 	bl	8598 <printk>
    81b4:	e3540601 	cmp	r4, #1048576	; 0x100000
    81b8:	0a000007 	beq	81dc <notmain+0x1bc>
    81bc:	e59f30c4 	ldr	r3, [pc, #196]	; 8288 <notmain+0x268>
    81c0:	e58d3000 	str	r3, [sp]
    81c4:	e3a0302a 	mov	r3, #42, 0	; 0x2a
    81c8:	e59f2090 	ldr	r2, [pc, #144]	; 8260 <notmain+0x240>
    81cc:	e59f1090 	ldr	r1, [pc, #144]	; 8264 <notmain+0x244>
    81d0:	e59f0090 	ldr	r0, [pc, #144]	; 8268 <notmain+0x248>
    81d4:	eb0000ef 	bl	8598 <printk>
    81d8:	eb0002e8 	bl	8d80 <clean_reboot>
    81dc:	e1560004 	cmp	r6, r4
    81e0:	0a000008 	beq	8208 <notmain+0x1e8>
    81e4:	eb000106 	bl	8604 <rpi_reset_putc>
    81e8:	e59f309c 	ldr	r3, [pc, #156]	; 828c <notmain+0x26c>
    81ec:	e58d3000 	str	r3, [sp]
    81f0:	e3a0302c 	mov	r3, #44, 0	; 0x2c
    81f4:	e59f2064 	ldr	r2, [pc, #100]	; 8260 <notmain+0x240>
    81f8:	e59f1064 	ldr	r1, [pc, #100]	; 8264 <notmain+0x244>
    81fc:	e59f008c 	ldr	r0, [pc, #140]	; 8290 <notmain+0x270>
    8200:	eb0000e4 	bl	8598 <printk>
    8204:	eb0002dd 	bl	8d80 <clean_reboot>
    8208:	e3a00001 	mov	r0, #1, 0
    820c:	eb000022 	bl	829c <kmalloc>
    8210:	e1570000 	cmp	r7, r0
    8214:	0a000008 	beq	823c <notmain+0x21c>
    8218:	eb0000f9 	bl	8604 <rpi_reset_putc>
    821c:	e59f3070 	ldr	r3, [pc, #112]	; 8294 <notmain+0x274>
    8220:	e58d3000 	str	r3, [sp]
    8224:	e3a0302d 	mov	r3, #45, 0	; 0x2d
    8228:	e59f2030 	ldr	r2, [pc, #48]	; 8260 <notmain+0x240>
    822c:	e59f1030 	ldr	r1, [pc, #48]	; 8264 <notmain+0x244>
    8230:	e59f0058 	ldr	r0, [pc, #88]	; 8290 <notmain+0x270>
    8234:	eb0000d7 	bl	8598 <printk>
    8238:	eb0002d0 	bl	8d80 <clean_reboot>
    823c:	e59f000c 	ldr	r0, [pc, #12]	; 8250 <notmain+0x230>
    8240:	eb0000d4 	bl	8598 <printk>
    8244:	e59f004c 	ldr	r0, [pc, #76]	; 8298 <notmain+0x278>
    8248:	eb0000d2 	bl	8598 <printk>
    824c:	eb0002cb 	bl	8d80 <clean_reboot>
    8250:	000092f8 	strdeq	r9, [r0], -r8
    8254:	00009300 	andeq	r9, r0, r0, lsl #6
    8258:	00009324 	andeq	r9, r0, r4, lsr #6
    825c:	00009358 	andeq	r9, r0, r8, asr r3
    8260:	000094c8 	andeq	r9, r0, r8, asr #9
    8264:	00009338 	andeq	r9, r0, r8, lsr r3
    8268:	00009344 	andeq	r9, r0, r4, asr #6
    826c:	00009374 	andeq	r9, r0, r4, ror r3
    8270:	00009380 	andeq	r9, r0, r0, lsl #7
    8274:	000093c0 	andeq	r9, r0, r0, asr #7
    8278:	00009388 	andeq	r9, r0, r8, lsl #7
    827c:	00009400 	andeq	r9, r0, r0, lsl #8
    8280:	000093c8 	andeq	r9, r0, r8, asr #7
    8284:	00009418 	andeq	r9, r0, r8, lsl r4
    8288:	00009430 	andeq	r9, r0, r0, lsr r4
    828c:	0000948c 	andeq	r9, r0, ip, lsl #9
    8290:	0000944c 	andeq	r9, r0, ip, asr #8
    8294:	0000949c 	muleq	r0, ip, r4
    8298:	000094b4 			; <UNDEFINED> instruction: 0x000094b4

0000829c <kmalloc>:
    829c:	e52de004 	push	{lr}		; (str lr, [sp, #-4]!)
    82a0:	e24dd00c 	sub	sp, sp, #12, 0
    82a4:	e3500000 	cmp	r0, #0, 0
    82a8:	0a00000d 	beq	82e4 <kmalloc+0x48>
    82ac:	e59f3094 	ldr	r3, [pc, #148]	; 8348 <kmalloc+0xac>
    82b0:	e5933000 	ldr	r3, [r3]
    82b4:	e3530000 	cmp	r3, #0, 0
    82b8:	0a000011 	beq	8304 <kmalloc+0x68>
    82bc:	e2800003 	add	r0, r0, #3, 0
    82c0:	e3c03003 	bic	r3, r0, #3, 0
    82c4:	e59f2080 	ldr	r2, [pc, #128]	; 834c <kmalloc+0xb0>
    82c8:	e5920000 	ldr	r0, [r2]
    82cc:	e0803003 	add	r3, r0, r3
    82d0:	e5823000 	str	r3, [r2]
    82d4:	e3130003 	tst	r3, #3, 0
    82d8:	1a000012 	bne	8328 <kmalloc+0x8c>
    82dc:	e28dd00c 	add	sp, sp, #12, 0
    82e0:	e49df004 	pop	{pc}		; (ldr pc, [sp], #4)
    82e4:	e59f3064 	ldr	r3, [pc, #100]	; 8350 <kmalloc+0xb4>
    82e8:	e58d3000 	str	r3, [sp]
    82ec:	e3a03035 	mov	r3, #53, 0	; 0x35
    82f0:	e59f205c 	ldr	r2, [pc, #92]	; 8354 <kmalloc+0xb8>
    82f4:	e59f105c 	ldr	r1, [pc, #92]	; 8358 <kmalloc+0xbc>
    82f8:	e59f005c 	ldr	r0, [pc, #92]	; 835c <kmalloc+0xc0>
    82fc:	eb0000a5 	bl	8598 <printk>
    8300:	eb00029e 	bl	8d80 <clean_reboot>
    8304:	eb0000be 	bl	8604 <rpi_reset_putc>
    8308:	e59f3050 	ldr	r3, [pc, #80]	; 8360 <kmalloc+0xc4>
    830c:	e58d3000 	str	r3, [sp]
    8310:	e3a03036 	mov	r3, #54, 0	; 0x36
    8314:	e59f2038 	ldr	r2, [pc, #56]	; 8354 <kmalloc+0xb8>
    8318:	e59f1038 	ldr	r1, [pc, #56]	; 8358 <kmalloc+0xbc>
    831c:	e59f0040 	ldr	r0, [pc, #64]	; 8364 <kmalloc+0xc8>
    8320:	eb00009c 	bl	8598 <printk>
    8324:	eb000295 	bl	8d80 <clean_reboot>
    8328:	e59f3038 	ldr	r3, [pc, #56]	; 8368 <kmalloc+0xcc>
    832c:	e58d3000 	str	r3, [sp]
    8330:	e3a0303a 	mov	r3, #58, 0	; 0x3a
    8334:	e59f2018 	ldr	r2, [pc, #24]	; 8354 <kmalloc+0xb8>
    8338:	e59f1018 	ldr	r1, [pc, #24]	; 8358 <kmalloc+0xbc>
    833c:	e59f0018 	ldr	r0, [pc, #24]	; 835c <kmalloc+0xc0>
    8340:	eb000094 	bl	8598 <printk>
    8344:	eb00028d 	bl	8d80 <clean_reboot>
    8348:	000097d4 	ldrdeq	r9, [r0], -r4
    834c:	00009bd8 	ldrdeq	r9, [r0], -r8
    8350:	00009544 	andeq	r9, r0, r4, asr #10
    8354:	0000961c 	andeq	r9, r0, ip, lsl r6
    8358:	000094d0 	ldrdeq	r9, [r0], -r0
    835c:	00009344 	andeq	r9, r0, r4, asr #6
    8360:	00009518 	andeq	r9, r0, r8, lsl r5
    8364:	000094dc 	ldrdeq	r9, [r0], -ip
    8368:	00009520 	andeq	r9, r0, r0, lsr #10

0000836c <kmalloc_aligned>:
    836c:	e52de004 	push	{lr}		; (str lr, [sp, #-4]!)
    8370:	e24dd00c 	sub	sp, sp, #12, 0
    8374:	e3500004 	cmp	r0, #4, 0
    8378:	1a00000f 	bne	83bc <kmalloc_aligned+0x50>
    837c:	e59f30c8 	ldr	r3, [pc, #200]	; 844c <kmalloc_aligned+0xe0>
    8380:	e5933000 	ldr	r3, [r3]
    8384:	e3530000 	cmp	r3, #0, 0
    8388:	0a000013 	beq	83dc <kmalloc_aligned+0x70>
    838c:	e2613000 	rsb	r3, r1, #0, 0
    8390:	e1d13003 	bics	r3, r1, r3
    8394:	1a000019 	bne	8400 <kmalloc_aligned+0x94>
    8398:	e3510004 	cmp	r1, #4, 0
    839c:	9a000020 	bls	8424 <kmalloc_aligned+0xb8>
    83a0:	e59f30a8 	ldr	r3, [pc, #168]	; 8450 <kmalloc_aligned+0xe4>
    83a4:	e5930000 	ldr	r0, [r3]
    83a8:	e2411001 	sub	r1, r1, #1, 0
    83ac:	e1100001 	tst	r0, r1
    83b0:	1a00001d 	bne	842c <kmalloc_aligned+0xc0>
    83b4:	e28dd00c 	add	sp, sp, #12, 0
    83b8:	e49df004 	pop	{pc}		; (ldr pc, [sp], #4)
    83bc:	e59f3090 	ldr	r3, [pc, #144]	; 8454 <kmalloc_aligned+0xe8>
    83c0:	e58d3000 	str	r3, [sp]
    83c4:	e3a03043 	mov	r3, #67, 0	; 0x43
    83c8:	e59f2088 	ldr	r2, [pc, #136]	; 8458 <kmalloc_aligned+0xec>
    83cc:	e59f1088 	ldr	r1, [pc, #136]	; 845c <kmalloc_aligned+0xf0>
    83d0:	e59f0088 	ldr	r0, [pc, #136]	; 8460 <kmalloc_aligned+0xf4>
    83d4:	eb00006f 	bl	8598 <printk>
    83d8:	eb000268 	bl	8d80 <clean_reboot>
    83dc:	eb000088 	bl	8604 <rpi_reset_putc>
    83e0:	e59f307c 	ldr	r3, [pc, #124]	; 8464 <kmalloc_aligned+0xf8>
    83e4:	e58d3000 	str	r3, [sp]
    83e8:	e3a03044 	mov	r3, #68, 0	; 0x44
    83ec:	e59f2064 	ldr	r2, [pc, #100]	; 8458 <kmalloc_aligned+0xec>
    83f0:	e59f1064 	ldr	r1, [pc, #100]	; 845c <kmalloc_aligned+0xf0>
    83f4:	e59f006c 	ldr	r0, [pc, #108]	; 8468 <kmalloc_aligned+0xfc>
    83f8:	eb000066 	bl	8598 <printk>
    83fc:	eb00025f 	bl	8d80 <clean_reboot>
    8400:	eb00007f 	bl	8604 <rpi_reset_putc>
    8404:	e59f3060 	ldr	r3, [pc, #96]	; 846c <kmalloc_aligned+0x100>
    8408:	e58d3000 	str	r3, [sp]
    840c:	e3a03045 	mov	r3, #69, 0	; 0x45
    8410:	e59f2040 	ldr	r2, [pc, #64]	; 8458 <kmalloc_aligned+0xec>
    8414:	e59f1040 	ldr	r1, [pc, #64]	; 845c <kmalloc_aligned+0xf0>
    8418:	e59f0050 	ldr	r0, [pc, #80]	; 8470 <kmalloc_aligned+0x104>
    841c:	eb00005d 	bl	8598 <printk>
    8420:	eb000256 	bl	8d80 <clean_reboot>
    8424:	ebffff9c 	bl	829c <kmalloc>
    8428:	eaffffe1 	b	83b4 <kmalloc_aligned+0x48>
    842c:	e59f3040 	ldr	r3, [pc, #64]	; 8474 <kmalloc_aligned+0x108>
    8430:	e58d3000 	str	r3, [sp]
    8434:	e3a0304a 	mov	r3, #74, 0	; 0x4a
    8438:	e59f2018 	ldr	r2, [pc, #24]	; 8458 <kmalloc_aligned+0xec>
    843c:	e59f1018 	ldr	r1, [pc, #24]	; 845c <kmalloc_aligned+0xf0>
    8440:	e59f0018 	ldr	r0, [pc, #24]	; 8460 <kmalloc_aligned+0xf4>
    8444:	eb000053 	bl	8598 <printk>
    8448:	eb00024c 	bl	8d80 <clean_reboot>
    844c:	000097d4 	ldrdeq	r9, [r0], -r4
    8450:	00009bd8 	ldrdeq	r9, [r0], -r8
    8454:	00009534 	andeq	r9, r0, r4, lsr r5
    8458:	00009624 	andeq	r9, r0, r4, lsr #12
    845c:	000094d0 	ldrdeq	r9, [r0], -r0
    8460:	00009344 	andeq	r9, r0, r4, asr #6
    8464:	00009518 	andeq	r9, r0, r8, lsl r5
    8468:	000094dc 	ldrdeq	r9, [r0], -ip
    846c:	00009580 	andeq	r9, r0, r0, lsl #11
    8470:	0000954c 	andeq	r9, r0, ip, asr #10
    8474:	00009594 	muleq	r0, r4, r5

00008478 <kmalloc_init>:
    8478:	e59f3034 	ldr	r3, [pc, #52]	; 84b4 <kmalloc_init+0x3c>
    847c:	e5933000 	ldr	r3, [r3]
    8480:	e3530000 	cmp	r3, #0, 0
    8484:	112fff1e 	bxne	lr
    8488:	e92d4010 	push	{r4, lr}
    848c:	e59f3020 	ldr	r3, [pc, #32]	; 84b4 <kmalloc_init+0x3c>
    8490:	e3a02001 	mov	r2, #1, 0
    8494:	e5832000 	str	r2, [r3]
    8498:	e59f1018 	ldr	r1, [pc, #24]	; 84b8 <kmalloc_init+0x40>
    849c:	e3c11003 	bic	r1, r1, #3, 0
    84a0:	e59f3014 	ldr	r3, [pc, #20]	; 84bc <kmalloc_init+0x44>
    84a4:	e5831000 	str	r1, [r3]
    84a8:	e59f0010 	ldr	r0, [pc, #16]	; 84c0 <kmalloc_init+0x48>
    84ac:	eb000039 	bl	8598 <printk>
    84b0:	e8bd8010 	pop	{r4, pc}
    84b4:	000097d4 	ldrdeq	r9, [r0], -r4
    84b8:	00009be3 	andeq	r9, r0, r3, ror #23
    84bc:	00009bd8 	ldrdeq	r9, [r0], -r8
    84c0:	000095b0 			; <UNDEFINED> instruction: 0x000095b0

000084c4 <kmalloc_init_set_start>:
    84c4:	e52de004 	push	{lr}		; (str lr, [sp, #-4]!)
    84c8:	e24dd00c 	sub	sp, sp, #12, 0
    84cc:	e59f3058 	ldr	r3, [pc, #88]	; 852c <kmalloc_init_set_start+0x68>
    84d0:	e5933000 	ldr	r3, [r3]
    84d4:	e3530000 	cmp	r3, #0, 0
    84d8:	1a00000a 	bne	8508 <kmalloc_init_set_start+0x44>
    84dc:	e59f3048 	ldr	r3, [pc, #72]	; 852c <kmalloc_init_set_start+0x68>
    84e0:	e3a02001 	mov	r2, #1, 0
    84e4:	e5832000 	str	r2, [r3]
    84e8:	e2800003 	add	r0, r0, #3, 0
    84ec:	e3c01003 	bic	r1, r0, #3, 0
    84f0:	e59f3038 	ldr	r3, [pc, #56]	; 8530 <kmalloc_init_set_start+0x6c>
    84f4:	e5831000 	str	r1, [r3]
    84f8:	e59f0034 	ldr	r0, [pc, #52]	; 8534 <kmalloc_init_set_start+0x70>
    84fc:	eb000025 	bl	8598 <printk>
    8500:	e28dd00c 	add	sp, sp, #12, 0
    8504:	e49df004 	pop	{pc}		; (ldr pc, [sp], #4)
    8508:	eb00003d 	bl	8604 <rpi_reset_putc>
    850c:	e59f3024 	ldr	r3, [pc, #36]	; 8538 <kmalloc_init_set_start+0x74>
    8510:	e58d3000 	str	r3, [sp]
    8514:	e3a03063 	mov	r3, #99, 0	; 0x63
    8518:	e59f201c 	ldr	r2, [pc, #28]	; 853c <kmalloc_init_set_start+0x78>
    851c:	e59f101c 	ldr	r1, [pc, #28]	; 8540 <kmalloc_init_set_start+0x7c>
    8520:	e59f001c 	ldr	r0, [pc, #28]	; 8544 <kmalloc_init_set_start+0x80>
    8524:	eb00001b 	bl	8598 <printk>
    8528:	eb000214 	bl	8d80 <clean_reboot>
    852c:	000097d4 	ldrdeq	r9, [r0], -r4
    8530:	00009bd8 	ldrdeq	r9, [r0], -r8
    8534:	000095b0 			; <UNDEFINED> instruction: 0x000095b0
    8538:	000095e8 	andeq	r9, r0, r8, ror #11
    853c:	00009634 	andeq	r9, r0, r4, lsr r6
    8540:	000094d0 	ldrdeq	r9, [r0], -r0
    8544:	000095b4 			; <UNDEFINED> instruction: 0x000095b4

00008548 <kfree_all>:
    8548:	e92d4010 	push	{r4, lr}
    854c:	e3a0306f 	mov	r3, #111, 0	; 0x6f
    8550:	e59f200c 	ldr	r2, [pc, #12]	; 8564 <kfree_all+0x1c>
    8554:	e59f100c 	ldr	r1, [pc, #12]	; 8568 <kfree_all+0x20>
    8558:	e59f000c 	ldr	r0, [pc, #12]	; 856c <kfree_all+0x24>
    855c:	eb00000d 	bl	8598 <printk>
    8560:	eb000206 	bl	8d80 <clean_reboot>
    8564:	0000964c 	andeq	r9, r0, ip, asr #12
    8568:	000094d0 	ldrdeq	r9, [r0], -r0
    856c:	000095f0 	strdeq	r9, [r0], -r0

00008570 <kmalloc_heap_ptr>:
    8570:	e92d4010 	push	{r4, lr}
    8574:	e3a03078 	mov	r3, #120, 0	; 0x78
    8578:	e59f200c 	ldr	r2, [pc, #12]	; 858c <kmalloc_heap_ptr+0x1c>
    857c:	e59f100c 	ldr	r1, [pc, #12]	; 8590 <kmalloc_heap_ptr+0x20>
    8580:	e59f000c 	ldr	r0, [pc, #12]	; 8594 <kmalloc_heap_ptr+0x24>
    8584:	eb000003 	bl	8598 <printk>
    8588:	eb0001fc 	bl	8d80 <clean_reboot>
    858c:	00009658 	andeq	r9, r0, r8, asr r6
    8590:	000094d0 	ldrdeq	r9, [r0], -r0
    8594:	000095f0 	strdeq	r9, [r0], -r0

00008598 <printk>:
    8598:	e92d000f 	push	{r0, r1, r2, r3}
    859c:	e92d4030 	push	{r4, r5, lr}
    85a0:	e24dd00c 	sub	sp, sp, #12, 0
    85a4:	e28d301c 	add	r3, sp, #28, 0
    85a8:	e58d3004 	str	r3, [sp, #4]
    85ac:	e59f5034 	ldr	r5, [pc, #52]	; 85e8 <printk+0x50>
    85b0:	e59d2018 	ldr	r2, [sp, #24]
    85b4:	e3a01b01 	mov	r1, #1024	; 0x400
    85b8:	e1a00005 	mov	r0, r5
    85bc:	eb0000c9 	bl	88e8 <va_printk>
    85c0:	e1a04000 	mov	r4, r0
    85c4:	e59f3020 	ldr	r3, [pc, #32]	; 85ec <printk+0x54>
    85c8:	e5933000 	ldr	r3, [r3]
    85cc:	e1a00005 	mov	r0, r5
    85d0:	e12fff33 	blx	r3
    85d4:	e1a00004 	mov	r0, r4
    85d8:	e28dd00c 	add	sp, sp, #12, 0
    85dc:	e8bd4030 	pop	{r4, r5, lr}
    85e0:	e28dd010 	add	sp, sp, #16, 0
    85e4:	e12fff1e 	bx	lr
    85e8:	000097d8 	ldrdeq	r9, [r0], -r8
    85ec:	000097d0 	ldrdeq	r9, [r0], -r0

000085f0 <internal_putchar>:
    85f0:	e92d4010 	push	{r4, lr}
    85f4:	e1a04000 	mov	r4, r0
    85f8:	eb000284 	bl	9010 <uart_putc>
    85fc:	e1a00004 	mov	r0, r4
    8600:	e8bd8010 	pop	{r4, pc}

00008604 <rpi_reset_putc>:
    8604:	e59f3008 	ldr	r3, [pc, #8]	; 8614 <rpi_reset_putc+0x10>
    8608:	e59f2008 	ldr	r2, [pc, #8]	; 8618 <rpi_reset_putc+0x14>
    860c:	e5832000 	str	r2, [r3]
    8610:	e12fff1e 	bx	lr
    8614:	000097cc 	andeq	r9, r0, ip, asr #15
    8618:	000085f0 	strdeq	r8, [r0], -r0

0000861c <rpi_set_putc>:
    861c:	e59f3004 	ldr	r3, [pc, #4]	; 8628 <rpi_set_putc+0xc>
    8620:	e5830000 	str	r0, [r3]
    8624:	e12fff1e 	bx	lr
    8628:	000097cc 	andeq	r9, r0, ip, asr #15

0000862c <internal_putk>:
    862c:	e92d4010 	push	{r4, lr}
    8630:	e1a04000 	mov	r4, r0
    8634:	e5d40000 	ldrb	r0, [r4]
    8638:	e3500000 	cmp	r0, #0, 0
    863c:	0a000004 	beq	8654 <internal_putk+0x28>
    8640:	e59f3014 	ldr	r3, [pc, #20]	; 865c <internal_putk+0x30>
    8644:	e5933000 	ldr	r3, [r3]
    8648:	e12fff33 	blx	r3
    864c:	e2844001 	add	r4, r4, #1, 0
    8650:	eafffff7 	b	8634 <internal_putk+0x8>
    8654:	e3a00001 	mov	r0, #1, 0
    8658:	e8bd8010 	pop	{r4, pc}
    865c:	000097cc 	andeq	r9, r0, ip, asr #15

00008660 <isdigit>:
    8660:	e2400030 	sub	r0, r0, #48, 0	; 0x30
    8664:	e3500009 	cmp	r0, #9, 0
    8668:	83a00000 	movhi	r0, #0, 0
    866c:	93a00001 	movls	r0, #1, 0
    8670:	e12fff1e 	bx	lr

00008674 <pad>:
    8674:	e0401001 	sub	r1, r0, r1
    8678:	e1510002 	cmp	r1, r2
    867c:	b3a03020 	movlt	r3, #32, 0
    8680:	b4c03001 	strblt	r3, [r0], #1
    8684:	b2811001 	addlt	r1, r1, #1, 0
    8688:	bafffffa 	blt	8678 <pad+0x4>
    868c:	e3a03000 	mov	r3, #0, 0
    8690:	e5c03000 	strb	r3, [r0]
    8694:	e12fff1e 	bx	lr

00008698 <reverse>:
    8698:	e042c003 	sub	ip, r2, r3
    869c:	e28cc001 	add	ip, ip, #1, 0
    86a0:	e15c0001 	cmp	ip, r1
    86a4:	c04cc001 	subgt	ip, ip, r1
    86a8:	c083300c 	addgt	r3, r3, ip
    86ac:	e2421001 	sub	r1, r2, #1, 0
    86b0:	e1a02000 	mov	r2, r0
    86b4:	e1510003 	cmp	r1, r3
    86b8:	2451c001 	ldrbcs	ip, [r1], #-1
    86bc:	24c2c001 	strbcs	ip, [r2], #1
    86c0:	2afffffb 	bcs	86b4 <reverse+0x1c>
    86c4:	e3a03000 	mov	r3, #0, 0
    86c8:	e5c23000 	strb	r3, [r2]
    86cc:	e12fff1e 	bx	lr

000086d0 <emit>:
    86d0:	e92d40f0 	push	{r4, r5, r6, r7, lr}
    86d4:	e24dd04c 	sub	sp, sp, #76, 0	; 0x4c
    86d8:	e1a05001 	mov	r5, r1
    86dc:	e1a04002 	mov	r4, r2
    86e0:	e59d2060 	ldr	r2, [sp, #96]	; 0x60
    86e4:	e1520004 	cmp	r2, r4
    86e8:	c2442001 	subgt	r2, r4, #1, 0
    86ec:	e1a0c003 	mov	ip, r3
    86f0:	e2400002 	sub	r0, r0, #2, 0
    86f4:	e350000e 	cmp	r0, #14, 0
    86f8:	979ff100 	ldrls	pc, [pc, r0, lsl #2]
    86fc:	ea000050 	b	8844 <emit+0x174>
    8700:	0000881c 	andeq	r8, r0, ip, lsl r8
    8704:	00008844 	andeq	r8, r0, r4, asr #16
    8708:	00008844 	andeq	r8, r0, r4, asr #16
    870c:	00008844 	andeq	r8, r0, r4, asr #16
    8710:	00008844 	andeq	r8, r0, r4, asr #16
    8714:	00008844 	andeq	r8, r0, r4, asr #16
    8718:	00008810 	andeq	r8, r0, r0, lsl r8
    871c:	00008844 	andeq	r8, r0, r4, asr #16
    8720:	0000873c 	andeq	r8, r0, ip, lsr r7
    8724:	00008844 	andeq	r8, r0, r4, asr #16
    8728:	00008844 	andeq	r8, r0, r4, asr #16
    872c:	00008844 	andeq	r8, r0, r4, asr #16
    8730:	00008844 	andeq	r8, r0, r4, asr #16
    8734:	00008844 	andeq	r8, r0, r4, asr #16
    8738:	000087b4 			; <UNDEFINED> instruction: 0x000087b4
    873c:	e59d1064 	ldr	r1, [sp, #100]	; 0x64
    8740:	e2511000 	subs	r1, r1, #0, 0
    8744:	13a01001 	movne	r1, #1, 0
    8748:	e0111fa3 	ands	r1, r1, r3, lsr #31
    874c:	0a000016 	beq	87ac <emit+0xdc>
    8750:	e263c000 	rsb	ip, r3, #0, 0
    8754:	e3a06001 	mov	r6, #1, 0
    8758:	e28d0008 	add	r0, sp, #8, 0
    875c:	e59f3100 	ldr	r3, [pc, #256]	; 8864 <emit+0x194>
    8760:	e0831c93 	umull	r1, r3, r3, ip
    8764:	e1a031a3 	lsr	r3, r3, #3
    8768:	e1a0e003 	mov	lr, r3
    876c:	e0833103 	add	r3, r3, r3, lsl #2
    8770:	e04c3083 	sub	r3, ip, r3, lsl #1
    8774:	e1a01000 	mov	r1, r0
    8778:	e2800001 	add	r0, r0, #1, 0
    877c:	e59f70e4 	ldr	r7, [pc, #228]	; 8868 <emit+0x198>
    8780:	e7d73003 	ldrb	r3, [r7, r3]
    8784:	e5c13000 	strb	r3, [r1]
    8788:	e1a0300c 	mov	r3, ip
    878c:	e1a0c00e 	mov	ip, lr
    8790:	e3530009 	cmp	r3, #9, 0
    8794:	8afffff0 	bhi	875c <emit+0x8c>
    8798:	e3560000 	cmp	r6, #0, 0
    879c:	13a0302d 	movne	r3, #45, 0	; 0x2d
    87a0:	15c03000 	strbne	r3, [r0]
    87a4:	12810002 	addne	r0, r1, #2, 0
    87a8:	ea00000f 	b	87ec <emit+0x11c>
    87ac:	e3a06000 	mov	r6, #0, 0
    87b0:	eaffffe8 	b	8758 <emit+0x88>
    87b4:	e28d1008 	add	r1, sp, #8, 0
    87b8:	e20c000f 	and	r0, ip, #15, 0
    87bc:	e59fe0a8 	ldr	lr, [pc, #168]	; 886c <emit+0x19c>
    87c0:	e7de0000 	ldrb	r0, [lr, r0]
    87c4:	e5c10000 	strb	r0, [r1]
    87c8:	e2811001 	add	r1, r1, #1, 0
    87cc:	e35c000f 	cmp	ip, #15, 0
    87d0:	e1a0c22c 	lsr	ip, ip, #4
    87d4:	8afffff7 	bhi	87b8 <emit+0xe8>
    87d8:	e1a00001 	mov	r0, r1
    87dc:	e3a03078 	mov	r3, #120, 0	; 0x78
    87e0:	e4c03002 	strb	r3, [r0], #2
    87e4:	e3a03030 	mov	r3, #48, 0	; 0x30
    87e8:	e5c13001 	strb	r3, [r1, #1]
    87ec:	e28d1008 	add	r1, sp, #8, 0
    87f0:	ebffff9f 	bl	8674 <pad>
    87f4:	e1a02000 	mov	r2, r0
    87f8:	e28d3008 	add	r3, sp, #8, 0
    87fc:	e1a01004 	mov	r1, r4
    8800:	e1a00005 	mov	r0, r5
    8804:	ebffffa3 	bl	8698 <reverse>
    8808:	e28dd04c 	add	sp, sp, #76, 0	; 0x4c
    880c:	e8bd80f0 	pop	{r4, r5, r6, r7, pc}
    8810:	e5cd3008 	strb	r3, [sp, #8]
    8814:	e28d0009 	add	r0, sp, #9, 0
    8818:	eafffff3 	b	87ec <emit+0x11c>
    881c:	e28d0008 	add	r0, sp, #8, 0
    8820:	e20c1001 	and	r1, ip, #1, 0
    8824:	e59fe044 	ldr	lr, [pc, #68]	; 8870 <emit+0x1a0>
    8828:	e7de1001 	ldrb	r1, [lr, r1]
    882c:	e5c01000 	strb	r1, [r0]
    8830:	e2800001 	add	r0, r0, #1, 0
    8834:	e35c0001 	cmp	ip, #1, 0
    8838:	e1a0c0ac 	lsr	ip, ip, #1
    883c:	8afffff7 	bhi	8820 <emit+0x150>
    8840:	eaffffe9 	b	87ec <emit+0x11c>
    8844:	e59f3028 	ldr	r3, [pc, #40]	; 8874 <emit+0x1a4>
    8848:	e58d3000 	str	r3, [sp]
    884c:	e3a03079 	mov	r3, #121, 0	; 0x79
    8850:	e59f2020 	ldr	r2, [pc, #32]	; 8878 <emit+0x1a8>
    8854:	e59f1020 	ldr	r1, [pc, #32]	; 887c <emit+0x1ac>
    8858:	e59f0020 	ldr	r0, [pc, #32]	; 8880 <emit+0x1b0>
    885c:	ebffff4d 	bl	8598 <printk>
    8860:	eb000146 	bl	8d80 <clean_reboot>
    8864:	cccccccd 	stclgt	12, cr12, [ip], {205}	; 0xcd
    8868:	00009680 	andeq	r9, r0, r0, lsl #13
    886c:	0000968c 	andeq	r9, r0, ip, lsl #13
    8870:	000096a0 	andeq	r9, r0, r0, lsr #13
    8874:	00009414 	andeq	r9, r0, r4, lsl r4
    8878:	0000979c 	muleq	r0, ip, r7
    887c:	0000966c 	andeq	r9, r0, ip, ror #12
    8880:	00009344 	andeq	r9, r0, r4, asr #6

00008884 <rpi_set_output>:
    8884:	e3500000 	cmp	r0, #0, 0
    8888:	0a000006 	beq	88a8 <rpi_set_output+0x24>
    888c:	e59f303c 	ldr	r3, [pc, #60]	; 88d0 <rpi_set_output+0x4c>
    8890:	e5830000 	str	r0, [r3]
    8894:	e3510000 	cmp	r1, #0, 0
    8898:	012fff1e 	bxeq	lr
    889c:	e59f3030 	ldr	r3, [pc, #48]	; 88d4 <rpi_set_output+0x50>
    88a0:	e5831000 	str	r1, [r3]
    88a4:	e12fff1e 	bx	lr
    88a8:	e52de004 	push	{lr}		; (str lr, [sp, #-4]!)
    88ac:	e24dd00c 	sub	sp, sp, #12, 0
    88b0:	e59f3020 	ldr	r3, [pc, #32]	; 88d8 <rpi_set_output+0x54>
    88b4:	e58d3000 	str	r3, [sp]
    88b8:	e3a03020 	mov	r3, #32, 0
    88bc:	e59f2018 	ldr	r2, [pc, #24]	; 88dc <rpi_set_output+0x58>
    88c0:	e59f1018 	ldr	r1, [pc, #24]	; 88e0 <rpi_set_output+0x5c>
    88c4:	e59f0018 	ldr	r0, [pc, #24]	; 88e4 <rpi_set_output+0x60>
    88c8:	ebffff32 	bl	8598 <printk>
    88cc:	eb00012b 	bl	8d80 <clean_reboot>
    88d0:	000097cc 	andeq	r9, r0, ip, asr #15
    88d4:	000097d0 	ldrdeq	r9, [r0], -r0
    88d8:	000096a4 	andeq	r9, r0, r4, lsr #13
    88dc:	000097a4 	andeq	r9, r0, r4, lsr #15
    88e0:	0000966c 	andeq	r9, r0, ip, ror #12
    88e4:	00009344 	andeq	r9, r0, r4, asr #6

000088e8 <va_printk>:
    88e8:	e92d4ff0 	push	{r4, r5, r6, r7, r8, r9, sl, fp, lr}
    88ec:	e24ddf45 	sub	sp, sp, #276	; 0x114
    88f0:	e1a09000 	mov	r9, r0
    88f4:	e58d2008 	str	r2, [sp, #8]
    88f8:	e58d300c 	str	r3, [sp, #12]
    88fc:	e2411001 	sub	r1, r1, #1, 0
    8900:	e0808001 	add	r8, r0, r1
    8904:	e3a03000 	mov	r3, #0, 0
    8908:	e5c03000 	strb	r3, [r0]
    890c:	e1a04000 	mov	r4, r0
    8910:	e1a06002 	mov	r6, r2
    8914:	ea000001 	b	8920 <va_printk+0x38>
    8918:	e2866001 	add	r6, r6, #1, 0
    891c:	e4c43001 	strb	r3, [r4], #1
    8920:	e5d63000 	ldrb	r3, [r6]
    8924:	e3530000 	cmp	r3, #0, 0
    8928:	0a000102 	beq	8d38 <va_printk+0x450>
    892c:	e1540008 	cmp	r4, r8
    8930:	2a000100 	bcs	8d38 <va_printk+0x450>
    8934:	e3530025 	cmp	r3, #37, 0	; 0x25
    8938:	1afffff6 	bne	8918 <va_printk+0x30>
    893c:	e5d62001 	ldrb	r2, [r6, #1]
    8940:	e3520025 	cmp	r2, #37, 0	; 0x25
    8944:	04c43001 	strbeq	r3, [r4], #1
    8948:	02866002 	addeq	r6, r6, #2, 0
    894c:	0afffff3 	beq	8920 <va_printk+0x38>
    8950:	e2866001 	add	r6, r6, #1, 0
    8954:	e3a05000 	mov	r5, #0, 0
    8958:	e5d67000 	ldrb	r7, [r6]
    895c:	e1a0a007 	mov	sl, r7
    8960:	e1a00007 	mov	r0, r7
    8964:	ebffff3d 	bl	8660 <isdigit>
    8968:	e3500000 	cmp	r0, #0, 0
    896c:	0a000004 	beq	8984 <va_printk+0x9c>
    8970:	e0855105 	add	r5, r5, r5, lsl #2
    8974:	e0875085 	add	r5, r7, r5, lsl #1
    8978:	e2455030 	sub	r5, r5, #48, 0	; 0x30
    897c:	e2866001 	add	r6, r6, #1, 0
    8980:	eafffff4 	b	8958 <va_printk+0x70>
    8984:	e355001f 	cmp	r5, #31, 0
    8988:	8a00001a 	bhi	89f8 <va_printk+0x110>
    898c:	e2477062 	sub	r7, r7, #98, 0	; 0x62
    8990:	e3570016 	cmp	r7, #22, 0
    8994:	979ff107 	ldrls	pc, [pc, r7, lsl #2]
    8998:	ea0000ce 	b	8cd8 <va_printk+0x3f0>
    899c:	00008c5c 	andeq	r8, r0, ip, asr ip
    89a0:	00008ca4 	andeq	r8, r0, r4, lsr #25
    89a4:	00008bbc 			; <UNDEFINED> instruction: 0x00008bbc
    89a8:	00008cd8 	ldrdeq	r8, [r0], -r8	; <UNPREDICTABLE>
    89ac:	00008ba4 	andeq	r8, r0, r4, lsr #23
    89b0:	00008cd8 	ldrdeq	r8, [r0], -r8	; <UNPREDICTABLE>
    89b4:	00008cd8 	ldrdeq	r8, [r0], -r8	; <UNPREDICTABLE>
    89b8:	00008cd8 	ldrdeq	r8, [r0], -r8	; <UNPREDICTABLE>
    89bc:	00008cd8 	ldrdeq	r8, [r0], -r8	; <UNPREDICTABLE>
    89c0:	00008cd8 	ldrdeq	r8, [r0], -r8	; <UNPREDICTABLE>
    89c4:	00008a18 	andeq	r8, r0, r8, lsl sl
    89c8:	00008cd8 	ldrdeq	r8, [r0], -r8	; <UNPREDICTABLE>
    89cc:	00008cd8 	ldrdeq	r8, [r0], -r8	; <UNPREDICTABLE>
    89d0:	00008cd8 	ldrdeq	r8, [r0], -r8	; <UNPREDICTABLE>
    89d4:	00008c28 	andeq	r8, r0, r8, lsr #24
    89d8:	00008cd8 	ldrdeq	r8, [r0], -r8	; <UNPREDICTABLE>
    89dc:	00008cd8 	ldrdeq	r8, [r0], -r8	; <UNPREDICTABLE>
    89e0:	00008c90 	muleq	r0, r0, ip
    89e4:	00008cd8 	ldrdeq	r8, [r0], -r8	; <UNPREDICTABLE>
    89e8:	00008bf4 	strdeq	r8, [r0], -r4
    89ec:	00008cd8 	ldrdeq	r8, [r0], -r8	; <UNPREDICTABLE>
    89f0:	00008cd8 	ldrdeq	r8, [r0], -r8	; <UNPREDICTABLE>
    89f4:	00008c28 	andeq	r8, r0, r8, lsr #24
    89f8:	e59f334c 	ldr	r3, [pc, #844]	; 8d4c <va_printk+0x464>
    89fc:	e58d3000 	str	r3, [sp]
    8a00:	e3a03098 	mov	r3, #152, 0	; 0x98
    8a04:	e59f2344 	ldr	r2, [pc, #836]	; 8d50 <va_printk+0x468>
    8a08:	e59f1344 	ldr	r1, [pc, #836]	; 8d54 <va_printk+0x46c>
    8a0c:	e59f0344 	ldr	r0, [pc, #836]	; 8d58 <va_printk+0x470>
    8a10:	ebfffee0 	bl	8598 <printk>
    8a14:	eb0000d9 	bl	8d80 <clean_reboot>
    8a18:	e3a02003 	mov	r2, #3, 0
    8a1c:	e59f1338 	ldr	r1, [pc, #824]	; 8d5c <va_printk+0x474>
    8a20:	e1a00006 	mov	r0, r6
    8a24:	eb000221 	bl	92b0 <strncmp>
    8a28:	e3500000 	cmp	r0, #0, 0
    8a2c:	0a000005 	beq	8a48 <va_printk+0x160>
    8a30:	e3a02003 	mov	r2, #3, 0
    8a34:	e59f1324 	ldr	r1, [pc, #804]	; 8d60 <va_printk+0x478>
    8a38:	e1a00006 	mov	r0, r6
    8a3c:	eb00021b 	bl	92b0 <strncmp>
    8a40:	e3500000 	cmp	r0, #0, 0
    8a44:	1a00002d 	bne	8b00 <va_printk+0x218>
    8a48:	e286b002 	add	fp, r6, #2, 0
    8a4c:	e59d300c 	ldr	r3, [sp, #12]
    8a50:	e2833007 	add	r3, r3, #7, 0
    8a54:	e3c33007 	bic	r3, r3, #7, 0
    8a58:	e2832008 	add	r2, r3, #8, 0
    8a5c:	e58d200c 	str	r2, [sp, #12]
    8a60:	e593a000 	ldr	sl, [r3]
    8a64:	e5937004 	ldr	r7, [r3, #4]
    8a68:	e3a02003 	mov	r2, #3, 0
    8a6c:	e59f12e8 	ldr	r1, [pc, #744]	; 8d5c <va_printk+0x474>
    8a70:	e1a00006 	mov	r0, r6
    8a74:	eb00020d 	bl	92b0 <strncmp>
    8a78:	e3500000 	cmp	r0, #0, 0
    8a7c:	0a000027 	beq	8b20 <va_printk+0x238>
    8a80:	e3a02003 	mov	r2, #3, 0
    8a84:	e59f12d4 	ldr	r1, [pc, #724]	; 8d60 <va_printk+0x478>
    8a88:	e1a00006 	mov	r0, r6
    8a8c:	eb000207 	bl	92b0 <strncmp>
    8a90:	e3500000 	cmp	r0, #0, 0
    8a94:	1a00003b 	bne	8b88 <va_printk+0x2a0>
    8a98:	e3a06000 	mov	r6, #0, 0
    8a9c:	e58d6004 	str	r6, [sp, #4]
    8aa0:	e58d5000 	str	r5, [sp]
    8aa4:	e1a03007 	mov	r3, r7
    8aa8:	e3a02080 	mov	r2, #128, 0	; 0x80
    8aac:	e28d1010 	add	r1, sp, #16, 0
    8ab0:	e3a0000a 	mov	r0, #10, 0
    8ab4:	ebffff05 	bl	86d0 <emit>
    8ab8:	e1a07000 	mov	r7, r0
    8abc:	e58d6004 	str	r6, [sp, #4]
    8ac0:	e58d5000 	str	r5, [sp]
    8ac4:	e1a0300a 	mov	r3, sl
    8ac8:	e3a02080 	mov	r2, #128, 0	; 0x80
    8acc:	e28d1090 	add	r1, sp, #144, 0	; 0x90
    8ad0:	e3a0000a 	mov	r0, #10, 0
    8ad4:	ebfffefd 	bl	86d0 <emit>
    8ad8:	e59f1284 	ldr	r1, [pc, #644]	; 8d64 <va_printk+0x47c>
    8adc:	e28d0010 	add	r0, sp, #16, 0
    8ae0:	eb0001df 	bl	9264 <strcmp>
    8ae4:	e1500006 	cmp	r0, r6
    8ae8:	1a000021 	bne	8b74 <va_printk+0x28c>
    8aec:	e28d1090 	add	r1, sp, #144, 0	; 0x90
    8af0:	e28d0010 	add	r0, sp, #16, 0
    8af4:	eb0001e5 	bl	9290 <strcpy>
    8af8:	e1a0600b 	mov	r6, fp
    8afc:	ea00003a 	b	8bec <va_printk+0x304>
    8b00:	e59f3260 	ldr	r3, [pc, #608]	; 8d68 <va_printk+0x480>
    8b04:	e58d3000 	str	r3, [sp]
    8b08:	e3a0309f 	mov	r3, #159, 0	; 0x9f
    8b0c:	e59f223c 	ldr	r2, [pc, #572]	; 8d50 <va_printk+0x468>
    8b10:	e59f123c 	ldr	r1, [pc, #572]	; 8d54 <va_printk+0x46c>
    8b14:	e59f023c 	ldr	r0, [pc, #572]	; 8d58 <va_printk+0x470>
    8b18:	ebfffe9e 	bl	8598 <printk>
    8b1c:	eb000097 	bl	8d80 <clean_reboot>
    8b20:	e3a06000 	mov	r6, #0, 0
    8b24:	e58d6004 	str	r6, [sp, #4]
    8b28:	e58d5000 	str	r5, [sp]
    8b2c:	e1a03007 	mov	r3, r7
    8b30:	e3a02080 	mov	r2, #128, 0	; 0x80
    8b34:	e28d1010 	add	r1, sp, #16, 0
    8b38:	e3a00010 	mov	r0, #16, 0
    8b3c:	ebfffee3 	bl	86d0 <emit>
    8b40:	e1a07000 	mov	r7, r0
    8b44:	e58d6004 	str	r6, [sp, #4]
    8b48:	e58d5000 	str	r5, [sp]
    8b4c:	e1a0300a 	mov	r3, sl
    8b50:	e3a02080 	mov	r2, #128, 0	; 0x80
    8b54:	e28d1090 	add	r1, sp, #144, 0	; 0x90
    8b58:	e3a00010 	mov	r0, #16, 0
    8b5c:	ebfffedb 	bl	86d0 <emit>
    8b60:	e28d1092 	add	r1, sp, #146, 0	; 0x92
    8b64:	e28d0010 	add	r0, sp, #16, 0
    8b68:	eb0001b0 	bl	9230 <strcat>
    8b6c:	e1a0600b 	mov	r6, fp
    8b70:	ea00001d 	b	8bec <va_printk+0x304>
    8b74:	e28d1090 	add	r1, sp, #144, 0	; 0x90
    8b78:	e28d0010 	add	r0, sp, #16, 0
    8b7c:	eb0001ab 	bl	9230 <strcat>
    8b80:	e1a0600b 	mov	r6, fp
    8b84:	ea000018 	b	8bec <va_printk+0x304>
    8b88:	e58d6000 	str	r6, [sp]
    8b8c:	e3a030b6 	mov	r3, #182, 0	; 0xb6
    8b90:	e59f21b8 	ldr	r2, [pc, #440]	; 8d50 <va_printk+0x468>
    8b94:	e59f11b8 	ldr	r1, [pc, #440]	; 8d54 <va_printk+0x46c>
    8b98:	e59f01cc 	ldr	r0, [pc, #460]	; 8d6c <va_printk+0x484>
    8b9c:	ebfffe7d 	bl	8598 <printk>
    8ba0:	eb000076 	bl	8d80 <clean_reboot>
    8ba4:	e3a030be 	mov	r3, #190, 0	; 0xbe
    8ba8:	e59f21a0 	ldr	r2, [pc, #416]	; 8d50 <va_printk+0x468>
    8bac:	e59f11a0 	ldr	r1, [pc, #416]	; 8d54 <va_printk+0x46c>
    8bb0:	e59f01b8 	ldr	r0, [pc, #440]	; 8d70 <va_printk+0x488>
    8bb4:	ebfffe77 	bl	8598 <printk>
    8bb8:	eb000070 	bl	8d80 <clean_reboot>
    8bbc:	e59d300c 	ldr	r3, [sp, #12]
    8bc0:	e2832004 	add	r2, r3, #4, 0
    8bc4:	e58d200c 	str	r2, [sp, #12]
    8bc8:	e5933000 	ldr	r3, [r3]
    8bcc:	e3a02001 	mov	r2, #1, 0
    8bd0:	e58d2004 	str	r2, [sp, #4]
    8bd4:	e58d5000 	str	r5, [sp]
    8bd8:	e3a02080 	mov	r2, #128, 0	; 0x80
    8bdc:	e28d1010 	add	r1, sp, #16, 0
    8be0:	e3a0000a 	mov	r0, #10, 0
    8be4:	ebfffeb9 	bl	86d0 <emit>
    8be8:	e1a07000 	mov	r7, r0
    8bec:	e2866001 	add	r6, r6, #1, 0
    8bf0:	ea00004a 	b	8d20 <va_printk+0x438>
    8bf4:	e59d300c 	ldr	r3, [sp, #12]
    8bf8:	e2832004 	add	r2, r3, #4, 0
    8bfc:	e58d200c 	str	r2, [sp, #12]
    8c00:	e5933000 	ldr	r3, [r3]
    8c04:	e3a02000 	mov	r2, #0, 0
    8c08:	e58d2004 	str	r2, [sp, #4]
    8c0c:	e58d5000 	str	r5, [sp]
    8c10:	e3a02080 	mov	r2, #128, 0	; 0x80
    8c14:	e28d1010 	add	r1, sp, #16, 0
    8c18:	e3a0000a 	mov	r0, #10, 0
    8c1c:	ebfffeab 	bl	86d0 <emit>
    8c20:	e1a07000 	mov	r7, r0
    8c24:	eafffff0 	b	8bec <va_printk+0x304>
    8c28:	e59d300c 	ldr	r3, [sp, #12]
    8c2c:	e2832004 	add	r2, r3, #4, 0
    8c30:	e58d200c 	str	r2, [sp, #12]
    8c34:	e5933000 	ldr	r3, [r3]
    8c38:	e3a02000 	mov	r2, #0, 0
    8c3c:	e58d2004 	str	r2, [sp, #4]
    8c40:	e58d5000 	str	r5, [sp]
    8c44:	e3a02080 	mov	r2, #128, 0	; 0x80
    8c48:	e28d1010 	add	r1, sp, #16, 0
    8c4c:	e3a00010 	mov	r0, #16, 0
    8c50:	ebfffe9e 	bl	86d0 <emit>
    8c54:	e1a07000 	mov	r7, r0
    8c58:	eaffffe3 	b	8bec <va_printk+0x304>
    8c5c:	e59d300c 	ldr	r3, [sp, #12]
    8c60:	e2832004 	add	r2, r3, #4, 0
    8c64:	e58d200c 	str	r2, [sp, #12]
    8c68:	e5933000 	ldr	r3, [r3]
    8c6c:	e3a02000 	mov	r2, #0, 0
    8c70:	e58d2004 	str	r2, [sp, #4]
    8c74:	e58d5000 	str	r5, [sp]
    8c78:	e3a02080 	mov	r2, #128, 0	; 0x80
    8c7c:	e28d1010 	add	r1, sp, #16, 0
    8c80:	e3a00002 	mov	r0, #2, 0
    8c84:	ebfffe91 	bl	86d0 <emit>
    8c88:	e1a07000 	mov	r7, r0
    8c8c:	eaffffd6 	b	8bec <va_printk+0x304>
    8c90:	e59d300c 	ldr	r3, [sp, #12]
    8c94:	e2832004 	add	r2, r3, #4, 0
    8c98:	e58d200c 	str	r2, [sp, #12]
    8c9c:	e5937000 	ldr	r7, [r3]
    8ca0:	eaffffd1 	b	8bec <va_printk+0x304>
    8ca4:	e59d300c 	ldr	r3, [sp, #12]
    8ca8:	e2832004 	add	r2, r3, #4, 0
    8cac:	e58d200c 	str	r2, [sp, #12]
    8cb0:	e5933000 	ldr	r3, [r3]
    8cb4:	e3a02000 	mov	r2, #0, 0
    8cb8:	e58d2004 	str	r2, [sp, #4]
    8cbc:	e58d5000 	str	r5, [sp]
    8cc0:	e3a02080 	mov	r2, #128, 0	; 0x80
    8cc4:	e28d1010 	add	r1, sp, #16, 0
    8cc8:	e3a00008 	mov	r0, #8, 0
    8ccc:	ebfffe7f 	bl	86d0 <emit>
    8cd0:	e1a07000 	mov	r7, r0
    8cd4:	eaffffc4 	b	8bec <va_printk+0x304>
    8cd8:	e3a03000 	mov	r3, #0, 0
    8cdc:	e5c63001 	strb	r3, [r6, #1]
    8ce0:	e1a0200a 	mov	r2, sl
    8ce4:	e1a0100a 	mov	r1, sl
    8ce8:	e59f0084 	ldr	r0, [pc, #132]	; 8d74 <va_printk+0x48c>
    8cec:	ebfffe29 	bl	8598 <printk>
    8cf0:	e59f3080 	ldr	r3, [pc, #128]	; 8d78 <va_printk+0x490>
    8cf4:	e5933000 	ldr	r3, [r3]
    8cf8:	e59d0008 	ldr	r0, [sp, #8]
    8cfc:	e12fff33 	blx	r3
    8d00:	e3a030e2 	mov	r3, #226, 0	; 0xe2
    8d04:	e59f2044 	ldr	r2, [pc, #68]	; 8d50 <va_printk+0x468>
    8d08:	e59f1044 	ldr	r1, [pc, #68]	; 8d54 <va_printk+0x46c>
    8d0c:	e59f0068 	ldr	r0, [pc, #104]	; 8d7c <va_printk+0x494>
    8d10:	ebfffe20 	bl	8598 <printk>
    8d14:	eb000019 	bl	8d80 <clean_reboot>
    8d18:	e2877001 	add	r7, r7, #1, 0
    8d1c:	e4c43001 	strb	r3, [r4], #1
    8d20:	e1540008 	cmp	r4, r8
    8d24:	2afffefd 	bcs	8920 <va_printk+0x38>
    8d28:	e5d73000 	ldrb	r3, [r7]
    8d2c:	e3530000 	cmp	r3, #0, 0
    8d30:	1afffff8 	bne	8d18 <va_printk+0x430>
    8d34:	eafffef9 	b	8920 <va_printk+0x38>
    8d38:	e3a03000 	mov	r3, #0, 0
    8d3c:	e4c43001 	strb	r3, [r4], #1
    8d40:	e0440009 	sub	r0, r4, r9
    8d44:	e28ddf45 	add	sp, sp, #276	; 0x114
    8d48:	e8bd8ff0 	pop	{r4, r5, r6, r7, r8, r9, sl, fp, pc}
    8d4c:	000096ac 	andeq	r9, r0, ip, lsr #13
    8d50:	000097b4 			; <UNDEFINED> instruction: 0x000097b4
    8d54:	0000966c 	andeq	r9, r0, ip, ror #12
    8d58:	00009344 	andeq	r9, r0, r4, asr #6
    8d5c:	000096b8 			; <UNDEFINED> instruction: 0x000096b8
    8d60:	000096bc 			; <UNDEFINED> instruction: 0x000096bc
    8d64:	00009414 	andeq	r9, r0, r4, lsl r4
    8d68:	000096c0 	andeq	r9, r0, r0, asr #13
    8d6c:	000096fc 	strdeq	r9, [r0], -ip
    8d70:	00009724 	andeq	r9, r0, r4, lsr #14
    8d74:	0000974c 	andeq	r9, r0, ip, asr #14
    8d78:	000097d0 	ldrdeq	r9, [r0], -r0
    8d7c:	0000977c 	andeq	r9, r0, ip, ror r7

00008d80 <clean_reboot>:
    8d80:	e92d4010 	push	{r4, lr}
    8d84:	e59f3018 	ldr	r3, [pc, #24]	; 8da4 <clean_reboot+0x24>
    8d88:	e5933000 	ldr	r3, [r3]
    8d8c:	e59f0014 	ldr	r0, [pc, #20]	; 8da8 <clean_reboot+0x28>
    8d90:	e12fff33 	blx	r3
    8d94:	eb0000b5 	bl	9070 <uart_flush_tx>
    8d98:	e3a0000a 	mov	r0, #10, 0
    8d9c:	eb000041 	bl	8ea8 <delay_ms>
    8da0:	eb000017 	bl	8e04 <rpi_reboot>
    8da4:	000097d0 	ldrdeq	r9, [r0], -r0
    8da8:	000097c0 	andeq	r9, r0, r0, asr #15

00008dac <_cstart>:
    8dac:	e92d4010 	push	{r4, lr}
    8db0:	e59f3018 	ldr	r3, [pc, #24]	; 8dd0 <_cstart+0x24>
    8db4:	e59f2018 	ldr	r2, [pc, #24]	; 8dd4 <_cstart+0x28>
    8db8:	e1530002 	cmp	r3, r2
    8dbc:	33a02000 	movcc	r2, #0, 0
    8dc0:	34832004 	strcc	r2, [r3], #4
    8dc4:	3afffffa 	bcc	8db4 <_cstart+0x8>
    8dc8:	ebfffc94 	bl	8020 <notmain>
    8dcc:	ebffffeb 	bl	8d80 <clean_reboot>
    8dd0:	000097d4 	ldrdeq	r9, [r0], -r4
    8dd4:	00009be0 	andeq	r9, r0, r0, ror #23

00008dd8 <at_user_level>:
    8dd8:	e10f0000 	mrs	r0, CPSR
    8ddc:	e200001f 	and	r0, r0, #31, 0
    8de0:	e3500010 	cmp	r0, #16, 0
    8de4:	13a00000 	movne	r0, #0, 0
    8de8:	03a00001 	moveq	r0, #1, 0
    8dec:	e12fff1e 	bx	lr

00008df0 <set_user_level>:
    8df0:	e10f3000 	mrs	r3, CPSR
    8df4:	e3c3301f 	bic	r3, r3, #31, 0
    8df8:	e3833010 	orr	r3, r3, #16, 0
    8dfc:	e129f003 	msr	CPSR_fc, r3
    8e00:	e12fff1e 	bx	lr

00008e04 <rpi_reboot>:
    8e04:	e92d4010 	push	{r4, lr}
    8e08:	ebfffff2 	bl	8dd8 <at_user_level>
    8e0c:	e3500000 	cmp	r0, #0, 0
    8e10:	1a000009 	bne	8e3c <rpi_reboot+0x38>
    8e14:	eb000095 	bl	9070 <uart_flush_tx>
    8e18:	e3a0000a 	mov	r0, #10, 0
    8e1c:	eb000021 	bl	8ea8 <delay_ms>
    8e20:	e59f101c 	ldr	r1, [pc, #28]	; 8e44 <rpi_reboot+0x40>
    8e24:	e59f001c 	ldr	r0, [pc, #28]	; 8e48 <rpi_reboot+0x44>
    8e28:	ebfffc78 	bl	8010 <PUT32>
    8e2c:	e59f1018 	ldr	r1, [pc, #24]	; 8e4c <rpi_reboot+0x48>
    8e30:	e59f0018 	ldr	r0, [pc, #24]	; 8e50 <rpi_reboot+0x4c>
    8e34:	ebfffc75 	bl	8010 <PUT32>
    8e38:	eafffffe 	b	8e38 <rpi_reboot+0x34>
    8e3c:	ebffffeb 	bl	8df0 <set_user_level>
    8e40:	eafffff3 	b	8e14 <rpi_reboot+0x10>
    8e44:	5a000001 	bpl	8e50 <rpi_reboot+0x4c>
    8e48:	20100024 	andscs	r0, r0, r4, lsr #32
    8e4c:	5a000020 	bpl	8ed4 <delay_sec+0x14>
    8e50:	2010001c 	andscs	r0, r0, ip, lsl r0

00008e54 <timer_get_usec_raw>:
    8e54:	e92d4010 	push	{r4, lr}
    8e58:	e59f0004 	ldr	r0, [pc, #4]	; 8e64 <timer_get_usec_raw+0x10>
    8e5c:	ebfffc6d 	bl	8018 <GET32>
    8e60:	e8bd8010 	pop	{r4, pc}
    8e64:	20003004 	andcs	r3, r0, r4

00008e68 <timer_get_usec>:
    8e68:	e92d4010 	push	{r4, lr}
    8e6c:	eb00011a 	bl	92dc <dev_barrier>
    8e70:	ebfffff7 	bl	8e54 <timer_get_usec_raw>
    8e74:	e1a04000 	mov	r4, r0
    8e78:	eb000117 	bl	92dc <dev_barrier>
    8e7c:	e1a00004 	mov	r0, r4
    8e80:	e8bd8010 	pop	{r4, pc}

00008e84 <delay_us>:
    8e84:	e92d4070 	push	{r4, r5, r6, lr}
    8e88:	e1a05000 	mov	r5, r0
    8e8c:	ebfffff5 	bl	8e68 <timer_get_usec>
    8e90:	e1a04000 	mov	r4, r0
    8e94:	ebfffff3 	bl	8e68 <timer_get_usec>
    8e98:	e0400004 	sub	r0, r0, r4
    8e9c:	e1500005 	cmp	r0, r5
    8ea0:	3afffffb 	bcc	8e94 <delay_us+0x10>
    8ea4:	e8bd8070 	pop	{r4, r5, r6, pc}

00008ea8 <delay_ms>:
    8ea8:	e92d4010 	push	{r4, lr}
    8eac:	e0603280 	rsb	r3, r0, r0, lsl #5
    8eb0:	e0800103 	add	r0, r0, r3, lsl #2
    8eb4:	e1a00180 	lsl	r0, r0, #3
    8eb8:	ebfffff1 	bl	8e84 <delay_us>
    8ebc:	e8bd8010 	pop	{r4, pc}

00008ec0 <delay_sec>:
    8ec0:	e92d4010 	push	{r4, lr}
    8ec4:	e0603280 	rsb	r3, r0, r0, lsl #5
    8ec8:	e0800103 	add	r0, r0, r3, lsl #2
    8ecc:	e1a00180 	lsl	r0, r0, #3
    8ed0:	ebfffff4 	bl	8ea8 <delay_ms>
    8ed4:	e8bd8010 	pop	{r4, pc}

00008ed8 <or_in32>:
    8ed8:	e92d4070 	push	{r4, r5, r6, lr}
    8edc:	e1a04000 	mov	r4, r0
    8ee0:	e1a05001 	mov	r5, r1
    8ee4:	ebfffc4b 	bl	8018 <GET32>
    8ee8:	e1801005 	orr	r1, r0, r5
    8eec:	e1a00004 	mov	r0, r4
    8ef0:	ebfffc46 	bl	8010 <PUT32>
    8ef4:	e8bd8070 	pop	{r4, r5, r6, pc}

00008ef8 <uart_init>:
    8ef8:	e92d4010 	push	{r4, lr}
    8efc:	e3a01002 	mov	r1, #2, 0
    8f00:	e3a0000e 	mov	r0, #14, 0
    8f04:	eb0000b1 	bl	91d0 <gpio_set_function>
    8f08:	e3a01002 	mov	r1, #2, 0
    8f0c:	e3a0000f 	mov	r0, #15, 0
    8f10:	eb0000ae 	bl	91d0 <gpio_set_function>
    8f14:	eb0000f0 	bl	92dc <dev_barrier>
    8f18:	e3a01001 	mov	r1, #1, 0
    8f1c:	e59f0064 	ldr	r0, [pc, #100]	; 8f88 <uart_init+0x90>
    8f20:	ebffffec 	bl	8ed8 <or_in32>
    8f24:	eb0000ec 	bl	92dc <dev_barrier>
    8f28:	e59f405c 	ldr	r4, [pc, #92]	; 8f8c <uart_init+0x94>
    8f2c:	e3a01000 	mov	r1, #0, 0
    8f30:	e1a00004 	mov	r0, r4
    8f34:	ebfffc35 	bl	8010 <PUT32>
    8f38:	e3a01000 	mov	r1, #0, 0
    8f3c:	e59f004c 	ldr	r0, [pc, #76]	; 8f90 <uart_init+0x98>
    8f40:	ebfffc32 	bl	8010 <PUT32>
    8f44:	e3a01003 	mov	r1, #3, 0
    8f48:	e59f0044 	ldr	r0, [pc, #68]	; 8f94 <uart_init+0x9c>
    8f4c:	ebfffc2f 	bl	8010 <PUT32>
    8f50:	e3a01000 	mov	r1, #0, 0
    8f54:	e59f003c 	ldr	r0, [pc, #60]	; 8f98 <uart_init+0xa0>
    8f58:	ebfffc2c 	bl	8010 <PUT32>
    8f5c:	e3a010c7 	mov	r1, #199, 0	; 0xc7
    8f60:	e59f0034 	ldr	r0, [pc, #52]	; 8f9c <uart_init+0xa4>
    8f64:	ebfffc29 	bl	8010 <PUT32>
    8f68:	e59f1030 	ldr	r1, [pc, #48]	; 8fa0 <uart_init+0xa8>
    8f6c:	e59f0030 	ldr	r0, [pc, #48]	; 8fa4 <uart_init+0xac>
    8f70:	ebfffc26 	bl	8010 <PUT32>
    8f74:	e3a01003 	mov	r1, #3, 0
    8f78:	e1a00004 	mov	r0, r4
    8f7c:	ebfffc23 	bl	8010 <PUT32>
    8f80:	eb0000d5 	bl	92dc <dev_barrier>
    8f84:	e8bd8010 	pop	{r4, pc}
    8f88:	20215004 	eorcs	r5, r1, r4
    8f8c:	20215060 	eorcs	r5, r1, r0, rrx
    8f90:	20215044 	eorcs	r5, r1, r4, asr #32
    8f94:	2021504c 	eorcs	r5, r1, ip, asr #32
    8f98:	20215050 	eorcs	r5, r1, r0, asr r0
    8f9c:	20215048 	eorcs	r5, r1, r8, asr #32
    8fa0:	0000010e 	andeq	r0, r0, lr, lsl #2
    8fa4:	20215068 	eorcs	r5, r1, r8, rrx

00008fa8 <uart_can_getc>:
    8fa8:	e92d4010 	push	{r4, lr}
    8fac:	e59f0008 	ldr	r0, [pc, #8]	; 8fbc <uart_can_getc+0x14>
    8fb0:	ebfffc18 	bl	8018 <GET32>
    8fb4:	e2000001 	and	r0, r0, #1, 0
    8fb8:	e8bd8010 	pop	{r4, pc}
    8fbc:	20215064 	eorcs	r5, r1, r4, rrx

00008fc0 <uart_can_putc>:
    8fc0:	e92d4010 	push	{r4, lr}
    8fc4:	e59f0010 	ldr	r0, [pc, #16]	; 8fdc <uart_can_putc+0x1c>
    8fc8:	ebfffc12 	bl	8018 <GET32>
    8fcc:	e3100002 	tst	r0, #2, 0
    8fd0:	13a00001 	movne	r0, #1, 0
    8fd4:	03a00000 	moveq	r0, #0, 0
    8fd8:	e8bd8010 	pop	{r4, pc}
    8fdc:	20215064 	eorcs	r5, r1, r4, rrx

00008fe0 <uart_getc>:
    8fe0:	e92d4010 	push	{r4, lr}
    8fe4:	eb0000bc 	bl	92dc <dev_barrier>
    8fe8:	ebffffee 	bl	8fa8 <uart_can_getc>
    8fec:	e3500000 	cmp	r0, #0, 0
    8ff0:	0afffffc 	beq	8fe8 <uart_getc+0x8>
    8ff4:	e59f0010 	ldr	r0, [pc, #16]	; 900c <uart_getc+0x2c>
    8ff8:	ebfffc06 	bl	8018 <GET32>
    8ffc:	e6ef4070 	uxtb	r4, r0
    9000:	eb0000b5 	bl	92dc <dev_barrier>
    9004:	e1a00004 	mov	r0, r4
    9008:	e8bd8010 	pop	{r4, pc}
    900c:	20215040 	eorcs	r5, r1, r0, asr #32

00009010 <uart_putc>:
    9010:	e92d4010 	push	{r4, lr}
    9014:	e1a04000 	mov	r4, r0
    9018:	eb0000af 	bl	92dc <dev_barrier>
    901c:	ebffffe7 	bl	8fc0 <uart_can_putc>
    9020:	e3500000 	cmp	r0, #0, 0
    9024:	0afffffc 	beq	901c <uart_putc+0xc>
    9028:	e6ef1074 	uxtb	r1, r4
    902c:	e59f0008 	ldr	r0, [pc, #8]	; 903c <uart_putc+0x2c>
    9030:	ebfffbf6 	bl	8010 <PUT32>
    9034:	eb0000a8 	bl	92dc <dev_barrier>
    9038:	e8bd8010 	pop	{r4, pc}
    903c:	20215040 	eorcs	r5, r1, r0, asr #32

00009040 <uart_has_data>:
    9040:	e92d4010 	push	{r4, lr}
    9044:	eb0000a4 	bl	92dc <dev_barrier>
    9048:	ebffffd6 	bl	8fa8 <uart_can_getc>
    904c:	e8bd8010 	pop	{r4, pc}

00009050 <uart_tx_is_empty>:
    9050:	e92d4010 	push	{r4, lr}
    9054:	eb0000a0 	bl	92dc <dev_barrier>
    9058:	e59f000c 	ldr	r0, [pc, #12]	; 906c <uart_tx_is_empty+0x1c>
    905c:	ebfffbed 	bl	8018 <GET32>
    9060:	e1a004a0 	lsr	r0, r0, #9
    9064:	e2000001 	and	r0, r0, #1, 0
    9068:	e8bd8010 	pop	{r4, pc}
    906c:	20215064 	eorcs	r5, r1, r4, rrx

00009070 <uart_flush_tx>:
    9070:	e92d4010 	push	{r4, lr}
    9074:	ebfffff5 	bl	9050 <uart_tx_is_empty>
    9078:	e3500000 	cmp	r0, #0, 0
    907c:	0afffffc 	beq	9074 <uart_flush_tx+0x4>
    9080:	e8bd8010 	pop	{r4, pc}

00009084 <gpio_set_output>:
    9084:	e350001f 	cmp	r0, #31, 0
    9088:	812fff1e 	bxhi	lr
    908c:	e92d41f0 	push	{r4, r5, r6, r7, r8, lr}
    9090:	e1a04000 	mov	r4, r0
    9094:	e59f5040 	ldr	r5, [pc, #64]	; 90dc <gpio_set_output+0x58>
    9098:	e0853095 	umull	r3, r5, r5, r0
    909c:	e1a051a5 	lsr	r5, r5, #3
    90a0:	e1a07105 	lsl	r7, r5, #2
    90a4:	e2876202 	add	r6, r7, #536870912	; 0x20000000
    90a8:	e2866602 	add	r6, r6, #2097152	; 0x200000
    90ac:	e1a00006 	mov	r0, r6
    90b0:	ebfffbd8 	bl	8018 <GET32>
    90b4:	e0875005 	add	r5, r7, r5
    90b8:	e0444085 	sub	r4, r4, r5, lsl #1
    90bc:	e0844084 	add	r4, r4, r4, lsl #1
    90c0:	e3a01007 	mov	r1, #7, 0
    90c4:	e1c00411 	bic	r0, r0, r1, lsl r4
    90c8:	e3a01001 	mov	r1, #1, 0
    90cc:	e1801411 	orr	r1, r0, r1, lsl r4
    90d0:	e1a00006 	mov	r0, r6
    90d4:	ebfffbcd 	bl	8010 <PUT32>
    90d8:	e8bd81f0 	pop	{r4, r5, r6, r7, r8, pc}
    90dc:	cccccccd 	stclgt	12, cr12, [ip], {205}	; 0xcd

000090e0 <gpio_set_on>:
    90e0:	e350001f 	cmp	r0, #31, 0
    90e4:	812fff1e 	bxhi	lr
    90e8:	e92d4010 	push	{r4, lr}
    90ec:	e3a01001 	mov	r1, #1, 0
    90f0:	e1a01011 	lsl	r1, r1, r0
    90f4:	e59f0004 	ldr	r0, [pc, #4]	; 9100 <gpio_set_on+0x20>
    90f8:	ebfffbc4 	bl	8010 <PUT32>
    90fc:	e8bd8010 	pop	{r4, pc}
    9100:	2020001c 	eorcs	r0, r0, ip, lsl r0

00009104 <gpio_set_off>:
    9104:	e350001f 	cmp	r0, #31, 0
    9108:	812fff1e 	bxhi	lr
    910c:	e92d4010 	push	{r4, lr}
    9110:	e3a01001 	mov	r1, #1, 0
    9114:	e1a01011 	lsl	r1, r1, r0
    9118:	e59f0004 	ldr	r0, [pc, #4]	; 9124 <gpio_set_off+0x20>
    911c:	ebfffbbb 	bl	8010 <PUT32>
    9120:	e8bd8010 	pop	{r4, pc}
    9124:	20200028 	eorcs	r0, r0, r8, lsr #32

00009128 <gpio_write>:
    9128:	e92d4010 	push	{r4, lr}
    912c:	e3510000 	cmp	r1, #0, 0
    9130:	0a000001 	beq	913c <gpio_write+0x14>
    9134:	ebffffe9 	bl	90e0 <gpio_set_on>
    9138:	e8bd8010 	pop	{r4, pc}
    913c:	ebfffff0 	bl	9104 <gpio_set_off>
    9140:	e8bd8010 	pop	{r4, pc}

00009144 <gpio_set_input>:
    9144:	e350001f 	cmp	r0, #31, 0
    9148:	812fff1e 	bxhi	lr
    914c:	e92d41f0 	push	{r4, r5, r6, r7, r8, lr}
    9150:	e1a04000 	mov	r4, r0
    9154:	e59f5038 	ldr	r5, [pc, #56]	; 9194 <gpio_set_input+0x50>
    9158:	e0853095 	umull	r3, r5, r5, r0
    915c:	e1a051a5 	lsr	r5, r5, #3
    9160:	e1a07105 	lsl	r7, r5, #2
    9164:	e2876202 	add	r6, r7, #536870912	; 0x20000000
    9168:	e2866602 	add	r6, r6, #2097152	; 0x200000
    916c:	e1a00006 	mov	r0, r6
    9170:	ebfffba8 	bl	8018 <GET32>
    9174:	e0875005 	add	r5, r7, r5
    9178:	e0444085 	sub	r4, r4, r5, lsl #1
    917c:	e0844084 	add	r4, r4, r4, lsl #1
    9180:	e3a01007 	mov	r1, #7, 0
    9184:	e1c01411 	bic	r1, r0, r1, lsl r4
    9188:	e1a00006 	mov	r0, r6
    918c:	ebfffb9f 	bl	8010 <PUT32>
    9190:	e8bd81f0 	pop	{r4, r5, r6, r7, r8, pc}
    9194:	cccccccd 	stclgt	12, cr12, [ip], {205}	; 0xcd

00009198 <gpio_read>:
    9198:	e350001f 	cmp	r0, #31, 0
    919c:	9a000001 	bls	91a8 <gpio_read+0x10>
    91a0:	e3e00000 	mvn	r0, #0, 0
    91a4:	e12fff1e 	bx	lr
    91a8:	e92d4010 	push	{r4, lr}
    91ac:	e1a04000 	mov	r4, r0
    91b0:	e59f0014 	ldr	r0, [pc, #20]	; 91cc <gpio_read+0x34>
    91b4:	ebfffb97 	bl	8018 <GET32>
    91b8:	e3a03001 	mov	r3, #1, 0
    91bc:	e0103413 	ands	r3, r0, r3, lsl r4
    91c0:	13a00001 	movne	r0, #1, 0
    91c4:	03a00000 	moveq	r0, #0, 0
    91c8:	e8bd8010 	pop	{r4, pc}
    91cc:	20200034 	eorcs	r0, r0, r4, lsr r0

000091d0 <gpio_set_function>:
    91d0:	e3510007 	cmp	r1, #7, 0
    91d4:	9350001f 	cmpls	r0, #31, 0
    91d8:	812fff1e 	bxhi	lr
    91dc:	e92d41f0 	push	{r4, r5, r6, r7, r8, lr}
    91e0:	e1a04000 	mov	r4, r0
    91e4:	e1a05001 	mov	r5, r1
    91e8:	e59f603c 	ldr	r6, [pc, #60]	; 922c <gpio_set_function+0x5c>
    91ec:	e0863096 	umull	r3, r6, r6, r0
    91f0:	e1a061a6 	lsr	r6, r6, #3
    91f4:	e1a08106 	lsl	r8, r6, #2
    91f8:	e2887202 	add	r7, r8, #536870912	; 0x20000000
    91fc:	e2877602 	add	r7, r7, #2097152	; 0x200000
    9200:	e1a00007 	mov	r0, r7
    9204:	ebfffb83 	bl	8018 <GET32>
    9208:	e0886006 	add	r6, r8, r6
    920c:	e0444086 	sub	r4, r4, r6, lsl #1
    9210:	e0844084 	add	r4, r4, r4, lsl #1
    9214:	e3a01007 	mov	r1, #7, 0
    9218:	e1c01411 	bic	r1, r0, r1, lsl r4
    921c:	e1811415 	orr	r1, r1, r5, lsl r4
    9220:	e1a00007 	mov	r0, r7
    9224:	ebfffb79 	bl	8010 <PUT32>
    9228:	e8bd81f0 	pop	{r4, r5, r6, r7, r8, pc}
    922c:	cccccccd 	stclgt	12, cr12, [ip], {205}	; 0xcd

00009230 <strcat>:
    9230:	e1a02000 	mov	r2, r0
    9234:	e1a03002 	mov	r3, r2
    9238:	e2822001 	add	r2, r2, #1, 0
    923c:	e5d3c000 	ldrb	ip, [r3]
    9240:	e35c0000 	cmp	ip, #0, 0
    9244:	1afffffa 	bne	9234 <strcat+0x4>
    9248:	e2433001 	sub	r3, r3, #1, 0
    924c:	e5d12000 	ldrb	r2, [r1]
    9250:	e2811001 	add	r1, r1, #1, 0
    9254:	e5e32001 	strb	r2, [r3, #1]!
    9258:	e3520000 	cmp	r2, #0, 0
    925c:	1afffffa 	bne	924c <strcat+0x1c>
    9260:	e12fff1e 	bx	lr

00009264 <strcmp>:
    9264:	e5d03000 	ldrb	r3, [r0]
    9268:	e3530000 	cmp	r3, #0, 0
    926c:	0a000004 	beq	9284 <strcmp+0x20>
    9270:	e5d12000 	ldrb	r2, [r1]
    9274:	e1530002 	cmp	r3, r2
    9278:	02800001 	addeq	r0, r0, #1, 0
    927c:	02811001 	addeq	r1, r1, #1, 0
    9280:	0afffff7 	beq	9264 <strcmp>
    9284:	e5d10000 	ldrb	r0, [r1]
    9288:	e0430000 	sub	r0, r3, r0
    928c:	e12fff1e 	bx	lr

00009290 <strcpy>:
    9290:	e1a0c000 	mov	ip, r0
    9294:	e5d12000 	ldrb	r2, [r1]
    9298:	e2811001 	add	r1, r1, #1, 0
    929c:	e5cc2000 	strb	r2, [ip]
    92a0:	e28cc001 	add	ip, ip, #1, 0
    92a4:	e3520000 	cmp	r2, #0, 0
    92a8:	1afffff9 	bne	9294 <strcpy+0x4>
    92ac:	e12fff1e 	bx	lr

000092b0 <strncmp>:
    92b0:	e3520000 	cmp	r2, #0, 0
    92b4:	e2422001 	sub	r2, r2, #1, 0
    92b8:	0a000005 	beq	92d4 <strncmp+0x24>
    92bc:	e4d03001 	ldrb	r3, [r0], #1
    92c0:	e4d1c001 	ldrb	ip, [r1], #1
    92c4:	e153000c 	cmp	r3, ip
    92c8:	0afffff8 	beq	92b0 <strncmp>
    92cc:	e043000c 	sub	r0, r3, ip
    92d0:	e12fff1e 	bx	lr
    92d4:	e3a00000 	mov	r0, #0, 0
    92d8:	e12fff1e 	bx	lr

000092dc <dev_barrier>:
    92dc:	ea000002 	b	92ec <dsb>

000092e0 <dmb>:
    92e0:	e3a00000 	mov	r0, #0, 0
    92e4:	ee070fba 	mcr	15, 0, r0, cr7, cr10, {5}
    92e8:	e12fff1e 	bx	lr

000092ec <dsb>:
    92ec:	ee070f9a 	mcr	15, 0, r0, cr7, cr10, {4}
    92f0:	e12fff1e 	bx	lr

000092f4 <__code_end__>:
    92f4:	00000000 	andeq	r0, r0, r0

Disassembly of section .rodata:

000092f8 <__FUNCTION__.3921-0x1d0>:
    92f8:	43415254 	movtmi	r5, #4692	; 0x1254
    92fc:	00003a45 	andeq	r3, r0, r5, asr #20
    9300:	43415254 	movtmi	r5, #4692	; 0x1254
    9304:	73203a45 			; <UNDEFINED> instruction: 0x73203a45
    9308:	69747465 	ldmdbvs	r4!, {r0, r2, r5, r6, sl, ip, sp, lr}^
    930c:	6d20676e 	stcvs	7, cr6, [r0, #-440]!	; 0xfffffe48
    9310:	6f6c6c61 	svcvs	0x006c6c61
    9314:	74732063 	ldrbtvc	r2, [r3], #-99	; 0xffffff9d
    9318:	20747261 	rsbscs	r7, r4, r1, ror #4
    931c:	31206f74 			; <UNDEFINED> instruction: 0x31206f74
    9320:	000a626d 	andeq	r6, sl, sp, ror #4
    9324:	70616568 	rsbvc	r6, r1, r8, ror #10
    9328:	61747320 	cmnvs	r4, r0, lsr #6
    932c:	20737472 	rsbscs	r7, r3, r2, ror r4
    9330:	25207461 	strcs	r7, [r0, #-1121]!	; 0xfffffb9f
    9334:	00000a78 	andeq	r0, r0, r8, ror sl
    9338:	65742d35 	ldrbvs	r2, [r4, #-3381]!	; 0xfffff2cb
    933c:	632e7473 			; <UNDEFINED> instruction: 0x632e7473
    9340:	00000000 	andeq	r0, r0, r0
    9344:	494e4150 	stmdbmi	lr, {r4, r6, r8, lr}^
    9348:	73253a43 			; <UNDEFINED> instruction: 0x73253a43
    934c:	3a73253a 	bcc	1cd283c <__bss_end__+0x1cc8c5c>
    9350:	253a6425 	ldrcs	r6, [sl, #-1061]!	; 0xfffffbdb
    9354:	00000a73 	andeq	r0, r0, r3, ror sl
    9358:	70616568 	rsbvc	r6, r1, r8, ror #10
    935c:	3d3d2030 	ldccc	0, cr2, [sp, #-192]!	; 0xffffff40
    9360:	6f762820 	svcvs	0x00762820
    9364:	292a6469 	stmdbcs	sl!, {r0, r3, r5, r6, sl, sp, lr}
    9368:	32303128 	eorscc	r3, r0, #10
    936c:	30312a34 	eorscc	r2, r1, r4, lsr sl
    9370:	00293432 	eoreq	r3, r9, r2, lsr r4
    9374:	72617473 	rsbvc	r7, r1, #1929379840	; 0x73000000
    9378:	78253d74 	stmdavc	r5!, {r2, r4, r5, r6, r8, sl, fp, ip, sp}
    937c:	0000000a 	andeq	r0, r0, sl
    9380:	70253d75 	eorvc	r3, r5, r5, ror sp
    9384:	0000000a 	andeq	r0, r0, sl
    9388:	4f525245 	svcmi	0x00525245
    938c:	73253a52 			; <UNDEFINED> instruction: 0x73253a52
    9390:	3a73253a 	bcc	1cd2880 <__bss_end__+0x1cc8ca0>
    9394:	203a6425 	eorscs	r6, sl, r5, lsr #8
    9398:	534c4146 	movtpl	r4, #49478	; 0xc146
    939c:	253c2845 	ldrcs	r2, [ip, #-2117]!	; 0xfffff7bb
    93a0:	3a293e73 	bcc	a58d74 <__bss_end__+0xa4f194>
    93a4:	752a2220 	strvc	r2, [sl, #-544]!	; 0xfffffde0
    93a8:	78253d20 	stmdavc	r5!, {r5, r8, sl, fp, ip, sp}
    93ac:	6873202c 	ldmdavs	r3!, {r2, r3, r5, sp}^
    93b0:	646c756f 	strbtvs	r7, [ip], #-1391	; 0xfffffa91
    93b4:	20656220 	rsbcs	r6, r5, r0, lsr #4
    93b8:	6e5c7825 	cdpvs	8, 5, cr7, cr12, cr5, {1}
    93bc:	00000a22 	andeq	r0, r0, r2, lsr #20
    93c0:	3d20752a 	cfstr32cc	mvfx7, [r0, #-168]!	; 0xffffff58
    93c4:	0076203d 	rsbseq	r2, r6, sp, lsr r0
    93c8:	4f525245 	svcmi	0x00525245
    93cc:	73253a52 			; <UNDEFINED> instruction: 0x73253a52
    93d0:	3a73253a 	bcc	1cd28c0 <__bss_end__+0x1cc8ce0>
    93d4:	203a6425 	eorscs	r6, sl, r5, lsr #8
    93d8:	534c4146 	movtpl	r4, #49478	; 0xc146
    93dc:	253c2845 	ldrcs	r2, [ip, #-2117]!	; 0xfffff7bb
    93e0:	3a293e73 	bcc	a58db4 <__bss_end__+0xa4f1d4>
    93e4:	67756220 	ldrbvs	r6, [r5, -r0, lsr #4]!
    93e8:	206e6920 	rsbcs	r6, lr, r0, lsr #18
    93ec:	6c616d6b 	stclvs	13, cr6, [r1], #-428	; 0xfffffe54
    93f0:	5f636f6c 	svcpl	0x00636f6c
    93f4:	67696c61 	strbvs	r6, [r9, -r1, ror #24]!
    93f8:	0a64656e 	beq	19229b8 <__bss_end__+0x1918dd8>
    93fc:	00000000 	andeq	r0, r0, r0
    9400:	736e7528 	cmnvc	lr, #40, 10	; 0xa000000
    9404:	656e6769 	strbvs	r6, [lr, #-1897]!	; 0xfffff897
    9408:	20702964 	rsbscs	r2, r0, r4, ror #18
    940c:	34362025 	ldrtcc	r2, [r6], #-37	; 0xffffffdb
    9410:	203d3d20 	eorscs	r3, sp, r0, lsr #26
    9414:	00000030 	andeq	r0, r0, r0, lsr r0
    9418:	70616568 	rsbvc	r6, r1, r8, ror #10
    941c:	74666120 	strbtvc	r6, [r6], #-288	; 0xfffffee0
    9420:	66207265 	strtvs	r7, [r0], -r5, ror #4
    9424:	5f656572 	svcpl	0x00656572
    9428:	3d6c6c61 	stclcc	12, cr6, [ip, #-388]!	; 0xfffffe7c
    942c:	000a7825 	andeq	r7, sl, r5, lsr #16
    9430:	70616568 	rsbvc	r6, r1, r8, ror #10
    9434:	3d3d2031 	ldccc	0, cr2, [sp, #-196]!	; 0xffffff3c
    9438:	6f762820 	svcvs	0x00762820
    943c:	292a6469 	stmdbcs	sl!, {r0, r3, r5, r6, sl, sp, lr}
    9440:	32303128 	eorscc	r3, r0, #10
    9444:	30312a34 	eorscc	r2, r1, r4, lsr sl
    9448:	00293432 	eoreq	r3, r9, r2, lsr r4
    944c:	4f525245 	svcmi	0x00525245
    9450:	73253a52 			; <UNDEFINED> instruction: 0x73253a52
    9454:	3a73253a 	bcc	1cd2944 <__bss_end__+0x1cc8d64>
    9458:	203a6425 	eorscs	r6, sl, r5, lsr #8
    945c:	534c4146 	movtpl	r4, #49478	; 0xc146
    9460:	253c2845 	ldrcs	r2, [ip, #-2117]!	; 0xfffff7bb
    9464:	3a293e73 	bcc	a58e38 <__bss_end__+0xa4f258>
    9468:	64696420 	strbtvs	r6, [r9], #-1056	; 0xfffffbe0
    946c:	746f6e20 	strbtvc	r6, [pc], #-3616	; 9474 <__code_end__+0x180>
    9470:	73657220 	cmnvc	r5, #32, 4
    9474:	74207465 	strtvc	r7, [r0], #-1125	; 0xfffffb9b
    9478:	68206568 	stmdavs	r0!, {r3, r5, r6, r8, sl, sp, lr}
    947c:	20706165 	rsbscs	r6, r0, r5, ror #2
    9480:	72726f63 	rsbsvc	r6, r2, #396	; 0x18c
    9484:	6c746365 	ldclvs	3, cr6, [r4], #-404	; 0xfffffe6c
    9488:	000a2179 	andeq	r2, sl, r9, ror r1
    948c:	70616568 	rsbvc	r6, r1, r8, ror #10
    9490:	3d3d2030 	ldccc	0, cr2, [sp, #-192]!	; 0xffffff40
    9494:	61656820 	cmnvs	r5, r0, lsr #16
    9498:	00003170 	andeq	r3, r0, r0, ror r1
    949c:	72617473 	rsbvc	r7, r1, #1929379840	; 0x73000000
    94a0:	20312b74 	eorscs	r2, r1, r4, ror fp
    94a4:	6b203d3d 	blvs	8189a0 <__bss_end__+0x80edc0>
    94a8:	6c6c616d 	stfvse	f6, [ip], #-436	; 0xfffffe4c
    94ac:	3128636f 			; <UNDEFINED> instruction: 0x3128636f
    94b0:	00000029 	andeq	r0, r0, r9, lsr #32
    94b4:	63637573 	cmnvs	r3, #482344960	; 0x1cc00000
    94b8:	66737365 	ldrbtvs	r7, [r3], -r5, ror #6
    94bc:	74206c75 	strtvc	r6, [r0], #-3189	; 0xfffff38b
    94c0:	0a747365 	beq	1d2625c <__bss_end__+0x1d1c67c>
    94c4:	00000000 	andeq	r0, r0, r0

000094c8 <__FUNCTION__.3921>:
    94c8:	6d746f6e 	ldclvs	15, cr6, [r4, #-440]!	; 0xfffffe48
    94cc:	006e6961 	rsbeq	r6, lr, r1, ror #18
    94d0:	6c616d6b 	stclvs	13, cr6, [r1], #-428	; 0xfffffe54
    94d4:	2e636f6c 	cdpcs	15, 6, cr6, cr3, cr12, {3}
    94d8:	00000063 	andeq	r0, r0, r3, rrx
    94dc:	4f525245 	svcmi	0x00525245
    94e0:	73253a52 			; <UNDEFINED> instruction: 0x73253a52
    94e4:	3a73253a 	bcc	1cd29d4 <__bss_end__+0x1cc8df4>
    94e8:	203a6425 	eorscs	r6, sl, r5, lsr #8
    94ec:	534c4146 	movtpl	r4, #49478	; 0xc146
    94f0:	253c2845 	ldrcs	r2, [ip, #-2117]!	; 0xfffff7bb
    94f4:	3a293e73 	bcc	a58ec8 <__bss_end__+0xa4f2e8>
    94f8:	6c616320 	stclvs	3, cr6, [r1], #-128	; 0xffffff80
    94fc:	676e696c 	strbvs	r6, [lr, -ip, ror #18]!
    9500:	66656220 	strbtvs	r6, [r5], -r0, lsr #4
    9504:	2065726f 	rsbcs	r7, r5, pc, ror #4
    9508:	74696e69 	strbtvc	r6, [r9], #-3689	; 0xfffff197
    950c:	696c6169 	stmdbvs	ip!, {r0, r3, r5, r6, r8, sp, lr}^
    9510:	0a64657a 	beq	1922b00 <__bss_end__+0x1918f20>
    9514:	00000000 	andeq	r0, r0, r0
    9518:	74696e69 	strbtvc	r6, [r9], #-3689	; 0xfffff197
    951c:	0000705f 	andeq	r7, r0, pc, asr r0
    9520:	615f7369 	cmpvs	pc, r9, ror #6
    9524:	6e67696c 	vnmulvs.f16	s13, s14, s25	; <UNPREDICTABLE>
    9528:	68286465 	stmdavs	r8!, {r0, r2, r5, r6, sl, sp, lr}
    952c:	2c706165 	ldfcse	f6, [r0], #-404	; 0xfffffe6c
    9530:	00293420 	eoreq	r3, r9, r0, lsr #8
    9534:	657a6973 	ldrbvs	r6, [sl, #-2419]!	; 0xfffff68d
    9538:	6828666f 	stmdavs	r8!, {r0, r1, r2, r3, r5, r6, r9, sl, sp, lr}
    953c:	29706165 	ldmdbcs	r0!, {r0, r2, r5, r6, r8, sp, lr}^
    9540:	203d3d20 	eorscs	r3, sp, r0, lsr #26
    9544:	7479626e 	ldrbtvc	r6, [r9], #-622	; 0xfffffd92
    9548:	00007365 	andeq	r7, r0, r5, ror #6
    954c:	4f525245 	svcmi	0x00525245
    9550:	73253a52 			; <UNDEFINED> instruction: 0x73253a52
    9554:	3a73253a 	bcc	1cd2a44 <__bss_end__+0x1cc8e64>
    9558:	203a6425 	eorscs	r6, sl, r5, lsr #8
    955c:	534c4146 	movtpl	r4, #49478	; 0xc146
    9560:	253c2845 	ldrcs	r2, [ip, #-2117]!	; 0xfffff7bb
    9564:	3a293e73 	bcc	a58f38 <__bss_end__+0xa4f358>
    9568:	73736120 	cmnvc	r3, #8
    956c:	6e696d75 	mcrvs	13, 3, r6, cr9, cr5, {3}
    9570:	6f702067 	svcvs	0x00702067
    9574:	20726577 	rsbscs	r6, r2, r7, ror r5
    9578:	7420666f 	strtvc	r6, [r0], #-1647	; 0xfffff991
    957c:	000a6f77 	andeq	r6, sl, r7, ror pc
    9580:	705f7369 	subsvc	r7, pc, r9, ror #6
    9584:	2832776f 	ldmdacs	r2!, {r0, r1, r2, r3, r5, r6, r8, r9, sl, ip, sp, lr}
    9588:	67696c61 	strbvs	r6, [r9, -r1, ror #24]!
    958c:	6e656d6e 	cdpvs	13, 6, cr6, cr5, cr14, {3}
    9590:	00002974 	andeq	r2, r0, r4, ror r9
    9594:	615f7369 	cmpvs	pc, r9, ror #6
    9598:	6e67696c 	vnmulvs.f16	s13, s14, s25	; <UNPREDICTABLE>
    959c:	68286465 	stmdavs	r8!, {r0, r2, r5, r6, sl, sp, lr}
    95a0:	2c706165 	ldfcse	f6, [r0], #-404	; 0xfffffe6c
    95a4:	696c6120 	stmdbvs	ip!, {r5, r8, sp, lr}^
    95a8:	656d6e67 	strbvs	r6, [sp, #-3687]!	; 0xfffff199
    95ac:	0029746e 	eoreq	r7, r9, lr, ror #8
    95b0:	000a6425 	andeq	r6, sl, r5, lsr #8
    95b4:	4f525245 	svcmi	0x00525245
    95b8:	73253a52 			; <UNDEFINED> instruction: 0x73253a52
    95bc:	3a73253a 	bcc	1cd2aac <__bss_end__+0x1cc8ecc>
    95c0:	203a6425 	eorscs	r6, sl, r5, lsr #8
    95c4:	534c4146 	movtpl	r4, #49478	; 0xc146
    95c8:	253c2845 	ldrcs	r2, [ip, #-2117]!	; 0xfffff7bb
    95cc:	3a293e73 	bcc	a58fa0 <__bss_end__+0xa4f3c0>
    95d0:	726c6120 	rsbvc	r6, ip, #8
    95d4:	79646165 	stmdbvc	r4!, {r0, r2, r5, r6, r8, sp, lr}^
    95d8:	696e6920 	stmdbvs	lr!, {r5, r8, fp, sp, lr}^
    95dc:	6c616974 			; <UNDEFINED> instruction: 0x6c616974
    95e0:	64657a69 	strbtvs	r7, [r5], #-2665	; 0xfffff597
    95e4:	0000000a 	andeq	r0, r0, sl
    95e8:	696e6921 	stmdbvs	lr!, {r0, r5, r8, fp, sp, lr}^
    95ec:	00705f74 	rsbseq	r5, r0, r4, ror pc
    95f0:	494e4150 	stmdbmi	lr, {r4, r6, r8, lr}^
    95f4:	73253a43 			; <UNDEFINED> instruction: 0x73253a43
    95f8:	3a73253a 	bcc	1cd2ae8 <__bss_end__+0x1cc8f08>
    95fc:	693a6425 	ldmdbvs	sl!, {r0, r2, r5, sl, sp, lr}
    9600:	656c706d 	strbvs	r7, [ip, #-109]!	; 0xffffff93
    9604:	746e656d 	strbtvc	r6, [lr], #-1389	; 0xfffffa93
    9608:	69687420 	stmdbvs	r8!, {r5, sl, ip, sp, lr}^
    960c:	75662073 	strbvc	r2, [r6, #-115]!	; 0xffffff8d
    9610:	6974636e 	ldmdbvs	r4!, {r1, r2, r3, r5, r6, r8, r9, sp, lr}^
    9614:	0a216e6f 	beq	864fd8 <__bss_end__+0x85b3f8>
    9618:	0000000a 	andeq	r0, r0, sl

0000961c <__FUNCTION__.3949>:
    961c:	6c616d6b 	stclvs	13, cr6, [r1], #-428	; 0xfffffe54
    9620:	00636f6c 	rsbeq	r6, r3, ip, ror #30

00009624 <__FUNCTION__.3955>:
    9624:	6c616d6b 	stclvs	13, cr6, [r1], #-428	; 0xfffffe54
    9628:	5f636f6c 	svcpl	0x00636f6c
    962c:	67696c61 	strbvs	r6, [r9, -r1, ror #24]!
    9630:	0064656e 	rsbeq	r6, r4, lr, ror #10

00009634 <__FUNCTION__.3962>:
    9634:	6c616d6b 	stclvs	13, cr6, [r1], #-428	; 0xfffffe54
    9638:	5f636f6c 	svcpl	0x00636f6c
    963c:	74696e69 	strbtvc	r6, [r9], #-3689	; 0xfffff197
    9640:	7465735f 	strbtvc	r7, [r5], #-863	; 0xfffffca1
    9644:	6174735f 	cmnvs	r4, pc, asr r3
    9648:	00007472 	andeq	r7, r0, r2, ror r4

0000964c <__FUNCTION__.3966>:
    964c:	6572666b 	ldrbvs	r6, [r2, #-1643]!	; 0xfffff995
    9650:	6c615f65 	stclvs	15, cr5, [r1], #-404	; 0xfffffe6c
    9654:	0000006c 	andeq	r0, r0, ip, rrx

00009658 <__FUNCTION__.3970>:
    9658:	6c616d6b 	stclvs	13, cr6, [r1], #-428	; 0xfffffe54
    965c:	5f636f6c 	svcpl	0x00636f6c
    9660:	70616568 	rsbvc	r6, r1, r8, ror #10
    9664:	7274705f 	rsbsvc	r7, r4, #95, 0	; 0x5f
    9668:	00000000 	andeq	r0, r0, r0
    966c:	696c2f2e 	stmdbvs	ip!, {r1, r2, r3, r5, r8, r9, sl, fp, sp}^
    9670:	762f6362 	strtvc	r6, [pc], -r2, ror #6
    9674:	72702d61 	rsbsvc	r2, r0, #6208	; 0x1840
    9678:	6b746e69 	blvs	1d25024 <__bss_end__+0x1d1b444>
    967c:	0000632e 	andeq	r6, r0, lr, lsr #6
    9680:	33323130 	teqcc	r2, #12
    9684:	37363534 			; <UNDEFINED> instruction: 0x37363534
    9688:	00003938 	andeq	r3, r0, r8, lsr r9
    968c:	33323130 	teqcc	r2, #12
    9690:	37363534 			; <UNDEFINED> instruction: 0x37363534
    9694:	62613938 	rsbvs	r3, r1, #56, 18	; 0xe0000
    9698:	66656463 	strbtvs	r6, [r5], -r3, ror #8
    969c:	00000000 	andeq	r0, r0, r0
    96a0:	00003130 	andeq	r3, r0, r0, lsr r1
    96a4:	63747570 	cmnvs	r4, #112, 10	; 0x1c000000
    96a8:	0070665f 	rsbseq	r6, r0, pc, asr r6
    96ac:	74646977 	strbtvc	r6, [r4], #-2423	; 0xfffff689
    96b0:	203c2068 	eorscs	r2, ip, r8, rrx
    96b4:	00003233 	andeq	r3, r0, r3, lsr r2
    96b8:	00786c6c 	rsbseq	r6, r8, ip, ror #24
    96bc:	00646c6c 	rsbeq	r6, r4, ip, ror #24
    96c0:	6e727473 	mrcvs	4, 3, r7, cr2, cr3, {3}
    96c4:	28706d63 	ldmdacs	r0!, {r0, r1, r5, r6, r8, sl, fp, sp, lr}^
    96c8:	202c7974 	eorcs	r7, ip, r4, ror r9
    96cc:	786c6c22 	stmdavc	ip!, {r1, r5, sl, fp, sp, lr}^
    96d0:	33202c22 			; <UNDEFINED> instruction: 0x33202c22
    96d4:	3d3d2029 	ldccc	0, cr2, [sp, #-164]!	; 0xffffff5c
    96d8:	7c203020 	stcvc	0, cr3, [r0], #-128	; 0xffffff80
    96dc:	7473207c 	ldrbtvc	r2, [r3], #-124	; 0xffffff84
    96e0:	6d636e72 	stclvs	14, cr6, [r3, #-456]!	; 0xfffffe38
    96e4:	79742870 	ldmdbvc	r4!, {r4, r5, r6, fp, sp}^
    96e8:	6c22202c 	stcvs	0, cr2, [r2], #-176	; 0xffffff50
    96ec:	2c22646c 	cfstrscs	mvf6, [r2], #-432	; 0xfffffe50
    96f0:	20293320 	eorcs	r3, r9, r0, lsr #6
    96f4:	30203d3d 	eorcc	r3, r0, sp, lsr sp
    96f8:	00000000 	andeq	r0, r0, r0
    96fc:	494e4150 	stmdbmi	lr, {r4, r6, r8, lr}^
    9700:	73253a43 			; <UNDEFINED> instruction: 0x73253a43
    9704:	3a73253a 	bcc	1cd2bf4 <__bss_end__+0x1cc9014>
    9708:	693a6425 	ldmdbvs	sl!, {r0, r2, r5, sl, sp, lr}
    970c:	736f706d 	cmnvc	pc, #109, 0	; 0x6d
    9710:	6c626973 			; <UNDEFINED> instruction: 0x6c626973
    9714:	66203a65 	strtvs	r3, [r0], -r5, ror #20
    9718:	3c3d746d 	cfldrscc	mvf7, [sp], #-436	; 0xfffffe4c
    971c:	0a3e7325 	beq	fa63b8 <__bss_end__+0xf9c7d8>
    9720:	0000000a 	andeq	r0, r0, sl
    9724:	494e4150 	stmdbmi	lr, {r4, r6, r8, lr}^
    9728:	73253a43 			; <UNDEFINED> instruction: 0x73253a43
    972c:	3a73253a 	bcc	1cd2c1c <__bss_end__+0x1cc903c>
    9730:	663a6425 	ldrtvs	r6, [sl], -r5, lsr #8
    9734:	74616f6c 	strbtvc	r6, [r1], #-3948	; 0xfffff094
    9738:	746f6e20 	strbtvc	r6, [pc], #-3616	; 9740 <__FUNCTION__.3970+0xe8>
    973c:	616e6520 	cmnvs	lr, r0, lsr #10
    9740:	64656c62 	strbtvs	r6, [r5], #-3170	; 0xfffff39e
    9744:	0a212121 	beq	851bd0 <__bss_end__+0x847ff0>
    9748:	00000000 	andeq	r0, r0, r0
    974c:	6e697270 	mcrvs	2, 3, r7, cr9, cr0, {3}
    9750:	203a6b74 	eorscs	r6, sl, r4, ror fp
    9754:	20746f6e 	rsbscs	r6, r4, lr, ror #30
    9758:	646e6168 	strbtvs	r6, [lr], #-360	; 0xfffffe98
    975c:	676e696c 	strbvs	r6, [lr, -ip, ror #18]!
    9760:	65707320 	ldrbvs	r7, [r0, #-800]!	; 0xfffffce0
    9764:	69666963 	stmdbvs	r6!, {r0, r1, r5, r6, r8, fp, sp, lr}^
    9768:	27207265 	strcs	r7, [r0, -r5, ror #4]!
    976c:	20276325 	eorcs	r6, r7, r5, lsr #6
    9770:	63736128 	cmnvs	r3, #10
    9774:	253d6969 	ldrcs	r6, [sp, #-2409]!	; 0xfffff697
    9778:	000a2964 	andeq	r2, sl, r4, ror #18
    977c:	494e4150 	stmdbmi	lr, {r4, r6, r8, lr}^
    9780:	73253a43 			; <UNDEFINED> instruction: 0x73253a43
    9784:	3a73253a 	bcc	1cd2c74 <__bss_end__+0x1cc9094>
    9788:	703a6425 	eorsvc	r6, sl, r5, lsr #8
    978c:	746e6972 	strbtvc	r6, [lr], #-2418	; 0xfffff68e
    9790:	7265206b 	rsbvc	r2, r5, #107, 0	; 0x6b
    9794:	0a726f72 	beq	1ca5564 <__bss_end__+0x1c9b984>
    9798:	0000000a 	andeq	r0, r0, sl

0000979c <__FUNCTION__.3988>:
    979c:	74696d65 	strbtvc	r6, [r9], #-3429	; 0xfffff29b
    97a0:	00000000 	andeq	r0, r0, r0

000097a4 <__FUNCTION__.3936>:
    97a4:	5f697072 	svcpl	0x00697072
    97a8:	5f746573 	svcpl	0x00746573
    97ac:	7074756f 	rsbsvc	r7, r4, pc, ror #10
    97b0:	00007475 	andeq	r7, r0, r5, ror r4

000097b4 <__FUNCTION__.4014>:
    97b4:	705f6176 	subsvc	r6, pc, r6, ror r1	; <UNPREDICTABLE>
    97b8:	746e6972 	strbtvc	r6, [lr], #-2418	; 0xfffff68e
    97bc:	0000006b 	andeq	r0, r0, fp, rrx
    97c0:	454e4f44 	strbmi	r4, [lr, #-3908]	; 0xfffff0bc
    97c4:	0a212121 	beq	851c50 <__bss_end__+0x848070>
	...

Disassembly of section .data:

000097cc <rpi_putchar>:
    97cc:	000085f0 	strdeq	r8, [r0], -r0

000097d0 <putk>:
    97d0:	0000862c 	andeq	r8, r0, ip, lsr #12

Disassembly of section .bss:

000097d4 <__bss_start__>:
    97d4:	00000000 	andeq	r0, r0, r0

000097d8 <buf.3928>:
	...

00009bd8 <heap>:
	...

Disassembly of section .ARM.attributes:

00000000 <.ARM.attributes>:
   0:	00002a41 	andeq	r2, r0, r1, asr #20
   4:	61656100 	cmnvs	r5, r0, lsl #2
   8:	01006962 	tsteq	r0, r2, ror #18
   c:	00000020 	andeq	r0, r0, r0, lsr #32
  10:	4b5a3605 	blmi	168d82c <__bss_end__+0x1683c4c>
  14:	08070600 	stmdaeq	r7, {r9, sl}
  18:	12010901 	andne	r0, r1, #16384	; 0x4000
  1c:	15011404 	strne	r1, [r1, #-1028]	; 0xfffffbfc
  20:	18031701 	stmdane	r3, {r0, r8, r9, sl, ip}
  24:	22011a01 	andcs	r1, r1, #4096	; 0x1000
  28:	Address 0x0000000000000028 is out of bounds.


Disassembly of section .comment:

00000000 <.comment>:
   0:	3a434347 	bcc	10d0d24 <__bss_end__+0x10c7144>
   4:	4e472820 	cdpmi	8, 4, cr2, cr7, cr0, {1}
   8:	6f542055 	svcvs	0x00542055
   c:	20736c6f 	rsbscs	r6, r3, pc, ror #24
  10:	20726f66 	rsbscs	r6, r2, r6, ror #30
  14:	206d7241 	rsbcs	r7, sp, r1, asr #4
  18:	65626d45 	strbvs	r6, [r2, #-3397]!	; 0xfffff2bb
  1c:	64656464 	strbtvs	r6, [r5], #-1124	; 0xfffffb9c
  20:	6f725020 	svcvs	0x00725020
  24:	73736563 	cmnvc	r3, #415236096	; 0x18c00000
  28:	2073726f 	rsbscs	r7, r3, pc, ror #4
  2c:	30322d39 	eorscc	r2, r2, r9, lsr sp
  30:	712d3931 			; <UNDEFINED> instruction: 0x712d3931
  34:	616d2d34 	cmnvs	sp, r4, lsr sp
  38:	29726f6a 	ldmdbcs	r2!, {r1, r3, r5, r6, r8, r9, sl, fp, sp, lr}^
  3c:	322e3920 	eorcc	r3, lr, #32, 18	; 0x80000
  40:	3220312e 	eorcc	r3, r0, #-2147483637	; 0x8000000b
  44:	31393130 	teqcc	r9, r0, lsr r1
  48:	20353230 	eorscs	r3, r5, r0, lsr r2
  4c:	6c657228 	sfmvs	f7, 2, [r5], #-160	; 0xffffff60
  50:	65736165 	ldrbvs	r6, [r3, #-357]!	; 0xfffffe9b
  54:	415b2029 	cmpmi	fp, r9, lsr #32
  58:	612f4d52 			; <UNDEFINED> instruction: 0x612f4d52
  5c:	392d6d72 	pushcc	{r1, r4, r5, r6, r8, sl, fp, sp, lr}
  60:	6172622d 	cmnvs	r2, sp, lsr #4
  64:	2068636e 	rsbcs	r6, r8, lr, ror #6
  68:	69766572 	ldmdbvs	r6!, {r1, r4, r5, r6, r8, sl, sp, lr}^
  6c:	6e6f6973 			; <UNDEFINED> instruction: 0x6e6f6973
  70:	37373220 	ldrcc	r3, [r7, -r0, lsr #4]!
  74:	5d393935 			; <UNDEFINED> instruction: 0x5d393935
  78:	43434700 	movtmi	r4, #14080	; 0x3700
  7c:	3128203a 			; <UNDEFINED> instruction: 0x3128203a
  80:	2d393a35 	vldmdbcs	r9!, {s6-s58}
  84:	39313032 	ldmdbcc	r1!, {r1, r4, r5, ip, sp}
  88:	2d34712d 	ldfcss	f7, [r4, #-180]!	; 0xffffff4c
  8c:	75627530 	strbvc	r7, [r2, #-1328]!	; 0xfffffad0
  90:	3175746e 	cmncc	r5, lr, ror #8
  94:	2e392029 	cdpcs	0, 3, cr2, cr9, cr9, {1}
  98:	20312e32 	eorscs	r2, r1, r2, lsr lr
  9c:	39313032 	ldmdbcc	r1!, {r1, r4, r5, ip, sp}
  a0:	35323031 	ldrcc	r3, [r2, #-49]!	; 0xffffffcf
  a4:	65722820 	ldrbvs	r2, [r2, #-2080]!	; 0xfffff7e0
  a8:	7361656c 	cmnvc	r1, #108, 10	; 0x1b000000
  ac:	5b202965 	blpl	80a648 <__bss_end__+0x800a68>
  b0:	2f4d5241 	svccs	0x004d5241
  b4:	2d6d7261 	sfmcs	f7, 2, [sp, #-388]!	; 0xfffffe7c
  b8:	72622d39 	rsbvc	r2, r2, #3648	; 0xe40
  bc:	68636e61 	stmdavs	r3!, {r0, r5, r6, r9, sl, fp, sp, lr}^
  c0:	76657220 	strbtvc	r7, [r5], -r0, lsr #4
  c4:	6f697369 	svcvs	0x00697369
  c8:	3732206e 	ldrcc	r2, [r2, -lr, rrx]!
  cc:	39393537 	ldmdbcc	r9!, {r0, r1, r2, r4, r5, r8, sl, ip, sp}
  d0:	Address 0x00000000000000d0 is out of bounds.


Disassembly of section .debug_info:

00000000 <.debug_info>:
       0:	000005cd 	andeq	r0, r0, sp, asr #11
       4:	00000004 	andeq	r0, r0, r4
       8:	01040000 	mrseq	r0, (UNDEF: 4)
       c:	0000012a 	andeq	r0, r0, sl, lsr #2
      10:	00006f0c 	andeq	r6, r0, ip, lsl #30
      14:	0000bc00 	andeq	fp, r0, r0, lsl #24
      18:	00802000 	addeq	r2, r0, r0
      1c:	00027c00 	andeq	r7, r2, r0, lsl #24
      20:	00000000 	andeq	r0, r0, r0
      24:	05040200 	streq	r0, [r4, #-512]	; 0xfffffe00
      28:	00746e69 	rsbseq	r6, r4, r9, ror #28
      2c:	95070403 	strls	r0, [r7, #-1027]	; 0xfffffbfd
      30:	03000000 	movweq	r0, #0
      34:	002e0601 	eoreq	r0, lr, r1, lsl #12
      38:	02030000 	andeq	r0, r3, #0, 0
      3c:	0000f805 	andeq	pc, r0, r5, lsl #16
      40:	05040300 	streq	r0, [r4, #-768]	; 0xfffffd00
      44:	000000a7 	andeq	r0, r0, r7, lsr #1
      48:	a2050803 	andge	r0, r5, #196608	; 0x30000
      4c:	03000000 	movweq	r0, #0
      50:	002c0801 	eoreq	r0, ip, r1, lsl #16
      54:	02030000 	andeq	r0, r3, #0, 0
      58:	00004d07 	andeq	r4, r0, r7, lsl #26
      5c:	07040300 	streq	r0, [r4, -r0, lsl #6]
      60:	00000090 	muleq	r0, r0, r0
      64:	8b070803 	blhi	1c2078 <__bss_end__+0x1b8498>
      68:	04000000 	streq	r0, [r0], #-0
      6c:	00000025 	andeq	r0, r0, r5, lsr #32
      70:	0000007a 	andeq	r0, r0, sl, ror r0
      74:	00002505 	andeq	r2, r0, r5, lsl #10
      78:	b0060000 	andlt	r0, r6, r0
      7c:	02000000 	andeq	r0, r0, #0, 0
      80:	00860e1c 	addeq	r0, r6, ip, lsl lr
      84:	04070000 	streq	r0, [r7], #-0
      88:	0000006b 	andeq	r0, r0, fp, rrx
      8c:	00002504 	andeq	r2, r0, r4, lsl #10
      90:	00009b00 	andeq	r9, r0, r0, lsl #22
      94:	009b0500 	addseq	r0, fp, r0, lsl #10
      98:	07000000 	streq	r0, [r0, -r0]
      9c:	0000a804 	andeq	sl, r0, r4, lsl #16
      a0:	08010300 	stmdaeq	r1, {r8, r9}
      a4:	00000035 	andeq	r0, r0, r5, lsr r0
      a8:	0000a108 	andeq	sl, r0, r8, lsl #2
      ac:	02f40600 	rscseq	r0, r4, #0, 12
      b0:	21020000 	mrscs	r0, (UNDEF: 2)
      b4:	0000b90e 	andeq	fp, r0, lr, lsl #18
      b8:	8c040700 	stchi	7, cr0, [r4], {-0}
      bc:	09000000 	stmdbeq	r0, {}	; <UNPREDICTABLE>
      c0:	0000001a 	andeq	r0, r0, sl, lsl r0
      c4:	20060401 	andcs	r0, r6, r1, lsl #8
      c8:	7c000080 	stcvc	0, cr0, [r0], {128}	; 0x80
      cc:	01000002 	tsteq	r0, r2
      d0:	0005479c 	muleq	r5, ip, r7
      d4:	00850a00 	addeq	r0, r5, r0, lsl #20
      d8:	0b010000 	bleq	400e0 <__bss_end__+0x36500>
      dc:	0005470b 	andeq	r4, r5, fp, lsl #14
      e0:	00000600 	andeq	r0, r0, r0, lsl #12
      e4:	00000000 	andeq	r0, r0, r0
      e8:	00780b00 	rsbseq	r0, r8, r0, lsl #22
      ec:	05590000 	ldrbeq	r0, [r9, #-0]
      f0:	03050000 	movweq	r0, #20480	; 0x5000
      f4:	000094c8 	andeq	r9, r0, r8, asr #9
      f8:	0001240a 	andeq	r2, r1, sl, lsl #8
      fc:	0f0f0100 	svceq	0x000f0100
     100:	0000055e 	andeq	r0, r0, lr, asr r5
     104:	00000031 	andeq	r0, r0, r1, lsr r0
     108:	0000002f 	andeq	r0, r0, pc, lsr #32
     10c:	0001df0a 	andeq	sp, r1, sl, lsl #30
     110:	1f0f0100 	svcne	0x000f0100
     114:	0000055e 	andeq	r0, r0, lr, asr r5
     118:	00000031 	andeq	r0, r0, r1, lsr r0
     11c:	0000002f 	andeq	r0, r0, pc, lsr #32
     120:	0100750c 	tsteq	r0, ip, lsl #10
     124:	055e0f1b 	ldrbeq	r0, [lr, #-3867]	; 0xfffff0e5
     128:	00480000 	subeq	r0, r8, r0
     12c:	00440000 	subeq	r0, r4, r0
     130:	700c0000 	andvc	r0, ip, r0
     134:	0b230100 	bleq	8c053c <__bss_end__+0x8b695c>
     138:	00000547 	andeq	r0, r0, r7, asr #10
     13c:	0000006a 	andeq	r0, r0, sl, rrx
     140:	00000066 	andeq	r0, r0, r6, rrx
     144:	0000470a 	andeq	r4, r0, sl, lsl #14
     148:	0b280100 	bleq	a00550 <__bss_end__+0x9f6970>
     14c:	00000547 	andeq	r0, r0, r7, asr #10
     150:	0000008c 	andeq	r0, r0, ip, lsl #1
     154:	00000088 	andeq	r0, r0, r8, lsl #1
     158:	0080a80d 	addeq	sl, r0, sp, lsl #16
     15c:	00004800 	andeq	r4, r0, r0, lsl #16
     160:	0001e900 	andeq	lr, r1, r0, lsl #18
     164:	00690c00 	rsbeq	r0, r9, r0, lsl #24
     168:	2c121101 	ldfcss	f1, [r2], {1}
     16c:	ae000000 	cdpge	0, 0, cr0, cr0, cr0, {0}
     170:	aa000000 	bge	178 <__code_start__-0x7e88>
     174:	0e000000 	cdpeq	0, 0, cr0, cr0, cr0, {0}
     178:	000080b0 	strheq	r8, [r0], -r0
     17c:	00000034 	andeq	r0, r0, r4, lsr r0
     180:	0100750c 	tsteq	r0, ip, lsl #10
     184:	055e1312 	ldrbeq	r1, [lr, #-786]	; 0xfffffcee
     188:	00d10000 	sbcseq	r0, r1, r0
     18c:	00cd0000 	sbceq	r0, sp, r0
     190:	760c0000 	strvc	r0, [ip], -r0
     194:	12160100 	andsne	r0, r6, #0
     198:	0000002c 	andeq	r0, r0, ip, lsr #32
     19c:	000000f1 	strdeq	r0, [r0], -r1
     1a0:	000000ef 	andeq	r0, r0, pc, ror #1
     1a4:	0080b80f 	addeq	fp, r0, pc, lsl #16
     1a8:	00056400 	andeq	r6, r5, r0, lsl #8
     1ac:	0001b700 	andeq	fp, r1, r0, lsl #14
     1b0:	50011000 	andpl	r1, r1, r0
     1b4:	0f003101 	svceq	0x00003101
     1b8:	000080c4 	andeq	r8, r0, r4, asr #1
     1bc:	00000570 	andeq	r0, r0, r0, ror r5
     1c0:	000001ce 	andeq	r0, r0, lr, asr #3
     1c4:	05500110 	ldrbeq	r0, [r0, #-272]	; 0xfffffef0
     1c8:	0092f803 	addseq	pc, r2, r3, lsl #16
     1cc:	d0110000 	andsle	r0, r1, r0
     1d0:	70000080 	andvc	r0, r0, r0, lsl #1
     1d4:	10000005 	andne	r0, r0, r5
     1d8:	03055001 	movweq	r5, #20481	; 0x5001
     1dc:	00009380 	andeq	r9, r0, r0, lsl #7
     1e0:	02510110 	subseq	r0, r1, #4
     1e4:	00000075 	andeq	r0, r0, r5, ror r0
     1e8:	00001200 	andeq	r1, r0, r0, lsl #4
     1ec:	026e0000 	rsbeq	r0, lr, #0, 0
     1f0:	690c0000 	stmdbvs	ip, {}	; <UNPREDICTABLE>
     1f4:	121c0100 	andsne	r0, ip, #0
     1f8:	0000002c 	andeq	r0, r0, ip, lsr #32
     1fc:	0000010a 	andeq	r0, r0, sl, lsl #2
     200:	00000104 	andeq	r0, r0, r4, lsl #2
     204:	00001813 	andeq	r1, r0, r3, lsl r8
     208:	00760c00 	rsbseq	r0, r6, r0, lsl #24
     20c:	2c121d01 	ldccs	13, cr1, [r2], {1}
     210:	36000000 	strcc	r0, [r0], -r0
     214:	34000001 	strcc	r0, [r0], #-1
     218:	14000001 	strne	r0, [r0], #-1
     21c:	0000812c 	andeq	r8, r0, ip, lsr #2
     220:	0000057c 	andeq	r0, r0, ip, ror r5
     224:	0081540f 	addeq	r5, r1, pc, lsl #8
     228:	00057000 	andeq	r7, r5, r0
     22c:	00026300 	andeq	r6, r2, r0, lsl #6
     230:	50011000 	andpl	r1, r1, r0
     234:	93880305 	orrls	r0, r8, #335544320	; 0x14000000
     238:	01100000 	tsteq	r0, r0
     23c:	38030551 	stmdacc	r3, {r0, r4, r6, r8, sl}
     240:	10000093 	mulne	r0, r3, r0
     244:	03055201 	movweq	r5, #20993	; 0x5201
     248:	000094c8 	andeq	r9, r0, r8, asr #9
     24c:	01530110 	cmpeq	r3, r0, lsl r1
     250:	7d02104f 	stcvc	0, cr1, [r2, #-316]	; 0xfffffec4
     254:	c0030500 	andgt	r0, r3, r0, lsl #10
     258:	10000093 	mulne	r0, r3, r0
     25c:	02087d02 	andeq	r7, r8, #128	; 0x80
     260:	14000074 	strne	r0, [r0], #-116	; 0xffffff8c
     264:	00008158 	andeq	r8, r0, r8, asr r1
     268:	00000588 	andeq	r0, r0, r8, lsl #11
     26c:	2c140000 	ldccs	0, cr0, [r4], {-0}
     270:	94000080 	strls	r0, [r0], #-128	; 0xffffff80
     274:	0f000005 	svceq	0x00000005
     278:	00008038 	andeq	r8, r0, r8, lsr r0
     27c:	00000570 	andeq	r0, r0, r0, ror r5
     280:	0000028b 	andeq	r0, r0, fp, lsl #5
     284:	02500110 	subseq	r0, r0, #4
     288:	0f000074 	svceq	0x00000074
     28c:	00008040 	andeq	r8, r0, r0, asr #32
     290:	00000570 	andeq	r0, r0, r0, ror r5
     294:	000002a2 	andeq	r0, r0, r2, lsr #5
     298:	05500110 	ldrbeq	r0, [r0, #-272]	; 0xfffffef0
     29c:	00930003 	addseq	r0, r3, r3
     2a0:	480f0000 	stmdami	pc, {}	; <UNPREDICTABLE>
     2a4:	a0000080 	andge	r0, r0, r0, lsl #1
     2a8:	b7000005 	strlt	r0, [r0, -r5]
     2ac:	10000002 	andne	r0, r0, r2
     2b0:	40035001 	andmi	r5, r3, r1
     2b4:	0f002440 	svceq	0x00002440
     2b8:	00008050 	andeq	r8, r0, r0, asr r0
     2bc:	00000570 	andeq	r0, r0, r0, ror r5
     2c0:	000002cb 	andeq	r0, r0, fp, asr #5
     2c4:	02500110 	subseq	r0, r0, #4
     2c8:	14000074 	strne	r0, [r0], #-116	; 0xffffff8c
     2cc:	00008054 	andeq	r8, r0, r4, asr r0
     2d0:	000005ac 	andeq	r0, r0, ip, lsr #11
     2d4:	0080600f 	addeq	r6, r0, pc
     2d8:	00057000 	andeq	r7, r5, r0
     2dc:	0002eb00 	andeq	lr, r2, r0, lsl #22
     2e0:	50011000 	andpl	r1, r1, r0
     2e4:	93240305 			; <UNDEFINED> instruction: 0x93240305
     2e8:	0f000000 	svceq	0x00000000
     2ec:	00008068 	andeq	r8, r0, r8, rrx
     2f0:	00000564 	andeq	r0, r0, r4, ror #10
     2f4:	000002fe 	strdeq	r0, [r0], -lr
     2f8:	01500110 	cmpeq	r0, r0, lsl r1
     2fc:	8c0f0031 	stchi	0, cr0, [pc], {49}	; 0x31
     300:	70000080 	andvc	r0, r0, r0, lsl #1
     304:	36000005 	strcc	r0, [r0], -r5
     308:	10000003 	andne	r0, r0, r3
     30c:	03055001 	movweq	r5, #20481	; 0x5001
     310:	00009344 	andeq	r9, r0, r4, asr #6
     314:	05510110 	ldrbeq	r0, [r1, #-272]	; 0xfffffef0
     318:	00933803 	addseq	r3, r3, r3, lsl #16
     31c:	52011000 	andpl	r1, r1, #0, 0
     320:	94c80305 	strbls	r0, [r8], #773	; 0x305
     324:	01100000 	tsteq	r0, r0
     328:	103c0153 	eorsne	r0, ip, r3, asr r1
     32c:	05007d02 	streq	r7, [r0, #-3330]	; 0xfffff2fe
     330:	00935803 	addseq	r5, r3, r3, lsl #16
     334:	90140000 	andsls	r0, r4, r0
     338:	88000080 	stmdahi	r0, {r7}
     33c:	0f000005 	svceq	0x00000005
     340:	0000809c 	muleq	r0, ip, r0
     344:	00000570 	andeq	r0, r0, r0, ror r5
     348:	00000353 	andeq	r0, r0, r3, asr r3
     34c:	02500110 	subseq	r0, r0, #4
     350:	0f000074 	svceq	0x00000074
     354:	000080a8 	andeq	r8, r0, r8, lsr #1
     358:	00000570 	andeq	r0, r0, r0, ror r5
     35c:	00000370 	andeq	r0, r0, r0, ror r3
     360:	05500110 	ldrbeq	r0, [r0, #-272]	; 0xfffffef0
     364:	00937403 	addseq	r7, r3, r3, lsl #8
     368:	51011000 	mrspl	r1, (UNDEF: 1)
     36c:	00007602 	andeq	r7, r0, r2, lsl #12
     370:	0081640f 	addeq	r6, r1, pc, lsl #8
     374:	0005b800 	andeq	fp, r5, r0, lsl #16
     378:	00038900 	andeq	r8, r3, r0, lsl #18
     37c:	50011000 	andpl	r1, r1, r0
     380:	01103101 	tsteq	r0, r1, lsl #2
     384:	40080251 	andmi	r0, r8, r1, asr r2
     388:	81701400 	cmnhi	r0, r0, lsl #8
     38c:	057c0000 	ldrbeq	r0, [ip, #-0]!
     390:	8c0f0000 	stchi	0, cr0, [pc], {-0}
     394:	70000081 	andvc	r0, r0, r1, lsl #1
     398:	cb000005 	blgt	3b4 <__code_start__-0x7c4c>
     39c:	10000003 	andne	r0, r0, r3
     3a0:	03055001 	movweq	r5, #20481	; 0x5001
     3a4:	000093c8 	andeq	r9, r0, r8, asr #7
     3a8:	05510110 	ldrbeq	r0, [r1, #-272]	; 0xfffffef0
     3ac:	00933803 	addseq	r3, r3, r3, lsl #16
     3b0:	52011000 	andpl	r1, r1, #0, 0
     3b4:	94c80305 	strbls	r0, [r8], #773	; 0x305
     3b8:	01100000 	tsteq	r0, r0
     3bc:	24080253 	strcs	r0, [r8], #-595	; 0xfffffdad
     3c0:	007d0210 	rsbseq	r0, sp, r0, lsl r2
     3c4:	94000305 	strls	r0, [r0], #-773	; 0xfffffcfb
     3c8:	14000000 	strne	r0, [r0], #-0
     3cc:	00008190 	muleq	r0, r0, r1
     3d0:	00000588 	andeq	r0, r0, r8, lsl #11
     3d4:	00819414 	addeq	r9, r1, r4, lsl r4
     3d8:	0005c400 	andeq	ip, r5, r0, lsl #8
     3dc:	819c0f00 	orrshi	r0, ip, r0, lsl #30
     3e0:	05640000 	strbeq	r0, [r4, #-0]!
     3e4:	03f00000 	mvnseq	r0, #0, 0
     3e8:	01100000 	tsteq	r0, r0
     3ec:	00310150 	eorseq	r0, r1, r0, asr r1
     3f0:	0081a80f 	addeq	sl, r1, pc, lsl #16
     3f4:	00057000 	andeq	r7, r5, r0
     3f8:	00040700 	andeq	r0, r4, r0, lsl #14
     3fc:	50011000 	andpl	r1, r1, r0
     400:	92f80305 	rscsls	r0, r8, #335544320	; 0x14000000
     404:	0f000000 	svceq	0x00000000
     408:	000081b4 			; <UNDEFINED> instruction: 0x000081b4
     40c:	00000570 	andeq	r0, r0, r0, ror r5
     410:	00000424 	andeq	r0, r0, r4, lsr #8
     414:	05500110 	ldrbeq	r0, [r0, #-272]	; 0xfffffef0
     418:	00941803 	addseq	r1, r4, r3, lsl #16
     41c:	51011000 	mrspl	r1, (UNDEF: 1)
     420:	00007402 	andeq	r7, r0, r2, lsl #8
     424:	0081d80f 	addeq	sp, r1, pc, lsl #16
     428:	00057000 	andeq	r7, r5, r0
     42c:	00045d00 	andeq	r5, r4, r0, lsl #26
     430:	50011000 	andpl	r1, r1, r0
     434:	93440305 	movtls	r0, #17157	; 0x4305
     438:	01100000 	tsteq	r0, r0
     43c:	38030551 	stmdacc	r3, {r0, r4, r6, r8, sl}
     440:	10000093 	mulne	r0, r3, r0
     444:	03055201 	movweq	r5, #20993	; 0x5201
     448:	000094c8 	andeq	r9, r0, r8, asr #9
     44c:	02530110 	subseq	r0, r3, #4
     450:	02102a08 	andseq	r2, r0, #8, 20	; 0x8000
     454:	0305007d 	movweq	r0, #20605	; 0x507d
     458:	00009430 	andeq	r9, r0, r0, lsr r4
     45c:	81dc1400 	bicshi	r1, ip, r0, lsl #8
     460:	05880000 	streq	r0, [r8]
     464:	e8140000 	ldmda	r4, {}	; <UNPREDICTABLE>
     468:	7c000081 	stcvc	0, cr0, [r0], {129}	; 0x81
     46c:	0f000005 	svceq	0x00000005
     470:	00008204 	andeq	r8, r0, r4, lsl #4
     474:	00000570 	andeq	r0, r0, r0, ror r5
     478:	000004a8 	andeq	r0, r0, r8, lsr #9
     47c:	05500110 	ldrbeq	r0, [r0, #-272]	; 0xfffffef0
     480:	00944c03 	addseq	r4, r4, r3, lsl #24
     484:	51011000 	mrspl	r1, (UNDEF: 1)
     488:	93380305 	teqls	r8, #335544320	; 0x14000000
     48c:	01100000 	tsteq	r0, r0
     490:	c8030552 	stmdagt	r3, {r1, r4, r6, r8, sl}
     494:	10000094 	mulne	r0, r4, r0
     498:	08025301 	stmdaeq	r2, {r0, r8, r9, ip, lr}
     49c:	7d02102c 	stcvc	0, cr1, [r2, #-176]	; 0xffffff50
     4a0:	8c030500 	cfstr32hi	mvfx0, [r3], {-0}
     4a4:	00000094 	muleq	r0, r4, r0
     4a8:	00820814 	addeq	r0, r2, r4, lsl r8
     4ac:	00058800 	andeq	r8, r5, r0, lsl #16
     4b0:	82100f00 	andshi	r0, r0, #0, 30
     4b4:	05640000 	strbeq	r0, [r4, #-0]!
     4b8:	04c40000 	strbeq	r0, [r4], #0
     4bc:	01100000 	tsteq	r0, r0
     4c0:	00310150 	eorseq	r0, r1, r0, asr r1
     4c4:	00821c14 	addeq	r1, r2, r4, lsl ip
     4c8:	00057c00 	andeq	r7, r5, r0, lsl #24
     4cc:	82380f00 	eorshi	r0, r8, #0, 30
     4d0:	05700000 	ldrbeq	r0, [r0, #-0]!
     4d4:	05060000 	streq	r0, [r6, #-0]
     4d8:	01100000 	tsteq	r0, r0
     4dc:	4c030550 	cfstr32mi	mvfx0, [r3], {80}	; 0x50
     4e0:	10000094 	mulne	r0, r4, r0
     4e4:	03055101 	movweq	r5, #20737	; 0x5101
     4e8:	00009338 	andeq	r9, r0, r8, lsr r3
     4ec:	05520110 	ldrbeq	r0, [r2, #-272]	; 0xfffffef0
     4f0:	0094c803 	addseq	ip, r4, r3, lsl #16
     4f4:	53011000 	movwpl	r1, #4096	; 0x1000
     4f8:	102d0802 	eorne	r0, sp, r2, lsl #16
     4fc:	05007d02 	streq	r7, [r0, #-3330]	; 0xfffff2fe
     500:	00949c03 	addseq	r9, r4, r3, lsl #24
     504:	3c140000 	ldccc	0, cr0, [r4], {-0}
     508:	88000082 	stmdahi	r0, {r1, r7}
     50c:	0f000005 	svceq	0x00000005
     510:	00008244 	andeq	r8, r0, r4, asr #4
     514:	00000570 	andeq	r0, r0, r0, ror r5
     518:	00000526 	andeq	r0, r0, r6, lsr #10
     51c:	05500110 	ldrbeq	r0, [r0, #-272]	; 0xfffffef0
     520:	0092f803 	addseq	pc, r2, r3, lsl #16
     524:	4c0f0000 	stcmi	0, cr0, [pc], {-0}
     528:	70000082 	andvc	r0, r0, r2, lsl #1
     52c:	3d000005 	stccc	0, cr0, [r0, #-20]	; 0xffffffec
     530:	10000005 	andne	r0, r0, r5
     534:	03055001 	movweq	r5, #20481	; 0x5001
     538:	000094b4 			; <UNDEFINED> instruction: 0x000094b4
     53c:	82501400 	subshi	r1, r0, #0, 8
     540:	05880000 	streq	r0, [r8]
     544:	15000000 	strne	r0, [r0, #-0]
     548:	00a81604 	adceq	r1, r8, r4, lsl #12
     54c:	05590000 	ldrbeq	r0, [r9, #-0]
     550:	2c170000 	ldccs	0, cr0, [r7], {-0}
     554:	07000000 	streq	r0, [r0, -r0]
     558:	05490800 	strbeq	r0, [r9, #-2048]	; 0xfffff800
     55c:	04070000 	streq	r0, [r7], #-0
     560:	0000002c 	andeq	r0, r0, ip, lsr #32
     564:	0000f018 	andeq	pc, r0, r8, lsl r0	; <UNPREDICTABLE>
     568:	0000f000 	andeq	pc, r0, r0
     56c:	07740200 	ldrbeq	r0, [r4, -r0, lsl #4]!
     570:	00025718 	andeq	r5, r2, r8, lsl r7
     574:	00025700 	andeq	r5, r2, r0, lsl #14
     578:	06280200 	strteq	r0, [r8], -r0, lsl #4
     57c:	00006018 	andeq	r6, r0, r8, lsl r0
     580:	00006000 	andeq	r6, r0, r0
     584:	061d0200 	ldreq	r0, [sp], -r0, lsl #4
     588:	00003a18 	andeq	r3, r0, r8, lsl sl
     58c:	00003a00 	andeq	r3, r0, r0, lsl #20
     590:	06670200 	strbteq	r0, [r7], -r0, lsl #4
     594:	00002218 	andeq	r2, r0, r8, lsl r2
     598:	00002200 	andeq	r2, r0, r0, lsl #4
     59c:	06390200 	ldrteq	r0, [r9], -r0, lsl #4
     5a0:	00011318 	andeq	r1, r1, r8, lsl r3
     5a4:	00011300 	andeq	r1, r1, r0, lsl #6
     5a8:	067c0200 	ldrbteq	r0, [ip], -r0, lsl #4
     5ac:	00010218 	andeq	r0, r1, r8, lsl r2
     5b0:	00010200 	andeq	r0, r1, r0, lsl #4
     5b4:	07800200 	streq	r0, [r0, r0, lsl #4]
     5b8:	00000018 	andeq	r0, r0, r8, lsl r0
     5bc:	00000000 	andeq	r0, r0, r0
     5c0:	07750200 	ldrbeq	r0, [r5, -r0, lsl #4]!
     5c4:	00001018 	andeq	r1, r0, r8, lsl r0
     5c8:	00001000 	andeq	r1, r0, r0
     5cc:	06840200 	streq	r0, [r4], r0, lsl #4
     5d0:	00074100 	andeq	r4, r7, r0, lsl #2
     5d4:	2f000400 	svccs	0x00000400
     5d8:	04000001 	streq	r0, [r0], #-1
     5dc:	00012a01 	andeq	r2, r1, r1, lsl #20
     5e0:	02290c00 	eoreq	r0, r9, #0, 24
     5e4:	00bc0000 	adcseq	r0, ip, r0
     5e8:	829c0000 	addshi	r0, ip, #0, 0
     5ec:	02fc0000 	rscseq	r0, ip, #0, 0
     5f0:	02b70000 	adcseq	r0, r7, #0, 0
     5f4:	04020000 	streq	r0, [r2], #-0
     5f8:	746e6905 	strbtvc	r6, [lr], #-2309	; 0xfffff6fb
     5fc:	07040300 	streq	r0, [r4, -r0, lsl #6]
     600:	00000095 	muleq	r0, r5, r0
     604:	2e060103 	adfcss	f0, f6, f3
     608:	03000000 	movweq	r0, #0
     60c:	00f80502 	rscseq	r0, r8, r2, lsl #10
     610:	04030000 	streq	r0, [r3], #-0
     614:	0000a705 	andeq	sl, r0, r5, lsl #14
     618:	05080300 	streq	r0, [r8, #-768]	; 0xfffffd00
     61c:	000000a2 	andeq	r0, r0, r2, lsr #1
     620:	2c080103 	stfcss	f0, [r8], {3}
     624:	03000000 	movweq	r0, #0
     628:	004d0702 	subeq	r0, sp, r2, lsl #14
     62c:	04030000 	streq	r0, [r3], #-0
     630:	00009007 	andeq	r9, r0, r7
     634:	07080300 	streq	r0, [r8, -r0, lsl #6]
     638:	0000008b 	andeq	r0, r0, fp, lsl #1
     63c:	00002504 	andeq	r2, r0, r4, lsl #10
     640:	00007a00 	andeq	r7, r0, r0, lsl #20
     644:	00250500 	eoreq	r0, r5, r0, lsl #10
     648:	06000000 	streq	r0, [r0], -r0
     64c:	000000b0 	strheq	r0, [r0], -r0	; <UNPREDICTABLE>
     650:	860e1c02 	strhi	r1, [lr], -r2, lsl #24
     654:	07000000 	streq	r0, [r0, -r0]
     658:	00006b04 	andeq	r6, r0, r4, lsl #22
     65c:	00250400 	eoreq	r0, r5, r0, lsl #8
     660:	009b0000 	addseq	r0, fp, r0
     664:	9b050000 	blls	14066c <__bss_end__+0x136a8c>
     668:	00000000 	andeq	r0, r0, r0
     66c:	00a80407 	adceq	r0, r8, r7, lsl #8
     670:	01030000 	mrseq	r0, (UNDEF: 3)
     674:	00003508 	andeq	r3, r0, r8, lsl #10
     678:	00a10800 	adceq	r0, r1, r0, lsl #16
     67c:	f4060000 	vst4.8	{d0-d3}, [r6], r0
     680:	02000002 	andeq	r0, r0, #2, 0
     684:	00b90e21 	adcseq	r0, r9, r1, lsr #28
     688:	04070000 	streq	r0, [r7], #-0
     68c:	0000008c 	andeq	r0, r0, ip, lsl #1
     690:	00023306 	andeq	r3, r2, r6, lsl #6
     694:	0d040100 	stfeqs	f0, [r4, #-0]
     698:	000000a1 	andeq	r0, r0, r1, lsr #1
     69c:	0001fc09 	andeq	pc, r1, r9, lsl #24
     6a0:	0c070100 	stfeqs	f0, [r7], {-0}
     6a4:	00000025 	andeq	r0, r0, r5, lsr #32
     6a8:	97d40305 	ldrbls	r0, [r4, r5, lsl #6]
     6ac:	240a0000 	strcs	r0, [sl], #-0
     6b0:	01000002 	tsteq	r0, r2
     6b4:	002c0a0a 	eoreq	r0, ip, sl, lsl #20
     6b8:	03050000 	movweq	r0, #20480	; 0x5000
     6bc:	00009bd8 	ldrdeq	r9, [r0], -r8
     6c0:	1d040803 	stcne	8, cr0, [r4, #-12]
     6c4:	0b000002 	bleq	6d4 <__code_start__-0x792c>
     6c8:	01020c04 	tsteq	r2, r4, lsl #24
     6cc:	77010000 	strvc	r0, [r1, -r0]
     6d0:	0000f607 	andeq	pc, r0, r7, lsl #12
     6d4:	00857000 	addeq	r7, r5, r0
     6d8:	00002800 	andeq	r2, r0, r0, lsl #16
     6dc:	5a9c0100 	bpl	fe700ae4 <__bss_end__+0xfe6f6f04>
     6e0:	0d000001 	stceq	0, cr0, [r0, #-4]
     6e4:	00000078 	andeq	r0, r0, r8, ror r0
     6e8:	0000016a 	andeq	r0, r0, sl, ror #2
     6ec:	96580305 	ldrbls	r0, [r8], -r5, lsl #6
     6f0:	880e0000 	stmdahi	lr, {}	; <UNPREDICTABLE>
     6f4:	20000085 	andcs	r0, r0, r5, lsl #1
     6f8:	50000007 	andpl	r0, r0, r7
     6fc:	0f000001 	svceq	0x00000001
     700:	03055001 	movweq	r5, #20481	; 0x5001
     704:	000095f0 	strdeq	r9, [r0], -r0
     708:	0551010f 	ldrbeq	r0, [r1, #-271]	; 0xfffffef1
     70c:	0094d003 	addseq	sp, r4, r3
     710:	52010f00 	andpl	r0, r1, #0, 30
     714:	96580305 	ldrbls	r0, [r8], -r5, lsl #6
     718:	010f0000 	mrseq	r0, CPSR
     71c:	78080253 	stmdavc	r8, {r0, r1, r4, r6, r9}
     720:	858c1000 	strhi	r1, [ip]
     724:	072c0000 	streq	r0, [ip, -r0]!
     728:	11000000 	mrsne	r0, (UNDEF: 0)
     72c:	000000a8 	andeq	r0, r0, r8, lsr #1
     730:	0000016a 	andeq	r0, r0, sl, ror #2
     734:	00002c12 	andeq	r2, r0, r2, lsl ip
     738:	08001000 	stmdaeq	r0, {ip}
     73c:	0000015a 	andeq	r0, r0, sl, asr r1
     740:	00001013 	andeq	r1, r0, r3, lsl r0
     744:	066e0100 	strbteq	r0, [lr], -r0, lsl #2
     748:	00008548 	andeq	r8, r0, r8, asr #10
     74c:	00000028 	andeq	r0, r0, r8, lsr #32
     750:	01cd9c01 	biceq	r9, sp, r1, lsl #24
     754:	780d0000 	stmdavc	sp, {}	; <UNPREDICTABLE>
     758:	dd000000 	stcle	0, cr0, [r0, #-0]
     75c:	05000001 	streq	r0, [r0, #-1]
     760:	00964c03 	addseq	r4, r6, r3, lsl #24
     764:	85600e00 	strbhi	r0, [r0, #-3584]!	; 0xfffff200
     768:	07200000 	streq	r0, [r0, -r0]!
     76c:	01c30000 	biceq	r0, r3, r0
     770:	010f0000 	mrseq	r0, CPSR
     774:	f0030550 			; <UNDEFINED> instruction: 0xf0030550
     778:	0f000095 	svceq	0x00000095
     77c:	03055101 	movweq	r5, #20737	; 0x5101
     780:	000094d0 	ldrdeq	r9, [r0], -r0
     784:	0552010f 	ldrbeq	r0, [r2, #-271]	; 0xfffffef1
     788:	00964c03 	addseq	r4, r6, r3, lsl #24
     78c:	53010f00 	movwpl	r0, #7936	; 0x1f00
     790:	006f0802 	rsbeq	r0, pc, r2, lsl #16
     794:	00856410 	addeq	r6, r5, r0, lsl r4
     798:	00072c00 	andeq	r2, r7, r0, lsl #24
     79c:	a8110000 	ldmdage	r1, {}	; <UNPREDICTABLE>
     7a0:	dd000000 	stcle	0, cr0, [r0, #-0]
     7a4:	12000001 	andne	r0, r0, #1, 0
     7a8:	0000002c 	andeq	r0, r0, ip, lsr #32
     7ac:	cd080009 	stcgt	0, cr0, [r8, #-36]	; 0xffffffdc
     7b0:	13000001 	movwne	r0, #1
     7b4:	00000113 	andeq	r0, r0, r3, lsl r1
     7b8:	c4066201 	strgt	r6, [r6], #-513	; 0xfffffdff
     7bc:	84000084 	strhi	r0, [r0], #-132	; 0xffffff7c
     7c0:	01000000 	mrseq	r0, (UNDEF: 0)
     7c4:	0002bf9c 	muleq	r2, ip, pc	; <UNPREDICTABLE>
     7c8:	02491400 	subeq	r1, r9, #0, 8
     7cc:	62010000 	andvs	r0, r1, #0, 0
     7d0:	00002c26 	andeq	r2, r0, r6, lsr #24
     7d4:	00015300 	andeq	r5, r1, r0, lsl #6
     7d8:	00014900 	andeq	r4, r1, r0, lsl #18
     7dc:	00780d00 	rsbseq	r0, r8, r0, lsl #26
     7e0:	02cf0000 	sbceq	r0, pc, #0, 0
     7e4:	03050000 	movweq	r0, #20480	; 0x5000
     7e8:	00009634 	andeq	r9, r0, r4, lsr r6
     7ec:	0006af15 	andeq	sl, r6, r5, lsl pc
     7f0:	0084e800 	addeq	lr, r4, r0, lsl #16
     7f4:	00600100 	rsbeq	r0, r0, r0, lsl #2
     7f8:	65010000 	strvs	r0, [r1, #-0]
     7fc:	0002500c 	andeq	r5, r2, ip
     800:	06ca1600 	strbeq	r1, [sl], r0, lsl #12
     804:	019c0000 	orrseq	r0, ip, r0
     808:	019a0000 	orrseq	r0, sl, r0
     80c:	c0160000 	andsgt	r0, r6, r0
     810:	b4000006 	strlt	r0, [r0], #-6
     814:	b0000001 	andlt	r0, r0, r1
     818:	17000001 	strne	r0, [r0, -r1]
     81c:	00000060 	andeq	r0, r0, r0, rrx
     820:	85000e00 	strhi	r0, [r0, #-3584]	; 0xfffff200
     824:	07200000 	streq	r0, [r0, -r0]!
     828:	02730000 	rsbseq	r0, r3, #0, 0
     82c:	010f0000 	mrseq	r0, CPSR
     830:	b0030550 	andlt	r0, r3, r0, asr r5
     834:	0f000095 	svceq	0x00000095
     838:	f3085101 	vrhadd.u8	d5, d8, d1
     83c:	03235001 			; <UNDEFINED> instruction: 0x03235001
     840:	001afc09 	andseq	pc, sl, r9, lsl #24
     844:	00850c10 	addeq	r0, r5, r0, lsl ip
     848:	00073800 	andeq	r3, r7, r0, lsl #16
     84c:	85280e00 	strhi	r0, [r8, #-3584]!	; 0xfffff200
     850:	07200000 	streq	r0, [r0, -r0]!
     854:	02b50000 	adcseq	r0, r5, #0, 0
     858:	010f0000 	mrseq	r0, CPSR
     85c:	b4030550 	strlt	r0, [r3], #-1360	; 0xfffffab0
     860:	0f000095 	svceq	0x00000095
     864:	03055101 	movweq	r5, #20737	; 0x5101
     868:	000094d0 	ldrdeq	r9, [r0], -r0
     86c:	0552010f 	ldrbeq	r0, [r2, #-271]	; 0xfffffef1
     870:	00963403 	addseq	r3, r6, r3, lsl #8
     874:	53010f00 	movwpl	r0, #7936	; 0x1f00
     878:	0f630802 	svceq	0x00630802
     87c:	05007d02 	streq	r7, [r0, #-3330]	; 0xfffff2fe
     880:	0095e803 	addseq	lr, r5, r3, lsl #16
     884:	2c100000 	ldccs	0, cr0, [r0], {-0}
     888:	2c000085 	stccs	0, cr0, [r0], {133}	; 0x85
     88c:	00000007 	andeq	r0, r0, r7
     890:	0000a811 	andeq	sl, r0, r1, lsl r8
     894:	0002cf00 	andeq	ip, r2, r0, lsl #30
     898:	002c1200 	eoreq	r1, ip, r0, lsl #4
     89c:	00160000 	andseq	r0, r6, r0
     8a0:	0002bf08 	andeq	fp, r2, r8, lsl #30
     8a4:	01ef1300 	mvneq	r1, r0, lsl #6
     8a8:	56010000 	strpl	r0, [r1], -r0
     8ac:	00847806 	addeq	r7, r4, r6, lsl #16
     8b0:	00004c00 	andeq	r4, r0, r0, lsl #24
     8b4:	2b9c0100 	blcs	fe700cbc <__bss_end__+0xfe6f70dc>
     8b8:	15000003 	strne	r0, [r0, #-3]
     8bc:	000006af 	andeq	r0, r0, pc, lsr #13
     8c0:	00008498 	muleq	r0, r8, r4
     8c4:	00004801 	andeq	r4, r0, r1, lsl #16
     8c8:	0c5a0100 	ldfeqe	f0, [sl], {-0}
     8cc:	00000317 	andeq	r0, r0, r7, lsl r3
     8d0:	0006ca16 	andeq	ip, r6, r6, lsl sl
     8d4:	0001d600 	andeq	sp, r1, r0, lsl #12
     8d8:	0001d400 	andeq	sp, r1, r0, lsl #8
     8dc:	06c01800 	strbeq	r1, [r0], r0, lsl #16
     8e0:	48170000 	ldmdami	r7, {}	; <UNPREDICTABLE>
     8e4:	00000000 	andeq	r0, r0, r0
     8e8:	0084b019 	addeq	fp, r4, r9, lsl r0
     8ec:	00072000 	andeq	r2, r7, r0
     8f0:	50010f00 	andpl	r0, r1, r0, lsl #30
     8f4:	95b00305 	ldrls	r0, [r0, #773]!	; 0x305
     8f8:	00000000 	andeq	r0, r0, r0
     8fc:	0000000c 	andeq	r0, r0, ip
     900:	07420100 	strbeq	r0, [r2, -r0, lsl #2]
     904:	000000f6 	strdeq	r0, [r0], -r6
     908:	0000836c 	andeq	r8, r0, ip, ror #6
     90c:	0000010c 	andeq	r0, r0, ip, lsl #2
     910:	04fb9c01 	ldrbteq	r9, [fp], #3073	; 0xc01
     914:	42140000 	andsmi	r0, r4, #0, 0
     918:	01000002 	tsteq	r0, r2
     91c:	002c2042 	eoreq	r2, ip, r2, asr #32
     920:	01fe0000 	mvnseq	r0, r0
     924:	01ea0000 	mvneq	r0, r0
     928:	0b140000 	bleq	500930 <__bss_end__+0x4f6d50>
     92c:	01000002 	tsteq	r0, r2
     930:	002c3142 	eoreq	r3, ip, r2, asr #2
     934:	02990000 	addseq	r0, r9, #0, 0
     938:	02830000 	addeq	r0, r3, #0, 0
     93c:	780d0000 	stmdavc	sp, {}	; <UNPREDICTABLE>
     940:	0b000000 	bleq	948 <__code_start__-0x76b8>
     944:	05000005 	streq	r0, [r0, #-5]
     948:	00962403 	addseq	r2, r6, r3, lsl #8
     94c:	06de1a00 	ldrbeq	r1, [lr], r0, lsl #20
     950:	838c0000 	orrhi	r0, ip, #0, 0
     954:	8c030000 	stchi	0, cr0, [r3], {-0}
     958:	04000083 	streq	r0, [r0], #-131	; 0xffffff7d
     95c:	01000000 	mrseq	r0, (UNDEF: 0)
     960:	03a30545 			; <UNDEFINED> instruction: 0x03a30545
     964:	ef160000 	svc	0x00160000
     968:	2d000006 	stccs	0, cr0, [r0, #-24]	; 0xffffffe8
     96c:	2b000003 	blcs	980 <__code_start__-0x7680>
     970:	00000003 	andeq	r0, r0, r3
     974:	0006fa1a 	andeq	pc, r6, sl, lsl sl	; <UNPREDICTABLE>
     978:	0083a800 	addeq	sl, r3, r0, lsl #16
     97c:	83a80000 			; <UNDEFINED> instruction: 0x83a80000
     980:	00040000 	andeq	r0, r4, r0
     984:	4a010000 	bmi	4098c <__bss_end__+0x36dac>
     988:	0003d705 	andeq	sp, r3, r5, lsl #14
     98c:	07151600 	ldreq	r1, [r5, -r0, lsl #12]
     990:	03420000 	movteq	r0, #8192	; 0x2000
     994:	03400000 	movteq	r0, #0
     998:	0b160000 	bleq	5809a0 <__bss_end__+0x576dc0>
     99c:	57000007 	strpl	r0, [r0, -r7]
     9a0:	55000003 	strpl	r0, [r0, #-3]
     9a4:	00000003 	andeq	r0, r0, r3
     9a8:	0083d80e 	addeq	sp, r3, lr, lsl #16
     9ac:	00072000 	andeq	r2, r7, r0
     9b0:	00041000 	andeq	r1, r4, r0
     9b4:	50010f00 	andpl	r0, r1, r0, lsl #30
     9b8:	93440305 	movtls	r0, #17157	; 0x4305
     9bc:	010f0000 	mrseq	r0, CPSR
     9c0:	d0030551 	andle	r0, r3, r1, asr r5
     9c4:	0f000094 	svceq	0x00000094
     9c8:	03055201 	movweq	r5, #20993	; 0x5201
     9cc:	00009624 	andeq	r9, r0, r4, lsr #12
     9d0:	0253010f 	subseq	r0, r3, #-1073741821	; 0xc0000003
     9d4:	020f4308 	andeq	r4, pc, #8, 6	; 0x20000000
     9d8:	0305007d 	movweq	r0, #20605	; 0x507d
     9dc:	00009534 	andeq	r9, r0, r4, lsr r5
     9e0:	83dc1000 	bicshi	r1, ip, #0, 0
     9e4:	072c0000 	streq	r0, [ip, -r0]!
     9e8:	e0100000 	ands	r0, r0, r0
     9ec:	38000083 	stmdacc	r0, {r0, r1, r7}
     9f0:	0e000007 	cdpeq	0, 0, cr0, cr0, cr7, {0}
     9f4:	000083fc 	strdeq	r8, [r0], -ip
     9f8:	00000720 	andeq	r0, r0, r0, lsr #14
     9fc:	0000045b 	andeq	r0, r0, fp, asr r4
     a00:	0550010f 	ldrbeq	r0, [r0, #-271]	; 0xfffffef1
     a04:	0094dc03 	addseq	sp, r4, r3, lsl #24
     a08:	51010f00 	tstpl	r1, r0, lsl #30
     a0c:	94d00305 	ldrbls	r0, [r0], #773	; 0x305
     a10:	010f0000 	mrseq	r0, CPSR
     a14:	24030552 	strcs	r0, [r3], #-1362	; 0xfffffaae
     a18:	0f000096 	svceq	0x00000096
     a1c:	08025301 	stmdaeq	r2, {r0, r8, r9, ip, lr}
     a20:	7d020f44 	stcvc	15, cr0, [r2, #-272]	; 0xfffffef0
     a24:	18030500 	stmdane	r3, {r8, sl}
     a28:	00000095 	muleq	r0, r5, r0
     a2c:	00840010 	addeq	r0, r4, r0, lsl r0
     a30:	00072c00 	andeq	r2, r7, r0, lsl #24
     a34:	84041000 	strhi	r1, [r4], #-0
     a38:	07380000 	ldreq	r0, [r8, -r0]!
     a3c:	200e0000 	andcs	r0, lr, r0
     a40:	20000084 	andcs	r0, r0, r4, lsl #1
     a44:	a6000007 	strge	r0, [r0], -r7
     a48:	0f000004 	svceq	0x00000004
     a4c:	03055001 	movweq	r5, #20481	; 0x5001
     a50:	0000954c 	andeq	r9, r0, ip, asr #10
     a54:	0551010f 	ldrbeq	r0, [r1, #-271]	; 0xfffffef1
     a58:	0094d003 	addseq	sp, r4, r3
     a5c:	52010f00 	andpl	r0, r1, #0, 30
     a60:	96240305 	strtls	r0, [r4], -r5, lsl #6
     a64:	010f0000 	mrseq	r0, CPSR
     a68:	45080253 	strmi	r0, [r8, #-595]	; 0xfffffdad
     a6c:	007d020f 	rsbseq	r0, sp, pc, lsl #4
     a70:	95800305 	strls	r0, [r0, #773]	; 0x305
     a74:	10000000 	andne	r0, r0, r0
     a78:	00008424 	andeq	r8, r0, r4, lsr #8
     a7c:	0000072c 	andeq	r0, r0, ip, lsr #14
     a80:	00842810 	addeq	r2, r4, r0, lsl r8
     a84:	00051000 	andeq	r1, r5, r0
     a88:	84480e00 	strbhi	r0, [r8], #-3584	; 0xfffff200
     a8c:	07200000 	streq	r0, [r0, -r0]!
     a90:	04f10000 	ldrbteq	r0, [r1], #0
     a94:	010f0000 	mrseq	r0, CPSR
     a98:	44030550 	strmi	r0, [r3], #-1360	; 0xfffffab0
     a9c:	0f000093 	svceq	0x00000093
     aa0:	03055101 	movweq	r5, #20737	; 0x5101
     aa4:	000094d0 	ldrdeq	r9, [r0], -r0
     aa8:	0552010f 	ldrbeq	r0, [r2, #-271]	; 0xfffffef1
     aac:	00962403 	addseq	r2, r6, r3, lsl #8
     ab0:	53010f00 	movwpl	r0, #7936	; 0x1f00
     ab4:	0f4a0802 	svceq	0x004a0802
     ab8:	05007d02 	streq	r7, [r0, #-3330]	; 0xfffff2fe
     abc:	00959403 	addseq	r9, r5, r3, lsl #8
     ac0:	4c100000 	ldcmi	0, cr0, [r0], {-0}
     ac4:	2c000084 	stccs	0, cr0, [r0], {132}	; 0x84
     ac8:	00000007 	andeq	r0, r0, r7
     acc:	0000a811 	andeq	sl, r0, r1, lsl r8
     ad0:	00050b00 	andeq	r0, r5, r0, lsl #22
     ad4:	002c1200 	eoreq	r1, ip, r0, lsl #4
     ad8:	000f0000 	andeq	r0, pc, r0
     adc:	0004fb08 	andeq	pc, r4, r8, lsl #22
     ae0:	00f00c00 	rscseq	r0, r0, r0, lsl #24
     ae4:	34010000 	strcc	r0, [r1], #-0
     ae8:	0000f607 	andeq	pc, r0, r7, lsl #12
     aec:	00829c00 	addeq	r9, r2, r0, lsl #24
     af0:	0000d000 	andeq	sp, r0, r0
     af4:	9a9c0100 	bls	fe700efc <__bss_end__+0xfe6f731c>
     af8:	14000006 	strne	r0, [r0], #-6
     afc:	00000242 	andeq	r0, r0, r2, asr #4
     b00:	2c183401 	cfldrscs	mvf3, [r8], {1}
     b04:	7c000000 	stcvc	0, cr0, [r0], {-0}
     b08:	6a000003 	bvs	b1c <__code_start__-0x74e4>
     b0c:	0d000003 	stceq	0, cr0, [r0, #-12]
     b10:	00000078 	andeq	r0, r0, r8, ror r0
     b14:	000006aa 	andeq	r0, r0, sl, lsr #13
     b18:	961c0305 	ldrls	r0, [ip], -r5, lsl #6
     b1c:	741b0000 	ldrvc	r0, [fp], #-0
     b20:	0100706d 	tsteq	r0, sp, rrx
     b24:	002c0e38 	eoreq	r0, ip, r8, lsr lr
     b28:	04030000 	streq	r0, [r3], #-0
     b2c:	03ff0000 	mvnseq	r0, #0, 0
     b30:	af150000 	svcge	0x00150000
     b34:	bc000006 	stclt	0, cr0, [r0], {6}
     b38:	02000082 	andeq	r0, r0, #130, 0	; 0x82
     b3c:	00000030 	andeq	r0, r0, r0, lsr r0
     b40:	960e3701 	strls	r3, [lr], -r1, lsl #14
     b44:	16000005 	strne	r0, [r0], -r5
     b48:	000006ca 	andeq	r0, r0, sl, asr #13
     b4c:	00000423 	andeq	r0, r0, r3, lsr #8
     b50:	00000421 	andeq	r0, r0, r1, lsr #8
     b54:	0006c016 	andeq	ip, r6, r6, lsl r0
     b58:	00043b00 	andeq	r3, r4, r0, lsl #22
     b5c:	00043700 	andeq	r3, r4, r0, lsl #14
     b60:	00301700 	eorseq	r1, r0, r0, lsl #14
     b64:	1a000000 	bne	b6c <__code_start__-0x7494>
     b68:	000006fa 	strdeq	r0, [r0], -sl
     b6c:	000082d4 	ldrdeq	r8, [r0], -r4
     b70:	0082d402 	addeq	sp, r2, r2, lsl #8
     b74:	00000000 	andeq	r0, r0, r0
     b78:	053a0100 	ldreq	r0, [sl, #-256]!	; 0xffffff00
     b7c:	000005ca 	andeq	r0, r0, sl, asr #11
     b80:	00071516 	andeq	r1, r7, r6, lsl r5
     b84:	00045d00 	andeq	r5, r4, r0, lsl #26
     b88:	00045b00 	andeq	r5, r4, r0, lsl #22
     b8c:	070b1600 	streq	r1, [fp, -r0, lsl #12]
     b90:	04730000 	ldrbteq	r0, [r3], #-0
     b94:	04710000 	ldrbteq	r0, [r1], #-0
     b98:	0e000000 	cdpeq	0, 0, cr0, cr0, cr0, {0}
     b9c:	00008300 	andeq	r8, r0, r0, lsl #6
     ba0:	00000720 	andeq	r0, r0, r0, lsr #14
     ba4:	00000603 	andeq	r0, r0, r3, lsl #12
     ba8:	0550010f 	ldrbeq	r0, [r0, #-271]	; 0xfffffef1
     bac:	00934403 	addseq	r4, r3, r3, lsl #8
     bb0:	51010f00 	tstpl	r1, r0, lsl #30
     bb4:	94d00305 	ldrbls	r0, [r0], #773	; 0x305
     bb8:	010f0000 	mrseq	r0, CPSR
     bbc:	1c030552 	cfstr32ne	mvfx0, [r3], {82}	; 0x52
     bc0:	0f000096 	svceq	0x00000096
     bc4:	08025301 	stmdaeq	r2, {r0, r8, r9, ip, lr}
     bc8:	7d020f35 	stcvc	15, cr0, [r2, #-212]	; 0xffffff2c
     bcc:	44030500 	strmi	r0, [r3], #-1280	; 0xfffffb00
     bd0:	00000095 	muleq	r0, r5, r0
     bd4:	00830410 	addeq	r0, r3, r0, lsl r4
     bd8:	00072c00 	andeq	r2, r7, r0, lsl #24
     bdc:	83081000 	movwhi	r1, #32768	; 0x8000
     be0:	07380000 	ldreq	r0, [r8, -r0]!
     be4:	240e0000 	strcs	r0, [lr], #-0
     be8:	20000083 	andcs	r0, r0, r3, lsl #1
     bec:	4e000007 	cdpmi	0, 0, cr0, cr0, cr7, {0}
     bf0:	0f000006 	svceq	0x00000006
     bf4:	03055001 	movweq	r5, #20481	; 0x5001
     bf8:	000094dc 	ldrdeq	r9, [r0], -ip
     bfc:	0551010f 	ldrbeq	r0, [r1, #-271]	; 0xfffffef1
     c00:	0094d003 	addseq	sp, r4, r3
     c04:	52010f00 	andpl	r0, r1, #0, 30
     c08:	961c0305 	ldrls	r0, [ip], -r5, lsl #6
     c0c:	010f0000 	mrseq	r0, CPSR
     c10:	36080253 			; <UNDEFINED> instruction: 0x36080253
     c14:	007d020f 	rsbseq	r0, sp, pc, lsl #4
     c18:	95180305 	ldrls	r0, [r8, #-773]	; 0xfffffcfb
     c1c:	10000000 	andne	r0, r0, r0
     c20:	00008328 	andeq	r8, r0, r8, lsr #6
     c24:	0000072c 	andeq	r0, r0, ip, lsr #14
     c28:	0083440e 	addeq	r4, r3, lr, lsl #8
     c2c:	00072000 	andeq	r2, r7, r0
     c30:	00069000 	andeq	r9, r6, r0
     c34:	50010f00 	andpl	r0, r1, r0, lsl #30
     c38:	93440305 	movtls	r0, #17157	; 0x4305
     c3c:	010f0000 	mrseq	r0, CPSR
     c40:	d0030551 	andle	r0, r3, r1, asr r5
     c44:	0f000094 	svceq	0x00000094
     c48:	03055201 	movweq	r5, #20993	; 0x5201
     c4c:	0000961c 	andeq	r9, r0, ip, lsl r6
     c50:	0253010f 	subseq	r0, r3, #-1073741821	; 0xc0000003
     c54:	020f3a08 	andeq	r3, pc, #8, 20	; 0x8000
     c58:	0305007d 	movweq	r0, #20605	; 0x507d
     c5c:	00009520 	andeq	r9, r0, r0, lsr #10
     c60:	83481000 	movthi	r1, #32768	; 0x8000
     c64:	072c0000 	streq	r0, [ip, -r0]!
     c68:	11000000 	mrsne	r0, (UNDEF: 0)
     c6c:	000000a8 	andeq	r0, r0, r8, lsr #1
     c70:	000006aa 	andeq	r0, r0, sl, lsr #13
     c74:	00002c12 	andeq	r2, r0, r2, lsl ip
     c78:	08000700 	stmdaeq	r0, {r8, r9, sl}
     c7c:	0000069a 	muleq	r0, sl, r6
     c80:	0002151c 	andeq	r1, r2, ip, lsl r5
     c84:	18220100 	stmdane	r2!, {r8}
     c88:	0000002c 	andeq	r0, r0, ip, lsr #32
     c8c:	0006de03 	andeq	sp, r6, r3, lsl #28
     c90:	00781d00 	rsbseq	r1, r8, r0, lsl #26
     c94:	2c292201 	sfmcs	f2, 4, [r9], #-4
     c98:	1d000000 	stcne	0, cr0, [r0, #-0]
     c9c:	2201006e 	andcs	r0, r1, #110, 0	; 0x6e
     ca0:	00002c35 	andeq	r2, r0, r5, lsr ip
     ca4:	00781e00 	rsbseq	r1, r8, r0, lsl #28
     ca8:	06aa0000 	strteq	r0, [sl], r0
     cac:	1c000000 	stcne	0, cr0, [r0], {-0}
     cb0:	00000203 	andeq	r0, r0, r3, lsl #4
     cb4:	2c181f01 	ldccs	15, cr1, [r8], {1}
     cb8:	03000000 	movweq	r0, #0
     cbc:	000006fa 	strdeq	r0, [r0], -sl
     cc0:	0100781d 	tsteq	r0, sp, lsl r8
     cc4:	002c291f 	eoreq	r2, ip, pc, lsl r9
     cc8:	1c000000 	stcne	0, cr0, [r0], {-0}
     ccc:	000001e4 	andeq	r0, r0, r4, ror #3
     cd0:	2c181901 			; <UNDEFINED> instruction: 0x2c181901
     cd4:	03000000 	movweq	r0, #0
     cd8:	00000720 	andeq	r0, r0, r0, lsr #14
     cdc:	0100781d 	tsteq	r0, sp, lsl r8
     ce0:	002c2c19 	eoreq	r2, ip, r9, lsl ip
     ce4:	6e1d0000 	cdpvs	0, 1, cr0, cr13, cr0, {0}
     ce8:	38190100 	ldmdacc	r9, {r8}
     cec:	0000002c 	andeq	r0, r0, ip, lsr #32
     cf0:	02571f00 	subseq	r1, r7, #0, 30
     cf4:	02570000 	subseq	r0, r7, #0, 0
     cf8:	28020000 	stmdacs	r2, {}	; <UNPREDICTABLE>
     cfc:	003a1f06 	eorseq	r1, sl, r6, lsl #30
     d00:	003a0000 	eorseq	r0, sl, r0
     d04:	67020000 	strvs	r0, [r2, -r0]
     d08:	00601f06 	rsbeq	r1, r0, r6, lsl #30
     d0c:	00600000 	rsbeq	r0, r0, r0
     d10:	1d020000 	stcne	0, cr0, [r2, #-0]
     d14:	019d0006 	orrseq	r0, sp, r6
     d18:	00040000 	andeq	r0, r4, r0
     d1c:	000002f3 	strdeq	r0, [r0], -r3
     d20:	012a0104 			; <UNDEFINED> instruction: 0x012a0104
     d24:	720c0000 	andvc	r0, ip, #0, 0
     d28:	8c000002 	stchi	0, cr0, [r0], {2}
     d2c:	98000002 	stmdals	r0, {r1}
     d30:	58000085 	stmdapl	r0, {r0, r2, r7}
     d34:	89000000 	stmdbhi	r0, {}	; <UNPREDICTABLE>
     d38:	02000005 	andeq	r0, r0, #5, 0
     d3c:	0000025e 	andeq	r0, r0, lr, asr r2
     d40:	311b2802 	tstcc	fp, r2, lsl #16
     d44:	03000000 	movweq	r0, #0
     d48:	00000282 	andeq	r0, r0, r2, lsl #5
     d4c:	48000404 	stmdami	r0, {r2, sl}
     d50:	04000000 	streq	r0, [r0], #-0
     d54:	0000026d 	andeq	r0, r0, sp, ror #4
     d58:	00000048 	andeq	r0, r0, r8, asr #32
     d5c:	04050000 	streq	r0, [r5], #-0
     d60:	00028402 	andeq	r8, r2, r2, lsl #8
     d64:	18630200 	stmdane	r3!, {r9}^
     d68:	00000025 	andeq	r0, r0, r5, lsr #32
     d6c:	69050406 	stmdbvs	r5, {r1, r2, sl}
     d70:	0700746e 	streq	r7, [r0, -lr, ror #8]
     d74:	00950704 	addseq	r0, r5, r4, lsl #14
     d78:	01070000 	mrseq	r0, (UNDEF: 7)
     d7c:	00002e06 	andeq	r2, r0, r6, lsl #28
     d80:	05020700 	streq	r0, [r2, #-1792]	; 0xfffff900
     d84:	000000f8 	strdeq	r0, [r0], -r8
     d88:	a7050407 	strge	r0, [r5, -r7, lsl #8]
     d8c:	07000000 	streq	r0, [r0, -r0]
     d90:	00a20508 	adceq	r0, r2, r8, lsl #10
     d94:	01070000 	mrseq	r0, (UNDEF: 7)
     d98:	00002c08 	andeq	r2, r0, r8, lsl #24
     d9c:	07020700 	streq	r0, [r2, -r0, lsl #14]
     da0:	0000004d 	andeq	r0, r0, sp, asr #32
     da4:	90070407 	andls	r0, r7, r7, lsl #8
     da8:	07000000 	streq	r0, [r0, -r0]
     dac:	008b0708 	addeq	r0, fp, r8, lsl #14
     db0:	56080000 	strpl	r0, [r8], -r0
     db4:	ab000000 	blge	dbc <__code_start__-0x7244>
     db8:	09000000 	stmdbeq	r0, {}	; <UNPREDICTABLE>
     dbc:	00000056 	andeq	r0, r0, r6, asr r0
     dc0:	00b00a00 	adcseq	r0, r0, r0, lsl #20
     dc4:	1c030000 	stcne	0, cr0, [r3], {-0}
     dc8:	0000b70e 	andeq	fp, r0, lr, lsl #14
     dcc:	9c040b00 			; <UNDEFINED> instruction: 0x9c040b00
     dd0:	08000000 	stmdaeq	r0, {}	; <UNPREDICTABLE>
     dd4:	00000056 	andeq	r0, r0, r6, asr r0
     dd8:	000000cc 	andeq	r0, r0, ip, asr #1
     ddc:	0000cc09 	andeq	ip, r0, r9, lsl #24
     de0:	040b0000 	streq	r0, [fp], #-0
     de4:	000000d9 	ldrdeq	r0, [r0], -r9
     de8:	35080107 	strcc	r0, [r8, #-263]	; 0xfffffef9
     dec:	0c000000 	stceq	0, cr0, [r0], {-0}
     df0:	000000d2 	ldrdeq	r0, [r0], -r2
     df4:	0002f40a 	andeq	pc, r2, sl, lsl #8
     df8:	0e210300 	cdpeq	3, 2, cr0, cr1, cr0, {0}
     dfc:	000000ea 	andeq	r0, r0, sl, ror #1
     e00:	00bd040b 	adcseq	r0, sp, fp, lsl #8
     e04:	570d0000 	strpl	r0, [sp, -r0]
     e08:	01000002 	tsteq	r0, r2
     e0c:	00560506 	subseq	r0, r6, r6, lsl #10
     e10:	85980000 	ldrhi	r0, [r8]
     e14:	00580000 	subseq	r0, r8, r0
     e18:	9c010000 	stcls	0, cr0, [r1], {-0}
     e1c:	00000183 	andeq	r0, r0, r3, lsl #3
     e20:	746d660e 	strbtvc	r6, [sp], #-1550	; 0xfffff9f2
     e24:	18060100 	stmdane	r6, {r8}
     e28:	000000cc 	andeq	r0, r0, ip, asr #1
     e2c:	0f709102 	svceq	0x00709102
     e30:	66756210 			; <UNDEFINED> instruction: 0x66756210
     e34:	11080100 	mrsne	r0, (UNDEF: 24)
     e38:	00000183 	andeq	r0, r0, r3, lsl #3
     e3c:	97d80305 	ldrbls	r0, [r8, r5, lsl #6]
     e40:	4f110000 	svcmi	0x00110000
     e44:	01000002 	tsteq	r0, r2
     e48:	004a0d09 	subeq	r0, sl, r9, lsl #26
     e4c:	91020000 	mrsls	r0, (UNDEF: 2)
     e50:	7a73125c 	bvc	1cc57c8 <__bss_end__+0x1cbbbe8>
     e54:	0d0c0100 	stfeqs	f0, [ip, #-0]
     e58:	00000056 	andeq	r0, r0, r6, asr r0
     e5c:	0000048c 	andeq	r0, r0, ip, lsl #9
     e60:	00000486 	andeq	r0, r0, r6, lsl #9
     e64:	0085c013 	addeq	ip, r5, r3, lsl r0
     e68:	00019400 	andeq	r9, r1, r0, lsl #8
     e6c:	00017600 	andeq	r7, r1, r0, lsl #12
     e70:	50011400 	andpl	r1, r1, r0, lsl #8
     e74:	14007502 	strne	r7, [r0], #-1282	; 0xfffffafe
     e78:	0a035101 	beq	d5284 <__bss_end__+0xcb6a4>
     e7c:	01140400 	tsteq	r4, r0, lsl #8
     e80:	48910352 	ldmmi	r1, {r1, r4, r6, r8, r9}
     e84:	53011406 	movwpl	r1, #5126	; 0x1406
     e88:	004c9102 	subeq	r9, ip, r2, lsl #2
     e8c:	0085d415 	addeq	sp, r5, r5, lsl r4
     e90:	50011400 	andpl	r1, r1, r0, lsl #8
     e94:	00007502 	andeq	r7, r0, r2, lsl #10
     e98:	00d21600 	sbcseq	r1, r2, r0, lsl #12
     e9c:	01940000 	orrseq	r0, r4, r0
     ea0:	5d170000 	ldcpl	0, cr0, [r7, #-0]
     ea4:	ff000000 			; <UNDEFINED> instruction: 0xff000000
     ea8:	54180003 	ldrpl	r0, [r8], #-3
     eac:	54000002 	strpl	r0, [r0], #-2
     eb0:	05000002 	streq	r0, [r0, #-2]
     eb4:	49000502 	stmdbmi	r0, {r1, r8, sl}
     eb8:	04000001 	streq	r0, [r0], #-1
     ebc:	00043500 	andeq	r3, r4, r0, lsl #10
     ec0:	2a010400 	bcs	41ec8 <__bss_end__+0x382e8>
     ec4:	0c000001 	stceq	0, cr0, [r0], {1}
     ec8:	000002d0 	ldrdeq	r0, [r0], -r0	; <UNPREDICTABLE>
     ecc:	0000028c 	andeq	r0, r0, ip, lsl #5
     ed0:	000085f0 	strdeq	r8, [r0], -r0
     ed4:	0000003c 	andeq	r0, r0, ip, lsr r0
     ed8:	000006a2 	andeq	r0, r0, r2, lsr #13
     edc:	69050402 	stmdbvs	r5, {r1, sl}
     ee0:	0300746e 	movweq	r7, #1134	; 0x46e
     ee4:	00950704 	addseq	r0, r5, r4, lsl #14
     ee8:	01030000 	mrseq	r0, (UNDEF: 3)
     eec:	00002e06 	andeq	r2, r0, r6, lsl #28
     ef0:	05020300 	streq	r0, [r2, #-768]	; 0xfffffd00
     ef4:	000000f8 	strdeq	r0, [r0], -r8
     ef8:	a7050403 	strge	r0, [r5, -r3, lsl #8]
     efc:	03000000 	movweq	r0, #0
     f00:	00a20508 	adceq	r0, r2, r8, lsl #10
     f04:	01030000 	mrseq	r0, (UNDEF: 3)
     f08:	00002c08 	andeq	r2, r0, r8, lsl #24
     f0c:	07020300 	streq	r0, [r2, -r0, lsl #6]
     f10:	0000004d 	andeq	r0, r0, sp, asr #32
     f14:	90070403 	andls	r0, r7, r3, lsl #8
     f18:	03000000 	movweq	r0, #0
     f1c:	008b0708 	addeq	r0, fp, r8, lsl #14
     f20:	25040000 	strcs	r0, [r4, #-0]
     f24:	7a000000 	bvc	f2c <__code_start__-0x70d4>
     f28:	05000000 	streq	r0, [r0, #-0]
     f2c:	00000025 	andeq	r0, r0, r5, lsr #32
     f30:	00b00600 	adcseq	r0, r0, r0, lsl #12
     f34:	1c020000 	stcne	0, cr0, [r2], {-0}
     f38:	0000860e 	andeq	r8, r0, lr, lsl #12
     f3c:	6b040700 	blvs	102b44 <__bss_end__+0xf8f64>
     f40:	04000000 	streq	r0, [r0], #-0
     f44:	00000025 	andeq	r0, r0, r5, lsr #32
     f48:	0000009b 	muleq	r0, fp, r0
     f4c:	00009b05 	andeq	r9, r0, r5, lsl #22
     f50:	04070000 	streq	r0, [r7], #-0
     f54:	000000a8 	andeq	r0, r0, r8, lsr #1
     f58:	35080103 	strcc	r0, [r8, #-259]	; 0xfffffefd
     f5c:	08000000 	stmdaeq	r0, {}	; <UNPREDICTABLE>
     f60:	000000a1 	andeq	r0, r0, r1, lsr #1
     f64:	0002f406 	andeq	pc, r2, r6, lsl #8
     f68:	0e210200 	cdpeq	2, 2, cr0, cr1, cr0, {0}
     f6c:	000000b9 	strheq	r0, [r0], -r9
     f70:	008c0407 	addeq	r0, ip, r7, lsl #8
     f74:	7a090000 	bvc	240f7c <__bss_end__+0x23739c>
     f78:	01000000 	mrseq	r0, (UNDEF: 0)
     f7c:	03050706 	movweq	r0, #22278	; 0x5706
     f80:	000097cc 	andeq	r9, r0, ip, asr #15
     f84:	0002c30a 	andeq	ip, r2, sl, lsl #6
     f88:	060b0100 	streq	r0, [fp], -r0, lsl #2
     f8c:	0000861c 	andeq	r8, r0, ip, lsl r6
     f90:	00000010 	andeq	r0, r0, r0, lsl r0
     f94:	00f19c01 	rscseq	r9, r1, r1, lsl #24
     f98:	660b0000 	strvs	r0, [fp], -r0
     f9c:	0b010070 	bleq	41164 <__bss_end__+0x37584>
     fa0:	00008619 	andeq	r8, r0, r9, lsl r6
     fa4:	00500100 	subseq	r0, r0, r0, lsl #2
     fa8:	0000600c 	andeq	r6, r0, ip
     fac:	06080100 	streq	r0, [r8], -r0, lsl #2
     fb0:	00008604 	andeq	r8, r0, r4, lsl #12
     fb4:	00000018 	andeq	r0, r0, r8, lsl r0
     fb8:	b20d9c01 	andlt	r9, sp, #256	; 0x100
     fbc:	01000002 	tsteq	r0, r2
     fc0:	00250c03 	eoreq	r0, r5, r3, lsl #24
     fc4:	85f00000 	ldrbhi	r0, [r0, #0]!
     fc8:	00140000 	andseq	r0, r4, r0
     fcc:	9c010000 	stcls	0, cr0, [r1], {-0}
     fd0:	00000140 	andeq	r0, r0, r0, asr #2
     fd4:	0100630e 	tsteq	r0, lr, lsl #6
     fd8:	00252103 	eoreq	r2, r5, r3, lsl #2
     fdc:	04b90000 	ldrteq	r0, [r9], #0
     fe0:	04b50000 	ldrteq	r0, [r5], #0
     fe4:	fc0f0000 	stc2	0, cr0, [pc], {-0}
     fe8:	40000085 	andmi	r0, r0, r5, lsl #1
     fec:	10000001 	andne	r0, r0, r1
     ff0:	74025001 	strvc	r5, [r2], #-1
     ff4:	11000000 	mrsne	r0, (UNDEF: 0)
     ff8:	000002e1 	andeq	r0, r0, r1, ror #5
     ffc:	000002e1 	andeq	r0, r0, r1, ror #5
    1000:	00063b02 	andeq	r3, r6, r2, lsl #22
    1004:	000000f3 	strdeq	r0, [r0], -r3
    1008:	05440004 	strbeq	r0, [r4, #-4]
    100c:	01040000 	mrseq	r0, (UNDEF: 4)
    1010:	0000012a 	andeq	r0, r0, sl, lsr #2
    1014:	0002f90c 	andeq	pc, r2, ip, lsl #18
    1018:	00028c00 	andeq	r8, r2, r0, lsl #24
    101c:	00862c00 	addeq	r2, r6, r0, lsl #24
    1020:	00003400 	andeq	r3, r0, r0, lsl #8
    1024:	00074300 	andeq	r4, r7, r0, lsl #6
    1028:	05040200 	streq	r0, [r4, #-512]	; 0xfffffe00
    102c:	00746e69 	rsbseq	r6, r4, r9, ror #28
    1030:	95070403 	strls	r0, [r7, #-1027]	; 0xfffffbfd
    1034:	03000000 	movweq	r0, #0
    1038:	002e0601 	eoreq	r0, lr, r1, lsl #12
    103c:	02030000 	andeq	r0, r3, #0, 0
    1040:	0000f805 	andeq	pc, r0, r5, lsl #16
    1044:	05040300 	streq	r0, [r4, #-768]	; 0xfffffd00
    1048:	000000a7 	andeq	r0, r0, r7, lsr #1
    104c:	a2050803 	andge	r0, r5, #196608	; 0x30000
    1050:	03000000 	movweq	r0, #0
    1054:	002c0801 	eoreq	r0, ip, r1, lsl #16
    1058:	02030000 	andeq	r0, r3, #0, 0
    105c:	00004d07 	andeq	r4, r0, r7, lsl #26
    1060:	07040300 	streq	r0, [r4, -r0, lsl #6]
    1064:	00000090 	muleq	r0, r0, r0
    1068:	8b070803 	blhi	1c307c <__bss_end__+0x1b949c>
    106c:	04000000 	streq	r0, [r0], #-0
    1070:	00000025 	andeq	r0, r0, r5, lsr #32
    1074:	0000007a 	andeq	r0, r0, sl, ror r0
    1078:	00002505 	andeq	r2, r0, r5, lsl #10
    107c:	b0060000 	andlt	r0, r6, r0
    1080:	02000000 	andeq	r0, r0, #0, 0
    1084:	00860e1c 	addeq	r0, r6, ip, lsl lr
    1088:	04070000 	streq	r0, [r7], #-0
    108c:	0000006b 	andeq	r0, r0, fp, rrx
    1090:	00002504 	andeq	r2, r0, r4, lsl #10
    1094:	00009b00 	andeq	r9, r0, r0, lsl #22
    1098:	009b0500 	addseq	r0, fp, r0, lsl #10
    109c:	07000000 	streq	r0, [r0, -r0]
    10a0:	0000a804 	andeq	sl, r0, r4, lsl #16
    10a4:	08010300 	stmdaeq	r1, {r8, r9}
    10a8:	00000035 	andeq	r0, r0, r5, lsr r0
    10ac:	0000a108 	andeq	sl, r0, r8, lsl #2
    10b0:	02f40600 	rscseq	r0, r4, #0, 12
    10b4:	21020000 	mrscs	r0, (UNDEF: 2)
    10b8:	0000b90e 	andeq	fp, r0, lr, lsl #18
    10bc:	8c040700 	stchi	7, cr0, [r4], {-0}
    10c0:	09000000 	stmdbeq	r0, {}	; <UNPREDICTABLE>
    10c4:	000000ad 	andeq	r0, r0, sp, lsr #1
    10c8:	05070c01 	streq	r0, [r7, #-3073]	; 0xfffff3ff
    10cc:	0097d003 	addseq	sp, r7, r3
    10d0:	02eb0a00 	rsceq	r0, fp, #0, 20
    10d4:	04010000 	streq	r0, [r1], #-0
    10d8:	00002505 	andeq	r2, r0, r5, lsl #10
    10dc:	00862c00 	addeq	r2, r6, r0, lsl #24
    10e0:	00003400 	andeq	r3, r0, r0, lsl #8
    10e4:	0b9c0100 	bleq	fe7014ec <__bss_end__+0xfe6f790c>
    10e8:	04010070 	streq	r0, [r1], #-112	; 0xffffff90
    10ec:	00009b1f 	andeq	r9, r0, pc, lsl fp
    10f0:	0004db00 	andeq	sp, r4, r0, lsl #22
    10f4:	0004d700 	andeq	sp, r4, r0, lsl #14
    10f8:	95000000 	strls	r0, [r0, #-0]
    10fc:	0400000a 	streq	r0, [r0], #-10
    1100:	0005e200 	andeq	lr, r5, r0, lsl #4
    1104:	2a010400 	bcs	4210c <__bss_end__+0x3852c>
    1108:	0c000001 	stceq	0, cr0, [r0], {1}
    110c:	00000318 	andeq	r0, r0, r8, lsl r3
    1110:	0000028c 	andeq	r0, r0, ip, lsl #5
    1114:	00008660 	andeq	r8, r0, r0, ror #12
    1118:	00000720 	andeq	r0, r0, r0, lsr #14
    111c:	000007f1 	strdeq	r0, [r0], -r1
    1120:	69050402 	stmdbvs	r5, {r1, sl}
    1124:	0300746e 	movweq	r7, #1134	; 0x46e
    1128:	00950704 	addseq	r0, r5, r4, lsl #14
    112c:	01030000 	mrseq	r0, (UNDEF: 3)
    1130:	00002e06 	andeq	r2, r0, r6, lsl #28
    1134:	05020300 	streq	r0, [r2, #-768]	; 0xfffffd00
    1138:	000000f8 	strdeq	r0, [r0], -r8
    113c:	a7050403 	strge	r0, [r5, -r3, lsl #8]
    1140:	03000000 	movweq	r0, #0
    1144:	00a20508 	adceq	r0, r2, r8, lsl #10
    1148:	01030000 	mrseq	r0, (UNDEF: 3)
    114c:	00002c08 	andeq	r2, r0, r8, lsl #24
    1150:	07020300 	streq	r0, [r2, -r0, lsl #6]
    1154:	0000004d 	andeq	r0, r0, sp, asr #32
    1158:	00036f04 	andeq	r6, r3, r4, lsl #30
    115c:	19340200 	ldmdbne	r4!, {r9}
    1160:	00000069 	andeq	r0, r0, r9, rrx
    1164:	90070403 	andls	r0, r7, r3, lsl #8
    1168:	04000000 	streq	r0, [r0], #-0
    116c:	0000030f 	andeq	r0, r0, pc, lsl #6
    1170:	7c193702 	ldcvc	7, cr3, [r9], {2}
    1174:	03000000 	movweq	r0, #0
    1178:	008b0708 	addeq	r0, fp, r8, lsl #14
    117c:	25050000 	strcs	r0, [r5, #-0]
    1180:	92000000 	andls	r0, r0, #0, 0
    1184:	06000000 	streq	r0, [r0], -r0
    1188:	00000025 	andeq	r0, r0, r5, lsr #32
    118c:	00b00700 	adcseq	r0, r0, r0, lsl #14
    1190:	1c030000 	stcne	0, cr0, [r3], {-0}
    1194:	00009e0e 	andeq	r9, r0, lr, lsl #28
    1198:	83040800 	movwhi	r0, #18432	; 0x4800
    119c:	05000000 	streq	r0, [r0, #-0]
    11a0:	00000025 	andeq	r0, r0, r5, lsr #32
    11a4:	000000b3 	strheq	r0, [r0], -r3
    11a8:	0000b306 	andeq	fp, r0, r6, lsl #6
    11ac:	04080000 	streq	r0, [r8], #-0
    11b0:	000000c0 	andeq	r0, r0, r0, asr #1
    11b4:	35080103 	strcc	r0, [r8, #-259]	; 0xfffffefd
    11b8:	09000000 	stmdbeq	r0, {}	; <UNPREDICTABLE>
    11bc:	000000b9 	strheq	r0, [r0], -r9
    11c0:	0002f407 	andeq	pc, r2, r7, lsl #8
    11c4:	0e210300 	cdpeq	3, 2, cr0, cr1, cr0, {0}
    11c8:	000000d1 	ldrdeq	r0, [r0], -r1
    11cc:	00a40408 	adceq	r0, r4, r8, lsl #8
    11d0:	2b070000 	blcs	1c11d8 <__bss_end__+0x1b75f8>
    11d4:	04000003 	streq	r0, [r0], #-3
    11d8:	00b90d0b 	adcseq	r0, r9, fp, lsl #26
    11dc:	a5070000 	strge	r0, [r7, #-0]
    11e0:	04000003 	streq	r0, [r0], #-3
    11e4:	00b90d0c 	adcseq	r0, r9, ip, lsl #26
    11e8:	3a070000 	bcc	1c11f0 <__bss_end__+0x1b7610>
    11ec:	04000003 	streq	r0, [r0], #-3
    11f0:	00b90d0d 	adcseq	r0, r9, sp, lsl #26
    11f4:	63070000 	movwvs	r0, #28672	; 0x7000
    11f8:	04000003 	streq	r0, [r0], #-3
    11fc:	00b90d0e 	adcseq	r0, r9, lr, lsl #26
    1200:	ce070000 	cdpgt	0, 0, cr0, cr7, cr0, {0}
    1204:	04000003 	streq	r0, [r0], #-3
    1208:	00b90d0f 	adcseq	r0, r9, pc, lsl #26
    120c:	4e070000 	cdpmi	0, 0, cr0, cr7, cr0, {0}
    1210:	04000003 	streq	r0, [r0], #-3
    1214:	00b90d10 	adcseq	r0, r9, r0, lsl sp
    1218:	dd070000 	stcle	0, cr0, [r7, #-0]
    121c:	04000003 	streq	r0, [r0], #-3
    1220:	00b90d11 	adcseq	r0, r9, r1, lsl sp
    1224:	33070000 	movwcc	r0, #28672	; 0x7000
    1228:	04000002 	streq	r0, [r0], #-2
    122c:	00b90d12 	adcseq	r0, r9, r2, lsl sp
    1230:	5e040000 	cdppl	0, 0, cr0, cr4, cr0, {0}
    1234:	05000002 	streq	r0, [r0, #-2]
    1238:	01431b28 	cmpeq	r3, r8, lsr #22
    123c:	820a0000 	andhi	r0, sl, #0, 0
    1240:	04000002 	streq	r0, [r0], #-2
    1244:	015a0006 	cmpeq	sl, r6
    1248:	6d0b0000 	stcvs	0, cr0, [fp, #-0]
    124c:	5a000002 	bpl	125c <__code_start__-0x6da4>
    1250:	00000001 	andeq	r0, r0, r1
    1254:	04040c00 	streq	r0, [r4], #-3072	; 0xfffff400
    1258:	00000284 	andeq	r0, r0, r4, lsl #5
    125c:	37186305 	ldrcc	r6, [r8, -r5, lsl #6]
    1260:	0d000001 	stceq	0, cr0, [r0, #-4]
    1264:	00000254 	andeq	r0, r0, r4, asr r2
    1268:	25058101 	strcs	r8, [r5, #-257]	; 0xfffffeff
    126c:	e8000000 	stmda	r0, {}	; <UNPREDICTABLE>
    1270:	98000088 	stmdals	r0, {r3, r7}
    1274:	01000004 	tsteq	r0, r4
    1278:	0006d59c 	muleq	r6, ip, r5
    127c:	75620e00 	strbvc	r0, [r2, #-3584]!	; 0xfffff200
    1280:	81010066 	tsthi	r1, r6, rrx
    1284:	0006d515 	andeq	sp, r6, r5, lsl r5
    1288:	0004ff00 	andeq	pc, r4, r0, lsl #30
    128c:	0004f900 	andeq	pc, r4, r0, lsl #18
    1290:	006e0e00 	rsbeq	r0, lr, r0, lsl #28
    1294:	251e8101 	ldrcs	r8, [lr, #-257]	; 0xfffffeff
    1298:	31000000 	mrscc	r0, (UNDEF: 0)
    129c:	2b000005 	blcs	12b8 <__code_start__-0x6d48>
    12a0:	0e000005 	cdpeq	0, 0, cr0, cr0, cr5, {0}
    12a4:	00746d66 	rsbseq	r6, r4, r6, ror #26
    12a8:	b32d8101 			; <UNDEFINED> instruction: 0xb32d8101
    12ac:	6b000000 	blvs	12b4 <__code_start__-0x6d4c>
    12b0:	5f000005 	svcpl	0x00000005
    12b4:	0f000005 	svceq	0x00000005
    12b8:	0000024f 	andeq	r0, r0, pc, asr #4
    12bc:	5c3a8101 	ldfpld	f0, [sl], #-4
    12c0:	03000001 	movweq	r0, #1
    12c4:	107dd491 			; <UNDEFINED> instruction: 0x107dd491
    12c8:	82010070 	andhi	r0, r1, #112, 0	; 0x70
    12cc:	0006d508 	andeq	sp, r6, r8, lsl #10
    12d0:	0005c900 	andeq	ip, r5, r0, lsl #18
    12d4:	0005b500 	andeq	fp, r5, r0, lsl #10
    12d8:	00651000 	rsbeq	r1, r5, r0
    12dc:	d5128201 	ldrle	r8, [r2, #-513]	; 0xfffffdff
    12e0:	4b000006 	blmi	1300 <__code_start__-0x6d00>
    12e4:	47000006 	strmi	r0, [r0, -r6]
    12e8:	10000006 	andne	r0, r0, r6
    12ec:	01003078 	tsteq	r0, r8, ror r0
    12f0:	005d0e83 	subseq	r0, sp, r3, lsl #29
    12f4:	06780000 	ldrbteq	r0, [r8], -r0
    12f8:	06720000 	ldrbteq	r0, [r2], -r0
    12fc:	78110000 	ldmdavc	r1, {}	; <UNPREDICTABLE>
    1300:	83010031 	movwhi	r0, #4145	; 0x1031
    1304:	00005d11 	andeq	r5, r0, r1, lsl sp
    1308:	03871200 	orreq	r1, r7, #0, 4
    130c:	86010000 	strhi	r0, [r1], -r0
    1310:	0000b311 	andeq	fp, r0, r1, lsl r3
    1314:	0006a500 	andeq	sl, r6, r0, lsl #10
    1318:	0006a100 	andeq	sl, r6, r0, lsl #2
    131c:	00781300 	rsbseq	r1, r8, r0, lsl #6
    1320:	06eb0000 	strbteq	r0, [fp], r0
    1324:	03050000 	movweq	r0, #20480	; 0x5000
    1328:	000097b4 			; <UNDEFINED> instruction: 0x000097b4
    132c:	00895014 	addeq	r5, r9, r4, lsl r0
    1330:	0003e800 	andeq	lr, r3, r0, lsl #16
    1334:	00731000 	rsbseq	r1, r3, r0
    1338:	d50a9101 	strle	r9, [sl, #-257]	; 0xfffffeff
    133c:	db000006 	blle	135c <__code_start__-0x6ca4>
    1340:	c5000006 	strgt	r0, [r0, #-6]
    1344:	15000006 	strne	r0, [r0, #-6]
    1348:	006d756e 	rsbeq	r7, sp, lr, ror #10
    134c:	f00d9101 			; <UNDEFINED> instruction: 0xf00d9101
    1350:	03000006 	movweq	r0, #6
    1354:	167dd891 			; <UNDEFINED> instruction: 0x167dd891
    1358:	000003ea 	andeq	r0, r0, sl, ror #7
    135c:	f0179101 			; <UNDEFINED> instruction: 0xf0179101
    1360:	03000006 	movweq	r0, #6
    1364:	127ed891 	rsbsne	sp, lr, #9502720	; 0x910000
    1368:	00000348 	andeq	r0, r0, r8, asr #6
    136c:	2c0d9201 	sfmcs	f1, 1, [sp], {1}
    1370:	62000000 	andvs	r0, r0, #0, 0
    1374:	5c000007 	stcpl	0, cr0, [r0], {7}
    1378:	17000007 	strne	r0, [r0, -r7]
    137c:	00008a18 	andeq	r8, r0, r8, lsl sl
    1380:	0000018c 	andeq	r0, r0, ip, lsl #3
    1384:	000004f7 	strdeq	r0, [r0], -r7
    1388:	00797410 	rsbseq	r7, r9, r0, lsl r4
    138c:	b31d9e01 	tstlt	sp, #1, 28
    1390:	96000000 	strls	r0, [r0], -r0
    1394:	8c000007 	stchi	0, cr0, [r0], {7}
    1398:	11000007 	tstne	r0, r7
    139c:	01007878 	tsteq	r0, r8, ror r8
    13a0:	00701aa2 	rsbseq	r1, r0, r2, lsr #21
    13a4:	28180000 	ldmdacs	r8, {}	; <UNPREDICTABLE>
    13a8:	5000008a 	andpl	r0, r0, sl, lsl #1
    13ac:	cd00000a 	stcgt	0, cr0, [r0, #-40]	; 0xffffffd8
    13b0:	19000002 	stmdbne	r0, {r1}
    13b4:	76025001 	strvc	r5, [r2], -r1
    13b8:	51011900 	tstpl	r1, r0, lsl #18
    13bc:	96b80305 	ldrtls	r0, [r8], r5, lsl #6
    13c0:	01190000 	tsteq	r9, r0
    13c4:	00330152 	eorseq	r0, r3, r2, asr r1
    13c8:	008a4018 	addeq	r4, sl, r8, lsl r0
    13cc:	000a5000 	andeq	r5, sl, r0
    13d0:	0002ef00 	andeq	lr, r2, r0, lsl #30
    13d4:	50011900 	andpl	r1, r1, r0, lsl #18
    13d8:	19007602 	stmdbne	r0, {r1, r9, sl, ip, sp, lr}
    13dc:	03055101 	movweq	r5, #20737	; 0x5101
    13e0:	000096bc 			; <UNDEFINED> instruction: 0x000096bc
    13e4:	01520119 	cmpeq	r2, r9, lsl r1
    13e8:	78180033 	ldmdavc	r8, {r0, r1, r4, r5}
    13ec:	5000008a 	andpl	r0, r0, sl, lsl #1
    13f0:	1100000a 	tstne	r0, sl
    13f4:	19000003 	stmdbne	r0, {r0, r1}
    13f8:	76025001 	strvc	r5, [r2], -r1
    13fc:	51011900 	tstpl	r1, r0, lsl #18
    1400:	96b80305 	ldrtls	r0, [r8], r5, lsl #6
    1404:	01190000 	tsteq	r9, r0
    1408:	00330152 	eorseq	r0, r3, r2, asr r1
    140c:	008a9018 	addeq	r9, sl, r8, lsl r0
    1410:	000a5000 	andeq	r5, sl, r0
    1414:	00033300 	andeq	r3, r3, r0, lsl #6
    1418:	50011900 	andpl	r1, r1, r0, lsl #18
    141c:	19007602 	stmdbne	r0, {r1, r9, sl, ip, sp, lr}
    1420:	03055101 	movweq	r5, #20737	; 0x5101
    1424:	000096bc 			; <UNDEFINED> instruction: 0x000096bc
    1428:	01520119 	cmpeq	r2, r9, lsl r1
    142c:	b8180033 	ldmdalt	r8, {r0, r1, r4, r5}
    1430:	0000008a 	andeq	r0, r0, sl, lsl #1
    1434:	67000007 	strvs	r0, [r0, -r7]
    1438:	19000003 	stmdbne	r0, {r0, r1}
    143c:	3a015001 	bcc	55448 <__bss_end__+0x4b868>
    1440:	03510119 	cmpeq	r1, #1073741830	; 0x40000006
    1444:	197dd091 	ldmdbne	sp!, {r0, r4, r7, ip, lr, pc}^
    1448:	08025201 	stmdaeq	r2, {r0, r9, ip, lr}
    144c:	53011980 	movwpl	r1, #6528	; 0x1980
    1450:	19007702 	stmdbne	r0, {r1, r8, r9, sl, ip, sp, lr}
    1454:	02007d02 	andeq	r7, r0, #128	; 0x80
    1458:	02190075 	andseq	r0, r9, #117, 0	; 0x75
    145c:	7602047d 			; <UNDEFINED> instruction: 0x7602047d
    1460:	d8180000 	ldmdale	r8, {}	; <UNPREDICTABLE>
    1464:	0000008a 	andeq	r0, r0, sl, lsl #1
    1468:	9b000007 	blls	148c <__code_start__-0x6b74>
    146c:	19000003 	stmdbne	r0, {r0, r1}
    1470:	3a015001 	bcc	5547c <__bss_end__+0x4b89c>
    1474:	03510119 	cmpeq	r1, #1073741830	; 0x40000006
    1478:	197ed091 	ldmdbne	lr!, {r0, r4, r7, ip, lr, pc}^
    147c:	08025201 	stmdaeq	r2, {r0, r9, ip, lr}
    1480:	53011980 	movwpl	r1, #6528	; 0x1980
    1484:	19007a02 	stmdbne	r0, {r1, r9, fp, ip, sp, lr}
    1488:	02007d02 	andeq	r7, r0, #128	; 0x80
    148c:	02190075 	andseq	r0, r9, #117, 0	; 0x75
    1490:	7602047d 			; <UNDEFINED> instruction: 0x7602047d
    1494:	e4180000 	ldr	r0, [r8], #-0
    1498:	5c00008a 	stcpl	0, cr0, [r0], {138}	; 0x8a
    149c:	b900000a 	stmdblt	r0, {r1, r3}
    14a0:	19000003 	stmdbne	r0, {r0, r1}
    14a4:	91035001 	tstls	r3, r1
    14a8:	01197dd0 			; <UNDEFINED> instruction: 0x01197dd0
    14ac:	14030551 	strne	r0, [r3], #-1361	; 0xfffffaaf
    14b0:	00000094 	muleq	r0, r4, r0
    14b4:	008af818 	addeq	pc, sl, r8, lsl r8	; <UNPREDICTABLE>
    14b8:	000a6800 	andeq	r6, sl, r0, lsl #16
    14bc:	0003d500 	andeq	sp, r3, r0, lsl #10
    14c0:	50011900 	andpl	r1, r1, r0, lsl #18
    14c4:	7dd09103 	ldfvcp	f1, [r0, #12]
    14c8:	03510119 	cmpeq	r1, #1073741830	; 0x40000006
    14cc:	007ed091 			; <UNDEFINED> instruction: 0x007ed091
    14d0:	008b1c18 	addeq	r1, fp, r8, lsl ip
    14d4:	000a7400 	andeq	r7, sl, r0, lsl #8
    14d8:	00040e00 	andeq	r0, r4, r0, lsl #28
    14dc:	50011900 	andpl	r1, r1, r0, lsl #18
    14e0:	93440305 	movtls	r0, #17157	; 0x4305
    14e4:	01190000 	tsteq	r9, r0
    14e8:	6c030551 	cfstr32vs	mvfx0, [r3], {81}	; 0x51
    14ec:	19000096 	stmdbne	r0, {r1, r2, r4, r7}
    14f0:	03055201 	movweq	r5, #20993	; 0x5201
    14f4:	000097b4 			; <UNDEFINED> instruction: 0x000097b4
    14f8:	02530119 	subseq	r0, r3, #1073741830	; 0x40000006
    14fc:	02199f08 	andseq	r9, r9, #8, 30
    1500:	0305007d 	movweq	r0, #20605	; 0x507d
    1504:	000096c0 	andeq	r9, r0, r0, asr #13
    1508:	8b201a00 	blhi	807d10 <__bss_end__+0x7fe130>
    150c:	0a800000 	beq	fe001514 <__bss_end__+0xfdff7934>
    1510:	40180000 	andsmi	r0, r8, r0
    1514:	0000008b 	andeq	r0, r0, fp, lsl #1
    1518:	4b000007 	blmi	153c <__code_start__-0x6ac4>
    151c:	19000004 	stmdbne	r0, {r2}
    1520:	40015001 	andmi	r5, r1, r1
    1524:	03510119 	cmpeq	r1, #1073741830	; 0x40000006
    1528:	197dd091 	ldmdbne	sp!, {r0, r4, r7, ip, lr, pc}^
    152c:	08025201 	stmdaeq	r2, {r0, r9, ip, lr}
    1530:	53011980 	movwpl	r1, #6528	; 0x1980
    1534:	19007702 	stmdbne	r0, {r1, r8, r9, sl, ip, sp, lr}
    1538:	02007d02 	andeq	r7, r0, #128	; 0x80
    153c:	02190075 	andseq	r0, r9, #117, 0	; 0x75
    1540:	7602047d 			; <UNDEFINED> instruction: 0x7602047d
    1544:	60180000 	andsvs	r0, r8, r0
    1548:	0000008b 	andeq	r0, r0, fp, lsl #1
    154c:	7f000007 	svcvc	0x00000007
    1550:	19000004 	stmdbne	r0, {r2}
    1554:	40015001 	andmi	r5, r1, r1
    1558:	03510119 	cmpeq	r1, #1073741830	; 0x40000006
    155c:	197ed091 	ldmdbne	lr!, {r0, r4, r7, ip, lr, pc}^
    1560:	08025201 	stmdaeq	r2, {r0, r9, ip, lr}
    1564:	53011980 	movwpl	r1, #6528	; 0x1980
    1568:	19007a02 	stmdbne	r0, {r1, r9, fp, ip, sp, lr}
    156c:	02007d02 	andeq	r7, r0, #128	; 0x80
    1570:	02190075 	andseq	r0, r9, #117, 0	; 0x75
    1574:	7602047d 			; <UNDEFINED> instruction: 0x7602047d
    1578:	6c180000 	ldcvs	0, cr0, [r8], {-0}
    157c:	8c00008b 	stchi	0, cr0, [r0], {139}	; 0x8b
    1580:	9b00000a 	blls	15b0 <__code_start__-0x6a50>
    1584:	19000004 	stmdbne	r0, {r2}
    1588:	91035001 	tstls	r3, r1
    158c:	01197dd0 			; <UNDEFINED> instruction: 0x01197dd0
    1590:	d2910351 	addsle	r0, r1, #1140850689	; 0x44000001
    1594:	8018007e 	andshi	r0, r8, lr, ror r0
    1598:	8c00008b 	stchi	0, cr0, [r0], {139}	; 0x8b
    159c:	b700000a 	strlt	r0, [r0, -sl]
    15a0:	19000004 	stmdbne	r0, {r2}
    15a4:	91035001 	tstls	r3, r1
    15a8:	01197dd0 			; <UNDEFINED> instruction: 0x01197dd0
    15ac:	d0910351 	addsle	r0, r1, r1, asr r3
    15b0:	a018007e 	andsge	r0, r8, lr, ror r0
    15b4:	7400008b 	strvc	r0, [r0], #-139	; 0xffffff75
    15b8:	ed00000a 	stc	0, cr0, [r0, #-40]	; 0xffffffd8
    15bc:	19000004 	stmdbne	r0, {r2}
    15c0:	03055001 	movweq	r5, #20481	; 0x5001
    15c4:	000096fc 	strdeq	r9, [r0], -ip
    15c8:	05510119 	ldrbeq	r0, [r1, #-281]	; 0xfffffee7
    15cc:	00966c03 	addseq	r6, r6, r3, lsl #24
    15d0:	52011900 	andpl	r1, r1, #0, 18
    15d4:	97b40305 	ldrls	r0, [r4, r5, lsl #6]!
    15d8:	01190000 	tsteq	r9, r0
    15dc:	b6080253 			; <UNDEFINED> instruction: 0xb6080253
    15e0:	007d0219 	rsbseq	r0, sp, r9, lsl r2
    15e4:	00007602 	andeq	r7, r0, r2, lsl #12
    15e8:	008ba41a 	addeq	sl, fp, sl, lsl r4
    15ec:	000a8000 	andeq	r8, sl, r0
    15f0:	68180000 	ldmdavs	r8, {}	; <UNPREDICTABLE>
    15f4:	7e000089 	cdpvc	0, 0, cr0, cr0, cr9, {4}
    15f8:	0b000009 	bleq	1624 <__code_start__-0x69dc>
    15fc:	19000005 	stmdbne	r0, {r0, r2}
    1600:	77025001 	strvc	r5, [r2, -r1]
    1604:	14180000 	ldrne	r0, [r8], #-0
    1608:	7400008a 	strvc	r0, [r0], #-138	; 0xffffff76
    160c:	4400000a 	strmi	r0, [r0], #-10
    1610:	19000005 	stmdbne	r0, {r0, r2}
    1614:	03055001 	movweq	r5, #20481	; 0x5001
    1618:	00009344 	andeq	r9, r0, r4, asr #6
    161c:	05510119 	ldrbeq	r0, [r1, #-281]	; 0xfffffee7
    1620:	00966c03 	addseq	r6, r6, r3, lsl #24
    1624:	52011900 	andpl	r1, r1, #0, 18
    1628:	97b40305 	ldrls	r0, [r4, r5, lsl #6]!
    162c:	01190000 	tsteq	r9, r0
    1630:	98080253 	stmdals	r8, {r0, r1, r4, r6, r9}
    1634:	007d0219 	rsbseq	r0, sp, r9, lsl r2
    1638:	96ac0305 	strtls	r0, [ip], r5, lsl #6
    163c:	1a000000 	bne	1644 <__code_start__-0x69bc>
    1640:	00008a18 	andeq	r8, r0, r8, lsl sl
    1644:	00000a80 	andeq	r0, r0, r0, lsl #21
    1648:	008bb818 	addeq	fp, fp, r8, lsl r8
    164c:	000a7400 	andeq	r7, sl, r0, lsl #8
    1650:	00057c00 	andeq	r7, r5, r0, lsl #24
    1654:	50011900 	andpl	r1, r1, r0, lsl #18
    1658:	97240305 	strls	r0, [r4, -r5, lsl #6]!
    165c:	01190000 	tsteq	r9, r0
    1660:	6c030551 	cfstr32vs	mvfx0, [r3], {81}	; 0x51
    1664:	19000096 	stmdbne	r0, {r1, r2, r4, r7}
    1668:	03055201 	movweq	r5, #20993	; 0x5201
    166c:	000097b4 			; <UNDEFINED> instruction: 0x000097b4
    1670:	02530119 	subseq	r0, r3, #1073741830	; 0x40000006
    1674:	1a00be08 	bne	30e9c <__bss_end__+0x272bc>
    1678:	00008bbc 			; <UNDEFINED> instruction: 0x00008bbc
    167c:	00000a80 	andeq	r0, r0, r0, lsl #21
    1680:	008be818 	addeq	lr, fp, r8, lsl r8
    1684:	00070000 	andeq	r0, r7, r0
    1688:	0005b200 	andeq	fp, r5, r0, lsl #4
    168c:	50011900 	andpl	r1, r1, r0, lsl #18
    1690:	01193a01 	tsteq	r9, r1, lsl #20
    1694:	d0910351 	addsle	r0, r1, r1, asr r3
    1698:	5201197d 	andpl	r1, r1, #2048000	; 0x1f4000
    169c:	19800802 	stmibne	r0, {r1, fp}
    16a0:	02007d02 	andeq	r7, r0, #128	; 0x80
    16a4:	02190075 	andseq	r0, r9, #117, 0	; 0x75
    16a8:	3101047d 	tstcc	r1, sp, ror r4
    16ac:	8c201800 	stchi	8, cr1, [r0], #-0
    16b0:	07000000 	streq	r0, [r0, -r0]
    16b4:	05df0000 	ldrbeq	r0, [pc]	; 16bc <__code_start__-0x6944>
    16b8:	01190000 	tsteq	r9, r0
    16bc:	193a0150 	ldmdbne	sl!, {r4, r6, r8}
    16c0:	91035101 	tstls	r3, r1, lsl #2
    16c4:	01197dd0 			; <UNDEFINED> instruction: 0x01197dd0
    16c8:	80080252 	andhi	r0, r8, r2, asr r2
    16cc:	007d0219 	rsbseq	r0, sp, r9, lsl r2
    16d0:	19007502 	stmdbne	r0, {r1, r8, sl, ip, sp, lr}
    16d4:	01047d02 	tsteq	r4, r2, lsl #26
    16d8:	54180030 	ldrpl	r0, [r8], #-48	; 0xffffffd0
    16dc:	0000008c 	andeq	r0, r0, ip, lsl #1
    16e0:	0c000007 	stceq	0, cr0, [r0], {7}
    16e4:	19000006 	stmdbne	r0, {r1, r2}
    16e8:	40015001 	andmi	r5, r1, r1
    16ec:	03510119 	cmpeq	r1, #1073741830	; 0x40000006
    16f0:	197dd091 	ldmdbne	sp!, {r0, r4, r7, ip, lr, pc}^
    16f4:	08025201 	stmdaeq	r2, {r0, r9, ip, lr}
    16f8:	7d021980 	vstrvc.16	s2, [r2, #-256]	; 0xffffff00	; <UNPREDICTABLE>
    16fc:	00750200 	rsbseq	r0, r5, r0, lsl #4
    1700:	047d0219 	ldrbteq	r0, [sp], #-537	; 0xfffffde7
    1704:	18003001 	stmdane	r0, {r0, ip, sp}
    1708:	00008c88 	andeq	r8, r0, r8, lsl #25
    170c:	00000700 	andeq	r0, r0, r0, lsl #14
    1710:	00000639 	andeq	r0, r0, r9, lsr r6
    1714:	01500119 	cmpeq	r0, r9, lsl r1
    1718:	51011932 	tstpl	r1, r2, lsr r9
    171c:	7dd09103 	ldfvcp	f1, [r0, #12]
    1720:	02520119 	subseq	r0, r2, #1073741830	; 0x40000006
    1724:	02198008 	andseq	r8, r9, #8, 0
    1728:	7502007d 	strvc	r0, [r2, #-125]	; 0xffffff83
    172c:	7d021900 	vstrvc.16	s2, [r2, #-0]	; <UNPREDICTABLE>
    1730:	00300104 	eorseq	r0, r0, r4, lsl #2
    1734:	008cd018 	addeq	sp, ip, r8, lsl r0
    1738:	00070000 	andeq	r0, r7, r0
    173c:	00066600 	andeq	r6, r6, r0, lsl #12
    1740:	50011900 	andpl	r1, r1, r0, lsl #18
    1744:	01193801 	tsteq	r9, r1, lsl #16
    1748:	d0910351 	addsle	r0, r1, r1, asr r3
    174c:	5201197d 	andpl	r1, r1, #2048000	; 0x1f4000
    1750:	19800802 	stmibne	r0, {r1, fp}
    1754:	02007d02 	andeq	r7, r0, #128	; 0x80
    1758:	02190075 	andseq	r0, r9, #117, 0	; 0x75
    175c:	3001047d 	andcc	r0, r1, sp, ror r4
    1760:	8cf01800 	ldclhi	8, cr1, [r0]
    1764:	0a740000 	beq	1d0176c <__bss_end__+0x1cf7b8c>
    1768:	06890000 	streq	r0, [r9], r0
    176c:	01190000 	tsteq	r9, r0
    1770:	4c030550 	cfstr32mi	mvfx0, [r3], {80}	; 0x50
    1774:	19000097 	stmdbne	r0, {r0, r1, r2, r4, r7}
    1778:	7a025101 	bvc	95b84 <__bss_end__+0x8bfa4>
    177c:	52011900 	andpl	r1, r1, #0, 18
    1780:	00007a02 	andeq	r7, r0, r2, lsl #20
    1784:	008d001b 	addeq	r0, sp, fp, lsl r0
    1788:	00069b00 	andeq	r9, r6, r0, lsl #22
    178c:	50011900 	andpl	r1, r1, r0, lsl #18
    1790:	7dc89104 	stfvcp	f1, [r8, #16]
    1794:	14180006 	ldrne	r0, [r8], #-6
    1798:	7400008d 	strvc	r0, [r0], #-141	; 0xffffff73
    179c:	ca00000a 	bgt	17cc <__code_start__-0x6834>
    17a0:	19000006 	stmdbne	r0, {r1, r2}
    17a4:	03055001 	movweq	r5, #20481	; 0x5001
    17a8:	0000977c 	andeq	r9, r0, ip, ror r7
    17ac:	05510119 	ldrbeq	r0, [r1, #-281]	; 0xfffffee7
    17b0:	00966c03 	addseq	r6, r6, r3, lsl #24
    17b4:	52011900 	andpl	r1, r1, #0, 18
    17b8:	97b40305 	ldrls	r0, [r4, r5, lsl #6]!
    17bc:	01190000 	tsteq	r9, r0
    17c0:	e2080253 	and	r0, r8, #805306373	; 0x30000005
    17c4:	8d181a00 	vldrhi	s2, [r8, #-0]
    17c8:	0a800000 	beq	fe0017d0 <__bss_end__+0xfdff7bf0>
    17cc:	00000000 	andeq	r0, r0, r0
    17d0:	00b90408 	adcseq	r0, r9, r8, lsl #8
    17d4:	c01c0000 	andsgt	r0, ip, r0
    17d8:	eb000000 	bl	17e0 <__code_start__-0x6820>
    17dc:	1d000006 	stcne	0, cr0, [r0, #-24]	; 0xffffffe8
    17e0:	0000002c 	andeq	r0, r0, ip, lsr #32
    17e4:	db090009 	blle	241810 <__bss_end__+0x237c30>
    17e8:	1c000006 	stcne	0, cr0, [r0], {6}
    17ec:	000000b9 	strheq	r0, [r0], -r9
    17f0:	00000700 	andeq	r0, r0, r0, lsl #14
    17f4:	00002c1d 	andeq	r2, r0, sp, lsl ip
    17f8:	1e007f00 	cdpne	15, 0, cr7, cr0, cr0, {0}
    17fc:	000003b2 			; <UNDEFINED> instruction: 0x000003b2
    1800:	d5014901 	strle	r4, [r1, #-2305]	; 0xfffff6ff
    1804:	d0000006 	andle	r0, r0, r6
    1808:	b4000086 	strlt	r0, [r0], #-134	; 0xffffff7a
    180c:	01000001 	tsteq	r0, r1
    1810:	0008699c 	muleq	r8, ip, r9
    1814:	03f71f00 	mvnseq	r1, #0, 30
    1818:	49010000 	stmdbmi	r1, {}	; <UNPREDICTABLE>
    181c:	00002c0f 	andeq	r2, r0, pc, lsl #24
    1820:	0007df00 	andeq	sp, r7, r0, lsl #30
    1824:	0007d900 	andeq	sp, r7, r0, lsl #18
    1828:	73640e00 	cmnvc	r4, #0, 28
    182c:	49010074 	stmdbmi	r1, {r2, r4, r5, r6}
    1830:	0006d51b 	andeq	sp, r6, fp, lsl r5
    1834:	00081d00 	andeq	r1, r8, r0, lsl #26
    1838:	00080d00 	andeq	r0, r8, r0, lsl #26
    183c:	006e0e00 	rsbeq	r0, lr, r0, lsl #28
    1840:	25244901 	strcs	r4, [r4, #-2305]!	; 0xfffff6ff
    1844:	81000000 	mrshi	r0, (UNDEF: 0)
    1848:	7d000008 	stcvc	0, cr0, [r0, #-32]	; 0xffffffe0
    184c:	0e000008 	cdpeq	0, 0, cr0, cr0, cr8, {0}
    1850:	006c6176 	rsbeq	r6, ip, r6, ror r1
    1854:	252b4901 	strcs	r4, [fp, #-2305]!	; 0xfffff6ff
    1858:	ab000000 	blge	1860 <__code_start__-0x67a0>
    185c:	9f000008 	svcls	0x00000008
    1860:	1f000008 	svcne	0x00000008
    1864:	00000348 	andeq	r0, r0, r8, asr #6
    1868:	25344901 	ldrcs	r4, [r4, #-2305]!	; 0xfffff6ff
    186c:	01000000 	mrseq	r0, (UNDEF: 0)
    1870:	fb000009 	blx	189e <__code_start__-0x6762>
    1874:	0f000008 	svceq	0x00000008
    1878:	000003fc 	strdeq	r0, [r0], -ip
    187c:	253f4901 	ldrcs	r4, [pc, #-2305]!	; f83 <__code_start__-0x707d>
    1880:	02000000 	andeq	r0, r0, #0, 0
    1884:	62150491 	andsvs	r0, r5, #-1862270976	; 0x91000000
    1888:	01006675 	tsteq	r0, r5, ror r6
    188c:	0869074e 	stmdaeq	r9!, {r1, r2, r3, r6, r8, r9, sl}^
    1890:	91030000 	mrsls	r0, (UNDEF: 3)
    1894:	70107fa8 	andsvc	r7, r0, r8, lsr #31
    1898:	114e0100 	mrsne	r0, (UNDEF: 94)
    189c:	000006d5 	ldrdeq	r0, [r0], -r5
    18a0:	0000094b 	andeq	r0, r0, fp, asr #18
    18a4:	0000092b 	andeq	r0, r0, fp, lsr #18
    18a8:	01007510 	tsteq	r0, r0, lsl r5
    18ac:	002c0b4f 	eoreq	r0, ip, pc, asr #22
    18b0:	0a310000 	beq	c418b8 <__bss_end__+0xc37cd8>
    18b4:	0a1d0000 	beq	7418bc <__bss_end__+0x737cdc>
    18b8:	78130000 	ldmdavc	r3, {}	; <UNPREDICTABLE>
    18bc:	89000000 	stmdbhi	r0, {}	; <UNPREDICTABLE>
    18c0:	05000008 	streq	r0, [r0, #-8]
    18c4:	00979c03 	addseq	r9, r7, r3, lsl #24
    18c8:	873c1700 	ldrhi	r1, [ip, -r0, lsl #14]!
    18cc:	00780000 	rsbseq	r0, r8, r0
    18d0:	07f00000 	ldrbeq	r0, [r0, r0]!
    18d4:	9f120000 	svcls	0x00120000
    18d8:	01000003 	tsteq	r0, r3
    18dc:	002c0d54 	eoreq	r0, ip, r4, asr sp
    18e0:	0ab20000 	beq	fec818e8 <__bss_end__+0xfec77d08>
    18e4:	0aaa0000 	beq	fea818ec <__bss_end__+0xfea77d0c>
    18e8:	18000000 	stmdane	r0, {}	; <UNPREDICTABLE>
    18ec:	000087f4 	strdeq	r8, [r0], -r4
    18f0:	0000091b 	andeq	r0, r0, fp, lsl r9
    18f4:	00000805 	andeq	r0, r0, r5, lsl #16
    18f8:	03510119 	cmpeq	r1, #1073741830	; 0x40000006
    18fc:	007fa091 			; <UNDEFINED> instruction: 0x007fa091
    1900:	00880818 	addeq	r0, r8, r8, lsl r8
    1904:	00088e00 	andeq	r8, r8, r0, lsl #28
    1908:	00082600 	andeq	r2, r8, r0, lsl #12
    190c:	50011900 	andpl	r1, r1, r0, lsl #18
    1910:	19007502 	stmdbne	r0, {r1, r8, sl, ip, sp, lr}
    1914:	74025101 	strvc	r5, [r2], #-257	; 0xfffffeff
    1918:	53011900 	movwpl	r1, #6400	; 0x1900
    191c:	7fa09103 	svcvc	0x00a09103
    1920:	88601800 	stmdahi	r0!, {fp, ip}^
    1924:	0a740000 	beq	1d0192c <__bss_end__+0x1cf7d4c>
    1928:	085f0000 	ldmdaeq	pc, {}^	; <UNPREDICTABLE>
    192c:	01190000 	tsteq	r9, r0
    1930:	44030550 	strmi	r0, [r3], #-1360	; 0xfffffab0
    1934:	19000093 	stmdbne	r0, {r0, r1, r4, r7}
    1938:	03055101 	movweq	r5, #20737	; 0x5101
    193c:	0000966c 	andeq	r9, r0, ip, ror #12
    1940:	05520119 	ldrbeq	r0, [r2, #-281]	; 0xfffffee7
    1944:	00979c03 	addseq	r9, r7, r3, lsl #24
    1948:	53011900 	movwpl	r1, #6400	; 0x1900
    194c:	19790802 	ldmdbne	r9!, {r1, fp}^
    1950:	05007d02 	streq	r7, [r0, #-3330]	; 0xfffff2fe
    1954:	00941403 	addseq	r1, r4, r3, lsl #8
    1958:	641a0000 	ldrvs	r0, [sl], #-0
    195c:	80000088 	andhi	r0, r0, r8, lsl #1
    1960:	0000000a 	andeq	r0, r0, sl
    1964:	0000b91c 	andeq	fp, r0, ip, lsl r9
    1968:	00087900 	andeq	r7, r8, r0, lsl #18
    196c:	002c1d00 	eoreq	r1, ip, r0, lsl #26
    1970:	003f0000 	eorseq	r0, pc, r0
    1974:	0000c01c 	andeq	ip, r0, ip, lsl r0
    1978:	00088900 	andeq	r8, r8, r0, lsl #18
    197c:	002c1d00 	eoreq	r1, ip, r0, lsl #26
    1980:	00040000 	andeq	r0, r4, r0
    1984:	00087909 	andeq	r7, r8, r9, lsl #18
    1988:	03bf1e00 			; <UNDEFINED> instruction: 0x03bf1e00
    198c:	38010000 	stmdacc	r1, {}	; <UNPREDICTABLE>
    1990:	0006d50e 	andeq	sp, r6, lr, lsl #10
    1994:	00869800 	addeq	r9, r6, r0, lsl #16
    1998:	00003800 	andeq	r3, r0, r0, lsl #16
    199c:	1b9c0100 	blne	fe701da4 <__bss_end__+0xfe6f81c4>
    19a0:	0e000009 	cdpeq	0, 0, cr0, cr0, cr9, {0}
    19a4:	00747364 	rsbseq	r7, r4, r4, ror #6
    19a8:	d51c3801 	ldrle	r3, [ip, #-2049]	; 0xfffff7ff
    19ac:	f3000006 	vhadd.u8	d0, d0, d6
    19b0:	e900000a 	stmdb	r0, {r1, r3}
    19b4:	0e00000a 	cdpeq	0, 0, cr0, cr0, cr10, {0}
    19b8:	3801006e 	stmdacc	r1, {r1, r2, r3, r5, r6}
    19bc:	00002525 	andeq	r2, r0, r5, lsr #10
    19c0:	000b3a00 	andeq	r3, fp, r0, lsl #20
    19c4:	000b3600 	andeq	r3, fp, r0, lsl #12
    19c8:	00700e00 	rsbseq	r0, r0, r0, lsl #28
    19cc:	d52e3801 	strle	r3, [lr, #-2049]!	; 0xfffff7ff
    19d0:	63000006 	movwvs	r0, #6
    19d4:	5b00000b 	blpl	1a08 <__code_start__-0x65f8>
    19d8:	1f00000b 	svcne	0x0000000b
    19dc:	00000124 	andeq	r0, r0, r4, lsr #2
    19e0:	d5373801 	ldrle	r3, [r7, #-2049]!	; 0xfffff7ff
    19e4:	9d000006 	stcls	0, cr0, [r0, #-24]	; 0xffffffe8
    19e8:	9900000b 	stmdbls	r0, {r0, r1, r3}
    19ec:	1000000b 	andne	r0, r0, fp
    19f0:	006e656c 	rsbeq	r6, lr, ip, ror #10
    19f4:	25063a01 	strcs	r3, [r6, #-2561]	; 0xfffff5ff
    19f8:	c3000000 	movwgt	r0, #0
    19fc:	bb00000b 	bllt	1a30 <__code_start__-0x65d0>
    1a00:	1000000b 	andne	r0, r0, fp
    1a04:	3e010073 	mcrcc	0, 0, r0, cr1, cr3, {3}
    1a08:	0006d508 	andeq	sp, r6, r8, lsl #10
    1a0c:	000c1100 	andeq	r1, ip, r0, lsl #2
    1a10:	000c0f00 	andeq	r0, ip, r0, lsl #30
    1a14:	70200000 	eorvc	r0, r0, r0
    1a18:	01006461 	tsteq	r0, r1, ror #8
    1a1c:	06d50e2e 	ldrbeq	r0, [r5], lr, lsr #28
    1a20:	86740000 	ldrbthi	r0, [r4], -r0
    1a24:	00240000 	eoreq	r0, r4, r0
    1a28:	9c010000 	stcls	0, cr0, [r1], {-0}
    1a2c:	0000097e 	andeq	r0, r0, lr, ror r9
    1a30:	0100700e 	tsteq	r0, lr
    1a34:	06d5182e 	ldrbeq	r1, [r5], lr, lsr #16
    1a38:	0c2a0000 	stceq	0, cr0, [sl], #-0
    1a3c:	0c240000 	stceq	0, cr0, [r4], #-0
    1a40:	f71f0000 			; <UNDEFINED> instruction: 0xf71f0000
    1a44:	01000003 	tsteq	r0, r3
    1a48:	06d5222e 	ldrbeq	r2, [r5], lr, lsr #4
    1a4c:	0c590000 	mraeq	r0, r9, acc0
    1a50:	0c550000 	mraeq	r0, r5, acc0
    1a54:	480f0000 	stmdami	pc, {}	; <UNPREDICTABLE>
    1a58:	01000003 	tsteq	r0, r3
    1a5c:	00252c2e 	eoreq	r2, r5, lr, lsr #24
    1a60:	52010000 	andpl	r0, r1, #0, 0
    1a64:	6e656c10 	mcrvs	12, 3, r6, cr5, cr0, {0}
    1a68:	062f0100 	strteq	r0, [pc], -r0, lsl #2
    1a6c:	00000025 	andeq	r0, r0, r5, lsr #32
    1a70:	00000c7c 	andeq	r0, r0, ip, ror ip
    1a74:	00000c7a 	andeq	r0, r0, sl, ror ip
    1a78:	03071e00 	movweq	r1, #32256	; 0x7e00
    1a7c:	27010000 	strcs	r0, [r1, -r0]
    1a80:	0000250c 	andeq	r2, r0, ip, lsl #10
    1a84:	00866000 	addeq	r6, r6, r0
    1a88:	00001400 	andeq	r1, r0, r0, lsl #8
    1a8c:	ab9c0100 	blge	fe701e94 <__bss_end__+0xfe6f82b4>
    1a90:	0e000009 	cdpeq	0, 0, cr0, cr0, cr9, {0}
    1a94:	27010063 	strcs	r0, [r1, -r3, rrx]
    1a98:	00002518 	andeq	r2, r0, r8, lsl r5
    1a9c:	000c9500 	andeq	r9, ip, r0, lsl #10
    1aa0:	000c8f00 	andeq	r8, ip, r0, lsl #30
    1aa4:	78210000 	stmdavc	r1!, {}	; <UNPREDICTABLE>
    1aa8:	01000003 	tsteq	r0, r3
    1aac:	8884061f 	stmhi	r4, {r0, r1, r2, r3, r4, r9, sl}
    1ab0:	00640000 	rsbeq	r0, r4, r0
    1ab4:	9c010000 	stcls	0, cr0, [r1], {-0}
    1ab8:	00000a3b 	andeq	r0, r0, fp, lsr sl
    1abc:	00035b1f 	andeq	r5, r3, pc, lsl fp
    1ac0:	1b1f0100 	blne	7c1ec8 <__bss_end__+0x7b82e8>
    1ac4:	0000009e 	muleq	r0, lr, r0
    1ac8:	00000cc7 	andeq	r0, r0, r7, asr #25
    1acc:	00000cc3 	andeq	r0, r0, r3, asr #25
    1ad0:	0003b71f 	andeq	fp, r3, pc, lsl r7
    1ad4:	301f0100 	andscc	r0, pc, r0, lsl #2
    1ad8:	000000d1 	ldrdeq	r0, [r0], -r1
    1adc:	00000cec 	andeq	r0, r0, ip, ror #25
    1ae0:	00000ce8 	andeq	r0, r0, r8, ror #25
    1ae4:	00007813 	andeq	r7, r0, r3, lsl r8
    1ae8:	000a4b00 	andeq	r4, sl, r0, lsl #22
    1aec:	a4030500 	strge	r0, [r3], #-1280	; 0xfffffb00
    1af0:	18000097 	stmdane	r0, {r0, r1, r2, r4, r7}
    1af4:	000088cc 	andeq	r8, r0, ip, asr #17
    1af8:	00000a74 	andeq	r0, r0, r4, ror sl
    1afc:	00000a31 	andeq	r0, r0, r1, lsr sl
    1b00:	05500119 	ldrbeq	r0, [r0, #-281]	; 0xfffffee7
    1b04:	00934403 	addseq	r4, r3, r3, lsl #8
    1b08:	51011900 	tstpl	r1, r0, lsl #18
    1b0c:	966c0305 	strbtls	r0, [ip], -r5, lsl #6
    1b10:	01190000 	tsteq	r9, r0
    1b14:	a4030552 	strge	r0, [r3], #-1362	; 0xfffffaae
    1b18:	19000097 	stmdbne	r0, {r0, r1, r2, r4, r7}
    1b1c:	08025301 	stmdaeq	r2, {r0, r8, r9, ip, lr}
    1b20:	7d021920 	vstrvc.16	s2, [r2, #-64]	; 0xffffffc0	; <UNPREDICTABLE>
    1b24:	a4030500 	strge	r0, [r3], #-1280	; 0xfffffb00
    1b28:	00000096 	muleq	r0, r6, r0
    1b2c:	0088d01a 	addeq	sp, r8, sl, lsl r0
    1b30:	000a8000 	andeq	r8, sl, r0
    1b34:	c01c0000 	andsgt	r0, ip, r0
    1b38:	4b000000 	blmi	1b40 <__code_start__-0x64c0>
    1b3c:	1d00000a 	stcne	0, cr0, [r0, #-40]	; 0xffffffd8
    1b40:	0000002c 	andeq	r0, r0, ip, lsr #32
    1b44:	3b09000e 	blcc	241b84 <__bss_end__+0x237fa4>
    1b48:	2200000a 	andcs	r0, r0, #10, 0
    1b4c:	000003ef 	andeq	r0, r0, pc, ror #7
    1b50:	000003ef 	andeq	r0, r0, pc, ror #7
    1b54:	2205d903 	andcs	sp, r5, #49152	; 0xc000
    1b58:	000003c7 	andeq	r0, r0, r7, asr #7
    1b5c:	000003c7 	andeq	r0, r0, r7, asr #7
    1b60:	2205d803 	andcs	sp, r5, #196608	; 0x30000
    1b64:	00000398 	muleq	r0, r8, r3
    1b68:	00000398 	muleq	r0, r8, r3
    1b6c:	2207db03 	andcs	sp, r7, #3072	; 0xc00
    1b70:	00000257 	andeq	r0, r0, r7, asr r2
    1b74:	00000257 	andeq	r0, r0, r7, asr r2
    1b78:	22062803 	andcs	r2, r6, #196608	; 0x30000
    1b7c:	0000003a 	andeq	r0, r0, sl, lsr r0
    1b80:	0000003a 	andeq	r0, r0, sl, lsr r0
    1b84:	22066703 	andcs	r6, r6, #786432	; 0xc0000
    1b88:	00000391 	muleq	r0, r1, r3
    1b8c:	00000391 	muleq	r0, r1, r3
    1b90:	0007dc03 	andeq	sp, r7, r3, lsl #24
    1b94:	0000012f 	andeq	r0, r0, pc, lsr #2
    1b98:	07ec0004 	strbeq	r0, [ip, r4]!
    1b9c:	01040000 	mrseq	r0, (UNDEF: 4)
    1ba0:	0000012a 	andeq	r0, r0, sl, lsr #2
    1ba4:	0004190c 	andeq	r1, r4, ip, lsl #18
    1ba8:	00028c00 	andeq	r8, r2, r0, lsl #24
    1bac:	008d8000 	addeq	r8, sp, r0
    1bb0:	00002c00 	andeq	r2, r0, r0, lsl #24
    1bb4:	000dea00 	andeq	lr, sp, r0, lsl #20
    1bb8:	05040200 	streq	r0, [r4, #-512]	; 0xfffffe00
    1bbc:	00746e69 	rsbseq	r6, r4, r9, ror #28
    1bc0:	95070403 	strls	r0, [r7, #-1027]	; 0xfffffbfd
    1bc4:	03000000 	movweq	r0, #0
    1bc8:	002e0601 	eoreq	r0, lr, r1, lsl #12
    1bcc:	02030000 	andeq	r0, r3, #0, 0
    1bd0:	0000f805 	andeq	pc, r0, r5, lsl #16
    1bd4:	05040300 	streq	r0, [r4, #-768]	; 0xfffffd00
    1bd8:	000000a7 	andeq	r0, r0, r7, lsr #1
    1bdc:	a2050803 	andge	r0, r5, #196608	; 0x30000
    1be0:	03000000 	movweq	r0, #0
    1be4:	002c0801 	eoreq	r0, ip, r1, lsl #16
    1be8:	02030000 	andeq	r0, r3, #0, 0
    1bec:	00004d07 	andeq	r4, r0, r7, lsl #26
    1bf0:	07040300 	streq	r0, [r4, -r0, lsl #6]
    1bf4:	00000090 	muleq	r0, r0, r0
    1bf8:	8b070803 	blhi	1c3c0c <__bss_end__+0x1ba02c>
    1bfc:	04000000 	streq	r0, [r0], #-0
    1c00:	00000025 	andeq	r0, r0, r5, lsr #32
    1c04:	0000007a 	andeq	r0, r0, sl, ror r0
    1c08:	00002505 	andeq	r2, r0, r5, lsl #10
    1c0c:	b0060000 	andlt	r0, r6, r0
    1c10:	02000000 	andeq	r0, r0, #0, 0
    1c14:	00860e1c 	addeq	r0, r6, ip, lsl lr
    1c18:	04070000 	streq	r0, [r7], #-0
    1c1c:	0000006b 	andeq	r0, r0, fp, rrx
    1c20:	00002504 	andeq	r2, r0, r4, lsl #10
    1c24:	00009b00 	andeq	r9, r0, r0, lsl #22
    1c28:	009b0500 	addseq	r0, fp, r0, lsl #10
    1c2c:	07000000 	streq	r0, [r0, -r0]
    1c30:	0000a804 	andeq	sl, r0, r4, lsl #16
    1c34:	08010300 	stmdaeq	r1, {r8, r9}
    1c38:	00000035 	andeq	r0, r0, r5, lsr r0
    1c3c:	0000a108 	andeq	sl, r0, r8, lsl #2
    1c40:	02f40600 	rscseq	r0, r4, #0, 12
    1c44:	21020000 	mrscs	r0, (UNDEF: 2)
    1c48:	0000b90e 	andeq	fp, r0, lr, lsl #18
    1c4c:	8c040700 	stchi	7, cr0, [r4], {-0}
    1c50:	09000000 	stmdbeq	r0, {}	; <UNPREDICTABLE>
    1c54:	0000003a 	andeq	r0, r0, sl, lsr r0
    1c58:	80060401 	andhi	r0, r6, r1, lsl #8
    1c5c:	2c00008d 	stccs	0, cr0, [r0], {141}	; 0x8d
    1c60:	01000000 	mrseq	r0, (UNDEF: 0)
    1c64:	00010e9c 	muleq	r1, ip, lr
    1c68:	8d940a00 	vldrhi	s0, [r4]
    1c6c:	00e80000 	rsceq	r0, r8, r0
    1c70:	010b0000 	mrseq	r0, (UNDEF: 11)
    1c74:	c0030550 	andgt	r0, r3, r0, asr r5
    1c78:	00000097 	muleq	r0, r7, r0
    1c7c:	008d980c 	addeq	r9, sp, ip, lsl #16
    1c80:	00010e00 	andeq	r0, r1, r0, lsl #28
    1c84:	8da00d00 	stchi	13, cr0, [r0]
    1c88:	011a0000 	tsteq	sl, r0
    1c8c:	01040000 	mrseq	r0, (UNDEF: 4)
    1c90:	010b0000 	mrseq	r0, (UNDEF: 11)
    1c94:	003a0150 	eorseq	r0, sl, r0, asr r1
    1c98:	008da40c 	addeq	sl, sp, ip, lsl #8
    1c9c:	00012600 	andeq	r2, r1, r0, lsl #12
    1ca0:	340e0000 	strcc	r0, [lr], #-0
    1ca4:	34000004 	strcc	r0, [r0], #-4
    1ca8:	02000004 	andeq	r0, r0, #4, 0
    1cac:	100e0646 	andne	r0, lr, r6, asr #12
    1cb0:	10000004 	andne	r0, r0, r4
    1cb4:	02000004 	andeq	r0, r0, #4, 0
    1cb8:	050e0651 	streq	r0, [lr, #-1617]	; 0xfffff9af
    1cbc:	05000004 	streq	r0, [r0, #-4]
    1cc0:	02000004 	andeq	r0, r0, #4, 0
    1cc4:	43000664 	movwmi	r0, #1636	; 0x664
    1cc8:	04000001 	streq	r0, [r0], #-1
    1ccc:	0008ac00 	andeq	sl, r8, r0, lsl #24
    1cd0:	2a010400 	bcs	42cd8 <__bss_end__+0x390f8>
    1cd4:	0c000001 	stceq	0, cr0, [r0], {1}
    1cd8:	00000452 	andeq	r0, r0, r2, asr r4
    1cdc:	0000028c 	andeq	r0, r0, ip, lsl #5
    1ce0:	00008dac 	andeq	r8, r0, ip, lsr #27
    1ce4:	0000002c 	andeq	r0, r0, ip, lsr #32
    1ce8:	00000e72 	andeq	r0, r0, r2, ror lr
    1cec:	69050402 	stmdbvs	r5, {r1, sl}
    1cf0:	0300746e 	movweq	r7, #1134	; 0x46e
    1cf4:	00950704 	addseq	r0, r5, r4, lsl #14
    1cf8:	01030000 	mrseq	r0, (UNDEF: 3)
    1cfc:	00002e06 	andeq	r2, r0, r6, lsl #28
    1d00:	05020300 	streq	r0, [r2, #-768]	; 0xfffffd00
    1d04:	000000f8 	strdeq	r0, [r0], -r8
    1d08:	a7050403 	strge	r0, [r5, -r3, lsl #8]
    1d0c:	03000000 	movweq	r0, #0
    1d10:	00a20508 	adceq	r0, r2, r8, lsl #10
    1d14:	01030000 	mrseq	r0, (UNDEF: 3)
    1d18:	00002c08 	andeq	r2, r0, r8, lsl #24
    1d1c:	07020300 	streq	r0, [r2, -r0, lsl #6]
    1d20:	0000004d 	andeq	r0, r0, sp, asr #32
    1d24:	90070403 	andls	r0, r7, r3, lsl #8
    1d28:	03000000 	movweq	r0, #0
    1d2c:	008b0708 	addeq	r0, fp, r8, lsl #14
    1d30:	25040000 	strcs	r0, [r4, #-0]
    1d34:	7a000000 	bvc	1d3c <__code_start__-0x62c4>
    1d38:	05000000 	streq	r0, [r0, #-0]
    1d3c:	00000025 	andeq	r0, r0, r5, lsr #32
    1d40:	00b00600 	adcseq	r0, r0, r0, lsl #12
    1d44:	1c020000 	stcne	0, cr0, [r2], {-0}
    1d48:	0000860e 	andeq	r8, r0, lr, lsl #12
    1d4c:	6b040700 	blvs	103954 <__bss_end__+0xf9d74>
    1d50:	04000000 	streq	r0, [r0], #-0
    1d54:	00000025 	andeq	r0, r0, r5, lsr #32
    1d58:	0000009b 	muleq	r0, fp, r0
    1d5c:	00009b05 	andeq	r9, r0, r5, lsl #22
    1d60:	04070000 	streq	r0, [r7], #-0
    1d64:	000000a8 	andeq	r0, r0, r8, lsr #1
    1d68:	35080103 	strcc	r0, [r8, #-259]	; 0xfffffefd
    1d6c:	08000000 	stmdaeq	r0, {}	; <UNPREDICTABLE>
    1d70:	000000a1 	andeq	r0, r0, r1, lsr #1
    1d74:	0002f406 	andeq	pc, r2, r6, lsl #8
    1d78:	0e210200 	cdpeq	2, 2, cr0, cr1, cr0, {0}
    1d7c:	000000b9 	strheq	r0, [r0], -r9
    1d80:	008c0407 	addeq	r0, ip, r7, lsl #8
    1d84:	42090000 	andmi	r0, r9, #0, 0
    1d88:	01000004 	tsteq	r0, r4
    1d8c:	8dac0603 	stchi	6, cr0, [ip, #12]!
    1d90:	002c0000 	eoreq	r0, ip, r0
    1d94:	9c010000 	stcls	0, cr0, [r1], {-0}
    1d98:	00000128 	andeq	r0, r0, r8, lsr #2
    1d9c:	00033a06 	andeq	r3, r3, r6, lsl #20
    1da0:	10040100 	andne	r0, r4, r0, lsl #2
    1da4:	00000025 	andeq	r0, r0, r5, lsr #32
    1da8:	00036306 	andeq	r6, r3, r6, lsl #6
    1dac:	1f040100 	svcne	0x00040100
    1db0:	00000025 	andeq	r0, r0, r5, lsr #32
    1db4:	00001a0a 	andeq	r1, r0, sl, lsl #20
    1db8:	07050100 	streq	r0, [r5, -r0, lsl #2]
    1dbc:	7373620b 	cmnvc	r3, #-1342177280	; 0xb0000000
    1dc0:	0a070100 	beq	1c21c8 <__bss_end__+0x1b85e8>
    1dc4:	00000128 	andeq	r0, r0, r8, lsr #2
    1dc8:	00000d13 	andeq	r0, r0, r3, lsl sp
    1dcc:	00000d0d 	andeq	r0, r0, sp, lsl #26
    1dd0:	00044a0c 	andeq	r4, r4, ip, lsl #20
    1dd4:	0a080100 	beq	2021dc <__bss_end__+0x1f85fc>
    1dd8:	00000128 	andeq	r0, r0, r8, lsr #2
    1ddc:	008dcc0d 	addeq	ip, sp, sp, lsl #24
    1de0:	00012e00 	andeq	r2, r1, r0, lsl #28
    1de4:	8dd00d00 	ldclhi	13, cr0, [r0]
    1de8:	013a0000 	teqeq	sl, r0
    1dec:	07000000 	streq	r0, [r0, -r0]
    1df0:	00002504 	andeq	r2, r0, r4, lsl #10
    1df4:	001a0e00 	andseq	r0, sl, r0, lsl #28
    1df8:	001a0000 	andseq	r0, sl, r0
    1dfc:	f1020000 	cps	#0
    1e00:	003a0e06 	eorseq	r0, sl, r6, lsl #28
    1e04:	003a0000 	eorseq	r0, sl, r0
    1e08:	67020000 	strvs	r0, [r2, -r0]
    1e0c:	02200006 	eoreq	r0, r0, #6, 0
    1e10:	00040000 	andeq	r0, r4, r0
    1e14:	00000979 	andeq	r0, r0, r9, ror r9
    1e18:	012a0104 			; <UNDEFINED> instruction: 0x012a0104
    1e1c:	840c0000 	strhi	r0, [ip], #-0
    1e20:	8c000004 	stchi	0, cr0, [r0], {4}
    1e24:	78000002 	stmdavc	r0, {r1}
    1e28:	00000000 	andeq	r0, r0, r0
    1e2c:	0e000000 	cdpeq	0, 0, cr0, cr0, cr0, {0}
    1e30:	0200000f 	andeq	r0, r0, #15, 0
    1e34:	6e690504 	cdpvs	5, 6, cr0, cr9, cr4, {0}
    1e38:	25030074 	strcs	r0, [r3, #-116]	; 0xffffff8c
    1e3c:	04000000 	streq	r0, [r0], #-0
    1e40:	00950704 	addseq	r0, r5, r4, lsl #14
    1e44:	01040000 	mrseq	r0, (UNDEF: 4)
    1e48:	00002e06 	andeq	r2, r0, r6, lsl #28
    1e4c:	05020400 	streq	r0, [r2, #-1024]	; 0xfffffc00
    1e50:	000000f8 	strdeq	r0, [r0], -r8
    1e54:	a7050404 	strge	r0, [r5, -r4, lsl #8]
    1e58:	04000000 	streq	r0, [r0], #-0
    1e5c:	00a20508 	adceq	r0, r2, r8, lsl #10
    1e60:	01040000 	mrseq	r0, (UNDEF: 4)
    1e64:	00002c08 	andeq	r2, r0, r8, lsl #24
    1e68:	07020400 	streq	r0, [r2, -r0, lsl #8]
    1e6c:	0000004d 	andeq	r0, r0, sp, asr #32
    1e70:	90070404 	andls	r0, r7, r4, lsl #8
    1e74:	04000000 	streq	r0, [r0], #-0
    1e78:	008b0708 	addeq	r0, fp, r8, lsl #14
    1e7c:	25050000 	strcs	r0, [r5, #-0]
    1e80:	7f000000 	svcvc	0x00000000
    1e84:	06000000 	streq	r0, [r0], -r0
    1e88:	00000025 	andeq	r0, r0, r5, lsr #32
    1e8c:	00b00700 	adcseq	r0, r0, r0, lsl #14
    1e90:	1c020000 	stcne	0, cr0, [r2], {-0}
    1e94:	00008b0e 	andeq	r8, r0, lr, lsl #22
    1e98:	70040800 	andvc	r0, r4, r0, lsl #16
    1e9c:	05000000 	streq	r0, [r0, #-0]
    1ea0:	00000025 	andeq	r0, r0, r5, lsr #32
    1ea4:	000000a0 	andeq	r0, r0, r0, lsr #1
    1ea8:	0000a006 	andeq	sl, r0, r6
    1eac:	04080000 	streq	r0, [r8], #-0
    1eb0:	000000ad 	andeq	r0, r0, sp, lsr #1
    1eb4:	35080104 	strcc	r0, [r8, #-260]	; 0xfffffefc
    1eb8:	03000000 	movweq	r0, #0
    1ebc:	000000a6 	andeq	r0, r0, r6, lsr #1
    1ec0:	0002f407 	andeq	pc, r2, r7, lsl #8
    1ec4:	0e210200 	cdpeq	2, 2, cr0, cr1, cr0, {0}
    1ec8:	000000be 	strheq	r0, [r0], -lr
    1ecc:	00910408 	addseq	r0, r1, r8, lsl #8
    1ed0:	a8090000 	stmdage	r9, {}	; <UNPREDICTABLE>
    1ed4:	01000004 	tsteq	r0, r4
    1ed8:	0031110d 	eorseq	r1, r1, sp, lsl #2
    1edc:	050a0000 	streq	r0, [sl, #-0]
    1ee0:	01000004 	tsteq	r0, r4
    1ee4:	8e04061f 	mcrhi	6, 0, r0, cr4, cr15, {0}
    1ee8:	00500000 	subseq	r0, r0, r0
    1eec:	9c010000 	stcls	0, cr0, [r1], {-0}
    1ef0:	000001a5 	andeq	r0, r0, r5, lsr #3
    1ef4:	0004cc0b 	andeq	ip, r4, fp, lsl #24
    1ef8:	0f2f0100 	svceq	0x002f0100
    1efc:	0000002c 	andeq	r0, r0, ip, lsr #32
    1f00:	00000d40 	andeq	r0, r0, r0, asr #26
    1f04:	00000d3e 	andeq	r0, r0, lr, lsr sp
    1f08:	0004670b 	andeq	r6, r4, fp, lsl #14
    1f0c:	0f300100 	svceq	0x00300100
    1f10:	0000002c 	andeq	r0, r0, ip, lsr #32
    1f14:	00000d5a 	andeq	r0, r0, sl, asr sp
    1f18:	00000d58 	andeq	r0, r0, r8, asr sp
    1f1c:	0004990b 	andeq	r9, r4, fp, lsl #18
    1f20:	0f310100 	svceq	0x00310100
    1f24:	0000002c 	andeq	r0, r0, ip, lsr #32
    1f28:	00000d74 	andeq	r0, r0, r4, ror sp
    1f2c:	00000d72 	andeq	r0, r0, r2, ror sp
    1f30:	0004b30b 	andeq	fp, r4, fp, lsl #6
    1f34:	0f320100 	svceq	0x00320100
    1f38:	0000002c 	andeq	r0, r0, ip, lsr #32
    1f3c:	00000d8d 	andeq	r0, r0, sp, lsl #27
    1f40:	00000d8b 	andeq	r0, r0, fp, lsl #27
    1f44:	008e0c0c 	addeq	r0, lr, ip, lsl #24
    1f48:	0001d000 	andeq	sp, r1, r0
    1f4c:	8e180c00 	cdphi	12, 1, cr0, cr8, cr0, {0}
    1f50:	01ff0000 	mvnseq	r0, r0
    1f54:	200d0000 	andcs	r0, sp, r0
    1f58:	0b00008e 	bleq	2198 <__code_start__-0x5e68>
    1f5c:	5b000002 	blpl	1f6c <__code_start__-0x6094>
    1f60:	0e000001 	cdpeq	0, 0, cr0, cr0, cr1, {0}
    1f64:	3a015001 	bcc	55f70 <__bss_end__+0x4c390>
    1f68:	8e2c0d00 	cdphi	13, 2, cr0, cr12, cr0, {0}
    1f6c:	02170000 	andseq	r0, r7, #0, 0
    1f70:	017b0000 	cmneq	fp, r0
    1f74:	010e0000 	mrseq	r0, (UNDEF: 14)
    1f78:	240c0550 	strcs	r0, [ip], #-1360	; 0xfffffab0
    1f7c:	0e201000 	cdpeq	0, 2, cr1, cr0, cr0, {0}
    1f80:	0c055101 	stfeqs	f5, [r5], {1}
    1f84:	5a000001 	bpl	1f90 <__code_start__-0x6070>
    1f88:	8e380d00 	cdphi	13, 3, cr0, cr8, cr0, {0}
    1f8c:	02170000 	andseq	r0, r7, #0, 0
    1f90:	019b0000 	orrseq	r0, fp, r0
    1f94:	010e0000 	mrseq	r0, (UNDEF: 14)
    1f98:	1c0c0550 	cfstr32ne	mvfx0, [ip], {80}	; 0x50
    1f9c:	0e201000 	cdpeq	0, 2, cr1, cr0, cr0, {0}
    1fa0:	0c055101 	stfeqs	f5, [r5], {1}
    1fa4:	5a000020 	bpl	202c <__code_start__-0x5fd4>
    1fa8:	8e400c00 	cdphi	12, 4, cr0, cr0, cr0, {0}
    1fac:	01a50000 			; <UNDEFINED> instruction: 0x01a50000
    1fb0:	0f000000 	svceq	0x00000000
    1fb4:	00000475 	andeq	r0, r0, r5, ror r4
    1fb8:	f0061701 			; <UNDEFINED> instruction: 0xf0061701
    1fbc:	1400008d 	strne	r0, [r0], #-141	; 0xffffff73
    1fc0:	01000000 	mrseq	r0, (UNDEF: 0)
    1fc4:	0001d09c 	muleq	r1, ip, r0
    1fc8:	04d40b00 	ldrbeq	r0, [r4], #2816	; 0xb00
    1fcc:	18010000 	stmdane	r1, {}	; <UNPREDICTABLE>
    1fd0:	0000310e 	andeq	r3, r0, lr, lsl #2
    1fd4:	000da800 	andeq	sl, sp, r0, lsl #16
    1fd8:	000da200 	andeq	sl, sp, r0, lsl #4
    1fdc:	a5100000 	ldrge	r0, [r0, #-0]
    1fe0:	01000004 	tsteq	r0, r4
    1fe4:	0025050e 	eoreq	r0, r5, lr, lsl #10
    1fe8:	8dd80000 	ldclhi	0, cr0, [r8]
    1fec:	00180000 	andseq	r0, r8, r0
    1ff0:	9c010000 	stcls	0, cr0, [r1], {-0}
    1ff4:	000001ff 	strdeq	r0, [r0], -pc	; <UNPREDICTABLE>
    1ff8:	0004d40b 	andeq	sp, r4, fp, lsl #8
    1ffc:	0e0f0100 	adfeqe	f0, f7, f0
    2000:	00000031 	andeq	r0, r0, r1, lsr r0
    2004:	00000dd6 	ldrdeq	r0, [r0], -r6
    2008:	00000dd2 	ldrdeq	r0, [r0], -r2
    200c:	04341100 	ldrteq	r1, [r4], #-256	; 0xffffff00
    2010:	04340000 	ldrteq	r0, [r4], #-0
    2014:	46020000 	strmi	r0, [r2], -r0
    2018:	04101106 	ldreq	r1, [r0], #-262	; 0xfffffefa
    201c:	04100000 	ldreq	r0, [r0], #-0
    2020:	51020000 	mrspl	r0, (UNDEF: 2)
    2024:	046f1106 	strbteq	r1, [pc], #-262	; 202c <__code_start__-0x5fd4>
    2028:	046f0000 	strbteq	r0, [pc], #-0	; 2030 <__code_start__-0x5fd0>
    202c:	a4020000 	strge	r0, [r2], #-0
    2030:	024d0006 	subeq	r0, sp, #6, 0
    2034:	00040000 	andeq	r0, r4, r0
    2038:	00000a8b 	andeq	r0, r0, fp, lsl #21
    203c:	012a0104 			; <UNDEFINED> instruction: 0x012a0104
    2040:	ef0c0000 	svc	0x000c0000
    2044:	8c000004 	stchi	0, cr0, [r0], {4}
    2048:	54000002 	strpl	r0, [r0], #-2
    204c:	8400008e 	strhi	r0, [r0], #-142	; 0xffffff72
    2050:	e5000000 	str	r0, [r0, #-0]
    2054:	0200000f 	andeq	r0, r0, #15, 0
    2058:	6e690504 	cdpvs	5, 6, cr0, cr9, cr4, {0}
    205c:	04030074 	streq	r0, [r3], #-116	; 0xffffff8c
    2060:	00009507 	andeq	r9, r0, r7, lsl #10
    2064:	06010300 	streq	r0, [r1], -r0, lsl #6
    2068:	0000002e 	andeq	r0, r0, lr, lsr #32
    206c:	f8050203 			; <UNDEFINED> instruction: 0xf8050203
    2070:	03000000 	movweq	r0, #0
    2074:	00a70504 	adceq	r0, r7, r4, lsl #10
    2078:	08030000 	stmdaeq	r3, {}	; <UNPREDICTABLE>
    207c:	0000a205 	andeq	sl, r0, r5, lsl #4
    2080:	08010300 	stmdaeq	r1, {r8, r9}
    2084:	0000002c 	andeq	r0, r0, ip, lsr #32
    2088:	4d070203 	sfmmi	f0, 4, [r7, #-12]
    208c:	03000000 	movweq	r0, #0
    2090:	00900704 	addseq	r0, r0, r4, lsl #14
    2094:	08030000 	stmdaeq	r3, {}	; <UNPREDICTABLE>
    2098:	00008b07 	andeq	r8, r0, r7, lsl #22
    209c:	00250400 	eoreq	r0, r5, r0, lsl #8
    20a0:	007a0000 	rsbseq	r0, sl, r0
    20a4:	25050000 	strcs	r0, [r5, #-0]
    20a8:	00000000 	andeq	r0, r0, r0
    20ac:	0000b006 	andeq	fp, r0, r6
    20b0:	0e1c0200 	cdpeq	2, 1, cr0, cr12, cr0, {0}
    20b4:	00000086 	andeq	r0, r0, r6, lsl #1
    20b8:	006b0407 	rsbeq	r0, fp, r7, lsl #8
    20bc:	25040000 	strcs	r0, [r4, #-0]
    20c0:	9b000000 	blls	20c8 <__code_start__-0x5f38>
    20c4:	05000000 	streq	r0, [r0, #-0]
    20c8:	0000009b 	muleq	r0, fp, r0
    20cc:	a8040700 	stmdage	r4, {r8, r9, sl}
    20d0:	03000000 	movweq	r0, #0
    20d4:	00350801 	eorseq	r0, r5, r1, lsl #16
    20d8:	a1080000 	mrsge	r0, (UNDEF: 8)
    20dc:	06000000 	streq	r0, [r0], -r0
    20e0:	000002f4 	strdeq	r0, [r0], -r4
    20e4:	b90e2102 	stmdblt	lr, {r1, r8, sp}
    20e8:	07000000 	streq	r0, [r0, -r0]
    20ec:	00008c04 	andeq	r8, r0, r4, lsl #24
    20f0:	04e50900 	strbteq	r0, [r5], #2304	; 0x900
    20f4:	1e010000 	cdpne	0, 0, cr0, cr1, cr0, {0}
    20f8:	008ec006 	addeq	ip, lr, r6
    20fc:	00001800 	andeq	r1, r0, r0, lsl #16
    2100:	099c0100 	ldmibeq	ip, {r8}
    2104:	0a000001 	beq	2110 <__code_start__-0x5ef0>
    2108:	00636573 	rsbeq	r6, r3, r3, ror r5
    210c:	2c191e01 	ldccs	14, cr1, [r9], {1}
    2110:	f9000000 			; <UNDEFINED> instruction: 0xf9000000
    2114:	f500000d 			; <UNDEFINED> instruction: 0xf500000d
    2118:	0b00000d 	bleq	2154 <__code_start__-0x5eac>
    211c:	00008ed4 	ldrdeq	r8, [r0], -r4
    2120:	00000109 	andeq	r0, r0, r9, lsl #2
    2124:	1150010c 	cmpne	r0, ip, lsl #2
    2128:	355001f3 	ldrbcc	r0, [r0, #-499]	; 0xfffffe0d
    212c:	5001f324 	andpl	pc, r1, r4, lsr #6
    2130:	f324321c 	vqsub.u32	d3, d4, d12
    2134:	33225001 			; <UNDEFINED> instruction: 0x33225001
    2138:	09000024 	stmdbeq	r0, {r2, r5}
    213c:	00000410 	andeq	r0, r0, r0, lsl r4
    2140:	a8061b01 	stmdage	r6, {r0, r8, r9, fp, ip}
    2144:	1800008e 	stmdane	r0, {r1, r2, r3, r7}
    2148:	01000000 	mrseq	r0, (UNDEF: 0)
    214c:	0001529c 	muleq	r1, ip, r2
    2150:	736d0a00 	cmnvc	sp, #0, 20
    2154:	181b0100 	ldmdane	fp, {r8}
    2158:	0000002c 	andeq	r0, r0, ip, lsr #32
    215c:	00000e1e 	andeq	r0, r0, lr, lsl lr
    2160:	00000e1a 	andeq	r0, r0, sl, lsl lr
    2164:	008ebc0b 	addeq	fp, lr, fp, lsl #24
    2168:	00015200 	andeq	r5, r1, r0, lsl #4
    216c:	50010c00 	andpl	r0, r1, r0, lsl #24
    2170:	5001f311 	andpl	pc, r1, r1, lsl r3	; <UNPREDICTABLE>
    2174:	01f32435 	mvnseq	r2, r5, lsr r4
    2178:	24321c50 	ldrtcs	r1, [r2], #-3152	; 0xfffff3b0
    217c:	225001f3 	subscs	r0, r0, #-1073741764	; 0xc000003c
    2180:	00002433 	andeq	r2, r0, r3, lsr r4
    2184:	00051809 	andeq	r1, r5, r9, lsl #16
    2188:	06120100 	ldreq	r0, [r2], -r0, lsl #2
    218c:	00008e84 	andeq	r8, r0, r4, lsl #29
    2190:	00000024 	andeq	r0, r0, r4, lsr #32
    2194:	01c29c01 	biceq	r9, r2, r1, lsl #24
    2198:	750a0000 	strvc	r0, [sl, #-0]
    219c:	12010073 	andne	r0, r1, #115, 0	; 0x73
    21a0:	00002c18 	andeq	r2, r0, r8, lsl ip
    21a4:	000e4300 	andeq	r4, lr, r0, lsl #6
    21a8:	000e3f00 	andeq	r3, lr, r0, lsl #30
    21ac:	62720d00 	rsbsvs	r0, r2, #0, 26
    21b0:	0e130100 	mufeqs	f0, f3, f0
    21b4:	0000002c 	andeq	r0, r0, ip, lsr #32
    21b8:	00000e63 	andeq	r0, r0, r3, ror #28
    21bc:	00000e61 	andeq	r0, r0, r1, ror #28
    21c0:	008e940e 	addeq	r9, lr, lr, lsl #8
    21c4:	00001400 	andeq	r1, r0, r0, lsl #8
    21c8:	0001b800 	andeq	fp, r1, r0, lsl #16
    21cc:	61720d00 	cmnvs	r2, r0, lsl #26
    21d0:	12150100 	andsne	r0, r5, #0
    21d4:	0000002c 	andeq	r0, r0, ip, lsr #32
    21d8:	00000e78 	andeq	r0, r0, r8, ror lr
    21dc:	00000e76 	andeq	r0, r0, r6, ror lr
    21e0:	008e980f 	addeq	r9, lr, pc, lsl #16
    21e4:	0001c200 	andeq	ip, r1, r0, lsl #4
    21e8:	900f0000 	andls	r0, pc, r0
    21ec:	c200008e 	andgt	r0, r0, #142, 0	; 0x8e
    21f0:	00000001 	andeq	r0, r0, r1
    21f4:	00050910 	andeq	r0, r5, r0, lsl r9
    21f8:	0a090100 	beq	242600 <__bss_end__+0x238a20>
    21fc:	0000002c 	andeq	r0, r0, ip, lsr #32
    2200:	00008e68 	andeq	r8, r0, r8, ror #28
    2204:	0000001c 	andeq	r0, r0, ip, lsl r0
    2208:	020a9c01 	andeq	r9, sl, #256	; 0x100
    220c:	750d0000 	strvc	r0, [sp, #-0]
    2210:	0e0d0100 	adfeqe	f0, f5, f0
    2214:	0000002c 	andeq	r0, r0, ip, lsr #32
    2218:	00000e8f 	andeq	r0, r0, pc, lsl #29
    221c:	00000e8b 	andeq	r0, r0, fp, lsl #29
    2220:	008e700f 	addeq	r7, lr, pc
    2224:	00023800 	andeq	r3, r2, r0, lsl #16
    2228:	8e740f00 	cdphi	15, 7, cr0, cr4, cr0, {0}
    222c:	020a0000 	andeq	r0, sl, #0, 0
    2230:	7c0f0000 	stcvc	0, cr0, [pc], {-0}
    2234:	3800008e 	stmdacc	r0, {r1, r2, r3, r7}
    2238:	00000002 	andeq	r0, r0, r2
    223c:	00052110 	andeq	r2, r5, r0, lsl r1
    2240:	0a040100 	beq	102648 <__bss_end__+0xf8a68>
    2244:	0000002c 	andeq	r0, r0, ip, lsr #32
    2248:	00008e54 	andeq	r8, r0, r4, asr lr
    224c:	00000014 	andeq	r0, r0, r4, lsl r0
    2250:	02389c01 	eorseq	r9, r8, #256	; 0x100
    2254:	600b0000 	andvs	r0, fp, r0
    2258:	4400008e 	strmi	r0, [r0], #-142	; 0xffffff72
    225c:	0c000002 	stceq	0, cr0, [r0], {2}
    2260:	0c055001 	stceq	0, cr5, [r5], {1}
    2264:	20003004 	andcs	r3, r0, r4
    2268:	d9110000 	ldmdble	r1, {}	; <UNPREDICTABLE>
    226c:	d9000004 	stmdble	r0, {r2}
    2270:	02000004 	andeq	r0, r0, #4, 0
    2274:	03110693 	tsteq	r1, #154140672	; 0x9300000
    2278:	03000005 	movweq	r0, #5
    227c:	02000005 	andeq	r0, r0, #5, 0
    2280:	68000ab0 	stmdavs	r0, {r4, r5, r7, r9, fp}
    2284:	04000005 	streq	r0, [r0], #-5
    2288:	000b8c00 	andeq	r8, fp, r0, lsl #24
    228c:	2a010400 	bcs	43294 <__bss_end__+0x396b4>
    2290:	0c000001 	stceq	0, cr0, [r0], {1}
    2294:	00000564 	andeq	r0, r0, r4, ror #10
    2298:	00000579 	andeq	r0, r0, r9, ror r5
    229c:	00008ed8 	ldrdeq	r8, [r0], -r8	; <UNPREDICTABLE>
    22a0:	000001ac 	andeq	r0, r0, ip, lsr #3
    22a4:	000010c2 	andeq	r1, r0, r2, asr #1
    22a8:	69050402 	stmdbvs	r5, {r1, sl}
    22ac:	0300746e 	movweq	r7, #1134	; 0x46e
    22b0:	00950704 	addseq	r0, r5, r4, lsl #14
    22b4:	2c040000 	stccs	0, cr0, [r4], {-0}
    22b8:	03000000 	movweq	r0, #0
    22bc:	002e0601 	eoreq	r0, lr, r1, lsl #12
    22c0:	02030000 	andeq	r0, r3, #0, 0
    22c4:	0000f805 	andeq	pc, r0, r5, lsl #16
    22c8:	05040300 	streq	r0, [r4, #-768]	; 0xfffffd00
    22cc:	000000a7 	andeq	r0, r0, r7, lsr #1
    22d0:	a2050803 	andge	r0, r5, #196608	; 0x30000
    22d4:	03000000 	movweq	r0, #0
    22d8:	002c0801 	eoreq	r0, ip, r1, lsl #16
    22dc:	02030000 	andeq	r0, r3, #0, 0
    22e0:	00004d07 	andeq	r4, r0, r7, lsl #26
    22e4:	036f0500 	cmneq	pc, #0, 10
    22e8:	34050000 	strcc	r0, [r5], #-0
    22ec:	00006e19 	andeq	r6, r0, r9, lsl lr
    22f0:	07040300 	streq	r0, [r4, -r0, lsl #6]
    22f4:	00000090 	muleq	r0, r0, r0
    22f8:	8b070803 	blhi	1c430c <__bss_end__+0x1ba72c>
    22fc:	06000000 	streq	r0, [r0], -r0
    2300:	00000025 	andeq	r0, r0, r5, lsr #32
    2304:	0000008b 	andeq	r0, r0, fp, lsl #1
    2308:	00002507 	andeq	r2, r0, r7, lsl #10
    230c:	b0080000 	andlt	r0, r8, r0
    2310:	02000000 	andeq	r0, r0, #0, 0
    2314:	00970e1c 	addseq	r0, r7, ip, lsl lr
    2318:	04090000 	streq	r0, [r9], #-0
    231c:	0000007c 	andeq	r0, r0, ip, ror r0
    2320:	00002506 	andeq	r2, r0, r6, lsl #10
    2324:	0000ac00 	andeq	sl, r0, r0, lsl #24
    2328:	00ac0700 	adceq	r0, ip, r0, lsl #14
    232c:	09000000 	stmdbeq	r0, {}	; <UNPREDICTABLE>
    2330:	0000b904 	andeq	fp, r0, r4, lsl #18
    2334:	08010300 	stmdaeq	r1, {r8, r9}
    2338:	00000035 	andeq	r0, r0, r5, lsr r0
    233c:	0000b20a 	andeq	fp, r0, sl, lsl #4
    2340:	02f40800 	rscseq	r0, r4, #0, 16
    2344:	21020000 	mrscs	r0, (UNDEF: 2)
    2348:	0000ca0e 	andeq	ip, r0, lr, lsl #20
    234c:	9d040900 	vstrls.16	s0, [r4, #-0]	; <UNPREDICTABLE>
    2350:	0b000000 	bleq	2358 <__code_start__-0x5ca8>
    2354:	00540107 	subseq	r0, r4, r7, lsl #2
    2358:	0c040000 	stceq	0, cr0, [r4], {-0}
    235c:	00010f0e 	andeq	r0, r1, lr, lsl #30
    2360:	066a0c00 	strbteq	r0, [sl], -r0, lsl #24
    2364:	0c000000 	stceq	0, cr0, [r0], {-0}
    2368:	00000547 	andeq	r0, r0, r7, asr #10
    236c:	05ad0c01 	streq	r0, [sp, #3073]!	; 0xc01
    2370:	0c040000 	stceq	0, cr0, [r4], {-0}
    2374:	000005bc 			; <UNDEFINED> instruction: 0x000005bc
    2378:	05cb0c05 	strbeq	r0, [fp, #3077]	; 0xc05
    237c:	0c060000 	stceq	0, cr0, [r6], {-0}
    2380:	000005da 	ldrdeq	r0, [r0], -sl
    2384:	06460c07 	strbeq	r0, [r6], -r7, lsl #24
    2388:	0c030000 	stceq	0, cr0, [r3], {-0}
    238c:	000005e9 	andeq	r0, r0, r9, ror #11
    2390:	580d0002 	stmdapl	sp, {r1}
    2394:	2c000005 	stccs	0, cr0, [r0], {5}
    2398:	ab080603 	blge	203bac <__bss_end__+0x1f9fcc>
    239c:	0e000001 	cdpeq	0, 0, cr0, cr0, cr1, {0}
    23a0:	03006f69 	movweq	r6, #3945	; 0xf69
    23a4:	00330909 	eorseq	r0, r3, r9, lsl #18
    23a8:	0e000000 	cdpeq	0, 0, cr0, cr0, cr0, {0}
    23ac:	00726569 	rsbseq	r6, r2, r9, ror #10
    23b0:	33090a03 	movwcc	r0, #39427	; 0x9a03
    23b4:	04000000 	streq	r0, [r0], #-0
    23b8:	7269690e 	rsbvc	r6, r9, #229376	; 0x38000
    23bc:	09110300 	ldmdbeq	r1, {r8, r9}
    23c0:	00000033 	andeq	r0, r0, r3, lsr r0
    23c4:	636c0e08 	cmnvs	ip, #8, 28	; 0x80
    23c8:	13030072 	movwne	r0, #12402	; 0x3072
    23cc:	00003309 	andeq	r3, r0, r9, lsl #6
    23d0:	6d0e0c00 	stcvs	12, cr0, [lr, #-0]
    23d4:	03007263 	movweq	r7, #611	; 0x263
    23d8:	00330914 	eorseq	r0, r3, r4, lsl r9
    23dc:	0e100000 	cdpeq	0, 1, cr0, cr0, cr0, {0}
    23e0:	0072736c 	rsbseq	r7, r2, ip, ror #6
    23e4:	33091503 	movwcc	r1, #38147	; 0x9503
    23e8:	14000000 	strne	r0, [r0], #-0
    23ec:	72736d0e 	rsbsvc	r6, r3, #896	; 0x380
    23f0:	09160300 	ldmdbeq	r6, {r8, r9}
    23f4:	00000033 	andeq	r0, r0, r3, lsr r0
    23f8:	065d0f18 	uadd16eq	r0, sp, r8
    23fc:	17030000 	strne	r0, [r3, -r0]
    2400:	00003309 	andeq	r3, r0, r9, lsl #6
    2404:	330f1c00 	movwcc	r1, #64512	; 0xfc00
    2408:	03000006 	movweq	r0, #6
    240c:	0033091b 	eorseq	r0, r3, fp, lsl r9
    2410:	0f200000 	svceq	0x00200000
    2414:	00000534 	andeq	r0, r0, r4, lsr r5
    2418:	33091d03 	movwcc	r1, #40195	; 0x9d03
    241c:	24000000 	strcs	r0, [r0], #-0
    2420:	0005fe0f 	andeq	pc, r5, pc, lsl #28
    2424:	091e0300 	ldmdbeq	lr, {r8, r9}
    2428:	00000033 	andeq	r0, r0, r3, lsr r0
    242c:	03100028 	tsteq	r0, #40, 0	; 0x28
    2430:	01000006 	tsteq	r0, r6
    2434:	01c10908 	biceq	r0, r1, r8, lsl #18
    2438:	50040000 	andpl	r0, r4, r0
    243c:	04092021 	streq	r2, [r9], #-33	; 0xffffffdf
    2440:	00000033 	andeq	r0, r0, r3, lsr r0
    2444:	0001bb0a 	andeq	fp, r1, sl, lsl #22
    2448:	06651000 	strbteq	r1, [r5], -r0
    244c:	29010000 	stmdbcs	r1, {}	; <UNPREDICTABLE>
    2450:	0001dc23 	andeq	sp, r1, r3, lsr #24
    2454:	21504000 	cmpcs	r0, r0
    2458:	0f040920 	svceq	0x00040920
    245c:	0a000001 	beq	2468 <__code_start__-0x5b98>
    2460:	000001d6 	ldrdeq	r0, [r0], -r6
    2464:	00043411 	andeq	r3, r4, r1, lsl r4
    2468:	06c20100 	strbeq	r0, [r2], r0, lsl #2
    246c:	00009070 	andeq	r9, r0, r0, ror r0
    2470:	00000014 	andeq	r0, r0, r4, lsl r0
    2474:	02019c01 	andeq	r9, r1, #256	; 0x100
    2478:	78120000 	ldmdavc	r2, {}	; <UNPREDICTABLE>
    247c:	01000090 	swpeq	r0, r0, [r0]	; <UNPREDICTABLE>
    2480:	00000002 	andeq	r0, r0, r2
    2484:	00061913 	andeq	r1, r6, r3, lsl r9
    2488:	05ac0100 	streq	r0, [ip, #256]!	; 0x100
    248c:	00000025 	andeq	r0, r0, r5, lsr #32
    2490:	00009050 	andeq	r9, r0, r0, asr r0
    2494:	00000020 	andeq	r0, r0, r0, lsr #32
    2498:	02389c01 	eorseq	r9, r8, #256	; 0x100
    249c:	58120000 	ldmdapl	r2, {}	; <UNPREDICTABLE>
    24a0:	3b000090 	blcc	26e8 <__code_start__-0x5918>
    24a4:	14000005 	strne	r0, [r0], #-5
    24a8:	00009060 	andeq	r9, r0, r0, rrx
    24ac:	00000547 	andeq	r0, r0, r7, asr #10
    24b0:	05500115 	ldrbeq	r0, [r0, #-277]	; 0xfffffeeb
    24b4:	2150640c 	cmpcs	r0, ip, lsl #8
    24b8:	13000020 	movwne	r0, #32
    24bc:	00000638 	andeq	r0, r0, r8, lsr r6
    24c0:	2505a901 	strcs	sl, [r5, #-2305]	; 0xfffff6ff
    24c4:	40000000 	andmi	r0, r0, r0
    24c8:	10000090 	mulne	r0, r0, r0
    24cc:	01000000 	mrseq	r0, (UNDEF: 0)
    24d0:	0002659c 	muleq	r2, ip, r5
    24d4:	90481200 	subls	r1, r8, r0, lsl #4
    24d8:	053b0000 	ldreq	r0, [fp, #-0]!
    24dc:	4c120000 	ldcmi	0, cr0, [r2], {-0}
    24e0:	56000090 			; <UNDEFINED> instruction: 0x56000090
    24e4:	00000003 	andeq	r0, r0, r3
    24e8:	0002e111 	andeq	lr, r2, r1, lsl r1
    24ec:	06a10100 	strteq	r0, [r1], r0, lsl #2
    24f0:	00009010 	andeq	r9, r0, r0, lsl r0
    24f4:	00000030 	andeq	r0, r0, r0, lsr r0
    24f8:	02c99c01 	sbceq	r9, r9, #256	; 0x100
    24fc:	63160000 	tstvs	r6, #0, 0
    2500:	19a10100 	stmibne	r1!, {r8}
    2504:	0000002c 	andeq	r0, r0, ip, lsr #32
    2508:	00000eb1 			; <UNDEFINED> instruction: 0x00000eb1
    250c:	00000ead 	andeq	r0, r0, sp, lsr #29
    2510:	00901c12 	addseq	r1, r0, r2, lsl ip
    2514:	00053b00 	andeq	r3, r5, r0, lsl #22
    2518:	90201200 	eorls	r1, r0, r0, lsl #4
    251c:	03280000 			; <UNDEFINED> instruction: 0x03280000
    2520:	34170000 	ldrcc	r0, [r7], #-0
    2524:	53000090 	movwpl	r0, #144	; 0x90
    2528:	bf000005 	svclt	0x00000005
    252c:	15000002 	strne	r0, [r0, #-2]
    2530:	0c055001 	stceq	0, cr5, [r5], {1}
    2534:	20215040 	eorcs	r5, r1, r0, asr #32
    2538:	05510115 	ldrbeq	r0, [r1, #-277]	; 0xfffffeeb
    253c:	ff080074 			; <UNDEFINED> instruction: 0xff080074
    2540:	3812001a 	ldmdacc	r2, {r1, r3, r4}
    2544:	3b000090 	blcc	278c <__code_start__-0x5874>
    2548:	00000005 	andeq	r0, r0, r5
    254c:	00060f13 	andeq	r0, r6, r3, lsl pc
    2550:	05990100 	ldreq	r0, [r9, #256]	; 0x100
    2554:	00000025 	andeq	r0, r0, r5, lsr #32
    2558:	00008fe0 	andeq	r8, r0, r0, ror #31
    255c:	00000030 	andeq	r0, r0, r0, lsr r0
    2560:	03289c01 			; <UNDEFINED> instruction: 0x03289c01
    2564:	63180000 	tstvs	r8, #0, 0
    2568:	099d0100 	ldmibeq	sp, {r8}
    256c:	00000025 	andeq	r0, r0, r5, lsr #32
    2570:	00000ed1 	ldrdeq	r0, [r0], -r1
    2574:	00000ecf 	andeq	r0, r0, pc, asr #29
    2578:	008fe812 	addeq	lr, pc, r2, lsl r8	; <UNPREDICTABLE>
    257c:	00053b00 	andeq	r3, r5, r0, lsl #22
    2580:	8fec1200 	svchi	0x00ec1200
    2584:	03560000 	cmpeq	r6, #0, 0
    2588:	fc170000 	ldc2	0, cr0, [r7], {-0}
    258c:	4700008f 	strmi	r0, [r0, -pc, lsl #1]
    2590:	1e000005 	cdpne	0, 0, cr0, cr0, cr5, {0}
    2594:	15000003 	strne	r0, [r0, #-3]
    2598:	0c055001 	stceq	0, cr5, [r5], {1}
    259c:	20215040 	eorcs	r5, r1, r0, asr #32
    25a0:	90041200 	andls	r1, r4, r0, lsl #4
    25a4:	053b0000 	ldreq	r0, [fp, #-0]!
    25a8:	13000000 	movwne	r0, #0
    25ac:	0000056b 	andeq	r0, r0, fp, ror #10
    25b0:	25058a01 	strcs	r8, [r5, #-2561]	; 0xfffff5ff
    25b4:	c0000000 	andgt	r0, r0, r0
    25b8:	2000008f 	andcs	r0, r0, pc, lsl #1
    25bc:	01000000 	mrseq	r0, (UNDEF: 0)
    25c0:	0003569c 	muleq	r3, ip, r6
    25c4:	8fcc1400 	svchi	0x00cc1400
    25c8:	05470000 	strbeq	r0, [r7, #-0]
    25cc:	01150000 	tsteq	r5, r0
    25d0:	640c0550 	strvs	r0, [ip], #-1360	; 0xfffffab0
    25d4:	00202150 	eoreq	r2, r0, r0, asr r1
    25d8:	05391300 	ldreq	r1, [r9, #-768]!	; 0xfffffd00
    25dc:	81010000 	mrshi	r0, (UNDEF: 1)
    25e0:	00002505 	andeq	r2, r0, r5, lsl #10
    25e4:	008fa800 	addeq	sl, pc, r0, lsl #16
    25e8:	00001800 	andeq	r1, r0, r0, lsl #16
    25ec:	849c0100 	ldrhi	r0, [ip], #256	; 0x100
    25f0:	14000003 	strne	r0, [r0], #-3
    25f4:	00008fb4 			; <UNDEFINED> instruction: 0x00008fb4
    25f8:	00000547 	andeq	r0, r0, r7, asr #10
    25fc:	05500115 	ldrbeq	r0, [r0, #-277]	; 0xfffffeeb
    2600:	2150640c 	cmpcs	r0, ip, lsl #8
    2604:	11000020 	tstne	r0, r0, lsr #32
    2608:	00000022 	andeq	r0, r0, r2, lsr #32
    260c:	f8063b01 			; <UNDEFINED> instruction: 0xf8063b01
    2610:	b000008e 	andlt	r0, r0, lr, lsl #1
    2614:	01000000 	mrseq	r0, (UNDEF: 0)
    2618:	0004d19c 	muleq	r4, ip, r1
    261c:	062a1900 	strteq	r1, [sl], -r0, lsl #18
    2620:	74010000 	strvc	r0, [r1], #-0
    2624:	0000620e 	andeq	r6, r0, lr, lsl #4
    2628:	17010e00 	strne	r0, [r1, -r0, lsl #28]
    262c:	00008f08 	andeq	r8, r0, r8, lsl #30
    2630:	0000055f 	andeq	r0, r0, pc, asr r5
    2634:	000003c0 	andeq	r0, r0, r0, asr #7
    2638:	01500115 	cmpeq	r0, r5, lsl r1
    263c:	5101153e 	tstpl	r1, lr, lsr r5
    2640:	17003201 	strne	r3, [r0, -r1, lsl #4]
    2644:	00008f14 	andeq	r8, r0, r4, lsl pc
    2648:	0000055f 	andeq	r0, r0, pc, asr r5
    264c:	000003d8 	ldrdeq	r0, [r0], -r8
    2650:	01500115 	cmpeq	r0, r5, lsl r1
    2654:	5101153f 	tstpl	r1, pc, lsr r5
    2658:	12003201 	andne	r3, r0, #268435456	; 0x10000000
    265c:	00008f18 	andeq	r8, r0, r8, lsl pc
    2660:	0000053b 	andeq	r0, r0, fp, lsr r5
    2664:	008f2417 	addeq	r2, pc, r7, lsl r4	; <UNPREDICTABLE>
    2668:	0004d100 	andeq	sp, r4, r0, lsl #2
    266c:	0003fd00 	andeq	pc, r3, r0, lsl #26
    2670:	50011500 	andpl	r1, r1, r0, lsl #10
    2674:	50040c05 	andpl	r0, r4, r5, lsl #24
    2678:	01152021 	tsteq	r5, r1, lsr #32
    267c:	00310151 	eorseq	r0, r1, r1, asr r1
    2680:	008f2812 	addeq	r2, pc, r2, lsl r8	; <UNPREDICTABLE>
    2684:	00053b00 	andeq	r3, r5, r0, lsl #22
    2688:	8f381700 	svchi	0x00381700
    268c:	05530000 	ldrbeq	r0, [r3, #-0]
    2690:	041f0000 	ldreq	r0, [pc], #-0	; 2698 <__code_start__-0x5968>
    2694:	01150000 	tsteq	r5, r0
    2698:	00740250 	rsbseq	r0, r4, r0, asr r2
    269c:	01510115 	cmpeq	r1, r5, lsl r1
    26a0:	44170030 	ldrmi	r0, [r7], #-48	; 0xffffffd0
    26a4:	5300008f 	movwpl	r0, #143	; 0x8f
    26a8:	3b000005 	blcc	26c4 <__code_start__-0x593c>
    26ac:	15000004 	strne	r0, [r0, #-4]
    26b0:	0c055001 	stceq	0, cr5, [r5], {1}
    26b4:	20215044 	eorcs	r5, r1, r4, asr #32
    26b8:	01510115 	cmpeq	r1, r5, lsl r1
    26bc:	50170030 	andspl	r0, r7, r0, lsr r0
    26c0:	5300008f 	movwpl	r0, #143	; 0x8f
    26c4:	57000005 	strpl	r0, [r0, -r5]
    26c8:	15000004 	strne	r0, [r0, #-4]
    26cc:	0c055001 	stceq	0, cr5, [r5], {1}
    26d0:	2021504c 	eorcs	r5, r1, ip, asr #32
    26d4:	01510115 	cmpeq	r1, r5, lsl r1
    26d8:	5c170033 	ldcpl	0, cr0, [r7], {51}	; 0x33
    26dc:	5300008f 	movwpl	r0, #143	; 0x8f
    26e0:	73000005 	movwvc	r0, #5
    26e4:	15000004 	strne	r0, [r0, #-4]
    26e8:	0c055001 	stceq	0, cr5, [r5], {1}
    26ec:	20215050 	eorcs	r5, r1, r0, asr r0
    26f0:	01510115 	cmpeq	r1, r5, lsl r1
    26f4:	68170030 	ldmdavs	r7, {r4, r5}
    26f8:	5300008f 	movwpl	r0, #143	; 0x8f
    26fc:	90000005 	andls	r0, r0, r5
    2700:	15000004 	strne	r0, [r0, #-4]
    2704:	0c055001 	stceq	0, cr5, [r5], {1}
    2708:	20215048 	eorcs	r5, r1, r8, asr #32
    270c:	02510115 	subseq	r0, r1, #1073741829	; 0x40000005
    2710:	1700c708 	strne	ip, [r0, -r8, lsl #14]
    2714:	00008f74 	andeq	r8, r0, r4, ror pc
    2718:	00000553 	andeq	r0, r0, r3, asr r5
    271c:	000004ae 	andeq	r0, r0, lr, lsr #9
    2720:	05500115 	ldrbeq	r0, [r0, #-277]	; 0xfffffeeb
    2724:	2150680c 	cmpcs	r0, ip, lsl #16
    2728:	51011520 	tstpl	r1, r0, lsr #10
    272c:	010e0a03 	tsteq	lr, r3, lsl #20
    2730:	8f801700 	svchi	0x00801700
    2734:	05530000 	ldrbeq	r0, [r3, #-0]
    2738:	04c70000 	strbeq	r0, [r7], #0
    273c:	01150000 	tsteq	r5, r0
    2740:	00740250 	rsbseq	r0, r4, r0, asr r2
    2744:	01510115 	cmpeq	r1, r5, lsl r1
    2748:	84120033 	ldrhi	r0, [r2], #-51	; 0xffffffcd
    274c:	3b00008f 	blcc	2990 <__code_start__-0x5670>
    2750:	00000005 	andeq	r0, r0, r5
    2754:	0006551a 	andeq	r5, r6, sl, lsl r5
    2758:	0d2e0100 	stfeqs	f0, [lr, #-0]
    275c:	00008ed8 	ldrdeq	r8, [r0], -r8	; <UNPREDICTABLE>
    2760:	00000020 	andeq	r0, r0, r0, lsr #32
    2764:	05349c01 	ldreq	r9, [r4, #-3073]!	; 0xfffff3ff
    2768:	4a1b0000 	bmi	6c2770 <__bss_end__+0x6b8b90>
    276c:	01000002 	tsteq	r0, r2
    2770:	0534242e 	ldreq	r2, [r4, #-1070]!	; 0xfffffbd2
    2774:	0ee80000 	cdpeq	0, 14, cr0, cr8, cr0, {0}
    2778:	0ee40000 	cdpeq	0, 14, cr0, cr4, cr0, {0}
    277c:	76160000 	ldrvc	r0, [r6], -r0
    2780:	01006c61 	tsteq	r0, r1, ror #24
    2784:	002c332e 	eoreq	r3, ip, lr, lsr #6
    2788:	0f0a0000 	svceq	0x000a0000
    278c:	0f060000 	svceq	0x00060000
    2790:	e8170000 	ldmda	r7, {}	; <UNPREDICTABLE>
    2794:	4700008e 	strmi	r0, [r0, -lr, lsl #1]
    2798:	23000005 	movwcs	r0, #5
    279c:	15000005 	strne	r0, [r0, #-5]
    27a0:	74025001 	strvc	r5, [r2], #-1
    27a4:	f4140000 			; <UNDEFINED> instruction: 0xf4140000
    27a8:	5300008e 	movwpl	r0, #142	; 0x8e
    27ac:	15000005 	strne	r0, [r0, #-5]
    27b0:	74025001 	strvc	r5, [r2], #-1
    27b4:	09000000 	stmdbeq	r0, {}	; <UNPREDICTABLE>
    27b8:	00053a04 	andeq	r3, r5, r4, lsl #20
    27bc:	d91d1c00 	ldmdble	sp, {sl, fp, ip}
    27c0:	d9000004 	stmdble	r0, {r2}
    27c4:	02000004 	andeq	r0, r0, #4, 0
    27c8:	8c1d0693 	ldchi	6, cr0, [sp], {147}	; 0x93
    27cc:	8c000006 	stchi	0, cr0, [r0], {6}
    27d0:	02000006 	andeq	r0, r0, #6, 0
    27d4:	f81d0bb1 			; <UNDEFINED> instruction: 0xf81d0bb1
    27d8:	f8000005 			; <UNDEFINED> instruction: 0xf8000005
    27dc:	02000005 	andeq	r0, r0, #5, 0
    27e0:	7a1d06a5 	bvc	74427c <__bss_end__+0x73a69c>
    27e4:	7a000006 	bvc	2804 <__code_start__-0x57fc>
    27e8:	04000006 	streq	r0, [r0], #-6
    27ec:	24000619 	strcs	r0, [r0], #-1561	; 0xfffff9e7
    27f0:	04000005 	streq	r0, [r0], #-5
    27f4:	000d4900 	andeq	r4, sp, r0, lsl #18
    27f8:	2a010400 	bcs	43800 <__bss_end__+0x39c20>
    27fc:	0c000001 	stceq	0, cr0, [r0], {1}
    2800:	000006f4 	strdeq	r0, [r0], -r4
    2804:	0000028c 	andeq	r0, r0, ip, lsl #5
    2808:	00009084 	andeq	r9, r0, r4, lsl #1
    280c:	000001ac 	andeq	r0, r0, ip, lsr #3
    2810:	0000127b 	andeq	r1, r0, fp, ror r2
    2814:	69050402 	stmdbvs	r5, {r1, sl}
    2818:	0300746e 	movweq	r7, #1134	; 0x46e
    281c:	00950704 	addseq	r0, r5, r4, lsl #14
    2820:	2c040000 	stccs	0, cr0, [r4], {-0}
    2824:	03000000 	movweq	r0, #0
    2828:	002e0601 	eoreq	r0, lr, r1, lsl #12
    282c:	02030000 	andeq	r0, r3, #0, 0
    2830:	0000f805 	andeq	pc, r0, r5, lsl #16
    2834:	05040300 	streq	r0, [r4, #-768]	; 0xfffffd00
    2838:	000000a7 	andeq	r0, r0, r7, lsr #1
    283c:	a2050803 	andge	r0, r5, #196608	; 0x30000
    2840:	03000000 	movweq	r0, #0
    2844:	002c0801 	eoreq	r0, ip, r1, lsl #16
    2848:	02030000 	andeq	r0, r3, #0, 0
    284c:	00004d07 	andeq	r4, r0, r7, lsl #26
    2850:	07040300 	streq	r0, [r4, -r0, lsl #6]
    2854:	00000090 	muleq	r0, r0, r0
    2858:	8b070803 	blhi	1c486c <__bss_end__+0x1bac8c>
    285c:	05000000 	streq	r0, [r0, #-0]
    2860:	00000025 	andeq	r0, r0, r5, lsr #32
    2864:	0000007f 	andeq	r0, r0, pc, ror r0
    2868:	00002506 	andeq	r2, r0, r6, lsl #10
    286c:	b0070000 	andlt	r0, r7, r0
    2870:	02000000 	andeq	r0, r0, #0, 0
    2874:	008b0e1c 	addeq	r0, fp, ip, lsl lr
    2878:	04080000 	streq	r0, [r8], #-0
    287c:	00000070 	andeq	r0, r0, r0, ror r0
    2880:	00002505 	andeq	r2, r0, r5, lsl #10
    2884:	0000a000 	andeq	sl, r0, r0
    2888:	00a00600 	adceq	r0, r0, r0, lsl #12
    288c:	08000000 	stmdaeq	r0, {}	; <UNPREDICTABLE>
    2890:	0000ad04 	andeq	sl, r0, r4, lsl #26
    2894:	08010300 	stmdaeq	r1, {r8, r9}
    2898:	00000035 	andeq	r0, r0, r5, lsr r0
    289c:	0000a609 	andeq	sl, r0, r9, lsl #12
    28a0:	02f40700 	rscseq	r0, r4, #0, 14
    28a4:	21020000 	mrscs	r0, (UNDEF: 2)
    28a8:	0000be0e 	andeq	fp, r0, lr, lsl #28
    28ac:	91040800 	tstls	r4, r0, lsl #16
    28b0:	0a000000 	beq	28b8 <__code_start__-0x5748>
    28b4:	00540107 	subseq	r0, r4, r7, lsl #2
    28b8:	0c030000 	stceq	0, cr0, [r3], {-0}
    28bc:	0001030e 	andeq	r0, r1, lr, lsl #6
    28c0:	066a0b00 	strbteq	r0, [sl], -r0, lsl #22
    28c4:	0b000000 	bleq	28cc <__code_start__-0x5734>
    28c8:	00000547 	andeq	r0, r0, r7, asr #10
    28cc:	05ad0b01 	streq	r0, [sp, #2817]!	; 0xb01
    28d0:	0b040000 	bleq	1028d8 <__bss_end__+0xf8cf8>
    28d4:	000005bc 			; <UNDEFINED> instruction: 0x000005bc
    28d8:	05cb0b05 	strbeq	r0, [fp, #2821]	; 0xb05
    28dc:	0b060000 	bleq	1828e4 <__bss_end__+0x178d04>
    28e0:	000005da 	ldrdeq	r0, [r0], -sl
    28e4:	06460b07 	strbeq	r0, [r6], -r7, lsl #22
    28e8:	0b030000 	bleq	c28f0 <__bss_end__+0xb8d10>
    28ec:	000005e9 	andeq	r0, r0, r9, ror #11
    28f0:	2d0c0002 	stccs	0, cr0, [ip, #-8]
    28f4:	03000007 	movweq	r0, #7
    28f8:	00c40315 	sbceq	r0, r4, r5, lsl r3
    28fc:	b10d0000 	mrslt	r0, (UNDEF: 13)
    2900:	01000006 	tsteq	r0, r6
    2904:	011b1b11 	tsteq	fp, r1, lsl fp
    2908:	04080000 	streq	r0, [r8], #-0
    290c:	00000033 	andeq	r0, r0, r3, lsr r0
    2910:	00069c0d 	andeq	r9, r6, sp, lsl #24
    2914:	1b120100 	blne	482d1c <__bss_end__+0x47913c>
    2918:	0000011b 	andeq	r0, r0, fp, lsl r1
    291c:	0006920d 	andeq	r9, r6, sp, lsl #4
    2920:	1b130100 	blne	4c2d28 <__bss_end__+0x4b9148>
    2924:	0000011b 	andeq	r0, r0, fp, lsl r1
    2928:	00067a0e 	andeq	r7, r6, lr, lsl #20
    292c:	06680100 	strbteq	r0, [r8], -r0, lsl #2
    2930:	000091d0 	ldrdeq	r9, [r0], -r0
    2934:	00000060 	andeq	r0, r0, r0, rrx
    2938:	02009c01 	andeq	r9, r0, #256	; 0x100
    293c:	700f0000 	andvc	r0, pc, r0
    2940:	01006e69 	tsteq	r0, r9, ror #28
    2944:	002c2168 	eoreq	r2, ip, r8, ror #2
    2948:	0f2e0000 	svceq	0x002e0000
    294c:	0f280000 	svceq	0x00280000
    2950:	83100000 	tsthi	r0, #0, 0
    2954:	01000006 	tsteq	r0, r6
    2958:	01033268 	tsteq	r3, r8, ror #4
    295c:	0f5e0000 	svceq	0x005e0000
    2960:	0f5a0000 	svceq	0x005a0000
    2964:	4a110000 	bmi	44296c <__bss_end__+0x438d8c>
    2968:	01000002 	tsteq	r0, r2
    296c:	011b186b 	tsteq	fp, fp, ror #16
    2970:	0f810000 	svceq	0x00810000
    2974:	0f7f0000 	svceq	0x007f0000
    2978:	e4110000 	ldr	r0, [r1], #-0
    297c:	01000006 	tsteq	r0, r6
    2980:	002c0e6c 	eoreq	r0, ip, ip, ror #28
    2984:	0f960000 	svceq	0x00960000
    2988:	0f940000 	svceq	0x00940000
    298c:	bc110000 	ldclt	0, cr0, [r1], {-0}
    2990:	01000006 	tsteq	r0, r6
    2994:	002c0e6e 	eoreq	r0, ip, lr, ror #28
    2998:	0fab0000 	svceq	0x00ab0000
    299c:	0fa90000 	svceq	0x00a90000
    29a0:	3e110000 	cdpcc	0, 1, cr0, cr1, cr0, {0}
    29a4:	01000007 	tsteq	r0, r7
    29a8:	002c0e6f 	eoreq	r0, ip, pc, ror #28
    29ac:	0fc00000 	svceq	0x00c00000
    29b0:	0fbe0000 	svceq	0x00be0000
    29b4:	dd110000 	ldcle	0, cr0, [r1, #-0]
    29b8:	01000006 	tsteq	r0, r6
    29bc:	002c0e71 	eoreq	r0, ip, r1, ror lr
    29c0:	0fdb0000 	svceq	0x00db0000
    29c4:	0fd70000 	svceq	0x00d70000
    29c8:	08120000 	ldmdaeq	r2, {}	; <UNPREDICTABLE>
    29cc:	0f000092 	svceq	0x00000092
    29d0:	ef000005 	svc	0x00000005
    29d4:	13000001 	movwne	r0, #1
    29d8:	77025001 	strvc	r5, [r2, -r1]
    29dc:	28140000 	ldmdacs	r4, {}	; <UNPREDICTABLE>
    29e0:	1b000092 	blne	2c30 <__code_start__-0x53d0>
    29e4:	13000005 	movwne	r0, #5
    29e8:	77025001 	strvc	r5, [r2, -r1]
    29ec:	15000000 	strne	r0, [r0, #-0]
    29f0:	000006ea 	andeq	r0, r0, sl, ror #13
    29f4:	25055d01 	strcs	r5, [r5, #-3329]	; 0xfffff2ff
    29f8:	98000000 	stmdals	r0, {}	; <UNPREDICTABLE>
    29fc:	38000091 	stmdacc	r0, {r0, r4, r7}
    2a00:	01000000 	mrseq	r0, (UNDEF: 0)
    2a04:	00028c9c 	muleq	r2, ip, ip
    2a08:	69700f00 	ldmdbvs	r0!, {r8, r9, sl, fp}^
    2a0c:	5d01006e 	stcpl	0, cr0, [r1, #-440]	; 0xfffffe48
    2a10:	00002c18 	andeq	r2, r0, r8, lsl ip
    2a14:	00100900 	andseq	r0, r0, r0, lsl #18
    2a18:	00100100 	andseq	r0, r0, r0, lsl #2
    2a1c:	00761600 	rsbseq	r1, r6, r0, lsl #12
    2a20:	2c0e6001 	stccs	0, cr6, [lr], {1}
    2a24:	42000000 	andmi	r0, r0, #0, 0
    2a28:	40000010 	andmi	r0, r0, r0, lsl r0
    2a2c:	17000010 	smladne	r0, r0, r0, r0
    2a30:	0000024a 	andeq	r0, r0, sl, asr #4
    2a34:	1b186101 	blne	61ae40 <__bss_end__+0x611260>
    2a38:	34000001 	strcc	r0, [r0], #-1
    2a3c:	11202000 			; <UNDEFINED> instruction: 0x11202000
    2a40:	00000739 	andeq	r0, r0, r9, lsr r7
    2a44:	2c0e6201 	sfmcs	f6, 4, [lr], {1}
    2a48:	58000000 	stmdapl	r0, {}	; <UNPREDICTABLE>
    2a4c:	56000010 			; <UNDEFINED> instruction: 0x56000010
    2a50:	11000010 	tstne	r0, r0, lsl r0
    2a54:	0000073e 	andeq	r0, r0, lr, lsr r7
    2a58:	2c0e6301 	stccs	3, cr6, [lr], {1}
    2a5c:	6d000000 	stcvs	0, cr0, [r0, #-0]
    2a60:	6b000010 	blvs	2aa8 <__code_start__-0x5558>
    2a64:	14000010 	strne	r0, [r0], #-16
    2a68:	000091b8 			; <UNDEFINED> instruction: 0x000091b8
    2a6c:	0000050f 	andeq	r0, r0, pc, lsl #10
    2a70:	05500113 	ldrbeq	r0, [r0, #-275]	; 0xfffffeed
    2a74:	2000340c 	andcs	r3, r0, ip, lsl #8
    2a78:	0e000020 	cdpeq	0, 0, cr0, cr0, cr0, {1}
    2a7c:	00000701 	andeq	r0, r0, r1, lsl #14
    2a80:	44064e01 	strmi	r4, [r6], #-3585	; 0xfffff1ff
    2a84:	54000091 	strpl	r0, [r0], #-145	; 0xffffff6f
    2a88:	01000000 	mrseq	r0, (UNDEF: 0)
    2a8c:	00033f9c 	muleq	r3, ip, pc	; <UNPREDICTABLE>
    2a90:	69700f00 	ldmdbvs	r0!, {r8, r9, sl, fp}^
    2a94:	4e01006e 	cdpmi	0, 0, cr0, cr1, cr14, {3}
    2a98:	00002c1e 	andeq	r2, r0, lr, lsl ip
    2a9c:	00108a00 	andseq	r8, r0, r0, lsl #20
    2aa0:	00108400 	andseq	r8, r0, r0, lsl #8
    2aa4:	024a1100 	subeq	r1, sl, #0
    2aa8:	51010000 	mrspl	r0, (UNDEF: 1)
    2aac:	00011b18 	andeq	r1, r1, r8, lsl fp
    2ab0:	0010b800 	andseq	fp, r0, r0, lsl #16
    2ab4:	0010b600 	andseq	fp, r0, r0, lsl #12
    2ab8:	06e41100 	strbteq	r1, [r4], r0, lsl #2
    2abc:	52010000 	andpl	r0, r1, #0, 0
    2ac0:	00002c0e 	andeq	r2, r0, lr, lsl #24
    2ac4:	0010cd00 	andseq	ip, r0, r0, lsl #26
    2ac8:	0010cb00 	andseq	ip, r0, r0, lsl #22
    2acc:	06bc1100 	ldrteq	r1, [ip], r0, lsl #2
    2ad0:	54010000 	strpl	r0, [r1], #-0
    2ad4:	00002c0e 	andeq	r2, r0, lr, lsl #24
    2ad8:	0010e200 	andseq	lr, r0, r0, lsl #4
    2adc:	0010e000 	andseq	lr, r0, r0
    2ae0:	073e1100 	ldreq	r1, [lr, -r0, lsl #2]!
    2ae4:	55010000 	strpl	r0, [r1, #-0]
    2ae8:	00002c0e 	andeq	r2, r0, lr, lsl #24
    2aec:	0010f700 	andseq	pc, r0, r0, lsl #14
    2af0:	0010f500 	andseq	pc, r0, r0, lsl #10
    2af4:	06dd1100 	ldrbeq	r1, [sp], r0, lsl #2
    2af8:	57010000 	strpl	r0, [r1, -r0]
    2afc:	00002c0e 	andeq	r2, r0, lr, lsl #24
    2b00:	00111200 	andseq	r1, r1, r0, lsl #4
    2b04:	00110e00 	andseq	r0, r1, r0, lsl #28
    2b08:	91741200 	cmnls	r4, r0, lsl #4
    2b0c:	050f0000 	streq	r0, [pc, #-0]	; 2b14 <__code_start__-0x54ec>
    2b10:	032e0000 			; <UNDEFINED> instruction: 0x032e0000
    2b14:	01130000 	tsteq	r3, r0
    2b18:	00760250 	rsbseq	r0, r6, r0, asr r2
    2b1c:	91901400 	orrsls	r1, r0, r0, lsl #8
    2b20:	051b0000 	ldreq	r0, [fp, #-0]
    2b24:	01130000 	tsteq	r3, r0
    2b28:	00760250 	rsbseq	r0, r6, r0, asr r2
    2b2c:	a60e0000 	strge	r0, [lr], -r0
    2b30:	01000006 	tsteq	r0, r6
    2b34:	91280642 			; <UNDEFINED> instruction: 0x91280642
    2b38:	001c0000 	andseq	r0, ip, r0
    2b3c:	9c010000 	stcls	0, cr0, [r1], {-0}
    2b40:	0000039a 	muleq	r0, sl, r3
    2b44:	6e69700f 	cdpvs	0, 6, cr7, cr9, cr15, {0}
    2b48:	1a420100 	bne	1082f50 <__bss_end__+0x1079370>
    2b4c:	0000002c 	andeq	r0, r0, ip, lsr #32
    2b50:	00001140 	andeq	r1, r0, r0, asr #2
    2b54:	00001138 	andeq	r1, r0, r8, lsr r1
    2b58:	0100760f 	tsteq	r0, pc, lsl #12
    2b5c:	002c2842 	eoreq	r2, ip, r2, asr #16
    2b60:	11820000 	orrne	r0, r2, r0
    2b64:	117a0000 	cmnne	sl, r0
    2b68:	38120000 	ldmdacc	r2, {}	; <UNPREDICTABLE>
    2b6c:	f1000091 	cps	#17
    2b70:	90000003 	andls	r0, r0, r3
    2b74:	13000003 	movwne	r0, #3
    2b78:	f3035001 	vhadd.u8	d5, d3, d1
    2b7c:	18005001 	stmdane	r0, {r0, ip, lr}
    2b80:	00009140 	andeq	r9, r0, r0, asr #2
    2b84:	0000039a 	muleq	r0, sl, r3
    2b88:	07100e00 	ldreq	r0, [r0, -r0, lsl #28]
    2b8c:	39010000 	stmdbcc	r1, {}	; <UNPREDICTABLE>
    2b90:	00910406 	addseq	r0, r1, r6, lsl #8
    2b94:	00002400 	andeq	r2, r0, r0, lsl #8
    2b98:	f19c0100 			; <UNDEFINED> instruction: 0xf19c0100
    2b9c:	0f000003 	svceq	0x00000003
    2ba0:	006e6970 	rsbeq	r6, lr, r0, ror r9
    2ba4:	2c1c3901 			; <UNDEFINED> instruction: 0x2c1c3901
    2ba8:	c0000000 	andgt	r0, r0, r0
    2bac:	bc000011 	stclt	0, cr0, [r0], {17}
    2bb0:	17000011 	smladne	r0, r1, r0, r0
    2bb4:	0000024a 	andeq	r0, r0, sl, asr #4
    2bb8:	1b183b01 	blne	6117c4 <__bss_end__+0x607be4>
    2bbc:	28000001 	stmdacs	r0, {r0}
    2bc0:	14202000 	strtne	r2, [r0], #-0
    2bc4:	00009120 	andeq	r9, r0, r0, lsr #2
    2bc8:	0000051b 	andeq	r0, r0, fp, lsl r5
    2bcc:	05500113 	ldrbeq	r0, [r0, #-275]	; 0xfffffeed
    2bd0:	2000280c 	andcs	r2, r0, ip, lsl #16
    2bd4:	51011320 	tstpl	r1, r0, lsr #6
    2bd8:	01f33105 	mvnseq	r3, r5, lsl #2
    2bdc:	00002450 	andeq	r2, r0, r0, asr r4
    2be0:	0007460e 	andeq	r4, r7, lr, lsl #12
    2be4:	06300100 	ldrteq	r0, [r0], -r0, lsl #2
    2be8:	000090e0 	andeq	r9, r0, r0, ror #1
    2bec:	00000024 	andeq	r0, r0, r4, lsr #32
    2bf0:	04489c01 	strbeq	r9, [r8], #-3073	; 0xfffff3ff
    2bf4:	700f0000 	andvc	r0, pc, r0
    2bf8:	01006e69 	tsteq	r0, r9, ror #28
    2bfc:	002c1b30 	eoreq	r1, ip, r0, lsr fp
    2c00:	11e50000 	mvnne	r0, r0
    2c04:	11e10000 	mvnne	r0, r0
    2c08:	4a170000 	bmi	5c2c10 <__bss_end__+0x5b9030>
    2c0c:	01000002 	tsteq	r0, r2
    2c10:	011b1832 	tsteq	fp, r2, lsr r8
    2c14:	001c0000 	andseq	r0, ip, r0
    2c18:	fc142020 	ldc2	0, cr2, [r4], {32}
    2c1c:	1b000090 	blne	2e64 <__code_start__-0x519c>
    2c20:	13000005 	movwne	r0, #5
    2c24:	0c055001 	stceq	0, cr5, [r5], {1}
    2c28:	2020001c 	eorcs	r0, r0, ip, lsl r0
    2c2c:	05510113 	ldrbeq	r0, [r1, #-275]	; 0xfffffeed
    2c30:	5001f331 	andpl	pc, r1, r1, lsr r3	; <UNPREDICTABLE>
    2c34:	0e000024 	cdpeq	0, 0, cr0, cr0, cr4, {1}
    2c38:	0000071d 	andeq	r0, r0, sp, lsl r7
    2c3c:	84061e01 	strhi	r1, [r6], #-3585	; 0xfffff1ff
    2c40:	5c000090 	stcpl	0, cr0, [r0], {144}	; 0x90
    2c44:	01000000 	mrseq	r0, (UNDEF: 0)
    2c48:	00050f9c 	muleq	r5, ip, pc	; <UNPREDICTABLE>
    2c4c:	69700f00 	ldmdbvs	r0!, {r8, r9, sl, fp}^
    2c50:	1e01006e 	cdpne	0, 0, cr0, cr1, cr14, {3}
    2c54:	00002c1f 	andeq	r2, r0, pc, lsl ip
    2c58:	00120c00 	andseq	r0, r2, r0, lsl #24
    2c5c:	00120600 	andseq	r0, r2, r0, lsl #12
    2c60:	024a1100 	subeq	r1, sl, #0
    2c64:	23010000 	movwcs	r0, #4096	; 0x1000
    2c68:	00011b18 	andeq	r1, r1, r8, lsl fp
    2c6c:	00123a00 	andseq	r3, r2, r0, lsl #20
    2c70:	00123800 	andseq	r3, r2, r0, lsl #16
    2c74:	06e41100 	strbteq	r1, [r4], r0, lsl #2
    2c78:	24010000 	strcs	r0, [r1], #-0
    2c7c:	00002c0e 	andeq	r2, r0, lr, lsl #24
    2c80:	00124f00 	andseq	r4, r2, r0, lsl #30
    2c84:	00124d00 	andseq	r4, r2, r0, lsl #26
    2c88:	06bc1100 	ldrteq	r1, [ip], r0, lsl #2
    2c8c:	26010000 	strcs	r0, [r1], -r0
    2c90:	00002c0e 	andeq	r2, r0, lr, lsl #24
    2c94:	00126400 	andseq	r6, r2, r0, lsl #8
    2c98:	00126200 	andseq	r6, r2, r0, lsl #4
    2c9c:	073e1100 	ldreq	r1, [lr, -r0, lsl #2]!
    2ca0:	27010000 	strcs	r0, [r1, -r0]
    2ca4:	00002c0e 	andeq	r2, r0, lr, lsl #24
    2ca8:	00127900 	andseq	r7, r2, r0, lsl #18
    2cac:	00127700 	andseq	r7, r2, r0, lsl #14
    2cb0:	06dd1100 	ldrbeq	r1, [sp], r0, lsl #2
    2cb4:	29010000 	stmdbcs	r1, {}	; <UNPREDICTABLE>
    2cb8:	00002c0e 	andeq	r2, r0, lr, lsl #24
    2cbc:	00129200 	andseq	r9, r2, r0, lsl #4
    2cc0:	00129000 	andseq	r9, r2, r0
    2cc4:	06cf1100 	strbeq	r1, [pc], r0, lsl #2
    2cc8:	2a010000 	bcs	42cd0 <__bss_end__+0x390f0>
    2ccc:	00002c0e 	andeq	r2, r0, lr, lsl #24
    2cd0:	0012a700 	andseq	sl, r2, r0, lsl #14
    2cd4:	0012a500 	andseq	sl, r2, r0, lsl #10
    2cd8:	90b41200 	adcsls	r1, r4, r0, lsl #4
    2cdc:	050f0000 	streq	r0, [pc, #-0]	; 2ce4 <__code_start__-0x531c>
    2ce0:	04fe0000 	ldrbteq	r0, [lr], #0
    2ce4:	01130000 	tsteq	r3, r0
    2ce8:	00760250 	rsbseq	r0, r6, r0, asr r2
    2cec:	90d81400 	sbcsls	r1, r8, r0, lsl #8
    2cf0:	051b0000 	ldreq	r0, [fp, #-0]
    2cf4:	01130000 	tsteq	r3, r0
    2cf8:	00760250 	rsbseq	r0, r6, r0, asr r2
    2cfc:	8c190000 	ldchi	0, cr0, [r9], {-0}
    2d00:	8c000006 	stchi	0, cr0, [r0], {6}
    2d04:	02000006 	andeq	r0, r0, #6, 0
    2d08:	f8190bb1 			; <UNDEFINED> instruction: 0xf8190bb1
    2d0c:	f8000005 			; <UNDEFINED> instruction: 0xf8000005
    2d10:	02000005 	andeq	r0, r0, #5, 0
    2d14:	370006a5 	strcc	r0, [r0, -r5, lsr #13]
    2d18:	04000001 	streq	r0, [r0], #-1
    2d1c:	000ec600 	andeq	ip, lr, r0, lsl #12
    2d20:	2a010400 	bcs	43d28 <__bss_end__+0x3a148>
    2d24:	0c000001 	stceq	0, cr0, [r0], {1}
    2d28:	00000757 	andeq	r0, r0, r7, asr r7
    2d2c:	0000028c 	andeq	r0, r0, ip, lsl #5
    2d30:	00009230 	andeq	r9, r0, r0, lsr r2
    2d34:	00000034 	andeq	r0, r0, r4, lsr r0
    2d38:	00001436 	andeq	r1, r0, r6, lsr r4
    2d3c:	69050402 	stmdbvs	r5, {r1, sl}
    2d40:	0300746e 	movweq	r7, #1134	; 0x46e
    2d44:	00950704 	addseq	r0, r5, r4, lsl #14
    2d48:	01030000 	mrseq	r0, (UNDEF: 3)
    2d4c:	00002e06 	andeq	r2, r0, r6, lsl #28
    2d50:	05020300 	streq	r0, [r2, #-768]	; 0xfffffd00
    2d54:	000000f8 	strdeq	r0, [r0], -r8
    2d58:	a7050403 	strge	r0, [r5, -r3, lsl #8]
    2d5c:	03000000 	movweq	r0, #0
    2d60:	00a20508 	adceq	r0, r2, r8, lsl #10
    2d64:	01030000 	mrseq	r0, (UNDEF: 3)
    2d68:	00002c08 	andeq	r2, r0, r8, lsl #24
    2d6c:	07020300 	streq	r0, [r2, -r0, lsl #6]
    2d70:	0000004d 	andeq	r0, r0, sp, asr #32
    2d74:	90070403 	andls	r0, r7, r3, lsl #8
    2d78:	03000000 	movweq	r0, #0
    2d7c:	008b0708 	addeq	r0, fp, r8, lsl #14
    2d80:	25040000 	strcs	r0, [r4, #-0]
    2d84:	7a000000 	bvc	2d8c <__code_start__-0x5274>
    2d88:	05000000 	streq	r0, [r0, #-0]
    2d8c:	00000025 	andeq	r0, r0, r5, lsr #32
    2d90:	00b00600 	adcseq	r0, r0, r0, lsl #12
    2d94:	1c020000 	stcne	0, cr0, [r2], {-0}
    2d98:	0000860e 	andeq	r8, r0, lr, lsl #12
    2d9c:	6b040700 	blvs	1049a4 <__bss_end__+0xfadc4>
    2da0:	04000000 	streq	r0, [r0], #-0
    2da4:	00000025 	andeq	r0, r0, r5, lsr #32
    2da8:	0000009b 	muleq	r0, fp, r0
    2dac:	00009b05 	andeq	r9, r0, r5, lsl #22
    2db0:	04070000 	streq	r0, [r7], #-0
    2db4:	000000a8 	andeq	r0, r0, r8, lsr #1
    2db8:	35080103 	strcc	r0, [r8, #-259]	; 0xfffffefd
    2dbc:	08000000 	stmdaeq	r0, {}	; <UNPREDICTABLE>
    2dc0:	000000a1 	andeq	r0, r0, r1, lsr #1
    2dc4:	0002f406 	andeq	pc, r2, r6, lsl #8
    2dc8:	0e210200 	cdpeq	2, 2, cr0, cr1, cr0, {0}
    2dcc:	000000b9 	strheq	r0, [r0], -r9
    2dd0:	008c0407 	addeq	r0, ip, r7, lsl #8
    2dd4:	91090000 	mrsls	r0, (UNDEF: 9)
    2dd8:	01000003 	tsteq	r0, r3
    2ddc:	01340704 	teqeq	r4, r4, lsl #14
    2de0:	92300000 	eorsls	r0, r0, #0, 0
    2de4:	00340000 	eorseq	r0, r4, r0
    2de8:	9c010000 	stcls	0, cr0, [r1], {-0}
    2dec:	00000134 	andeq	r0, r0, r4, lsr r1
    2df0:	0007520a 	andeq	r5, r7, sl, lsl #4
    2df4:	15040100 	strne	r0, [r4, #-256]	; 0xffffff00
    2df8:	00000134 	andeq	r0, r0, r4, lsr r1
    2dfc:	730b5001 	movwvc	r5, #45057	; 0xb001
    2e00:	01006372 	tsteq	r0, r2, ror r3
    2e04:	009b2704 	addseq	r2, fp, r4, lsl #14
    2e08:	12c20000 	sbcne	r0, r2, #0, 0
    2e0c:	12be0000 	adcsne	r0, lr, #0, 0
    2e10:	730c0000 	movwvc	r0, #49152	; 0xc000
    2e14:	05010031 	streq	r0, [r1, #-49]	; 0xffffffcf
    2e18:	0001340b 	andeq	r3, r1, fp, lsl #8
    2e1c:	0012ed00 	andseq	lr, r2, r0, lsl #26
    2e20:	0012e300 	andseq	lr, r2, r0, lsl #6
    2e24:	32730c00 	rsbscc	r0, r3, #0, 24
    2e28:	11060100 	mrsne	r0, (UNDEF: 22)
    2e2c:	0000009b 	muleq	r0, fp, r0
    2e30:	00001332 	andeq	r1, r0, r2, lsr r3
    2e34:	0000132e 	andeq	r1, r0, lr, lsr #6
    2e38:	0100630c 	tsteq	r0, ip, lsl #6
    2e3c:	00a10a07 	adceq	r0, r1, r7, lsl #20
    2e40:	13560000 	cmpne	r6, #0, 0
    2e44:	13520000 	cmpne	r2, #0, 0
    2e48:	07000000 	streq	r0, [r0, -r0]
    2e4c:	0000a104 	andeq	sl, r0, r4, lsl #2
    2e50:	00f70000 	rscseq	r0, r7, r0
    2e54:	00040000 	andeq	r0, r4, r0
    2e58:	00000f7c 	andeq	r0, r0, ip, ror pc
    2e5c:	012a0104 			; <UNDEFINED> instruction: 0x012a0104
    2e60:	670c0000 	strvs	r0, [ip, -r0]
    2e64:	8c000007 	stchi	0, cr0, [r0], {7}
    2e68:	64000002 	strvs	r0, [r0], #-2
    2e6c:	2c000092 	stccs	0, cr0, [r0], {146}	; 0x92
    2e70:	23000000 	movwcs	r0, #0
    2e74:	02000015 	andeq	r0, r0, #21, 0
    2e78:	6e690504 	cdpvs	5, 6, cr0, cr9, cr4, {0}
    2e7c:	04030074 	streq	r0, [r3], #-116	; 0xffffff8c
    2e80:	00009507 	andeq	r9, r0, r7, lsl #10
    2e84:	06010300 	streq	r0, [r1], -r0, lsl #6
    2e88:	0000002e 	andeq	r0, r0, lr, lsr #32
    2e8c:	f8050203 			; <UNDEFINED> instruction: 0xf8050203
    2e90:	03000000 	movweq	r0, #0
    2e94:	00a70504 	adceq	r0, r7, r4, lsl #10
    2e98:	08030000 	stmdaeq	r3, {}	; <UNPREDICTABLE>
    2e9c:	0000a205 	andeq	sl, r0, r5, lsl #4
    2ea0:	08010300 	stmdaeq	r1, {r8, r9}
    2ea4:	0000002c 	andeq	r0, r0, ip, lsr #32
    2ea8:	4d070203 	sfmmi	f0, 4, [r7, #-12]
    2eac:	03000000 	movweq	r0, #0
    2eb0:	00900704 	addseq	r0, r0, r4, lsl #14
    2eb4:	08030000 	stmdaeq	r3, {}	; <UNPREDICTABLE>
    2eb8:	00008b07 	andeq	r8, r0, r7, lsl #22
    2ebc:	00250400 	eoreq	r0, r5, r0, lsl #8
    2ec0:	007a0000 	rsbseq	r0, sl, r0
    2ec4:	25050000 	strcs	r0, [r5, #-0]
    2ec8:	00000000 	andeq	r0, r0, r0
    2ecc:	0000b006 	andeq	fp, r0, r6
    2ed0:	0e1c0200 	cdpeq	2, 1, cr0, cr12, cr0, {0}
    2ed4:	00000086 	andeq	r0, r0, r6, lsl #1
    2ed8:	006b0407 	rsbeq	r0, fp, r7, lsl #8
    2edc:	25040000 	strcs	r0, [r4, #-0]
    2ee0:	9b000000 	blls	2ee8 <__code_start__-0x5118>
    2ee4:	05000000 	streq	r0, [r0, #-0]
    2ee8:	0000009b 	muleq	r0, fp, r0
    2eec:	a8040700 	stmdage	r4, {r8, r9, sl}
    2ef0:	03000000 	movweq	r0, #0
    2ef4:	00350801 	eorseq	r0, r5, r1, lsl #16
    2ef8:	a1080000 	mrsge	r0, (UNDEF: 8)
    2efc:	06000000 	streq	r0, [r0], -r0
    2f00:	000002f4 	strdeq	r0, [r0], -r4
    2f04:	b90e2102 	stmdblt	lr, {r1, r8, sp}
    2f08:	07000000 	streq	r0, [r0, -r0]
    2f0c:	00008c04 	andeq	r8, r0, r4, lsl #24
    2f10:	03c70900 	biceq	r0, r7, #0, 18
    2f14:	03010000 	movweq	r0, #4096	; 0x1000
    2f18:	00002505 	andeq	r2, r0, r5, lsl #10
    2f1c:	00926400 	addseq	r6, r2, r0, lsl #8
    2f20:	00002c00 	andeq	r2, r0, r0, lsl #24
    2f24:	0a9c0100 	beq	fe70332c <__bss_end__+0xfe6f974c>
    2f28:	03010061 	movweq	r0, #4193	; 0x1061
    2f2c:	00009b18 	andeq	r9, r0, r8, lsl fp
    2f30:	00137800 	andseq	r7, r3, r0, lsl #16
    2f34:	00137400 	andseq	r7, r3, r0, lsl #8
    2f38:	00620a00 	rsbeq	r0, r2, r0, lsl #20
    2f3c:	9b270301 	blls	9c3b48 <__bss_end__+0x9b9f68>
    2f40:	9a000000 	bls	2f48 <__code_start__-0x50b8>
    2f44:	96000013 			; <UNDEFINED> instruction: 0x96000013
    2f48:	00000013 	andeq	r0, r0, r3, lsl r0
    2f4c:	00010f00 	andeq	r0, r1, r0, lsl #30
    2f50:	0b000400 	bleq	3f58 <__code_start__-0x40a8>
    2f54:	04000010 	streq	r0, [r0], #-16
    2f58:	00012a01 	andeq	r2, r1, r1, lsl #20
    2f5c:	07770c00 	ldrbeq	r0, [r7, -r0, lsl #24]!
    2f60:	028c0000 	addeq	r0, ip, #0, 0
    2f64:	92900000 	addsls	r0, r0, #0, 0
    2f68:	00200000 	eoreq	r0, r0, r0
    2f6c:	15c90000 	strbne	r0, [r9]
    2f70:	04020000 	streq	r0, [r2], #-0
    2f74:	746e6905 	strbtvc	r6, [lr], #-2309	; 0xfffff6fb
    2f78:	07040300 	streq	r0, [r4, -r0, lsl #6]
    2f7c:	00000095 	muleq	r0, r5, r0
    2f80:	2e060103 	adfcss	f0, f6, f3
    2f84:	03000000 	movweq	r0, #0
    2f88:	00f80502 	rscseq	r0, r8, r2, lsl #10
    2f8c:	04030000 	streq	r0, [r3], #-0
    2f90:	0000a705 	andeq	sl, r0, r5, lsl #14
    2f94:	05080300 	streq	r0, [r8, #-768]	; 0xfffffd00
    2f98:	000000a2 	andeq	r0, r0, r2, lsr #1
    2f9c:	2c080103 	stfcss	f0, [r8], {3}
    2fa0:	03000000 	movweq	r0, #0
    2fa4:	004d0702 	subeq	r0, sp, r2, lsl #14
    2fa8:	04030000 	streq	r0, [r3], #-0
    2fac:	00009007 	andeq	r9, r0, r7
    2fb0:	07080300 	streq	r0, [r8, -r0, lsl #6]
    2fb4:	0000008b 	andeq	r0, r0, fp, lsl #1
    2fb8:	00002504 	andeq	r2, r0, r4, lsl #10
    2fbc:	00007a00 	andeq	r7, r0, r0, lsl #20
    2fc0:	00250500 	eoreq	r0, r5, r0, lsl #10
    2fc4:	06000000 	streq	r0, [r0], -r0
    2fc8:	000000b0 	strheq	r0, [r0], -r0	; <UNPREDICTABLE>
    2fcc:	860e1c02 	strhi	r1, [lr], -r2, lsl #24
    2fd0:	07000000 	streq	r0, [r0, -r0]
    2fd4:	00006b04 	andeq	r6, r0, r4, lsl #22
    2fd8:	00250400 	eoreq	r0, r5, r0, lsl #8
    2fdc:	009b0000 	addseq	r0, fp, r0
    2fe0:	9b050000 	blls	142fe8 <__bss_end__+0x139408>
    2fe4:	00000000 	andeq	r0, r0, r0
    2fe8:	00a80407 	adceq	r0, r8, r7, lsl #8
    2fec:	01030000 	mrseq	r0, (UNDEF: 3)
    2ff0:	00003508 	andeq	r3, r0, r8, lsl #10
    2ff4:	00a10800 	adceq	r0, r1, r0, lsl #16
    2ff8:	f4060000 	vst4.8	{d0-d3}, [r6], r0
    2ffc:	02000002 	andeq	r0, r0, #2, 0
    3000:	00b90e21 	adcseq	r0, r9, r1, lsr #28
    3004:	04070000 	streq	r0, [r7], #-0
    3008:	0000008c 	andeq	r0, r0, ip, lsl #1
    300c:	00039809 	andeq	r9, r3, r9, lsl #16
    3010:	07030100 	streq	r0, [r3, -r0, lsl #2]
    3014:	0000010c 	andeq	r0, r0, ip, lsl #2
    3018:	00009290 	muleq	r0, r0, r2
    301c:	00000020 	andeq	r0, r0, r0, lsr #32
    3020:	010c9c01 	tsteq	ip, r1, lsl #24
    3024:	730a0000 	movwvc	r0, #40960	; 0xa000
    3028:	03010031 	movweq	r0, #4145	; 0x1031
    302c:	00010c15 	andeq	r0, r1, r5, lsl ip
    3030:	0b500100 	bleq	1403438 <__bss_end__+0x13f9858>
    3034:	01003273 	tsteq	r0, r3, ror r2
    3038:	009b2603 	addseq	r2, fp, r3, lsl #12
    303c:	13be0000 			; <UNDEFINED> instruction: 0x13be0000
    3040:	13b80000 			; <UNDEFINED> instruction: 0x13b80000
    3044:	730c0000 	movwvc	r0, #49152	; 0xc000
    3048:	14040100 	strne	r0, [r4], #-256	; 0xffffff00
    304c:	0000010c 	andeq	r0, r0, ip, lsl #2
    3050:	000013ef 	andeq	r1, r0, pc, ror #7
    3054:	000013e9 	andeq	r1, r0, r9, ror #7
    3058:	a1040700 	tstge	r4, r0, lsl #14
    305c:	00000000 	andeq	r0, r0, r0
    3060:	0000014e 	andeq	r0, r0, lr, asr #2
    3064:	10c10004 	sbcne	r0, r1, r4
    3068:	01040000 	mrseq	r0, (UNDEF: 4)
    306c:	0000012a 	andeq	r0, r0, sl, lsr #2
    3070:	00078e0c 	andeq	r8, r7, ip, lsl #28
    3074:	00028c00 	andeq	r8, r2, r0, lsl #24
    3078:	00008800 	andeq	r8, r0, r0, lsl #16
    307c:	00000000 	andeq	r0, r0, r0
    3080:	00166d00 	andseq	r6, r6, r0, lsl #26
    3084:	05040200 	streq	r0, [r4, #-512]	; 0xfffffe00
    3088:	00746e69 	rsbseq	r6, r4, r9, ror #28
    308c:	00078703 	andeq	r8, r7, r3, lsl #14
    3090:	17d10300 	ldrbne	r0, [r1, r0, lsl #6]
    3094:	00000038 	andeq	r0, r0, r8, lsr r0
    3098:	95070404 	strls	r0, [r7, #-1028]	; 0xfffffbfc
    309c:	04000000 	streq	r0, [r0], #-0
    30a0:	002e0601 	eoreq	r0, lr, r1, lsl #12
    30a4:	02040000 	andeq	r0, r4, #0, 0
    30a8:	0000f805 	andeq	pc, r0, r5, lsl #16
    30ac:	05040400 	streq	r0, [r4, #-1024]	; 0xfffffc00
    30b0:	000000a7 	andeq	r0, r0, r7, lsr #1
    30b4:	a2050804 	andge	r0, r5, #4, 16	; 0x40000
    30b8:	04000000 	streq	r0, [r0], #-0
    30bc:	002c0801 	eoreq	r0, ip, r1, lsl #16
    30c0:	5b050000 	blpl	1430c8 <__bss_end__+0x1394e8>
    30c4:	04000000 	streq	r0, [r0], #-0
    30c8:	004d0702 	subeq	r0, sp, r2, lsl #14
    30cc:	04040000 	streq	r0, [r4], #-0
    30d0:	00009007 	andeq	r9, r0, r7
    30d4:	07080400 	streq	r0, [r8, -r0, lsl #8]
    30d8:	0000008b 	andeq	r0, r0, fp, lsl #1
    30dc:	00002506 	andeq	r2, r0, r6, lsl #10
    30e0:	00008b00 	andeq	r8, r0, r0, lsl #22
    30e4:	00250700 	eoreq	r0, r5, r0, lsl #14
    30e8:	08000000 	stmdaeq	r0, {}	; <UNPREDICTABLE>
    30ec:	000000b0 	strheq	r0, [r0], -r0	; <UNPREDICTABLE>
    30f0:	970e1c02 	strls	r1, [lr, -r2, lsl #24]
    30f4:	09000000 	stmdbeq	r0, {}	; <UNPREDICTABLE>
    30f8:	00007c04 	andeq	r7, r0, r4, lsl #24
    30fc:	00250600 	eoreq	r0, r5, r0, lsl #12
    3100:	00ac0000 	adceq	r0, ip, r0
    3104:	ac070000 	stcge	0, cr0, [r7], {-0}
    3108:	00000000 	andeq	r0, r0, r0
    310c:	00b90409 	adcseq	r0, r9, r9, lsl #8
    3110:	01040000 	mrseq	r0, (UNDEF: 4)
    3114:	00003508 	andeq	r3, r0, r8, lsl #10
    3118:	00b20500 	adcseq	r0, r2, r0, lsl #10
    311c:	f4080000 	vst4.8	{d0-d3}, [r8], r0
    3120:	02000002 	andeq	r0, r0, #2, 0
    3124:	00ca0e21 	sbceq	r0, sl, r1, lsr #28
    3128:	04090000 	streq	r0, [r9], #-0
    312c:	0000009d 	muleq	r0, sp, r0
    3130:	0003ef0a 	andeq	lr, r3, sl, lsl #30
    3134:	05040100 	streq	r0, [r4, #-256]	; 0xffffff00
    3138:	00000025 	andeq	r0, r0, r5, lsr #32
    313c:	000092b0 			; <UNDEFINED> instruction: 0x000092b0
    3140:	0000002c 	andeq	r0, r0, ip, lsr #32
    3144:	014b9c01 	cmpeq	fp, r1, lsl #24
    3148:	5f0b0000 	svcpl	0x000b0000
    314c:	01003173 	tsteq	r0, r3, ror r1
    3150:	00ac1904 	adceq	r1, ip, r4, lsl #18
    3154:	141e0000 	ldrne	r0, [lr], #-0
    3158:	141a0000 	ldrne	r0, [sl], #-0
    315c:	5f0b0000 	svcpl	0x000b0000
    3160:	01003273 	tsteq	r0, r3, ror r2
    3164:	00ac2a04 	adceq	r2, ip, r4, lsl #20
    3168:	14430000 	strbne	r0, [r3], #-0
    316c:	143f0000 	ldrtne	r0, [pc], #-0	; 3174 <__code_start__-0x4e8c>
    3170:	6e0b0000 	cdpvs	0, 0, cr0, cr11, cr0, {0}
    3174:	36040100 	strcc	r0, [r4], -r0, lsl #2
    3178:	0000002c 	andeq	r0, r0, ip, lsr #32
    317c:	0000146a 	andeq	r1, r0, sl, ror #8
    3180:	00001464 	andeq	r1, r0, r4, ror #8
    3184:	0031730c 	eorseq	r7, r1, ip, lsl #6
    3188:	4b1a0501 	blmi	684594 <__bss_end__+0x67a9b4>
    318c:	9d000001 	stcls	0, cr0, [r0, #-4]
    3190:	95000014 	strls	r0, [r0, #-20]	; 0xffffffec
    3194:	0c000014 	stceq	0, cr0, [r0], {20}
    3198:	01003273 	tsteq	r0, r3, ror r2
    319c:	014b2c05 	cmpeq	fp, r5, lsl #24
    31a0:	14d90000 	ldrbne	r0, [r9], #0
    31a4:	14d30000 	ldrbne	r0, [r3], #0
    31a8:	09000000 	stmdbeq	r0, {}	; <UNPREDICTABLE>
    31ac:	00006204 	andeq	r6, r0, r4, lsl #4
	...

Disassembly of section .debug_abbrev:

00000000 <.debug_abbrev>:
       0:	25011101 	strcs	r1, [r1, #-257]	; 0xfffffeff
       4:	030b130e 	movweq	r1, #45838	; 0xb30e
       8:	110e1b0e 	tstne	lr, lr, lsl #22
       c:	10061201 	andne	r1, r6, r1, lsl #4
      10:	02000017 	andeq	r0, r0, #23, 0
      14:	0b0b0024 	bleq	2c00ac <__bss_end__+0x2b64cc>
      18:	08030b3e 	stmdaeq	r3, {r1, r2, r3, r4, r5, r8, r9, fp}
      1c:	24030000 	strcs	r0, [r3], #-0
      20:	3e0b0b00 	vmlacc.f64	d0, d11, d0
      24:	000e030b 	andeq	r0, lr, fp, lsl #6
      28:	01150400 	tsteq	r5, r0, lsl #8
      2c:	13491927 	movtne	r1, #39207	; 0x9927
      30:	00001301 	andeq	r1, r0, r1, lsl #6
      34:	49000505 	stmdbmi	r0, {r0, r2, r8, sl}
      38:	06000013 			; <UNDEFINED> instruction: 0x06000013
      3c:	0e030034 	mcreq	0, 0, r0, cr3, cr4, {1}
      40:	0b3b0b3a 	bleq	ec2d30 <__bss_end__+0xeb9150>
      44:	13490b39 	movtne	r0, #39737	; 0x9b39
      48:	193c193f 	ldmdbne	ip!, {r0, r1, r2, r3, r4, r5, r8, fp, ip}
      4c:	0f070000 	svceq	0x00070000
      50:	490b0b00 	stmdbmi	fp, {r8, r9, fp}
      54:	08000013 	stmdaeq	r0, {r0, r1, r4}
      58:	13490026 	movtne	r0, #36902	; 0x9026
      5c:	2e090000 	cdpcs	0, 0, cr0, cr9, cr0, {0}
      60:	03193f01 	tsteq	r9, #1, 30
      64:	3b0b3a0e 	blcc	2ce8a4 <__bss_end__+0x2c4cc4>
      68:	270b390b 	strcs	r3, [fp, -fp, lsl #18]
      6c:	12011119 	andne	r1, r1, #1073741830	; 0x40000006
      70:	97184006 	ldrls	r4, [r8, -r6]
      74:	13011942 	movwne	r1, #6466	; 0x1942
      78:	340a0000 	strcc	r0, [sl], #-0
      7c:	3a0e0300 	bcc	380c84 <__bss_end__+0x3770a4>
      80:	390b3b0b 	stmdbcc	fp, {r0, r1, r3, r8, r9, fp, ip, sp}
      84:	0213490b 	andseq	r4, r3, #180224	; 0x2c000
      88:	1742b717 	smlaldne	fp, r2, r7, r7
      8c:	340b0000 	strcc	r0, [fp], #-0
      90:	490e0300 	stmdbmi	lr, {r8, r9}
      94:	02193413 	andseq	r3, r9, #318767104	; 0x13000000
      98:	0c000018 	stceq	0, cr0, [r0], {24}
      9c:	08030034 	stmdaeq	r3, {r2, r4, r5}
      a0:	0b3b0b3a 	bleq	ec2d90 <__bss_end__+0xeb91b0>
      a4:	13490b39 	movtne	r0, #39737	; 0x9b39
      a8:	42b71702 	adcsmi	r1, r7, #524288	; 0x80000
      ac:	0d000017 	stceq	0, cr0, [r0, #-92]	; 0xffffffa4
      b0:	0111010b 	tsteq	r1, fp, lsl #2
      b4:	13010612 	movwne	r0, #5650	; 0x1612
      b8:	0b0e0000 	bleq	3800c0 <__bss_end__+0x3764e0>
      bc:	12011101 	andne	r1, r1, #1073741824	; 0x40000000
      c0:	0f000006 	svceq	0x00000006
      c4:	01018289 	smlabbeq	r1, r9, r2, r8
      c8:	13310111 	teqne	r1, #1073741828	; 0x40000004
      cc:	00001301 	andeq	r1, r0, r1, lsl #6
      d0:	01828a10 	orreq	r8, r2, r0, lsl sl
      d4:	91180200 	tstls	r8, r0, lsl #4
      d8:	00001842 	andeq	r1, r0, r2, asr #16
      dc:	01828911 	orreq	r8, r2, r1, lsl r9
      e0:	31011101 	tstcc	r1, r1, lsl #2
      e4:	12000013 	andne	r0, r0, #19, 0
      e8:	1755010b 	ldrbne	r0, [r5, -fp, lsl #2]
      ec:	00001301 	andeq	r1, r0, r1, lsl #6
      f0:	55010b13 	strpl	r0, [r1, #-2835]	; 0xfffff4ed
      f4:	14000017 	strne	r0, [r0], #-23	; 0xffffffe9
      f8:	00018289 	andeq	r8, r1, r9, lsl #5
      fc:	13310111 	teqne	r1, #1073741828	; 0x40000004
     100:	0f150000 	svceq	0x00150000
     104:	000b0b00 	andeq	r0, fp, r0, lsl #22
     108:	01011600 	tsteq	r1, r0, lsl #12
     10c:	13011349 	movwne	r1, #4937	; 0x1349
     110:	21170000 	tstcs	r7, r0
     114:	2f134900 	svccs	0x00134900
     118:	1800000b 	stmdane	r0, {r0, r1, r3}
     11c:	193f002e 	ldmdbne	pc!, {r1, r2, r3, r5}	; <UNPREDICTABLE>
     120:	0e6e193c 			; <UNDEFINED> instruction: 0x0e6e193c
     124:	0b3a0e03 	bleq	e83938 <__bss_end__+0xe79d58>
     128:	0b390b3b 	bleq	e42e1c <__bss_end__+0xe3923c>
     12c:	01000000 	mrseq	r0, (UNDEF: 0)
     130:	0e250111 	mcreq	1, 1, r0, cr5, cr1, {0}
     134:	0e030b13 	vmoveq.32	d3[0], r0
     138:	01110e1b 	tsteq	r1, fp, lsl lr
     13c:	17100612 			; <UNDEFINED> instruction: 0x17100612
     140:	24020000 	strcs	r0, [r2], #-0
     144:	3e0b0b00 	vmlacc.f64	d0, d11, d0
     148:	0008030b 	andeq	r0, r8, fp, lsl #6
     14c:	00240300 	eoreq	r0, r4, r0, lsl #6
     150:	0b3e0b0b 	bleq	f82d84 <__bss_end__+0xf791a4>
     154:	00000e03 	andeq	r0, r0, r3, lsl #28
     158:	27011504 	strcs	r1, [r1, -r4, lsl #10]
     15c:	01134919 	tsteq	r3, r9, lsl r9
     160:	05000013 	streq	r0, [r0, #-19]	; 0xffffffed
     164:	13490005 	movtne	r0, #36869	; 0x9005
     168:	34060000 	strcc	r0, [r6], #-0
     16c:	3a0e0300 	bcc	380d74 <__bss_end__+0x377194>
     170:	390b3b0b 	stmdbcc	fp, {r0, r1, r3, r8, r9, fp, ip, sp}
     174:	3f13490b 	svccc	0x0013490b
     178:	00193c19 	andseq	r3, r9, r9, lsl ip
     17c:	000f0700 	andeq	r0, pc, r0, lsl #14
     180:	13490b0b 	movtne	r0, #39691	; 0x9b0b
     184:	26080000 	strcs	r0, [r8], -r0
     188:	00134900 	andseq	r4, r3, r0, lsl #18
     18c:	00340900 	eorseq	r0, r4, r0, lsl #18
     190:	0b3a0e03 	bleq	e839a4 <__bss_end__+0xe79dc4>
     194:	0b390b3b 	bleq	e42e88 <__bss_end__+0xe392a8>
     198:	18021349 	stmdane	r2, {r0, r3, r6, r8, r9, ip}
     19c:	340a0000 	strcc	r0, [sl], #-0
     1a0:	3a0e0300 	bcc	380da8 <__bss_end__+0x3771c8>
     1a4:	390b3b0b 	stmdbcc	fp, {r0, r1, r3, r8, r9, fp, ip, sp}
     1a8:	3f13490b 	svccc	0x0013490b
     1ac:	00180219 	andseq	r0, r8, r9, lsl r2
     1b0:	000f0b00 	andeq	r0, pc, r0, lsl #22
     1b4:	00000b0b 	andeq	r0, r0, fp, lsl #22
     1b8:	3f012e0c 	svccc	0x00012e0c
     1bc:	3a0e0319 	bcc	380e28 <__bss_end__+0x377248>
     1c0:	390b3b0b 	stmdbcc	fp, {r0, r1, r3, r8, r9, fp, ip, sp}
     1c4:	4919270b 	ldmdbmi	r9, {r0, r1, r3, r8, r9, sl, sp}
     1c8:	12011113 	andne	r1, r1, #-1073741820	; 0xc0000004
     1cc:	97184006 	ldrls	r4, [r8, -r6]
     1d0:	13011942 	movwne	r1, #6466	; 0x1942
     1d4:	340d0000 	strcc	r0, [sp], #-0
     1d8:	490e0300 	stmdbmi	lr, {r8, r9}
     1dc:	02193413 	andseq	r3, r9, #318767104	; 0x13000000
     1e0:	0e000018 	mcreq	0, 0, r0, cr0, cr8, {0}
     1e4:	01018289 	smlabbeq	r1, r9, r2, r8
     1e8:	13310111 	teqne	r1, #1073741828	; 0x40000004
     1ec:	00001301 	andeq	r1, r0, r1, lsl #6
     1f0:	01828a0f 	orreq	r8, r2, pc, lsl #20
     1f4:	91180200 	tstls	r8, r0, lsl #4
     1f8:	00001842 	andeq	r1, r0, r2, asr #16
     1fc:	01828910 	orreq	r8, r2, r0, lsl r9
     200:	31011100 	mrscc	r1, (UNDEF: 17)
     204:	11000013 	tstne	r0, r3, lsl r0
     208:	13490101 	movtne	r0, #37121	; 0x9101
     20c:	00001301 	andeq	r1, r0, r1, lsl #6
     210:	49002112 	stmdbmi	r0, {r1, r4, r8, sp}
     214:	000b2f13 	andeq	r2, fp, r3, lsl pc
     218:	012e1300 			; <UNDEFINED> instruction: 0x012e1300
     21c:	0e03193f 			; <UNDEFINED> instruction: 0x0e03193f
     220:	0b3b0b3a 	bleq	ec2f10 <__bss_end__+0xeb9330>
     224:	19270b39 	stmdbne	r7!, {r0, r3, r4, r5, r8, r9, fp}
     228:	06120111 			; <UNDEFINED> instruction: 0x06120111
     22c:	42971840 	addsmi	r1, r7, #64, 16	; 0x400000
     230:	00130119 	andseq	r0, r3, r9, lsl r1
     234:	00051400 	andeq	r1, r5, r0, lsl #8
     238:	0b3a0e03 	bleq	e83a4c <__bss_end__+0xe79e6c>
     23c:	0b390b3b 	bleq	e42f30 <__bss_end__+0xe39350>
     240:	17021349 	strne	r1, [r2, -r9, asr #6]
     244:	001742b7 			; <UNDEFINED> instruction: 0x001742b7
     248:	011d1500 	tsteq	sp, r0, lsl #10
     24c:	01521331 	cmpeq	r2, r1, lsr r3
     250:	550b42b8 	strpl	r4, [fp, #-696]	; 0xfffffd48
     254:	590b5817 	stmdbpl	fp, {r0, r1, r2, r4, fp, ip, lr}
     258:	010b570b 	tsteq	fp, fp, lsl #14
     25c:	16000013 			; <UNDEFINED> instruction: 0x16000013
     260:	13310005 	teqne	r1, #5, 0
     264:	42b71702 	adcsmi	r1, r7, #524288	; 0x80000
     268:	17000017 	smladne	r0, r7, r0, r0
     26c:	1755000b 	ldrbne	r0, [r5, -fp]
     270:	05180000 	ldreq	r0, [r8, #-0]
     274:	00133100 	andseq	r3, r3, r0, lsl #2
     278:	82891900 	addhi	r1, r9, #0, 18
     27c:	01110101 	tsteq	r1, r1, lsl #2
     280:	00001331 	andeq	r1, r0, r1, lsr r3
     284:	31011d1a 	tstcc	r1, sl, lsl sp
     288:	b8015213 	stmdalt	r1, {r0, r1, r4, r9, ip, lr}
     28c:	01110b42 	tsteq	r1, r2, asr #22
     290:	0b580612 	bleq	1601ae0 <__bss_end__+0x15f7f00>
     294:	0b570b59 	bleq	15c3000 <__bss_end__+0x15b9420>
     298:	00001301 	andeq	r1, r0, r1, lsl #6
     29c:	0300341b 	movweq	r3, #1051	; 0x41b
     2a0:	3b0b3a08 	blcc	2ceac8 <__bss_end__+0x2c4ee8>
     2a4:	490b390b 	stmdbmi	fp, {r0, r1, r3, r8, fp, ip, sp}
     2a8:	b7170213 			; <UNDEFINED> instruction: 0xb7170213
     2ac:	00001742 	andeq	r1, r0, r2, asr #14
     2b0:	03012e1c 	movweq	r2, #7708	; 0x1e1c
     2b4:	3b0b3a0e 	blcc	2ceaf4 <__bss_end__+0x2c4f14>
     2b8:	270b390b 	strcs	r3, [fp, -fp, lsl #18]
     2bc:	20134919 	andscs	r4, r3, r9, lsl r9
     2c0:	0013010b 	andseq	r0, r3, fp, lsl #2
     2c4:	00051d00 	andeq	r1, r5, r0, lsl #26
     2c8:	0b3a0803 	bleq	e822dc <__bss_end__+0xe786fc>
     2cc:	0b390b3b 	bleq	e42fc0 <__bss_end__+0xe393e0>
     2d0:	00001349 	andeq	r1, r0, r9, asr #6
     2d4:	0300341e 	movweq	r3, #1054	; 0x41e
     2d8:	3413490e 	ldrcc	r4, [r3], #-2318	; 0xfffff6f2
     2dc:	1f000019 	svcne	0x00000019
     2e0:	193f002e 	ldmdbne	pc!, {r1, r2, r3, r5}	; <UNPREDICTABLE>
     2e4:	0e6e193c 			; <UNDEFINED> instruction: 0x0e6e193c
     2e8:	0b3a0e03 	bleq	e83afc <__bss_end__+0xe79f1c>
     2ec:	0b390b3b 	bleq	e42fe0 <__bss_end__+0xe39400>
     2f0:	01000000 	mrseq	r0, (UNDEF: 0)
     2f4:	0e250111 	mcreq	1, 1, r0, cr5, cr1, {0}
     2f8:	0e030b13 	vmoveq.32	d3[0], r0
     2fc:	01110e1b 	tsteq	r1, fp, lsl lr
     300:	17100612 			; <UNDEFINED> instruction: 0x17100612
     304:	16020000 	strne	r0, [r2], -r0
     308:	3a0e0300 	bcc	380f10 <__bss_end__+0x377330>
     30c:	390b3b0b 	stmdbcc	fp, {r0, r1, r3, r8, r9, fp, ip, sp}
     310:	0013490b 	andseq	r4, r3, fp, lsl #18
     314:	01130300 	tsteq	r3, r0, lsl #6
     318:	0b0b0e03 	bleq	2c3b2c <__bss_end__+0x2b9f4c>
     31c:	0b3b0b3a 	bleq	ec300c <__bss_end__+0xeb942c>
     320:	00001301 	andeq	r1, r0, r1, lsl #6
     324:	03000d04 	movweq	r0, #3332	; 0xd04
     328:	3813490e 	ldmdacc	r3, {r1, r2, r3, r8, fp, lr}
     32c:	0019340b 	andseq	r3, r9, fp, lsl #8
     330:	000f0500 	andeq	r0, pc, r0, lsl #10
     334:	00000b0b 	andeq	r0, r0, fp, lsl #22
     338:	0b002406 	bleq	9358 <__code_end__+0x64>
     33c:	030b3e0b 	movweq	r3, #48651	; 0xbe0b
     340:	07000008 	streq	r0, [r0, -r8]
     344:	0b0b0024 	bleq	2c03dc <__bss_end__+0x2b67fc>
     348:	0e030b3e 	vmoveq.16	d3[0], r0
     34c:	15080000 	strne	r0, [r8, #-0]
     350:	49192701 	ldmdbmi	r9, {r0, r8, r9, sl, sp}
     354:	00130113 	andseq	r0, r3, r3, lsl r1
     358:	00050900 	andeq	r0, r5, r0, lsl #18
     35c:	00001349 	andeq	r1, r0, r9, asr #6
     360:	0300340a 	movweq	r3, #1034	; 0x40a
     364:	3b0b3a0e 	blcc	2ceba4 <__bss_end__+0x2c4fc4>
     368:	490b390b 	stmdbmi	fp, {r0, r1, r3, r8, fp, ip, sp}
     36c:	3c193f13 	ldccc	15, cr3, [r9], {19}
     370:	0b000019 	bleq	3dc <__code_start__-0x7c24>
     374:	0b0b000f 	bleq	2c03b8 <__bss_end__+0x2b67d8>
     378:	00001349 	andeq	r1, r0, r9, asr #6
     37c:	4900260c 	stmdbmi	r0, {r2, r3, r9, sl, sp}
     380:	0d000013 	stceq	0, cr0, [r0, #-76]	; 0xffffffb4
     384:	193f012e 	ldmdbne	pc!, {r1, r2, r3, r5, r8}	; <UNPREDICTABLE>
     388:	0b3a0e03 	bleq	e83b9c <__bss_end__+0xe79fbc>
     38c:	0b390b3b 	bleq	e43080 <__bss_end__+0xe394a0>
     390:	13491927 	movtne	r1, #39207	; 0x9927
     394:	06120111 			; <UNDEFINED> instruction: 0x06120111
     398:	42971840 	addsmi	r1, r7, #64, 16	; 0x400000
     39c:	00130119 	andseq	r0, r3, r9, lsl r1
     3a0:	00050e00 	andeq	r0, r5, r0, lsl #28
     3a4:	0b3a0803 	bleq	e823b8 <__bss_end__+0xe787d8>
     3a8:	0b390b3b 	bleq	e4309c <__bss_end__+0xe394bc>
     3ac:	18021349 	stmdane	r2, {r0, r3, r6, r8, r9, ip}
     3b0:	180f0000 	stmdane	pc, {}	; <UNPREDICTABLE>
     3b4:	10000000 	andne	r0, r0, r0
     3b8:	08030034 	stmdaeq	r3, {r2, r4, r5}
     3bc:	0b3b0b3a 	bleq	ec30ac <__bss_end__+0xeb94cc>
     3c0:	13490b39 	movtne	r0, #39737	; 0x9b39
     3c4:	00001802 	andeq	r1, r0, r2, lsl #16
     3c8:	03003411 	movweq	r3, #1041	; 0x411
     3cc:	3b0b3a0e 	blcc	2cec0c <__bss_end__+0x2c502c>
     3d0:	490b390b 	stmdbmi	fp, {r0, r1, r3, r8, fp, ip, sp}
     3d4:	00180213 	andseq	r0, r8, r3, lsl r2
     3d8:	00341200 	eorseq	r1, r4, r0, lsl #4
     3dc:	0b3a0803 	bleq	e823f0 <__bss_end__+0xe78810>
     3e0:	0b390b3b 	bleq	e430d4 <__bss_end__+0xe394f4>
     3e4:	17021349 	strne	r1, [r2, -r9, asr #6]
     3e8:	001742b7 			; <UNDEFINED> instruction: 0x001742b7
     3ec:	82891300 	addhi	r1, r9, #0, 6
     3f0:	01110101 	tsteq	r1, r1, lsl #2
     3f4:	13011331 	movwne	r1, #4913	; 0x1331
     3f8:	8a140000 	bhi	500400 <__bss_end__+0x4f6820>
     3fc:	02000182 	andeq	r0, r0, #-2147483616	; 0x80000020
     400:	18429118 	stmdane	r2, {r3, r4, r8, ip, pc}^
     404:	89150000 	ldmdbhi	r5, {}	; <UNPREDICTABLE>
     408:	11010182 	smlabbne	r1, r2, r1, r0
     40c:	16000001 	strne	r0, [r0], -r1
     410:	13490101 	movtne	r0, #37121	; 0x9101
     414:	00001301 	andeq	r1, r0, r1, lsl #6
     418:	49002117 	stmdbmi	r0, {r0, r1, r2, r4, r8, sp}
     41c:	00052f13 	andeq	r2, r5, r3, lsl pc
     420:	002e1800 	eoreq	r1, lr, r0, lsl #16
     424:	193c193f 	ldmdbne	ip!, {r0, r1, r2, r3, r4, r5, r8, fp, ip}
     428:	0e030e6e 	cdpeq	14, 0, cr0, cr3, cr14, {3}
     42c:	0b3b0b3a 	bleq	ec311c <__bss_end__+0xeb953c>
     430:	00000b39 	andeq	r0, r0, r9, lsr fp
     434:	01110100 	tsteq	r1, r0, lsl #2
     438:	0b130e25 	bleq	4c3cd4 <__bss_end__+0x4ba0f4>
     43c:	0e1b0e03 	cdpeq	14, 1, cr0, cr11, cr3, {0}
     440:	06120111 			; <UNDEFINED> instruction: 0x06120111
     444:	00001710 	andeq	r1, r0, r0, lsl r7
     448:	0b002402 	bleq	9458 <__code_end__+0x164>
     44c:	030b3e0b 	movweq	r3, #48651	; 0xbe0b
     450:	03000008 	movweq	r0, #8
     454:	0b0b0024 	bleq	2c04ec <__bss_end__+0x2b690c>
     458:	0e030b3e 	vmoveq.16	d3[0], r0
     45c:	15040000 	strne	r0, [r4, #-0]
     460:	49192701 	ldmdbmi	r9, {r0, r8, r9, sl, sp}
     464:	00130113 	andseq	r0, r3, r3, lsl r1
     468:	00050500 	andeq	r0, r5, r0, lsl #10
     46c:	00001349 	andeq	r1, r0, r9, asr #6
     470:	03003406 	movweq	r3, #1030	; 0x406
     474:	3b0b3a0e 	blcc	2cecb4 <__bss_end__+0x2c50d4>
     478:	490b390b 	stmdbmi	fp, {r0, r1, r3, r8, fp, ip, sp}
     47c:	3c193f13 	ldccc	15, cr3, [r9], {19}
     480:	07000019 	smladeq	r0, r9, r0, r0
     484:	0b0b000f 	bleq	2c04c8 <__bss_end__+0x2b68e8>
     488:	00001349 	andeq	r1, r0, r9, asr #6
     48c:	49002608 	stmdbmi	r0, {r3, r9, sl, sp}
     490:	09000013 	stmdbeq	r0, {r0, r1, r4}
     494:	13470034 	movtne	r0, #28724	; 0x7034
     498:	0b3b0b3a 	bleq	ec3188 <__bss_end__+0xeb95a8>
     49c:	18020b39 	stmdane	r2, {r0, r3, r4, r5, r8, r9, fp}
     4a0:	2e0a0000 	cdpcs	0, 0, cr0, cr10, cr0, {0}
     4a4:	03193f01 	tsteq	r9, #1, 30
     4a8:	3b0b3a0e 	blcc	2cece8 <__bss_end__+0x2c5108>
     4ac:	270b390b 	strcs	r3, [fp, -fp, lsl #18]
     4b0:	12011119 	andne	r1, r1, #1073741830	; 0x40000006
     4b4:	97184006 	ldrls	r4, [r8, -r6]
     4b8:	13011942 	movwne	r1, #6466	; 0x1942
     4bc:	050b0000 	streq	r0, [fp, #-0]
     4c0:	3a080300 	bcc	2010c8 <__bss_end__+0x1f74e8>
     4c4:	390b3b0b 	stmdbcc	fp, {r0, r1, r3, r8, r9, fp, ip, sp}
     4c8:	0213490b 	andseq	r4, r3, #180224	; 0x2c000
     4cc:	0c000018 	stceq	0, cr0, [r0], {24}
     4d0:	193f002e 	ldmdbne	pc!, {r1, r2, r3, r5}	; <UNPREDICTABLE>
     4d4:	0b3a0e03 	bleq	e83ce8 <__bss_end__+0xe7a108>
     4d8:	0b390b3b 	bleq	e431cc <__bss_end__+0xe395ec>
     4dc:	01111927 	tsteq	r1, r7, lsr #18
     4e0:	18400612 	stmdane	r0, {r1, r4, r9, sl}^
     4e4:	00194297 	mulseq	r9, r7, r2
     4e8:	012e0d00 			; <UNDEFINED> instruction: 0x012e0d00
     4ec:	0b3a0e03 	bleq	e83d00 <__bss_end__+0xe7a120>
     4f0:	0b390b3b 	bleq	e431e4 <__bss_end__+0xe39604>
     4f4:	13491927 	movtne	r1, #39207	; 0x9927
     4f8:	06120111 			; <UNDEFINED> instruction: 0x06120111
     4fc:	42971840 	addsmi	r1, r7, #64, 16	; 0x400000
     500:	00130119 	andseq	r0, r3, r9, lsl r1
     504:	00050e00 	andeq	r0, r5, r0, lsl #28
     508:	0b3a0803 	bleq	e8251c <__bss_end__+0xe7893c>
     50c:	0b390b3b 	bleq	e43200 <__bss_end__+0xe39620>
     510:	17021349 	strne	r1, [r2, -r9, asr #6]
     514:	001742b7 			; <UNDEFINED> instruction: 0x001742b7
     518:	82890f00 	addhi	r0, r9, #0, 30
     51c:	01110101 	tsteq	r1, r1, lsl #2
     520:	00001331 	andeq	r1, r0, r1, lsr r3
     524:	01828a10 	orreq	r8, r2, r0, lsl sl
     528:	91180200 	tstls	r8, r0, lsl #4
     52c:	00001842 	andeq	r1, r0, r2, asr #16
     530:	3f002e11 	svccc	0x00002e11
     534:	6e193c19 	mrcvs	12, 0, r3, cr9, cr9, {0}
     538:	3a0e030e 	bcc	381178 <__bss_end__+0x377598>
     53c:	390b3b0b 	stmdbcc	fp, {r0, r1, r3, r8, r9, fp, ip, sp}
     540:	0000000b 	andeq	r0, r0, fp
     544:	25011101 	strcs	r1, [r1, #-257]	; 0xfffffeff
     548:	030b130e 	movweq	r1, #45838	; 0xb30e
     54c:	110e1b0e 	tstne	lr, lr, lsl #22
     550:	10061201 	andne	r1, r6, r1, lsl #4
     554:	02000017 	andeq	r0, r0, #23, 0
     558:	0b0b0024 	bleq	2c05f0 <__bss_end__+0x2b6a10>
     55c:	08030b3e 	stmdaeq	r3, {r1, r2, r3, r4, r5, r8, r9, fp}
     560:	24030000 	strcs	r0, [r3], #-0
     564:	3e0b0b00 	vmlacc.f64	d0, d11, d0
     568:	000e030b 	andeq	r0, lr, fp, lsl #6
     56c:	01150400 	tsteq	r5, r0, lsl #8
     570:	13491927 	movtne	r1, #39207	; 0x9927
     574:	00001301 	andeq	r1, r0, r1, lsl #6
     578:	49000505 	stmdbmi	r0, {r0, r2, r8, sl}
     57c:	06000013 			; <UNDEFINED> instruction: 0x06000013
     580:	0e030034 	mcreq	0, 0, r0, cr3, cr4, {1}
     584:	0b3b0b3a 	bleq	ec3274 <__bss_end__+0xeb9694>
     588:	13490b39 	movtne	r0, #39737	; 0x9b39
     58c:	193c193f 	ldmdbne	ip!, {r0, r1, r2, r3, r4, r5, r8, fp, ip}
     590:	0f070000 	svceq	0x00070000
     594:	490b0b00 	stmdbmi	fp, {r8, r9, fp}
     598:	08000013 	stmdaeq	r0, {r0, r1, r4}
     59c:	13490026 	movtne	r0, #36902	; 0x9026
     5a0:	34090000 	strcc	r0, [r9], #-0
     5a4:	3a134700 	bcc	4d21ac <__bss_end__+0x4c85cc>
     5a8:	390b3b0b 	stmdbcc	fp, {r0, r1, r3, r8, r9, fp, ip, sp}
     5ac:	0018020b 	andseq	r0, r8, fp, lsl #4
     5b0:	012e0a00 			; <UNDEFINED> instruction: 0x012e0a00
     5b4:	0e03193f 			; <UNDEFINED> instruction: 0x0e03193f
     5b8:	0b3b0b3a 	bleq	ec32a8 <__bss_end__+0xeb96c8>
     5bc:	19270b39 	stmdbne	r7!, {r0, r3, r4, r5, r8, r9, fp}
     5c0:	01111349 	tsteq	r1, r9, asr #6
     5c4:	18400612 	stmdane	r0, {r1, r4, r9, sl}^
     5c8:	00194296 	mulseq	r9, r6, r2
     5cc:	00050b00 	andeq	r0, r5, r0, lsl #22
     5d0:	0b3a0803 	bleq	e825e4 <__bss_end__+0xe78a04>
     5d4:	0b390b3b 	bleq	e432c8 <__bss_end__+0xe396e8>
     5d8:	17021349 	strne	r1, [r2, -r9, asr #6]
     5dc:	001742b7 			; <UNDEFINED> instruction: 0x001742b7
     5e0:	11010000 	mrsne	r0, (UNDEF: 1)
     5e4:	130e2501 	movwne	r2, #58625	; 0xe501
     5e8:	1b0e030b 	blne	38121c <__bss_end__+0x37763c>
     5ec:	1201110e 	andne	r1, r1, #-2147483645	; 0x80000003
     5f0:	00171006 	andseq	r1, r7, r6
     5f4:	00240200 	eoreq	r0, r4, r0, lsl #4
     5f8:	0b3e0b0b 	bleq	f8322c <__bss_end__+0xf7964c>
     5fc:	00000803 	andeq	r0, r0, r3, lsl #16
     600:	0b002403 	bleq	9614 <__FUNCTION__.3921+0x14c>
     604:	030b3e0b 	movweq	r3, #48651	; 0xbe0b
     608:	0400000e 	streq	r0, [r0], #-14
     60c:	0e030016 	mcreq	0, 0, r0, cr3, cr6, {0}
     610:	0b3b0b3a 	bleq	ec3300 <__bss_end__+0xeb9720>
     614:	13490b39 	movtne	r0, #39737	; 0x9b39
     618:	15050000 	strne	r0, [r5, #-0]
     61c:	49192701 	ldmdbmi	r9, {r0, r8, r9, sl, sp}
     620:	00130113 	andseq	r0, r3, r3, lsl r1
     624:	00050600 	andeq	r0, r5, r0, lsl #12
     628:	00001349 	andeq	r1, r0, r9, asr #6
     62c:	03003407 	movweq	r3, #1031	; 0x407
     630:	3b0b3a0e 	blcc	2cee70 <__bss_end__+0x2c5290>
     634:	490b390b 	stmdbmi	fp, {r0, r1, r3, r8, fp, ip, sp}
     638:	3c193f13 	ldccc	15, cr3, [r9], {19}
     63c:	08000019 	stmdaeq	r0, {r0, r3, r4}
     640:	0b0b000f 	bleq	2c0684 <__bss_end__+0x2b6aa4>
     644:	00001349 	andeq	r1, r0, r9, asr #6
     648:	49002609 	stmdbmi	r0, {r0, r3, r9, sl, sp}
     64c:	0a000013 	beq	6a0 <__code_start__-0x7960>
     650:	0e030113 	mcreq	1, 0, r0, cr3, cr3, {0}
     654:	0b3a0b0b 	bleq	e83288 <__bss_end__+0xe796a8>
     658:	13010b3b 	movwne	r0, #6971	; 0x1b3b
     65c:	0d0b0000 	stceq	0, cr0, [fp, #-0]
     660:	490e0300 	stmdbmi	lr, {r8, r9}
     664:	340b3813 	strcc	r3, [fp], #-2067	; 0xfffff7ed
     668:	0c000019 	stceq	0, cr0, [r0], {25}
     66c:	0b0b000f 	bleq	2c06b0 <__bss_end__+0x2b6ad0>
     670:	2e0d0000 	cdpcs	0, 0, cr0, cr13, cr0, {0}
     674:	03193f01 	tsteq	r9, #1, 30
     678:	3b0b3a0e 	blcc	2ceeb8 <__bss_end__+0x2c52d8>
     67c:	270b390b 	strcs	r3, [fp, -fp, lsl #18]
     680:	11134919 	tstne	r3, r9, lsl r9
     684:	40061201 	andmi	r1, r6, r1, lsl #4
     688:	19429718 	stmdbne	r2, {r3, r4, r8, r9, sl, ip, pc}^
     68c:	00001301 	andeq	r1, r0, r1, lsl #6
     690:	0300050e 	movweq	r0, #1294	; 0x50e
     694:	3b0b3a08 	blcc	2ceebc <__bss_end__+0x2c52dc>
     698:	490b390b 	stmdbmi	fp, {r0, r1, r3, r8, fp, ip, sp}
     69c:	b7170213 			; <UNDEFINED> instruction: 0xb7170213
     6a0:	00001742 	andeq	r1, r0, r2, asr #14
     6a4:	0300050f 	movweq	r0, #1295	; 0x50f
     6a8:	3b0b3a0e 	blcc	2ceee8 <__bss_end__+0x2c5308>
     6ac:	490b390b 	stmdbmi	fp, {r0, r1, r3, r8, fp, ip, sp}
     6b0:	00180213 	andseq	r0, r8, r3, lsl r2
     6b4:	00341000 	eorseq	r1, r4, r0
     6b8:	0b3a0803 	bleq	e826cc <__bss_end__+0xe78aec>
     6bc:	0b390b3b 	bleq	e433b0 <__bss_end__+0xe397d0>
     6c0:	17021349 	strne	r1, [r2, -r9, asr #6]
     6c4:	001742b7 			; <UNDEFINED> instruction: 0x001742b7
     6c8:	00341100 	eorseq	r1, r4, r0, lsl #2
     6cc:	0b3a0803 	bleq	e826e0 <__bss_end__+0xe78b00>
     6d0:	0b390b3b 	bleq	e433c4 <__bss_end__+0xe397e4>
     6d4:	00001349 	andeq	r1, r0, r9, asr #6
     6d8:	03003412 	movweq	r3, #1042	; 0x412
     6dc:	3b0b3a0e 	blcc	2cef1c <__bss_end__+0x2c533c>
     6e0:	490b390b 	stmdbmi	fp, {r0, r1, r3, r8, fp, ip, sp}
     6e4:	b7170213 			; <UNDEFINED> instruction: 0xb7170213
     6e8:	00001742 	andeq	r1, r0, r2, asr #14
     6ec:	03003413 	movweq	r3, #1043	; 0x413
     6f0:	3413490e 	ldrcc	r4, [r3], #-2318	; 0xfffff6f2
     6f4:	00180219 	andseq	r0, r8, r9, lsl r2
     6f8:	010b1400 	tsteq	fp, r0, lsl #8
     6fc:	06120111 			; <UNDEFINED> instruction: 0x06120111
     700:	34150000 	ldrcc	r0, [r5], #-0
     704:	3a080300 	bcc	20130c <__bss_end__+0x1f772c>
     708:	390b3b0b 	stmdbcc	fp, {r0, r1, r3, r8, r9, fp, ip, sp}
     70c:	0213490b 	andseq	r4, r3, #180224	; 0x2c000
     710:	16000018 			; <UNDEFINED> instruction: 0x16000018
     714:	0e030034 	mcreq	0, 0, r0, cr3, cr4, {1}
     718:	0b3b0b3a 	bleq	ec3408 <__bss_end__+0xeb9828>
     71c:	13490b39 	movtne	r0, #39737	; 0x9b39
     720:	00001802 	andeq	r1, r0, r2, lsl #16
     724:	11010b17 	tstne	r1, r7, lsl fp
     728:	01061201 	tsteq	r6, r1, lsl #4
     72c:	18000013 	stmdane	r0, {r0, r1, r4}
     730:	01018289 	smlabbeq	r1, r9, r2, r8
     734:	13310111 	teqne	r1, #1073741828	; 0x40000004
     738:	00001301 	andeq	r1, r0, r1, lsl #6
     73c:	01828a19 	orreq	r8, r2, r9, lsl sl
     740:	91180200 	tstls	r8, r0, lsl #4
     744:	00001842 	andeq	r1, r0, r2, asr #16
     748:	0182891a 	orreq	r8, r2, sl, lsl r9
     74c:	31011100 	mrscc	r1, (UNDEF: 17)
     750:	1b000013 	blne	7a4 <__code_start__-0x785c>
     754:	01018289 	smlabbeq	r1, r9, r2, r8
     758:	13010111 	movwne	r0, #4369	; 0x1111
     75c:	011c0000 	tsteq	ip, r0
     760:	01134901 	tsteq	r3, r1, lsl #18
     764:	1d000013 	stcne	0, cr0, [r0, #-76]	; 0xffffffb4
     768:	13490021 	movtne	r0, #36897	; 0x9021
     76c:	00000b2f 	andeq	r0, r0, pc, lsr #22
     770:	03012e1e 	movweq	r2, #7710	; 0x1e1e
     774:	3b0b3a0e 	blcc	2cefb4 <__bss_end__+0x2c53d4>
     778:	270b390b 	strcs	r3, [fp, -fp, lsl #18]
     77c:	11134919 	tstne	r3, r9, lsl r9
     780:	40061201 	andmi	r1, r6, r1, lsl #4
     784:	19429718 	stmdbne	r2, {r3, r4, r8, r9, sl, ip, pc}^
     788:	00001301 	andeq	r1, r0, r1, lsl #6
     78c:	0300051f 	movweq	r0, #1311	; 0x51f
     790:	3b0b3a0e 	blcc	2cefd0 <__bss_end__+0x2c53f0>
     794:	490b390b 	stmdbmi	fp, {r0, r1, r3, r8, fp, ip, sp}
     798:	b7170213 			; <UNDEFINED> instruction: 0xb7170213
     79c:	00001742 	andeq	r1, r0, r2, asr #14
     7a0:	03012e20 	movweq	r2, #7712	; 0x1e20
     7a4:	3b0b3a08 	blcc	2cefcc <__bss_end__+0x2c53ec>
     7a8:	270b390b 	strcs	r3, [fp, -fp, lsl #18]
     7ac:	11134919 	tstne	r3, r9, lsl r9
     7b0:	40061201 	andmi	r1, r6, r1, lsl #4
     7b4:	19429718 	stmdbne	r2, {r3, r4, r8, r9, sl, ip, pc}^
     7b8:	00001301 	andeq	r1, r0, r1, lsl #6
     7bc:	3f012e21 	svccc	0x00012e21
     7c0:	3a0e0319 	bcc	38142c <__bss_end__+0x37784c>
     7c4:	390b3b0b 	stmdbcc	fp, {r0, r1, r3, r8, r9, fp, ip, sp}
     7c8:	1119270b 	tstne	r9, fp, lsl #14
     7cc:	40061201 	andmi	r1, r6, r1, lsl #4
     7d0:	19429718 	stmdbne	r2, {r3, r4, r8, r9, sl, ip, pc}^
     7d4:	00001301 	andeq	r1, r0, r1, lsl #6
     7d8:	3f002e22 	svccc	0x00002e22
     7dc:	6e193c19 	mrcvs	12, 0, r3, cr9, cr9, {0}
     7e0:	3a0e030e 	bcc	381420 <__bss_end__+0x377840>
     7e4:	390b3b0b 	stmdbcc	fp, {r0, r1, r3, r8, r9, fp, ip, sp}
     7e8:	0000000b 	andeq	r0, r0, fp
     7ec:	25011101 	strcs	r1, [r1, #-257]	; 0xfffffeff
     7f0:	030b130e 	movweq	r1, #45838	; 0xb30e
     7f4:	110e1b0e 	tstne	lr, lr, lsl #22
     7f8:	10061201 	andne	r1, r6, r1, lsl #4
     7fc:	02000017 	andeq	r0, r0, #23, 0
     800:	0b0b0024 	bleq	2c0898 <__bss_end__+0x2b6cb8>
     804:	08030b3e 	stmdaeq	r3, {r1, r2, r3, r4, r5, r8, r9, fp}
     808:	24030000 	strcs	r0, [r3], #-0
     80c:	3e0b0b00 	vmlacc.f64	d0, d11, d0
     810:	000e030b 	andeq	r0, lr, fp, lsl #6
     814:	01150400 	tsteq	r5, r0, lsl #8
     818:	13491927 	movtne	r1, #39207	; 0x9927
     81c:	00001301 	andeq	r1, r0, r1, lsl #6
     820:	49000505 	stmdbmi	r0, {r0, r2, r8, sl}
     824:	06000013 			; <UNDEFINED> instruction: 0x06000013
     828:	0e030034 	mcreq	0, 0, r0, cr3, cr4, {1}
     82c:	0b3b0b3a 	bleq	ec351c <__bss_end__+0xeb993c>
     830:	13490b39 	movtne	r0, #39737	; 0x9b39
     834:	193c193f 	ldmdbne	ip!, {r0, r1, r2, r3, r4, r5, r8, fp, ip}
     838:	0f070000 	svceq	0x00070000
     83c:	490b0b00 	stmdbmi	fp, {r8, r9, fp}
     840:	08000013 	stmdaeq	r0, {r0, r1, r4}
     844:	13490026 	movtne	r0, #36902	; 0x9026
     848:	2e090000 	cdpcs	0, 0, cr0, cr9, cr0, {0}
     84c:	03193f01 	tsteq	r9, #1, 30
     850:	3b0b3a0e 	blcc	2cf090 <__bss_end__+0x2c54b0>
     854:	270b390b 	strcs	r3, [fp, -fp, lsl #18]
     858:	19018719 	stmdbne	r1, {r0, r3, r4, r8, r9, sl, pc}
     85c:	06120111 			; <UNDEFINED> instruction: 0x06120111
     860:	42971840 	addsmi	r1, r7, #64, 16	; 0x400000
     864:	00130119 	andseq	r0, r3, r9, lsl r1
     868:	82890a00 	addhi	r0, r9, #0, 20
     86c:	01110101 	tsteq	r1, r1, lsl #2
     870:	00001301 	andeq	r1, r0, r1, lsl #6
     874:	01828a0b 	orreq	r8, r2, fp, lsl #20
     878:	91180200 	tstls	r8, r0, lsl #4
     87c:	00001842 	andeq	r1, r0, r2, asr #16
     880:	0182890c 	orreq	r8, r2, ip, lsl #18
     884:	31011100 	mrscc	r1, (UNDEF: 17)
     888:	0d000013 	stceq	0, cr0, [r0, #-76]	; 0xffffffb4
     88c:	01018289 	smlabbeq	r1, r9, r2, r8
     890:	13310111 	teqne	r1, #1073741828	; 0x40000004
     894:	00001301 	andeq	r1, r0, r1, lsl #6
     898:	3f002e0e 	svccc	0x00002e0e
     89c:	6e193c19 	mrcvs	12, 0, r3, cr9, cr9, {0}
     8a0:	3a0e030e 	bcc	3814e0 <__bss_end__+0x377900>
     8a4:	390b3b0b 	stmdbcc	fp, {r0, r1, r3, r8, r9, fp, ip, sp}
     8a8:	0000000b 	andeq	r0, r0, fp
     8ac:	25011101 	strcs	r1, [r1, #-257]	; 0xfffffeff
     8b0:	030b130e 	movweq	r1, #45838	; 0xb30e
     8b4:	110e1b0e 	tstne	lr, lr, lsl #22
     8b8:	10061201 	andne	r1, r6, r1, lsl #4
     8bc:	02000017 	andeq	r0, r0, #23, 0
     8c0:	0b0b0024 	bleq	2c0958 <__bss_end__+0x2b6d78>
     8c4:	08030b3e 	stmdaeq	r3, {r1, r2, r3, r4, r5, r8, r9, fp}
     8c8:	24030000 	strcs	r0, [r3], #-0
     8cc:	3e0b0b00 	vmlacc.f64	d0, d11, d0
     8d0:	000e030b 	andeq	r0, lr, fp, lsl #6
     8d4:	01150400 	tsteq	r5, r0, lsl #8
     8d8:	13491927 	movtne	r1, #39207	; 0x9927
     8dc:	00001301 	andeq	r1, r0, r1, lsl #6
     8e0:	49000505 	stmdbmi	r0, {r0, r2, r8, sl}
     8e4:	06000013 			; <UNDEFINED> instruction: 0x06000013
     8e8:	0e030034 	mcreq	0, 0, r0, cr3, cr4, {1}
     8ec:	0b3b0b3a 	bleq	ec35dc <__bss_end__+0xeb99fc>
     8f0:	13490b39 	movtne	r0, #39737	; 0x9b39
     8f4:	193c193f 	ldmdbne	ip!, {r0, r1, r2, r3, r4, r5, r8, fp, ip}
     8f8:	0f070000 	svceq	0x00070000
     8fc:	490b0b00 	stmdbmi	fp, {r8, r9, fp}
     900:	08000013 	stmdaeq	r0, {r0, r1, r4}
     904:	13490026 	movtne	r0, #36902	; 0x9026
     908:	2e090000 	cdpcs	0, 0, cr0, cr9, cr0, {0}
     90c:	03193f01 	tsteq	r9, #1, 30
     910:	3b0b3a0e 	blcc	2cf150 <__bss_end__+0x2c5570>
     914:	110b390b 	tstne	fp, fp, lsl #18
     918:	40061201 	andmi	r1, r6, r1, lsl #4
     91c:	19429718 	stmdbne	r2, {r3, r4, r8, r9, sl, ip, pc}^
     920:	00001301 	andeq	r1, r0, r1, lsl #6
     924:	3f002e0a 	svccc	0x00002e0a
     928:	3a0e0319 	bcc	381594 <__bss_end__+0x3779b4>
     92c:	390b3b0b 	stmdbcc	fp, {r0, r1, r3, r8, r9, fp, ip, sp}
     930:	3c19270b 	ldccc	7, cr2, [r9], {11}
     934:	0b000019 	bleq	9a0 <__code_start__-0x7660>
     938:	08030034 	stmdaeq	r3, {r2, r4, r5}
     93c:	0b3b0b3a 	bleq	ec362c <__bss_end__+0xeb9a4c>
     940:	13490b39 	movtne	r0, #39737	; 0x9b39
     944:	42b71702 	adcsmi	r1, r7, #524288	; 0x80000
     948:	0c000017 	stceq	0, cr0, [r0], {23}
     94c:	0e030034 	mcreq	0, 0, r0, cr3, cr4, {1}
     950:	0b3b0b3a 	bleq	ec3640 <__bss_end__+0xeb9a60>
     954:	13490b39 	movtne	r0, #39737	; 0x9b39
     958:	890d0000 	stmdbhi	sp, {}	; <UNPREDICTABLE>
     95c:	11000182 	smlabbne	r0, r2, r1, r0
     960:	00133101 	andseq	r3, r3, r1, lsl #2
     964:	002e0e00 	eoreq	r0, lr, r0, lsl #28
     968:	193c193f 	ldmdbne	ip!, {r0, r1, r2, r3, r4, r5, r8, fp, ip}
     96c:	0e030e6e 	cdpeq	14, 0, cr0, cr3, cr14, {3}
     970:	0b3b0b3a 	bleq	ec3660 <__bss_end__+0xeb9a80>
     974:	00000b39 	andeq	r0, r0, r9, lsr fp
     978:	01110100 	tsteq	r1, r0, lsl #2
     97c:	0b130e25 	bleq	4c4218 <__bss_end__+0x4ba638>
     980:	0e1b0e03 	cdpeq	14, 1, cr0, cr11, cr3, {0}
     984:	01111755 	tsteq	r1, r5, asr r7
     988:	00001710 	andeq	r1, r0, r0, lsl r7
     98c:	0b002402 	bleq	999c <buf.3928+0x1c4>
     990:	030b3e0b 	movweq	r3, #48651	; 0xbe0b
     994:	03000008 	movweq	r0, #8
     998:	13490026 	movtne	r0, #36902	; 0x9026
     99c:	24040000 	strcs	r0, [r4], #-0
     9a0:	3e0b0b00 	vmlacc.f64	d0, d11, d0
     9a4:	000e030b 	andeq	r0, lr, fp, lsl #6
     9a8:	01150500 	tsteq	r5, r0, lsl #10
     9ac:	13491927 	movtne	r1, #39207	; 0x9927
     9b0:	00001301 	andeq	r1, r0, r1, lsl #6
     9b4:	49000506 	stmdbmi	r0, {r1, r2, r8, sl}
     9b8:	07000013 	smladeq	r0, r3, r0, r0
     9bc:	0e030034 	mcreq	0, 0, r0, cr3, cr4, {1}
     9c0:	0b3b0b3a 	bleq	ec36b0 <__bss_end__+0xeb9ad0>
     9c4:	13490b39 	movtne	r0, #39737	; 0x9b39
     9c8:	193c193f 	ldmdbne	ip!, {r0, r1, r2, r3, r4, r5, r8, fp, ip}
     9cc:	0f080000 	svceq	0x00080000
     9d0:	490b0b00 	stmdbmi	fp, {r8, r9, fp}
     9d4:	09000013 	stmdbeq	r0, {r0, r1, r4}
     9d8:	0e030034 	mcreq	0, 0, r0, cr3, cr4, {1}
     9dc:	0b3b0b3a 	bleq	ec36cc <__bss_end__+0xeb9aec>
     9e0:	13490b39 	movtne	r0, #39737	; 0x9b39
     9e4:	2e0a0000 	cdpcs	0, 0, cr0, cr10, cr0, {0}
     9e8:	03193f01 	tsteq	r9, #1, 30
     9ec:	3b0b3a0e 	blcc	2cf22c <__bss_end__+0x2c564c>
     9f0:	270b390b 	strcs	r3, [fp, -fp, lsl #18]
     9f4:	19018719 	stmdbne	r1, {r0, r3, r4, r8, r9, sl, pc}
     9f8:	06120111 			; <UNDEFINED> instruction: 0x06120111
     9fc:	42971840 	addsmi	r1, r7, #64, 16	; 0x400000
     a00:	00130119 	andseq	r0, r3, r9, lsl r1
     a04:	00340b00 	eorseq	r0, r4, r0, lsl #22
     a08:	0b3a0e03 	bleq	e8421c <__bss_end__+0xe7a63c>
     a0c:	0b390b3b 	bleq	e43700 <__bss_end__+0xe39b20>
     a10:	17021349 	strne	r1, [r2, -r9, asr #6]
     a14:	001742b7 			; <UNDEFINED> instruction: 0x001742b7
     a18:	82890c00 	addhi	r0, r9, #0, 24
     a1c:	01110001 	tsteq	r1, r1
     a20:	00001331 	andeq	r1, r0, r1, lsr r3
     a24:	0182890d 	orreq	r8, r2, sp, lsl #18
     a28:	31011101 	tstcc	r1, r1, lsl #2
     a2c:	00130113 	andseq	r0, r3, r3, lsl r1
     a30:	828a0e00 	addhi	r0, sl, #0, 28
     a34:	18020001 	stmdane	r2, {r0}
     a38:	00184291 	mulseq	r8, r1, r2
     a3c:	012e0f00 			; <UNDEFINED> instruction: 0x012e0f00
     a40:	0e03193f 			; <UNDEFINED> instruction: 0x0e03193f
     a44:	0b3b0b3a 	bleq	ec3734 <__bss_end__+0xeb9b54>
     a48:	19270b39 	stmdbne	r7!, {r0, r3, r4, r5, r8, r9, fp}
     a4c:	06120111 			; <UNDEFINED> instruction: 0x06120111
     a50:	42971840 	addsmi	r1, r7, #64, 16	; 0x400000
     a54:	00130119 	andseq	r0, r3, r9, lsl r1
     a58:	012e1000 			; <UNDEFINED> instruction: 0x012e1000
     a5c:	0e03193f 			; <UNDEFINED> instruction: 0x0e03193f
     a60:	0b3b0b3a 	bleq	ec3750 <__bss_end__+0xeb9b70>
     a64:	19270b39 	stmdbne	r7!, {r0, r3, r4, r5, r8, r9, fp}
     a68:	01111349 	tsteq	r1, r9, asr #6
     a6c:	18400612 	stmdane	r0, {r1, r4, r9, sl}^
     a70:	01194297 			; <UNDEFINED> instruction: 0x01194297
     a74:	11000013 	tstne	r0, r3, lsl r0
     a78:	193f002e 	ldmdbne	pc!, {r1, r2, r3, r5}	; <UNPREDICTABLE>
     a7c:	0e6e193c 			; <UNDEFINED> instruction: 0x0e6e193c
     a80:	0b3a0e03 	bleq	e84294 <__bss_end__+0xe7a6b4>
     a84:	0b390b3b 	bleq	e43778 <__bss_end__+0xe39b98>
     a88:	01000000 	mrseq	r0, (UNDEF: 0)
     a8c:	0e250111 	mcreq	1, 1, r0, cr5, cr1, {0}
     a90:	0e030b13 	vmoveq.32	d3[0], r0
     a94:	01110e1b 	tsteq	r1, fp, lsl lr
     a98:	17100612 			; <UNDEFINED> instruction: 0x17100612
     a9c:	24020000 	strcs	r0, [r2], #-0
     aa0:	3e0b0b00 	vmlacc.f64	d0, d11, d0
     aa4:	0008030b 	andeq	r0, r8, fp, lsl #6
     aa8:	00240300 	eoreq	r0, r4, r0, lsl #6
     aac:	0b3e0b0b 	bleq	f836e0 <__bss_end__+0xf79b00>
     ab0:	00000e03 	andeq	r0, r0, r3, lsl #28
     ab4:	27011504 	strcs	r1, [r1, -r4, lsl #10]
     ab8:	01134919 	tsteq	r3, r9, lsl r9
     abc:	05000013 	streq	r0, [r0, #-19]	; 0xffffffed
     ac0:	13490005 	movtne	r0, #36869	; 0x9005
     ac4:	34060000 	strcc	r0, [r6], #-0
     ac8:	3a0e0300 	bcc	3816d0 <__bss_end__+0x377af0>
     acc:	390b3b0b 	stmdbcc	fp, {r0, r1, r3, r8, r9, fp, ip, sp}
     ad0:	3f13490b 	svccc	0x0013490b
     ad4:	00193c19 	andseq	r3, r9, r9, lsl ip
     ad8:	000f0700 	andeq	r0, pc, r0, lsl #14
     adc:	13490b0b 	movtne	r0, #39691	; 0x9b0b
     ae0:	26080000 	strcs	r0, [r8], -r0
     ae4:	00134900 	andseq	r4, r3, r0, lsl #18
     ae8:	012e0900 			; <UNDEFINED> instruction: 0x012e0900
     aec:	0e03193f 			; <UNDEFINED> instruction: 0x0e03193f
     af0:	0b3b0b3a 	bleq	ec37e0 <__bss_end__+0xeb9c00>
     af4:	19270b39 	stmdbne	r7!, {r0, r3, r4, r5, r8, r9, fp}
     af8:	06120111 			; <UNDEFINED> instruction: 0x06120111
     afc:	42971840 	addsmi	r1, r7, #64, 16	; 0x400000
     b00:	00130119 	andseq	r0, r3, r9, lsl r1
     b04:	00050a00 	andeq	r0, r5, r0, lsl #20
     b08:	0b3a0803 	bleq	e82b1c <__bss_end__+0xe78f3c>
     b0c:	0b390b3b 	bleq	e43800 <__bss_end__+0xe39c20>
     b10:	17021349 	strne	r1, [r2, -r9, asr #6]
     b14:	001742b7 			; <UNDEFINED> instruction: 0x001742b7
     b18:	82890b00 	addhi	r0, r9, #0, 22
     b1c:	01110101 	tsteq	r1, r1, lsl #2
     b20:	00001331 	andeq	r1, r0, r1, lsr r3
     b24:	01828a0c 	orreq	r8, r2, ip, lsl #20
     b28:	91180200 	tstls	r8, r0, lsl #4
     b2c:	00001842 	andeq	r1, r0, r2, asr #16
     b30:	0300340d 	movweq	r3, #1037	; 0x40d
     b34:	3b0b3a08 	blcc	2cf35c <__bss_end__+0x2c577c>
     b38:	490b390b 	stmdbmi	fp, {r0, r1, r3, r8, fp, ip, sp}
     b3c:	b7170213 			; <UNDEFINED> instruction: 0xb7170213
     b40:	00001742 	andeq	r1, r0, r2, asr #14
     b44:	11010b0e 	tstne	r1, lr, lsl #22
     b48:	01061201 	tsteq	r6, r1, lsl #4
     b4c:	0f000013 	svceq	0x00000013
     b50:	00018289 	andeq	r8, r1, r9, lsl #5
     b54:	13310111 	teqne	r1, #1073741828	; 0x40000004
     b58:	2e100000 	cdpcs	0, 1, cr0, cr0, cr0, {0}
     b5c:	03193f01 	tsteq	r9, #1, 30
     b60:	3b0b3a0e 	blcc	2cf3a0 <__bss_end__+0x2c57c0>
     b64:	270b390b 	strcs	r3, [fp, -fp, lsl #18]
     b68:	11134919 	tstne	r3, r9, lsl r9
     b6c:	40061201 	andmi	r1, r6, r1, lsl #4
     b70:	19429718 	stmdbne	r2, {r3, r4, r8, r9, sl, ip, pc}^
     b74:	00001301 	andeq	r1, r0, r1, lsl #6
     b78:	3f002e11 	svccc	0x00002e11
     b7c:	6e193c19 	mrcvs	12, 0, r3, cr9, cr9, {0}
     b80:	3a0e030e 	bcc	3817c0 <__bss_end__+0x377be0>
     b84:	390b3b0b 	stmdbcc	fp, {r0, r1, r3, r8, r9, fp, ip, sp}
     b88:	0000000b 	andeq	r0, r0, fp
     b8c:	25011101 	strcs	r1, [r1, #-257]	; 0xfffffeff
     b90:	030b130e 	movweq	r1, #45838	; 0xb30e
     b94:	110e1b0e 	tstne	lr, lr, lsl #22
     b98:	10061201 	andne	r1, r6, r1, lsl #4
     b9c:	02000017 	andeq	r0, r0, #23, 0
     ba0:	0b0b0024 	bleq	2c0c38 <__bss_end__+0x2b7058>
     ba4:	08030b3e 	stmdaeq	r3, {r1, r2, r3, r4, r5, r8, r9, fp}
     ba8:	24030000 	strcs	r0, [r3], #-0
     bac:	3e0b0b00 	vmlacc.f64	d0, d11, d0
     bb0:	000e030b 	andeq	r0, lr, fp, lsl #6
     bb4:	00350400 	eorseq	r0, r5, r0, lsl #8
     bb8:	00001349 	andeq	r1, r0, r9, asr #6
     bbc:	03001605 	movweq	r1, #1541	; 0x605
     bc0:	3b0b3a0e 	blcc	2cf400 <__bss_end__+0x2c5820>
     bc4:	490b390b 	stmdbmi	fp, {r0, r1, r3, r8, fp, ip, sp}
     bc8:	06000013 			; <UNDEFINED> instruction: 0x06000013
     bcc:	19270115 	stmdbne	r7!, {r0, r2, r4, r8}
     bd0:	13011349 	movwne	r1, #4937	; 0x1349
     bd4:	05070000 	streq	r0, [r7, #-0]
     bd8:	00134900 	andseq	r4, r3, r0, lsl #18
     bdc:	00340800 	eorseq	r0, r4, r0, lsl #16
     be0:	0b3a0e03 	bleq	e843f4 <__bss_end__+0xe7a814>
     be4:	0b390b3b 	bleq	e438d8 <__bss_end__+0xe39cf8>
     be8:	193f1349 	ldmdbne	pc!, {r0, r3, r6, r8, r9, ip}	; <UNPREDICTABLE>
     bec:	0000193c 	andeq	r1, r0, ip, lsr r9
     bf0:	0b000f09 	bleq	481c <__code_start__-0x37e4>
     bf4:	0013490b 	andseq	r4, r3, fp, lsl #18
     bf8:	00260a00 	eoreq	r0, r6, r0, lsl #20
     bfc:	00001349 	andeq	r1, r0, r9, asr #6
     c00:	3e01040b 	cdpcc	4, 0, cr0, cr1, cr11, {0}
     c04:	490b0b0b 	stmdbmi	fp, {r0, r1, r3, r8, r9, fp}
     c08:	3b0b3a13 	blcc	2cf45c <__bss_end__+0x2c587c>
     c0c:	010b390b 	tsteq	fp, fp, lsl #18
     c10:	0c000013 	stceq	0, cr0, [r0], {19}
     c14:	0e030028 	cdpeq	0, 0, cr0, cr3, cr8, {1}
     c18:	00000b1c 	andeq	r0, r0, ip, lsl fp
     c1c:	0301130d 	movweq	r1, #4877	; 0x130d
     c20:	3a0b0b0e 	bcc	2c3860 <__bss_end__+0x2b9c80>
     c24:	390b3b0b 	stmdbcc	fp, {r0, r1, r3, r8, r9, fp, ip, sp}
     c28:	0013010b 	andseq	r0, r3, fp, lsl #2
     c2c:	000d0e00 	andeq	r0, sp, r0, lsl #28
     c30:	0b3a0803 	bleq	e82c44 <__bss_end__+0xe79064>
     c34:	0b390b3b 	bleq	e43928 <__bss_end__+0xe39d48>
     c38:	0b381349 	bleq	e05964 <__bss_end__+0xdfbd84>
     c3c:	0d0f0000 	stceq	0, cr0, [pc, #-0]	; c44 <__code_start__-0x73bc>
     c40:	3a0e0300 	bcc	381848 <__bss_end__+0x377c68>
     c44:	390b3b0b 	stmdbcc	fp, {r0, r1, r3, r8, r9, fp, ip, sp}
     c48:	3813490b 	ldmdacc	r3, {r0, r1, r3, r8, fp, lr}
     c4c:	1000000b 	andne	r0, r0, fp
     c50:	0e030034 	mcreq	0, 0, r0, cr3, cr4, {1}
     c54:	0b3b0b3a 	bleq	ec3944 <__bss_end__+0xeb9d64>
     c58:	13490b39 	movtne	r0, #39737	; 0x9b39
     c5c:	0000061c 	andeq	r0, r0, ip, lsl r6
     c60:	3f012e11 	svccc	0x00012e11
     c64:	3a0e0319 	bcc	3818d0 <__bss_end__+0x377cf0>
     c68:	390b3b0b 	stmdbcc	fp, {r0, r1, r3, r8, r9, fp, ip, sp}
     c6c:	1119270b 	tstne	r9, fp, lsl #14
     c70:	40061201 	andmi	r1, r6, r1, lsl #4
     c74:	19429718 	stmdbne	r2, {r3, r4, r8, r9, sl, ip, pc}^
     c78:	00001301 	andeq	r1, r0, r1, lsl #6
     c7c:	01828912 	orreq	r8, r2, r2, lsl r9
     c80:	31011100 	mrscc	r1, (UNDEF: 17)
     c84:	13000013 	movwne	r0, #19
     c88:	193f012e 	ldmdbne	pc!, {r1, r2, r3, r5, r8}	; <UNPREDICTABLE>
     c8c:	0b3a0e03 	bleq	e844a0 <__bss_end__+0xe7a8c0>
     c90:	0b390b3b 	bleq	e43984 <__bss_end__+0xe39da4>
     c94:	13491927 	movtne	r1, #39207	; 0x9927
     c98:	06120111 			; <UNDEFINED> instruction: 0x06120111
     c9c:	42971840 	addsmi	r1, r7, #64, 16	; 0x400000
     ca0:	00130119 	andseq	r0, r3, r9, lsl r1
     ca4:	82891400 	addhi	r1, r9, #0, 8
     ca8:	01110101 	tsteq	r1, r1, lsl #2
     cac:	00001331 	andeq	r1, r0, r1, lsr r3
     cb0:	01828a15 	orreq	r8, r2, r5, lsl sl
     cb4:	91180200 	tstls	r8, r0, lsl #4
     cb8:	00001842 	andeq	r1, r0, r2, asr #16
     cbc:	03000516 	movweq	r0, #1302	; 0x516
     cc0:	3b0b3a08 	blcc	2cf4e8 <__bss_end__+0x2c5908>
     cc4:	490b390b 	stmdbmi	fp, {r0, r1, r3, r8, fp, ip, sp}
     cc8:	b7170213 			; <UNDEFINED> instruction: 0xb7170213
     ccc:	00001742 	andeq	r1, r0, r2, asr #14
     cd0:	01828917 	orreq	r8, r2, r7, lsl r9
     cd4:	31011101 	tstcc	r1, r1, lsl #2
     cd8:	00130113 	andseq	r0, r3, r3, lsl r1
     cdc:	00341800 	eorseq	r1, r4, r0, lsl #16
     ce0:	0b3a0803 	bleq	e82cf4 <__bss_end__+0xe79114>
     ce4:	0b390b3b 	bleq	e439d8 <__bss_end__+0xe39df8>
     ce8:	17021349 	strne	r1, [r2, -r9, asr #6]
     cec:	001742b7 			; <UNDEFINED> instruction: 0x001742b7
     cf0:	00341900 	eorseq	r1, r4, r0, lsl #18
     cf4:	0b3a0e03 	bleq	e84508 <__bss_end__+0xe7a928>
     cf8:	0b390b3b 	bleq	e439ec <__bss_end__+0xe39e0c>
     cfc:	051c1349 	ldreq	r1, [ip, #-841]	; 0xfffffcb7
     d00:	2e1a0000 	cdpcs	0, 1, cr0, cr10, cr0, {0}
     d04:	3a0e0301 	bcc	381910 <__bss_end__+0x377d30>
     d08:	390b3b0b 	stmdbcc	fp, {r0, r1, r3, r8, r9, fp, ip, sp}
     d0c:	1119270b 	tstne	r9, fp, lsl #14
     d10:	40061201 	andmi	r1, r6, r1, lsl #4
     d14:	19429718 	stmdbne	r2, {r3, r4, r8, r9, sl, ip, pc}^
     d18:	00001301 	andeq	r1, r0, r1, lsl #6
     d1c:	0300051b 	movweq	r0, #1307	; 0x51b
     d20:	3b0b3a0e 	blcc	2cf560 <__bss_end__+0x2c5980>
     d24:	490b390b 	stmdbmi	fp, {r0, r1, r3, r8, fp, ip, sp}
     d28:	b7170213 			; <UNDEFINED> instruction: 0xb7170213
     d2c:	00001742 	andeq	r1, r0, r2, asr #14
     d30:	0000351c 	andeq	r3, r0, ip, lsl r5
     d34:	002e1d00 	eoreq	r1, lr, r0, lsl #26
     d38:	193c193f 	ldmdbne	ip!, {r0, r1, r2, r3, r4, r5, r8, fp, ip}
     d3c:	0e030e6e 	cdpeq	14, 0, cr0, cr3, cr14, {3}
     d40:	0b3b0b3a 	bleq	ec3a30 <__bss_end__+0xeb9e50>
     d44:	00000b39 	andeq	r0, r0, r9, lsr fp
     d48:	01110100 	tsteq	r1, r0, lsl #2
     d4c:	0b130e25 	bleq	4c45e8 <__bss_end__+0x4baa08>
     d50:	0e1b0e03 	cdpeq	14, 1, cr0, cr11, cr3, {0}
     d54:	06120111 			; <UNDEFINED> instruction: 0x06120111
     d58:	00001710 	andeq	r1, r0, r0, lsl r7
     d5c:	0b002402 	bleq	9d6c <__bss_end__+0x18c>
     d60:	030b3e0b 	movweq	r3, #48651	; 0xbe0b
     d64:	03000008 	movweq	r0, #8
     d68:	0b0b0024 	bleq	2c0e00 <__bss_end__+0x2b7220>
     d6c:	0e030b3e 	vmoveq.16	d3[0], r0
     d70:	35040000 	strcc	r0, [r4, #-0]
     d74:	00134900 	andseq	r4, r3, r0, lsl #18
     d78:	01150500 	tsteq	r5, r0, lsl #10
     d7c:	13491927 	movtne	r1, #39207	; 0x9927
     d80:	00001301 	andeq	r1, r0, r1, lsl #6
     d84:	49000506 	stmdbmi	r0, {r1, r2, r8, sl}
     d88:	07000013 	smladeq	r0, r3, r0, r0
     d8c:	0e030034 	mcreq	0, 0, r0, cr3, cr4, {1}
     d90:	0b3b0b3a 	bleq	ec3a80 <__bss_end__+0xeb9ea0>
     d94:	13490b39 	movtne	r0, #39737	; 0x9b39
     d98:	193c193f 	ldmdbne	ip!, {r0, r1, r2, r3, r4, r5, r8, fp, ip}
     d9c:	0f080000 	svceq	0x00080000
     da0:	490b0b00 	stmdbmi	fp, {r8, r9, fp}
     da4:	09000013 	stmdbeq	r0, {r0, r1, r4}
     da8:	13490026 	movtne	r0, #36902	; 0x9026
     dac:	040a0000 	streq	r0, [sl], #-0
     db0:	0b0b3e01 	bleq	2d05bc <__bss_end__+0x2c69dc>
     db4:	3a13490b 	bcc	4d31e8 <__bss_end__+0x4c9608>
     db8:	390b3b0b 	stmdbcc	fp, {r0, r1, r3, r8, r9, fp, ip, sp}
     dbc:	0013010b 	andseq	r0, r3, fp, lsl #2
     dc0:	00280b00 	eoreq	r0, r8, r0, lsl #22
     dc4:	0b1c0e03 	bleq	7045d8 <__bss_end__+0x6fa9f8>
     dc8:	160c0000 	strne	r0, [ip], -r0
     dcc:	3a0e0300 	bcc	3819d4 <__bss_end__+0x377df4>
     dd0:	390b3b0b 	stmdbcc	fp, {r0, r1, r3, r8, r9, fp, ip, sp}
     dd4:	0013490b 	andseq	r4, r3, fp, lsl #18
     dd8:	00340d00 	eorseq	r0, r4, r0, lsl #26
     ddc:	0b3a0e03 	bleq	e845f0 <__bss_end__+0xe7aa10>
     de0:	0b390b3b 	bleq	e43ad4 <__bss_end__+0xe39ef4>
     de4:	00001349 	andeq	r1, r0, r9, asr #6
     de8:	3f012e0e 	svccc	0x00012e0e
     dec:	3a0e0319 	bcc	381a58 <__bss_end__+0x377e78>
     df0:	390b3b0b 	stmdbcc	fp, {r0, r1, r3, r8, r9, fp, ip, sp}
     df4:	1119270b 	tstne	r9, fp, lsl #14
     df8:	40061201 	andmi	r1, r6, r1, lsl #4
     dfc:	19429718 	stmdbne	r2, {r3, r4, r8, r9, sl, ip, pc}^
     e00:	00001301 	andeq	r1, r0, r1, lsl #6
     e04:	0300050f 	movweq	r0, #1295	; 0x50f
     e08:	3b0b3a08 	blcc	2cf630 <__bss_end__+0x2c5a50>
     e0c:	490b390b 	stmdbmi	fp, {r0, r1, r3, r8, fp, ip, sp}
     e10:	b7170213 			; <UNDEFINED> instruction: 0xb7170213
     e14:	00001742 	andeq	r1, r0, r2, asr #14
     e18:	03000510 	movweq	r0, #1296	; 0x510
     e1c:	3b0b3a0e 	blcc	2cf65c <__bss_end__+0x2c5a7c>
     e20:	490b390b 	stmdbmi	fp, {r0, r1, r3, r8, fp, ip, sp}
     e24:	b7170213 			; <UNDEFINED> instruction: 0xb7170213
     e28:	00001742 	andeq	r1, r0, r2, asr #14
     e2c:	03003411 	movweq	r3, #1041	; 0x411
     e30:	3b0b3a0e 	blcc	2cf670 <__bss_end__+0x2c5a90>
     e34:	490b390b 	stmdbmi	fp, {r0, r1, r3, r8, fp, ip, sp}
     e38:	b7170213 			; <UNDEFINED> instruction: 0xb7170213
     e3c:	00001742 	andeq	r1, r0, r2, asr #14
     e40:	01828912 	orreq	r8, r2, r2, lsl r9
     e44:	31011101 	tstcc	r1, r1, lsl #2
     e48:	00130113 	andseq	r0, r3, r3, lsl r1
     e4c:	828a1300 	addhi	r1, sl, #0, 6
     e50:	18020001 	stmdane	r2, {r0}
     e54:	00184291 	mulseq	r8, r1, r2
     e58:	82891400 	addhi	r1, r9, #0, 8
     e5c:	01110101 	tsteq	r1, r1, lsl #2
     e60:	00001331 	andeq	r1, r0, r1, lsr r3
     e64:	3f012e15 	svccc	0x00012e15
     e68:	3a0e0319 	bcc	381ad4 <__bss_end__+0x377ef4>
     e6c:	390b3b0b 	stmdbcc	fp, {r0, r1, r3, r8, r9, fp, ip, sp}
     e70:	4919270b 	ldmdbmi	r9, {r0, r1, r3, r8, r9, sl, sp}
     e74:	12011113 	andne	r1, r1, #-1073741820	; 0xc0000004
     e78:	97184006 	ldrls	r4, [r8, -r6]
     e7c:	13011942 	movwne	r1, #6466	; 0x1942
     e80:	34160000 	ldrcc	r0, [r6], #-0
     e84:	3a080300 	bcc	201a8c <__bss_end__+0x1f7eac>
     e88:	390b3b0b 	stmdbcc	fp, {r0, r1, r3, r8, r9, fp, ip, sp}
     e8c:	0213490b 	andseq	r4, r3, #180224	; 0x2c000
     e90:	1742b717 	smlaldne	fp, r2, r7, r7
     e94:	34170000 	ldrcc	r0, [r7], #-0
     e98:	3a0e0300 	bcc	381aa0 <__bss_end__+0x377ec0>
     e9c:	390b3b0b 	stmdbcc	fp, {r0, r1, r3, r8, r9, fp, ip, sp}
     ea0:	1c13490b 			; <UNDEFINED> instruction: 0x1c13490b
     ea4:	18000006 	stmdane	r0, {r1, r2}
     ea8:	00018289 	andeq	r8, r1, r9, lsl #5
     eac:	13310111 	teqne	r1, #1073741828	; 0x40000004
     eb0:	2e190000 	cdpcs	0, 1, cr0, cr9, cr0, {0}
     eb4:	3c193f00 	ldccc	15, cr3, [r9], {-0}
     eb8:	030e6e19 	movweq	r6, #60953	; 0xee19
     ebc:	3b0b3a0e 	blcc	2cf6fc <__bss_end__+0x2c5b1c>
     ec0:	000b390b 	andeq	r3, fp, fp, lsl #18
     ec4:	11010000 	mrsne	r0, (UNDEF: 1)
     ec8:	130e2501 	movwne	r2, #58625	; 0xe501
     ecc:	1b0e030b 	blne	381b00 <__bss_end__+0x377f20>
     ed0:	1201110e 	andne	r1, r1, #-2147483645	; 0x80000003
     ed4:	00171006 	andseq	r1, r7, r6
     ed8:	00240200 	eoreq	r0, r4, r0, lsl #4
     edc:	0b3e0b0b 	bleq	f83b10 <__bss_end__+0xf79f30>
     ee0:	00000803 	andeq	r0, r0, r3, lsl #16
     ee4:	0b002403 	bleq	9ef8 <__bss_end__+0x318>
     ee8:	030b3e0b 	movweq	r3, #48651	; 0xbe0b
     eec:	0400000e 	streq	r0, [r0], #-14
     ef0:	19270115 	stmdbne	r7!, {r0, r2, r4, r8}
     ef4:	13011349 	movwne	r1, #4937	; 0x1349
     ef8:	05050000 	streq	r0, [r5, #-0]
     efc:	00134900 	andseq	r4, r3, r0, lsl #18
     f00:	00340600 	eorseq	r0, r4, r0, lsl #12
     f04:	0b3a0e03 	bleq	e84718 <__bss_end__+0xe7ab38>
     f08:	0b390b3b 	bleq	e43bfc <__bss_end__+0xe3a01c>
     f0c:	193f1349 	ldmdbne	pc!, {r0, r3, r6, r8, r9, ip}	; <UNPREDICTABLE>
     f10:	0000193c 	andeq	r1, r0, ip, lsr r9
     f14:	0b000f07 	bleq	4b38 <__code_start__-0x34c8>
     f18:	0013490b 	andseq	r4, r3, fp, lsl #18
     f1c:	00260800 	eoreq	r0, r6, r0, lsl #16
     f20:	00001349 	andeq	r1, r0, r9, asr #6
     f24:	3f012e09 	svccc	0x00012e09
     f28:	3a0e0319 	bcc	381b94 <__bss_end__+0x377fb4>
     f2c:	390b3b0b 	stmdbcc	fp, {r0, r1, r3, r8, r9, fp, ip, sp}
     f30:	4919270b 	ldmdbmi	r9, {r0, r1, r3, r8, r9, sl, sp}
     f34:	12011113 	andne	r1, r1, #-1073741820	; 0xc0000004
     f38:	97184006 	ldrls	r4, [r8, -r6]
     f3c:	13011942 	movwne	r1, #6466	; 0x1942
     f40:	050a0000 	streq	r0, [sl, #-0]
     f44:	3a0e0300 	bcc	381b4c <__bss_end__+0x377f6c>
     f48:	390b3b0b 	stmdbcc	fp, {r0, r1, r3, r8, r9, fp, ip, sp}
     f4c:	0213490b 	andseq	r4, r3, #180224	; 0x2c000
     f50:	0b000018 	bleq	fb8 <__code_start__-0x7048>
     f54:	08030005 	stmdaeq	r3, {r0, r2}
     f58:	0b3b0b3a 	bleq	ec3c48 <__bss_end__+0xeba068>
     f5c:	13490b39 	movtne	r0, #39737	; 0x9b39
     f60:	42b71702 	adcsmi	r1, r7, #524288	; 0x80000
     f64:	0c000017 	stceq	0, cr0, [r0], {23}
     f68:	08030034 	stmdaeq	r3, {r2, r4, r5}
     f6c:	0b3b0b3a 	bleq	ec3c5c <__bss_end__+0xeba07c>
     f70:	13490b39 	movtne	r0, #39737	; 0x9b39
     f74:	42b71702 	adcsmi	r1, r7, #524288	; 0x80000
     f78:	00000017 	andeq	r0, r0, r7, lsl r0
     f7c:	25011101 	strcs	r1, [r1, #-257]	; 0xfffffeff
     f80:	030b130e 	movweq	r1, #45838	; 0xb30e
     f84:	110e1b0e 	tstne	lr, lr, lsl #22
     f88:	10061201 	andne	r1, r6, r1, lsl #4
     f8c:	02000017 	andeq	r0, r0, #23, 0
     f90:	0b0b0024 	bleq	2c1028 <__bss_end__+0x2b7448>
     f94:	08030b3e 	stmdaeq	r3, {r1, r2, r3, r4, r5, r8, r9, fp}
     f98:	24030000 	strcs	r0, [r3], #-0
     f9c:	3e0b0b00 	vmlacc.f64	d0, d11, d0
     fa0:	000e030b 	andeq	r0, lr, fp, lsl #6
     fa4:	01150400 	tsteq	r5, r0, lsl #8
     fa8:	13491927 	movtne	r1, #39207	; 0x9927
     fac:	00001301 	andeq	r1, r0, r1, lsl #6
     fb0:	49000505 	stmdbmi	r0, {r0, r2, r8, sl}
     fb4:	06000013 			; <UNDEFINED> instruction: 0x06000013
     fb8:	0e030034 	mcreq	0, 0, r0, cr3, cr4, {1}
     fbc:	0b3b0b3a 	bleq	ec3cac <__bss_end__+0xeba0cc>
     fc0:	13490b39 	movtne	r0, #39737	; 0x9b39
     fc4:	193c193f 	ldmdbne	ip!, {r0, r1, r2, r3, r4, r5, r8, fp, ip}
     fc8:	0f070000 	svceq	0x00070000
     fcc:	490b0b00 	stmdbmi	fp, {r8, r9, fp}
     fd0:	08000013 	stmdaeq	r0, {r0, r1, r4}
     fd4:	13490026 	movtne	r0, #36902	; 0x9026
     fd8:	2e090000 	cdpcs	0, 0, cr0, cr9, cr0, {0}
     fdc:	03193f01 	tsteq	r9, #1, 30
     fe0:	3b0b3a0e 	blcc	2cf820 <__bss_end__+0x2c5c40>
     fe4:	270b390b 	strcs	r3, [fp, -fp, lsl #18]
     fe8:	11134919 	tstne	r3, r9, lsl r9
     fec:	40061201 	andmi	r1, r6, r1, lsl #4
     ff0:	19429718 	stmdbne	r2, {r3, r4, r8, r9, sl, ip, pc}^
     ff4:	050a0000 	streq	r0, [sl, #-0]
     ff8:	3a080300 	bcc	201c00 <__bss_end__+0x1f8020>
     ffc:	390b3b0b 	stmdbcc	fp, {r0, r1, r3, r8, r9, fp, ip, sp}
    1000:	0213490b 	andseq	r4, r3, #180224	; 0x2c000
    1004:	1742b717 	smlaldne	fp, r2, r7, r7
    1008:	01000000 	mrseq	r0, (UNDEF: 0)
    100c:	0e250111 	mcreq	1, 1, r0, cr5, cr1, {0}
    1010:	0e030b13 	vmoveq.32	d3[0], r0
    1014:	01110e1b 	tsteq	r1, fp, lsl lr
    1018:	17100612 			; <UNDEFINED> instruction: 0x17100612
    101c:	24020000 	strcs	r0, [r2], #-0
    1020:	3e0b0b00 	vmlacc.f64	d0, d11, d0
    1024:	0008030b 	andeq	r0, r8, fp, lsl #6
    1028:	00240300 	eoreq	r0, r4, r0, lsl #6
    102c:	0b3e0b0b 	bleq	f83c60 <__bss_end__+0xf7a080>
    1030:	00000e03 	andeq	r0, r0, r3, lsl #28
    1034:	27011504 	strcs	r1, [r1, -r4, lsl #10]
    1038:	01134919 	tsteq	r3, r9, lsl r9
    103c:	05000013 	streq	r0, [r0, #-19]	; 0xffffffed
    1040:	13490005 	movtne	r0, #36869	; 0x9005
    1044:	34060000 	strcc	r0, [r6], #-0
    1048:	3a0e0300 	bcc	381c50 <__bss_end__+0x378070>
    104c:	390b3b0b 	stmdbcc	fp, {r0, r1, r3, r8, r9, fp, ip, sp}
    1050:	3f13490b 	svccc	0x0013490b
    1054:	00193c19 	andseq	r3, r9, r9, lsl ip
    1058:	000f0700 	andeq	r0, pc, r0, lsl #14
    105c:	13490b0b 	movtne	r0, #39691	; 0x9b0b
    1060:	26080000 	strcs	r0, [r8], -r0
    1064:	00134900 	andseq	r4, r3, r0, lsl #18
    1068:	012e0900 			; <UNDEFINED> instruction: 0x012e0900
    106c:	0e03193f 			; <UNDEFINED> instruction: 0x0e03193f
    1070:	0b3b0b3a 	bleq	ec3d60 <__bss_end__+0xeba180>
    1074:	19270b39 	stmdbne	r7!, {r0, r3, r4, r5, r8, r9, fp}
    1078:	01111349 	tsteq	r1, r9, asr #6
    107c:	18400612 	stmdane	r0, {r1, r4, r9, sl}^
    1080:	01194297 			; <UNDEFINED> instruction: 0x01194297
    1084:	0a000013 	beq	10d8 <__code_start__-0x6f28>
    1088:	08030005 	stmdaeq	r3, {r0, r2}
    108c:	0b3b0b3a 	bleq	ec3d7c <__bss_end__+0xeba19c>
    1090:	13490b39 	movtne	r0, #39737	; 0x9b39
    1094:	00001802 	andeq	r1, r0, r2, lsl #16
    1098:	0300050b 	movweq	r0, #1291	; 0x50b
    109c:	3b0b3a08 	blcc	2cf8c4 <__bss_end__+0x2c5ce4>
    10a0:	490b390b 	stmdbmi	fp, {r0, r1, r3, r8, fp, ip, sp}
    10a4:	b7170213 			; <UNDEFINED> instruction: 0xb7170213
    10a8:	00001742 	andeq	r1, r0, r2, asr #14
    10ac:	0300340c 	movweq	r3, #1036	; 0x40c
    10b0:	3b0b3a08 	blcc	2cf8d8 <__bss_end__+0x2c5cf8>
    10b4:	490b390b 	stmdbmi	fp, {r0, r1, r3, r8, fp, ip, sp}
    10b8:	b7170213 			; <UNDEFINED> instruction: 0xb7170213
    10bc:	00001742 	andeq	r1, r0, r2, asr #14
    10c0:	01110100 	tsteq	r1, r0, lsl #2
    10c4:	0b130e25 	bleq	4c4960 <__bss_end__+0x4bad80>
    10c8:	0e1b0e03 	cdpeq	14, 1, cr0, cr11, cr3, {0}
    10cc:	01111755 	tsteq	r1, r5, asr r7
    10d0:	00001710 	andeq	r1, r0, r0, lsl r7
    10d4:	0b002402 	bleq	a0e4 <__bss_end__+0x504>
    10d8:	030b3e0b 	movweq	r3, #48651	; 0xbe0b
    10dc:	03000008 	movweq	r0, #8
    10e0:	0e030016 	mcreq	0, 0, r0, cr3, cr6, {0}
    10e4:	0b3b0b3a 	bleq	ec3dd4 <__bss_end__+0xeba1f4>
    10e8:	13490b39 	movtne	r0, #39737	; 0x9b39
    10ec:	24040000 	strcs	r0, [r4], #-0
    10f0:	3e0b0b00 	vmlacc.f64	d0, d11, d0
    10f4:	000e030b 	andeq	r0, lr, fp, lsl #6
    10f8:	00260500 	eoreq	r0, r6, r0, lsl #10
    10fc:	00001349 	andeq	r1, r0, r9, asr #6
    1100:	27011506 	strcs	r1, [r1, -r6, lsl #10]
    1104:	01134919 	tsteq	r3, r9, lsl r9
    1108:	07000013 	smladeq	r0, r3, r0, r0
    110c:	13490005 	movtne	r0, #36869	; 0x9005
    1110:	34080000 	strcc	r0, [r8], #-0
    1114:	3a0e0300 	bcc	381d1c <__bss_end__+0x37813c>
    1118:	390b3b0b 	stmdbcc	fp, {r0, r1, r3, r8, r9, fp, ip, sp}
    111c:	3f13490b 	svccc	0x0013490b
    1120:	00193c19 	andseq	r3, r9, r9, lsl ip
    1124:	000f0900 	andeq	r0, pc, r0, lsl #18
    1128:	13490b0b 	movtne	r0, #39691	; 0x9b0b
    112c:	2e0a0000 	cdpcs	0, 0, cr0, cr10, cr0, {0}
    1130:	03193f01 	tsteq	r9, #1, 30
    1134:	3b0b3a0e 	blcc	2cf974 <__bss_end__+0x2c5d94>
    1138:	270b390b 	strcs	r3, [fp, -fp, lsl #18]
    113c:	11134919 	tstne	r3, r9, lsl r9
    1140:	40061201 	andmi	r1, r6, r1, lsl #4
    1144:	19429718 	stmdbne	r2, {r3, r4, r8, r9, sl, ip, pc}^
    1148:	00001301 	andeq	r1, r0, r1, lsl #6
    114c:	0300050b 	movweq	r0, #1291	; 0x50b
    1150:	3b0b3a08 	blcc	2cf978 <__bss_end__+0x2c5d98>
    1154:	490b390b 	stmdbmi	fp, {r0, r1, r3, r8, fp, ip, sp}
    1158:	b7170213 			; <UNDEFINED> instruction: 0xb7170213
    115c:	00001742 	andeq	r1, r0, r2, asr #14
    1160:	0300340c 	movweq	r3, #1036	; 0x40c
    1164:	3b0b3a08 	blcc	2cf98c <__bss_end__+0x2c5dac>
    1168:	490b390b 	stmdbmi	fp, {r0, r1, r3, r8, fp, ip, sp}
    116c:	b7170213 			; <UNDEFINED> instruction: 0xb7170213
    1170:	00001742 	andeq	r1, r0, r2, asr #14
	...

Disassembly of section .debug_loc:

00000000 <.debug_loc>:
       0:	00000000 	andeq	r0, r0, r0
       4:	00480000 	subeq	r0, r8, r0
       8:	00680000 	rsbeq	r0, r8, r0
       c:	00010000 	andeq	r0, r1, r0
      10:	00007050 	andeq	r7, r0, r0, asr r0
      14:	00007800 	andeq	r7, r0, r0, lsl #16
      18:	50000100 	andpl	r0, r0, r0, lsl #2
      1c:	00000078 	andeq	r0, r0, r8, ror r0
      20:	0000027c 	andeq	r0, r0, ip, ror r2
      24:	00560001 	subseq	r0, r6, r1
      28:	00000000 	andeq	r0, r0, r0
      2c:	03000000 	movweq	r0, #0
      30:	00007400 	andeq	r7, r0, r0, lsl #8
      34:	00027c00 	andeq	r7, r2, r0, lsl #24
      38:	56000100 	strpl	r0, [r0], -r0, lsl #2
	...
      48:	000000d4 	ldrdeq	r0, [r0], -r4
      4c:	000000dc 	ldrdeq	r0, [r0], -ip
      50:	dc570001 	mrrcle	0, 0, r0, r7, cr1
      54:	7c000000 	stcvc	0, cr0, [r0], {-0}
      58:	01000002 	tsteq	r0, r2
      5c:	00005500 	andeq	r5, r0, r0, lsl #10
	...
      68:	01440000 	mrseq	r0, (UNDEF: 68)
      6c:	014f0000 	mrseq	r0, SPSR
      70:	00010000 	andeq	r0, r1, r0
      74:	00017050 	andeq	r7, r1, r0, asr r0
      78:	00017300 	andeq	r7, r1, r0, lsl #6
      7c:	50000100 	andpl	r0, r0, r0, lsl #2
	...
      8c:	00000180 	andeq	r0, r0, r0, lsl #3
      90:	00000184 	andeq	r0, r0, r4, lsl #3
      94:	84500001 	ldrbhi	r0, [r0], #-1
      98:	7c000001 	stcvc	0, cr0, [r0], {1}
      9c:	01000002 	tsteq	r0, r2
      a0:	00005400 	andeq	r5, r0, r0, lsl #8
      a4:	00000000 	andeq	r0, r0, r0
      a8:	00030000 	andeq	r0, r3, r0
      ac:	00880000 	addeq	r0, r8, r0
      b0:	00900000 	addseq	r0, r0, r0
      b4:	00020000 	andeq	r0, r2, r0
      b8:	00909f30 	addseq	r9, r0, r0, lsr pc
      bc:	00dc0000 	sbcseq	r0, ip, r0
      c0:	00010000 	andeq	r0, r1, r0
      c4:	00000054 	andeq	r0, r0, r4, asr r0
	...
      d0:	00009c00 	andeq	r9, r0, r0, lsl #24
      d4:	0000a000 	andeq	sl, r0, r0
      d8:	50000100 	andpl	r0, r0, r0, lsl #2
      dc:	000000a0 	andeq	r0, r0, r0, lsr #1
      e0:	000000c8 	andeq	r0, r0, r8, asr #1
      e4:	00550001 	subseq	r0, r5, r1
	...
      f0:	0000c000 	andeq	ip, r0, r0
      f4:	0000c800 	andeq	ip, r0, r0, lsl #16
      f8:	53000100 	movwpl	r0, #256	; 0x100
	...
     104:	00000002 	andeq	r0, r0, r2
     108:	00d40000 	sbcseq	r0, r4, r0
     10c:	00dc0000 	sbcseq	r0, ip, r0
     110:	00020000 	andeq	r0, r2, r0
     114:	00dc9f30 	sbcseq	r9, ip, r0, lsr pc
     118:	010b0000 	mrseq	r0, (UNDEF: 11)
     11c:	00010000 	andeq	r0, r1, r0
     120:	00013853 	andeq	r3, r1, r3, asr r8
     124:	00014300 	andeq	r4, r1, r0, lsl #6
     128:	53000100 	movwpl	r0, #256	; 0x100
	...
     134:	00f40000 	rscseq	r0, r4, r0
     138:	01380000 	teqeq	r8, r0
     13c:	00010000 	andeq	r0, r1, r0
     140:	00000054 	andeq	r0, r0, r4, asr r0
	...
     150:	28000000 	stmdacs	r0, {}	; <UNPREDICTABLE>
     154:	50000002 	andpl	r0, r0, r2
     158:	01000002 	tsteq	r0, r2
     15c:	02505000 	subseq	r5, r0, #0, 0
     160:	02600000 	rsbeq	r0, r0, #0, 0
     164:	00030000 	andeq	r0, r3, r0
     168:	609f7d70 	addsvs	r7, pc, r0, ror sp	; <UNPREDICTABLE>
     16c:	6c000002 	stcvs	0, cr0, [r0], {2}
     170:	04000002 	streq	r0, [r0], #-2
     174:	5001f300 	andpl	pc, r1, r0, lsl #6
     178:	00026c9f 	muleq	r2, pc, ip	; <UNPREDICTABLE>
     17c:	00026f00 	andeq	r6, r2, r0, lsl #30
     180:	50000100 	andpl	r0, r0, r0, lsl #2
     184:	0000026f 	andeq	r0, r0, pc, ror #4
     188:	000002ac 	andeq	r0, r0, ip, lsr #5
     18c:	01f30004 	mvnseq	r0, r4
     190:	00009f50 	andeq	r9, r0, r0, asr pc
     194:	00000000 	andeq	r0, r0, r0
     198:	00010000 	andeq	r0, r1, r0
     19c:	0000024c 	andeq	r0, r0, ip, asr #4
     1a0:	00000254 	andeq	r0, r0, r4, asr r2
     1a4:	9f340002 	svcls	0x00340002
	...
     1b0:	00000001 	andeq	r0, r0, r1
     1b4:	0000024c 	andeq	r0, r0, ip, asr #4
     1b8:	00000250 	andeq	r0, r0, r0, asr r2
     1bc:	50500001 	subspl	r0, r0, r1
     1c0:	54000002 	strpl	r0, [r0], #-2
     1c4:	03000002 	movweq	r0, #2
     1c8:	9f7d7000 	svcls	0x007d7000
	...
     1d4:	01fc0001 	mvnseq	r0, r1
     1d8:	02040000 	andeq	r0, r4, #0, 0
     1dc:	00020000 	andeq	r0, r2, r0
     1e0:	00009f34 	andeq	r9, r0, r4, lsr pc
	...
     1fc:	00d00000 	sbcseq	r0, r0, r0
     200:	010c0000 	mrseq	r0, (UNDEF: 12)
     204:	00010000 	andeq	r0, r1, r0
     208:	00010c50 	andeq	r0, r1, r0, asr ip
     20c:	00012000 	andeq	r2, r1, r0
     210:	f3000400 	vshl.u8	d0, d0, d0
     214:	209f5001 	addscs	r5, pc, r1
     218:	38000001 	stmdacc	r0, {r0}
     21c:	01000001 	tsteq	r0, r1
     220:	01385000 	teqeq	r8, r0
     224:	01400000 	mrseq	r0, (UNDEF: 64)
     228:	00040000 	andeq	r0, r4, r0
     22c:	9f5001f3 	svcls	0x005001f3
     230:	00000140 	andeq	r0, r0, r0, asr #2
     234:	00000143 	andeq	r0, r0, r3, asr #2
     238:	43500001 	cmpmi	r0, #1, 0
     23c:	64000001 	strvs	r0, [r0], #-1
     240:	04000001 	streq	r0, [r0], #-1
     244:	5001f300 	andpl	pc, r1, r0, lsl #6
     248:	0001649f 	muleq	r1, pc, r4	; <UNPREDICTABLE>
     24c:	00016700 	andeq	r6, r1, r0, lsl #14
     250:	50000100 	andpl	r0, r0, r0, lsl #2
     254:	00000167 	andeq	r0, r0, r7, ror #2
     258:	00000188 	andeq	r0, r0, r8, lsl #3
     25c:	01f30004 	mvnseq	r0, r4
     260:	01889f50 	orreq	r9, r8, r0, asr pc
     264:	018b0000 	orreq	r0, fp, r0
     268:	00010000 	andeq	r0, r1, r0
     26c:	00018b50 	andeq	r8, r1, r0, asr fp
     270:	0001dc00 	andeq	sp, r1, r0, lsl #24
     274:	f3000400 	vshl.u8	d0, d0, d0
     278:	009f5001 	addseq	r5, pc, r1
	...
     298:	0000d000 	andeq	sp, r0, r0
     29c:	00011000 	andeq	r1, r1, r0
     2a0:	51000100 	mrspl	r0, (UNDEF: 16)
     2a4:	00000110 	andeq	r0, r0, r0, lsl r1
     2a8:	00000118 	andeq	r0, r0, r8, lsl r1
     2ac:	01710003 	cmneq	r1, r3
     2b0:	0001189f 	muleq	r1, pc, r8	; <UNPREDICTABLE>
     2b4:	00012000 	andeq	r2, r1, r0
     2b8:	f3000400 	vshl.u8	d0, d0, d0
     2bc:	209f5101 	addscs	r5, pc, r1, lsl #2
     2c0:	34000001 	strcc	r0, [r0], #-1
     2c4:	01000001 	tsteq	r0, r1
     2c8:	01345100 	teqeq	r4, r0, lsl #2
     2cc:	01400000 	mrseq	r0, (UNDEF: 64)
     2d0:	00040000 	andeq	r0, r4, r0
     2d4:	9f5101f3 	svcls	0x005101f3
     2d8:	00000140 	andeq	r0, r0, r0, asr #2
     2dc:	00000143 	andeq	r0, r0, r3, asr #2
     2e0:	43510001 	cmpmi	r1, #1, 0
     2e4:	64000001 	strvs	r0, [r0], #-1
     2e8:	04000001 	streq	r0, [r0], #-1
     2ec:	5101f300 	mrspl	pc, SP_irq	; <UNPREDICTABLE>
     2f0:	0001649f 	muleq	r1, pc, r4	; <UNPREDICTABLE>
     2f4:	00016700 	andeq	r6, r1, r0, lsl #14
     2f8:	51000100 	mrspl	r0, (UNDEF: 16)
     2fc:	00000167 	andeq	r0, r0, r7, ror #2
     300:	00000188 	andeq	r0, r0, r8, lsl #3
     304:	01f30004 	mvnseq	r0, r4
     308:	01889f51 	orreq	r9, r8, r1, asr pc
     30c:	018b0000 	orreq	r0, fp, r0
     310:	00010000 	andeq	r0, r1, r0
     314:	00018b51 	andeq	r8, r1, r1, asr fp
     318:	0001dc00 	andeq	sp, r1, r0, lsl #24
     31c:	f3000400 	vshl.u8	d0, d0, d0
     320:	009f5101 	addseq	r5, pc, r1, lsl #2
     324:	00000000 	andeq	r0, r0, r0
     328:	03000000 	movweq	r0, #0
     32c:	0000f000 	andeq	pc, r0, r0
     330:	0000f400 	andeq	pc, r0, r0, lsl #8
     334:	51000100 	mrspl	r0, (UNDEF: 16)
	...
     340:	010c0000 	mrseq	r0, (UNDEF: 12)
     344:	01100000 	tsteq	r0, r0
     348:	00010000 	andeq	r0, r1, r0
     34c:	00000051 	andeq	r0, r0, r1, asr r0
     350:	00000000 	andeq	r0, r0, r0
     354:	0c000000 	stceq	0, cr0, [r0], {-0}
     358:	10000001 	andne	r0, r0, r1
     35c:	01000001 	tsteq	r0, r1
     360:	00005000 	andeq	r5, r0, r0
	...
     380:	00000024 	andeq	r0, r0, r4, lsr #32
     384:	24500001 	ldrbcs	r0, [r0], #-1
     388:	28000000 	stmdacs	r0, {}	; <UNPREDICTABLE>
     38c:	03000000 	movweq	r0, #0
     390:	9f7d7000 	svcls	0x007d7000
     394:	00000028 	andeq	r0, r0, r8, lsr #32
     398:	00000034 	andeq	r0, r0, r4, lsr r0
     39c:	34530001 	ldrbcc	r0, [r3], #-1
     3a0:	48000000 	stmdami	r0, {}	; <UNPREDICTABLE>
     3a4:	09000000 	stmdbeq	r0, {}	; <UNPREDICTABLE>
     3a8:	5001f300 	andpl	pc, r1, r0, lsl #6
     3ac:	fc090323 	stc2	3, cr0, [r9], {35}	; 0x23
     3b0:	00489f1a 	subeq	r9, r8, sl, lsl pc
     3b4:	00600000 	rsbeq	r0, r0, r0
     3b8:	00010000 	andeq	r0, r1, r0
     3bc:	00006050 	andeq	r6, r0, r0, asr r0
     3c0:	00006800 	andeq	r6, r0, r0, lsl #16
     3c4:	f3000400 	vshl.u8	d0, d0, d0
     3c8:	689f5001 	ldmvs	pc, {r0, ip, lr}	; <UNPREDICTABLE>
     3cc:	6b000000 	blvs	3d4 <__code_start__-0x7c2c>
     3d0:	01000000 	mrseq	r0, (UNDEF: 0)
     3d4:	006b5000 	rsbeq	r5, fp, r0
     3d8:	008c0000 	addeq	r0, ip, r0
     3dc:	00040000 	andeq	r0, r4, r0
     3e0:	9f5001f3 	svcls	0x005001f3
     3e4:	0000008c 	andeq	r0, r0, ip, lsl #1
     3e8:	000000d0 	ldrdeq	r0, [r0], -r0	; <UNPREDICTABLE>
     3ec:	01f30009 	mvnseq	r0, r9
     3f0:	09032350 	stmdbeq	r3, {r4, r6, r8, r9, sp}
     3f4:	009f1afc 			; <UNDEFINED> instruction: 0x009f1afc
	...
     400:	30000000 	andcc	r0, r0, r0
     404:	48000000 	stmdami	r0, {}	; <UNPREDICTABLE>
     408:	01000000 	mrseq	r0, (UNDEF: 0)
     40c:	008c5000 	addeq	r5, ip, r0
     410:	00a40000 	adceq	r0, r4, r0
     414:	00010000 	andeq	r0, r1, r0
     418:	00000050 	andeq	r0, r0, r0, asr r0
     41c:	00000000 	andeq	r0, r0, r0
     420:	20000200 	andcs	r0, r0, r0, lsl #4
     424:	28000000 	stmdacs	r0, {}	; <UNPREDICTABLE>
     428:	02000000 	andeq	r0, r0, #0, 0
     42c:	009f3400 	addseq	r3, pc, r0, lsl #8
     430:	00000000 	andeq	r0, r0, r0
     434:	02000000 	andeq	r0, r0, #0, 0
     438:	20000000 	andcs	r0, r0, r0
     43c:	24000000 	strcs	r0, [r0], #-0
     440:	01000000 	mrseq	r0, (UNDEF: 0)
     444:	00245000 	eoreq	r5, r4, r0
     448:	00280000 	eoreq	r0, r8, r0
     44c:	00030000 	andeq	r0, r3, r0
     450:	009f7d70 	addseq	r7, pc, r0, ror sp	; <UNPREDICTABLE>
     454:	00000000 	andeq	r0, r0, r0
     458:	02000000 	andeq	r0, r0, #0, 0
     45c:	00003804 	andeq	r3, r0, r4, lsl #16
     460:	00003800 	andeq	r3, r0, r0, lsl #16
     464:	34000200 	strcc	r0, [r0], #-512	; 0xfffffe00
     468:	0000009f 	muleq	r0, pc, r0	; <UNPREDICTABLE>
     46c:	00000000 	andeq	r0, r0, r0
     470:	38040200 	stmdacc	r4, {r9}
     474:	38000000 	stmdacc	r0, {}	; <UNPREDICTABLE>
     478:	01000000 	mrseq	r0, (UNDEF: 0)
     47c:	00005300 	andeq	r5, r0, r0, lsl #6
	...
     48c:	0000002c 	andeq	r0, r0, ip, lsr #32
     490:	00000038 	andeq	r0, r0, r8, lsr r0
     494:	38500001 	ldmdacc	r0, {r0}^
     498:	48000000 	stmdami	r0, {}	; <UNPREDICTABLE>
     49c:	01000000 	mrseq	r0, (UNDEF: 0)
     4a0:	00485400 	subeq	r5, r8, r0, lsl #8
     4a4:	00580000 	subseq	r0, r8, r0
     4a8:	00010000 	andeq	r0, r1, r0
     4ac:	00000050 	andeq	r0, r0, r0, asr r0
	...
     4bc:	00000b00 	andeq	r0, r0, r0, lsl #22
     4c0:	50000100 	andpl	r0, r0, r0, lsl #2
     4c4:	0000000b 	andeq	r0, r0, fp
     4c8:	00000014 	andeq	r0, r0, r4, lsl r0
     4cc:	00540001 	subseq	r0, r4, r1
	...
     4d8:	00000101 	andeq	r0, r0, r1, lsl #2
     4dc:	08000000 	stmdaeq	r0, {}	; <UNPREDICTABLE>
     4e0:	01000000 	mrseq	r0, (UNDEF: 0)
     4e4:	00085000 	andeq	r5, r8, r0
     4e8:	00340000 	eorseq	r0, r4, r0
     4ec:	00010000 	andeq	r0, r1, r0
     4f0:	00000054 	andeq	r0, r0, r4, asr r0
	...
     4fc:	88000000 	stmdahi	r0, {}	; <UNPREDICTABLE>
     500:	b8000002 	stmdalt	r0, {r1}
     504:	01000002 	tsteq	r0, r2
     508:	02b85000 	adcseq	r5, r8, #0, 0
     50c:	06ec0000 	strbteq	r0, [ip], r0
     510:	00010000 	andeq	r0, r1, r0
     514:	0006ec59 	andeq	lr, r6, r9, asr ip
     518:	00072000 	andeq	r2, r7, r0
     51c:	f3000400 	vshl.u8	d0, d0, d0
     520:	009f5001 	addseq	r5, pc, r1
	...
     530:	00028800 	andeq	r8, r2, r0, lsl #16
     534:	0002a000 	andeq	sl, r2, r0
     538:	51000100 	mrspl	r0, (UNDEF: 16)
     53c:	000002a0 	andeq	r0, r0, r0, lsr #5
     540:	000002b8 			; <UNDEFINED> instruction: 0x000002b8
     544:	01710003 	cmneq	r1, r3
     548:	0002b89f 	muleq	r2, pc, r8	; <UNPREDICTABLE>
     54c:	00072000 	andeq	r2, r7, r0
     550:	f3000400 	vshl.u8	d0, d0, d0
     554:	009f5101 	addseq	r5, pc, r1, lsl #2
	...
     568:	88000000 	stmdahi	r0, {}	; <UNPREDICTABLE>
     56c:	b8000002 	stmdalt	r0, {r1}
     570:	01000002 	tsteq	r0, r2
     574:	02b85200 	adcseq	r5, r8, #0, 4
     578:	03ec0000 	mvneq	r0, #0, 0
     57c:	00010000 	andeq	r0, r1, r0
     580:	0003ec56 	andeq	lr, r3, r6, asr ip
     584:	0004a000 	andeq	sl, r4, r0
     588:	5b000100 	blpl	990 <__code_start__-0x7670>
     58c:	000004a0 	andeq	r0, r0, r0, lsr #9
     590:	000004c0 	andeq	r0, r0, r0, asr #9
     594:	c0560001 	subsgt	r0, r6, r1
     598:	44000004 	strmi	r0, [r0], #-4
     59c:	01000005 	tsteq	r0, r5
     5a0:	05445b00 	strbeq	r5, [r4, #-2816]	; 0xfffff500
     5a4:	06ec0000 	strbteq	r0, [ip], r0
     5a8:	00010000 	andeq	r0, r1, r0
     5ac:	00000056 	andeq	r0, r0, r6, asr r0
     5b0:	00000000 	andeq	r0, r0, r0
     5b4:	00000100 	andeq	r0, r0, r0, lsl #2
     5b8:	00000000 	andeq	r0, r0, r0
     5bc:	00000101 	andeq	r0, r0, r1, lsl #2
     5c0:	00000000 	andeq	r0, r0, r0
     5c4:	00000202 	andeq	r0, r0, r2, lsl #4
     5c8:	00029c00 	andeq	r9, r2, r0, lsl #24
     5cc:	0002b800 	andeq	fp, r2, r0, lsl #16
     5d0:	50000100 	andpl	r0, r0, r0, lsl #2
     5d4:	000002b8 			; <UNDEFINED> instruction: 0x000002b8
     5d8:	000002bc 			; <UNDEFINED> instruction: 0x000002bc
     5dc:	bc540001 	mrrclt	0, 0, r0, r4, cr1
     5e0:	c0000002 	andgt	r0, r0, r2
     5e4:	03000002 	movweq	r0, #2
     5e8:	9f017400 	svcls	0x00017400
     5ec:	000002c0 	andeq	r0, r0, r0, asr #5
     5f0:	000002e4 	andeq	r0, r0, r4, ror #5
     5f4:	e4540001 	ldrb	r0, [r4], #-1
     5f8:	e8000002 	stmda	r0, {r1}
     5fc:	03000002 	movweq	r0, #2
     600:	9f017400 	svcls	0x00017400
     604:	000002e8 	andeq	r0, r0, r8, ror #5
     608:	000006bc 			; <UNDEFINED> instruction: 0x000006bc
     60c:	bc540001 	mrrclt	0, 0, r0, r4, cr1
     610:	c0000006 	andgt	r0, r0, r6
     614:	03000006 	movweq	r0, #6
     618:	9f017400 	svcls	0x00017400
     61c:	000006c0 	andeq	r0, r0, r0, asr #13
     620:	000006d8 	ldrdeq	r0, [r0], -r8
     624:	d8540001 	ldmdale	r4, {r0}^
     628:	e0000006 	and	r0, r0, r6
     62c:	03000006 	movweq	r0, #6
     630:	9f017400 	svcls	0x00017400
     634:	000006e0 	andeq	r0, r0, r0, ror #13
     638:	000006ec 	andeq	r0, r0, ip, ror #13
     63c:	00540001 	subseq	r0, r4, r1
	...
     648:	a4000000 	strge	r0, [r0], #-0
     64c:	ec000002 	stc	0, cr0, [r0], {2}
     650:	01000006 	tsteq	r0, r6
     654:	06ec5800 	strbteq	r5, [ip], r0, lsl #16
     658:	07200000 	streq	r0, [r0, -r0]!
     65c:	000a0000 	andeq	r0, sl, r0
     660:	f35101f3 	vbsl	q8, <illegal reg q8.5>, <illegal reg q9.5>
     664:	31225001 			; <UNDEFINED> instruction: 0x31225001
     668:	00009f1c 	andeq	r9, r0, ip, lsl pc
     66c:	00000000 	andeq	r0, r0, r0
     670:	00010000 	andeq	r0, r1, r0
     674:	00000000 	andeq	r0, r0, r0
     678:	00000408 	andeq	r0, r0, r8, lsl #8
     67c:	0000045c 	andeq	r0, r0, ip, asr r4
     680:	c0570001 	subsgt	r0, r7, r1
     684:	e4000004 	str	r0, [r0], #-4
     688:	01000004 	tsteq	r0, r4
     68c:	05285700 	streq	r5, [r8, #-1792]!	; 0xfffff900
     690:	05440000 	strbeq	r0, [r4, #-0]
     694:	00010000 	andeq	r0, r1, r0
     698:	00000057 	andeq	r0, r0, r7, asr r0
     69c:	00000000 	andeq	r0, r0, r0
     6a0:	00000100 	andeq	r0, r0, r0, lsl #2
     6a4:	0002ac00 	andeq	sl, r2, r0, lsl #24
     6a8:	0002b800 	andeq	fp, r2, r0, lsl #16
     6ac:	52000100 	andpl	r0, r0, #0
     6b0:	000002b8 			; <UNDEFINED> instruction: 0x000002b8
     6b4:	00000720 	andeq	r0, r0, r0, lsr #14
     6b8:	c8910003 	ldmgt	r1, {r0, r1}
     6bc:	0000007d 	andeq	r0, r0, sp, ror r0
	...
     6cc:	01010000 	mrseq	r0, (UNDEF: 1)
	...
     6d8:	5c000000 	stcpl	0, cr0, [r0], {-0}
     6dc:	74000004 	strvc	r0, [r0], #-4
     6e0:	01000004 	tsteq	r0, r4
     6e4:	04745000 	ldrbteq	r5, [r4], #-0
     6e8:	04a00000 	strteq	r0, [r0], #0
     6ec:	00010000 	andeq	r0, r1, r0
     6f0:	0004e457 	andeq	lr, r4, r7, asr r4
     6f4:	0004fc00 	andeq	pc, r4, r0, lsl #24
     6f8:	50000100 	andpl	r0, r0, r0, lsl #2
     6fc:	000004fc 	strdeq	r0, [r0], -ip
     700:	00000528 	andeq	r0, r0, r8, lsr #10
     704:	8c570001 	mrrchi	0, 0, r0, r7, cr1
     708:	8c000005 	stchi	0, cr0, [r0], {5}
     70c:	01000005 	tsteq	r0, r5
     710:	058c5000 	streq	r5, [ip]
     714:	05940000 	ldreq	r0, [r4]
     718:	00010000 	andeq	r0, r1, r0
     71c:	0005c457 	andeq	ip, r5, r7, asr r4
     720:	0005c800 	andeq	ip, r5, r0, lsl #16
     724:	50000100 	andpl	r0, r0, r0, lsl #2
     728:	000005f8 	strdeq	r0, [r0], -r8
     72c:	000005fc 	strdeq	r0, [r0], -ip
     730:	2c500001 	mrrccs	0, 0, r0, r0, cr1	; <UNPREDICTABLE>
     734:	30000006 	andcc	r0, r0, r6
     738:	01000006 	tsteq	r0, r6
     73c:	06745000 	ldrbteq	r5, [r4], -r0
     740:	06780000 	ldrbteq	r0, [r8], -r0
     744:	00010000 	andeq	r0, r1, r0
     748:	0006b850 	andeq	fp, r6, r0, asr r8
     74c:	0006d800 	andeq	sp, r6, r0, lsl #16
     750:	57000100 	strpl	r0, [r0, -r0, lsl #2]
	...
     75c:	00000002 	andeq	r0, r0, r2
     760:	02f40000 	rscseq	r0, r4, #0, 0
     764:	02f80000 	rscseq	r0, r8, #0, 0
     768:	00020000 	andeq	r0, r2, r0
     76c:	02f89f30 	rscseq	r9, r8, #48, 30	; 0xc0
     770:	03140000 	tsteq	r4, #0, 0
     774:	00010000 	andeq	r0, r1, r0
     778:	00031c55 	andeq	r1, r3, r5, asr ip
     77c:	0006d800 	andeq	sp, r6, r0, lsl #16
     780:	55000100 	strpl	r0, [r0, #-256]	; 0xffffff00
	...
     78c:	00000001 	andeq	r0, r0, r1
     790:	00000000 	andeq	r0, r0, r0
     794:	03b80000 			; <UNDEFINED> instruction: 0x03b80000
     798:	043c0000 	ldrteq	r0, [ip], #-0
     79c:	00010000 	andeq	r0, r1, r0
     7a0:	00043c56 	andeq	r3, r4, r6, asr ip
     7a4:	0004a000 	andeq	sl, r4, r0
     7a8:	7b000300 	blvc	13b0 <__code_start__-0x6c50>
     7ac:	04a09f7e 	strteq	r9, [r0], #3966	; 0xf7e
     7b0:	04c40000 	strbeq	r0, [r4], #0
     7b4:	00010000 	andeq	r0, r1, r0
     7b8:	0004c456 	andeq	ip, r4, r6, asr r4
     7bc:	00052800 	andeq	r2, r5, r0, lsl #16
     7c0:	7b000300 	blvc	13c8 <__code_start__-0x6c38>
     7c4:	05289f7e 	streq	r9, [r8, #-3966]!	; 0xfffff082
     7c8:	05440000 	strbeq	r0, [r4, #-0]
     7cc:	00010000 	andeq	r0, r1, r0
     7d0:	00000056 	andeq	r0, r0, r6, asr r0
	...
     7dc:	70000000 	andvc	r0, r0, r0
     7e0:	94000000 	strls	r0, [r0], #-0
     7e4:	01000000 	mrseq	r0, (UNDEF: 0)
     7e8:	00945000 	addseq	r5, r4, r0
     7ec:	00fc0000 	rscseq	r0, ip, r0
     7f0:	00030000 	andeq	r0, r3, r0
     7f4:	fc9f0270 	ldc2	2, cr0, [pc], {112}	; 0x70
     7f8:	24000000 	strcs	r0, [r0], #-0
     7fc:	04000002 	streq	r0, [r0], #-2
     800:	5001f300 	andpl	pc, r1, r0, lsl #6
     804:	0000009f 	muleq	r0, pc, r0	; <UNPREDICTABLE>
	...
     81c:	00007000 	andeq	r7, r0, r0
     820:	0000e000 	andeq	lr, r0, r0
     824:	51000100 	mrspl	r0, (UNDEF: 16)
     828:	000000e0 	andeq	r0, r0, r0, ror #1
     82c:	00000154 	andeq	r0, r0, r4, asr r1
     830:	54550001 	ldrbpl	r0, [r5], #-1
     834:	58000001 	stmdapl	r0, {r0}
     838:	01000001 	tsteq	r0, r1
     83c:	01585100 	cmpeq	r8, r0, lsl #2
     840:	01b00000 	movseq	r0, r0
     844:	00010000 	andeq	r0, r1, r0
     848:	0001b055 	andeq	fp, r1, r5, asr r0
     84c:	0001c000 	andeq	ip, r1, r0
     850:	51000100 	mrspl	r0, (UNDEF: 16)
     854:	000001c0 	andeq	r0, r0, r0, asr #3
     858:	000001e4 	andeq	r0, r0, r4, ror #3
     85c:	e4550001 	ldrb	r0, [r5], #-1
     860:	f8000001 			; <UNDEFINED> instruction: 0xf8000001
     864:	01000001 	tsteq	r0, r1
     868:	01f85100 	mvnseq	r5, r0, lsl #2
     86c:	02240000 	eoreq	r0, r4, #0, 0
     870:	00010000 	andeq	r0, r1, r0
     874:	00000055 	andeq	r0, r0, r5, asr r0
	...
     880:	00007000 	andeq	r7, r0, r0
     884:	00008400 	andeq	r8, r0, r0, lsl #8
     888:	52000100 	andpl	r0, r0, #0
     88c:	00000084 	andeq	r0, r0, r4, lsl #1
     890:	00000224 	andeq	r0, r0, r4, lsr #4
     894:	00540001 	subseq	r0, r4, r1
	...
     8a4:	00000001 	andeq	r0, r0, r1
     8a8:	70000000 	andvc	r0, r0, r0
     8ac:	f4000000 	vst4.8	{d0-d3}, [r0], r0
     8b0:	01000000 	mrseq	r0, (UNDEF: 0)
     8b4:	014c5300 	mrseq	r5, SPSR_mon
     8b8:	01800000 	orreq	r0, r0, r0
     8bc:	00010000 	andeq	r0, r1, r0
     8c0:	00018053 	andeq	r8, r1, r3, asr r0
     8c4:	00018c00 	andeq	r8, r1, r0, lsl #24
     8c8:	f3000400 	vshl.u8	d0, d0, d0
     8cc:	b09f5301 	addslt	r5, pc, r1, lsl #6
     8d0:	e8000001 	stmda	r0, {r0}
     8d4:	01000001 	tsteq	r0, r1
     8d8:	01e85300 	mvneq	r5, r0, lsl #6
     8dc:	01ff0000 	mvnseq	r0, r0
     8e0:	00010000 	andeq	r0, r1, r0
     8e4:	0001ff5c 	andeq	pc, r1, ip, asr pc	; <UNPREDICTABLE>
     8e8:	00022400 	andeq	r2, r2, r0, lsl #8
     8ec:	f3000400 	vshl.u8	d0, d0, d0
     8f0:	009f5301 	addseq	r5, pc, r1, lsl #6
	...
     900:	00007000 	andeq	r7, r0, r0
     904:	00008c00 	andeq	r8, r0, r0, lsl #24
     908:	91000200 	mrsls	r0, R8_usr
     90c:	00008c00 	andeq	r8, r0, r0, lsl #24
     910:	00019300 	andeq	r9, r1, r0, lsl #6
     914:	52000100 	andpl	r0, r0, #0
     918:	000001b0 			; <UNDEFINED> instruction: 0x000001b0
     91c:	000001f4 	strdeq	r0, [r0], -r4
     920:	00520001 	subseq	r0, r2, r1
     924:	00000000 	andeq	r0, r0, r0
     928:	01000000 	mrseq	r0, (UNDEF: 0)
     92c:	01010000 	mrseq	r0, (UNDEF: 1)
	...
     938:	01010101 	tsteq	r1, r1, lsl #2
     93c:	01010000 	mrseq	r0, (UNDEF: 1)
	...
     948:	8c000000 	stchi	0, cr0, [r0], {-0}
     94c:	fc000000 	stc2	0, cr0, [r0], {-0}
     950:	04000000 	streq	r0, [r0], #-0
     954:	7fa09100 	svcvc	0x00a09100
     958:	0000fc9f 	muleq	r0, pc, ip	; <UNPREDICTABLE>
     95c:	00013c00 	andeq	r3, r1, r0, lsl #24
     960:	50000100 	andpl	r0, r0, r0, lsl #2
     964:	0000013c 	andeq	r0, r0, ip, lsr r1
     968:	00000148 	andeq	r0, r0, r8, asr #2
     96c:	02710003 	rsbseq	r0, r1, #3, 0
     970:	0001489f 	muleq	r1, pc, r8	; <UNPREDICTABLE>
     974:	00014c00 	andeq	r4, r1, r0, lsl #24
     978:	50000100 	andpl	r0, r0, r0, lsl #2
     97c:	0000014c 	andeq	r0, r0, ip, asr #2
     980:	00000158 	andeq	r0, r0, r8, asr r1
     984:	a0910004 	addsge	r0, r1, r4
     988:	01589f7f 	cmpeq	r8, pc, ror pc
     98c:	016c0000 	cmneq	ip, r0
     990:	00010000 	andeq	r0, r1, r0
     994:	00016c51 	andeq	r6, r1, r1, asr ip
     998:	00017800 	andeq	r7, r1, r0, lsl #16
     99c:	71000300 	mrsvc	r0, LR_irq
     9a0:	01789f7f 	cmneq	r8, pc, ror pc
     9a4:	01840000 	orreq	r0, r4, r0
     9a8:	00030000 	andeq	r0, r3, r0
     9ac:	849f0171 	ldrhi	r0, [pc], #369	; 9b4 <__code_start__-0x764c>
     9b0:	93000001 	movwls	r0, #1
     9b4:	01000001 	tsteq	r0, r1
     9b8:	01b05000 	movseq	r5, r0
     9bc:	01b00000 	movseq	r0, r0
     9c0:	00040000 	andeq	r0, r4, r0
     9c4:	9f7fa091 	svcls	0x007fa091
     9c8:	000001b0 			; <UNDEFINED> instruction: 0x000001b0
     9cc:	000001b8 			; <UNDEFINED> instruction: 0x000001b8
     9d0:	a1910004 	orrsge	r0, r1, r4
     9d4:	01b89f7f 			; <UNDEFINED> instruction: 0x01b89f7f
     9d8:	01bc0000 			; <UNDEFINED> instruction: 0x01bc0000
     9dc:	00010000 	andeq	r0, r1, r0
     9e0:	0001bc50 	andeq	fp, r1, r0, asr ip
     9e4:	0001c000 	andeq	ip, r1, r0
     9e8:	91000400 	tstls	r0, r0, lsl #8
     9ec:	c09f7fa0 	addsgt	r7, pc, r0, lsr #31
     9f0:	d4000001 	strle	r0, [r0], #-1
     9f4:	01000001 	tsteq	r0, r1
     9f8:	01d45000 	bicseq	r5, r4, r0
     9fc:	01e40000 	mvneq	r0, r0
     a00:	00030000 	andeq	r0, r3, r0
     a04:	e49f7f70 	ldr	r7, [pc], #3952	; a0c <__code_start__-0x75f4>
     a08:	24000001 	strcs	r0, [r0], #-1
     a0c:	04000002 	streq	r0, [r0], #-2
     a10:	7fa09100 	svcvc	0x00a09100
     a14:	0000009f 	muleq	r0, pc, r0	; <UNPREDICTABLE>
	...
     a20:	00000101 	andeq	r0, r0, r1, lsl #2
	...
     a30:	00009000 	andeq	r9, r0, r0
     a34:	0000dc00 	andeq	sp, r0, r0, lsl #24
     a38:	5c000100 	stfpls	f0, [r0], {-0}
     a3c:	000000dc 	ldrdeq	r0, [r0], -ip
     a40:	000000f4 	strdeq	r0, [r0], -r4
     a44:	f4530001 			; <UNDEFINED> instruction: 0xf4530001
     a48:	4c000000 	stcmi	0, cr0, [r0], {-0}
     a4c:	01000001 	tsteq	r0, r1
     a50:	014c5c00 	cmpeq	ip, r0, lsl #24
     a54:	01580000 	cmpeq	r8, r0
     a58:	00010000 	andeq	r0, r1, r0
     a5c:	00015853 	andeq	r5, r1, r3, asr r8
     a60:	00017400 	andeq	r7, r1, r0, lsl #8
     a64:	5c000100 	stfpls	f0, [r0], {-0}
     a68:	000001b0 			; <UNDEFINED> instruction: 0x000001b0
     a6c:	000001c0 	andeq	r0, r0, r0, asr #3
     a70:	c0530001 	subsgt	r0, r3, r1
     a74:	dc000001 	stcle	0, cr0, [r0], {1}
     a78:	01000001 	tsteq	r0, r1
     a7c:	01e45c00 	mvneq	r5, r0, lsl #24
     a80:	01e80000 	mvneq	r0, r0
     a84:	00010000 	andeq	r0, r1, r0
     a88:	0001e853 	andeq	lr, r1, r3, asr r8
     a8c:	0001ff00 	andeq	pc, r1, r0, lsl #30
     a90:	5c000100 	stfpls	f0, [r0], {-0}
     a94:	000001ff 	strdeq	r0, [r0], -pc	; <UNPREDICTABLE>
     a98:	00000224 	andeq	r0, r0, r4, lsr #4
     a9c:	01f30004 	mvnseq	r0, r4
     aa0:	00009f53 	andeq	r9, r0, r3, asr pc
     aa4:	00000000 	andeq	r0, r0, r0
     aa8:	01010000 	mrseq	r0, (UNDEF: 1)
     aac:	00000001 	andeq	r0, r0, r1
     ab0:	00dc0000 	sbcseq	r0, ip, r0
     ab4:	00f00000 	rscseq	r0, r0, r0
     ab8:	00020000 	andeq	r0, r2, r0
     abc:	00f09f30 	rscseq	r9, r0, r0, lsr pc
     ac0:	00f80000 	rscseq	r0, r8, r0
     ac4:	00020000 	andeq	r0, r2, r0
     ac8:	00fc9f31 	rscseq	r9, ip, r1, lsr pc
     acc:	014c0000 	mrseq	r0, (UNDEF: 76)
     ad0:	00010000 	andeq	r0, r1, r0
     ad4:	00014c56 	andeq	r4, r1, r6, asr ip
     ad8:	00015400 	andeq	r5, r1, r0, lsl #8
     adc:	30000200 	andcc	r0, r0, r0, lsl #4
     ae0:	0000009f 	muleq	r0, pc, r0	; <UNPREDICTABLE>
	...
     aec:	00000101 	andeq	r0, r0, r1, lsl #2
     af0:	38000101 	stmdacc	r0, {r0, r8}
     af4:	54000000 	strpl	r0, [r0], #-0
     af8:	01000000 	mrseq	r0, (UNDEF: 0)
     afc:	00545000 	subseq	r5, r4, r0
     b00:	00580000 	subseq	r0, r8, r0
     b04:	00010000 	andeq	r0, r1, r0
     b08:	00005852 	andeq	r5, r0, r2, asr r8
     b0c:	00006000 	andeq	r6, r0, r0
     b10:	72000300 	andvc	r0, r0, #0, 6
     b14:	00609f01 	rsbeq	r9, r0, r1, lsl #30
     b18:	00640000 	rsbeq	r0, r4, r0
     b1c:	00010000 	andeq	r0, r1, r0
     b20:	00006452 	andeq	r6, r0, r2, asr r4
     b24:	00007000 	andeq	r7, r0, r0
     b28:	72000300 	andvc	r0, r0, #0, 6
     b2c:	00009f01 	andeq	r9, r0, r1, lsl #30
	...
     b38:	00380000 	eorseq	r0, r8, r0
     b3c:	00500000 	subseq	r0, r0, r0
     b40:	00010000 	andeq	r0, r1, r0
     b44:	00005051 	andeq	r5, r0, r1, asr r0
     b48:	00007000 	andeq	r7, r0, r0
     b4c:	f3000400 	vshl.u8	d0, d0, d0
     b50:	009f5101 	addseq	r5, pc, r1, lsl #2
	...
     b60:	38000101 	stmdacc	r0, {r0, r8}
     b64:	50000000 	andpl	r0, r0, r0
     b68:	01000000 	mrseq	r0, (UNDEF: 0)
     b6c:	00505200 	subseq	r5, r0, r0, lsl #4
     b70:	005c0000 	subseq	r0, ip, r0
     b74:	00010000 	andeq	r0, r1, r0
     b78:	00005c51 	andeq	r5, r0, r1, asr ip
     b7c:	00006000 	andeq	r6, r0, r0
     b80:	71000300 	mrsvc	r0, LR_irq
     b84:	00609f01 	rsbeq	r9, r0, r1, lsl #30
     b88:	00700000 	rsbseq	r0, r0, r0
     b8c:	00010000 	andeq	r0, r1, r0
     b90:	00000051 	andeq	r0, r0, r1, asr r0
	...
     b9c:	00003800 	andeq	r3, r0, r0, lsl #16
     ba0:	00004c00 	andeq	r4, r0, r0, lsl #24
     ba4:	53000100 	movwpl	r0, #256	; 0x100
     ba8:	0000004c 	andeq	r0, r0, ip, asr #32
     bac:	00000068 	andeq	r0, r0, r8, rrx
     bb0:	00530001 	subseq	r0, r3, r1
	...
     bc0:	40000000 	andmi	r0, r0, r0
     bc4:	48000000 	stmdami	r0, {}	; <UNPREDICTABLE>
     bc8:	01000000 	mrseq	r0, (UNDEF: 0)
     bcc:	00485c00 	subeq	r5, r8, r0, lsl #24
     bd0:	004c0000 	subeq	r0, ip, r0
     bd4:	00080000 	andeq	r0, r8, r0
     bd8:	00730072 	rsbseq	r0, r3, r2, ror r0
     bdc:	9f01231c 	svcls	0x0001231c
     be0:	0000004c 	andeq	r0, r0, ip, asr #32
     be4:	00000054 	andeq	r0, r0, r4, asr r0
     be8:	00720009 	rsbseq	r0, r2, r9
     bec:	1c5301f3 	ldfnee	f0, [r3], {243}	; 0xf3
     bf0:	549f0123 	ldrpl	r0, [pc], #291	; bf8 <__code_start__-0x7408>
     bf4:	70000000 	andvc	r0, r0, r0
     bf8:	0a000000 	beq	c00 <__code_start__-0x7400>
     bfc:	5201f300 	andpl	pc, r1, #0, 6
     c00:	1c5301f3 	ldfnee	f0, [r3], {243}	; 0xf3
     c04:	009f0123 	addseq	r0, pc, r3, lsr #2
     c08:	00000000 	andeq	r0, r0, r0
     c0c:	01000000 	mrseq	r0, (UNDEF: 0)
     c10:	00004c00 	andeq	r4, r0, r0, lsl #24
     c14:	00007000 	andeq	r7, r0, r0
     c18:	50000100 	andpl	r0, r0, r0, lsl #2
	...
     c24:	00010100 	andeq	r0, r1, r0, lsl #2
     c28:	00140000 	andseq	r0, r4, r0
     c2c:	001c0000 	andseq	r0, ip, r0
     c30:	00010000 	andeq	r0, r1, r0
     c34:	00001c50 	andeq	r1, r0, r0, asr ip
     c38:	00002400 	andeq	r2, r0, r0, lsl #8
     c3c:	70000300 	andvc	r0, r0, r0, lsl #6
     c40:	00249f01 	eoreq	r9, r4, r1, lsl #30
     c44:	00380000 	eorseq	r0, r8, r0
     c48:	00010000 	andeq	r0, r1, r0
     c4c:	00000050 	andeq	r0, r0, r0, asr r0
	...
     c58:	00001400 	andeq	r1, r0, r0, lsl #8
     c5c:	00001800 	andeq	r1, r0, r0, lsl #16
     c60:	51000100 	mrspl	r0, (UNDEF: 16)
     c64:	00000018 	andeq	r0, r0, r8, lsl r0
     c68:	00000038 	andeq	r0, r0, r8, lsr r0
     c6c:	01f30004 	mvnseq	r0, r4
     c70:	00009f51 	andeq	r9, r0, r1, asr pc
	...
     c7c:	00000018 	andeq	r0, r0, r8, lsl r0
     c80:	00000038 	andeq	r0, r0, r8, lsr r0
     c84:	00510001 	subseq	r0, r1, r1
	...
     c98:	00000400 	andeq	r0, r0, r0, lsl #8
     c9c:	50000100 	andpl	r0, r0, r0, lsl #2
     ca0:	00000004 	andeq	r0, r0, r4
     ca4:	0000000c 	andeq	r0, r0, ip
     ca8:	30700003 	rsbscc	r0, r0, r3
     cac:	00000c9f 	muleq	r0, pc, ip	; <UNPREDICTABLE>
     cb0:	00001400 	andeq	r1, r0, r0, lsl #8
     cb4:	f3000400 	vshl.u8	d0, d0, d0
     cb8:	009f5001 	addseq	r5, pc, r1
	...
     cc4:	24000000 	strcs	r0, [r0], #-0
     cc8:	68000002 	stmdavs	r0, {r1}
     ccc:	01000002 	tsteq	r0, r2
     cd0:	02685000 	rsbeq	r5, r8, #0, 0
     cd4:	02880000 	addeq	r0, r8, #0, 0
     cd8:	00040000 	andeq	r0, r4, r0
     cdc:	9f5001f3 	svcls	0x005001f3
	...
     cec:	00000224 	andeq	r0, r0, r4, lsr #4
     cf0:	00000264 	andeq	r0, r0, r4, ror #4
     cf4:	64510001 	ldrbvs	r0, [r1], #-1
     cf8:	88000002 	stmdahi	r0, {r1}
     cfc:	04000002 	streq	r0, [r0], #-2
     d00:	5101f300 	mrspl	pc, SP_irq	; <UNPREDICTABLE>
     d04:	0000009f 	muleq	r0, pc, r0	; <UNPREDICTABLE>
     d08:	00000000 	andeq	r0, r0, r0
     d0c:	01010000 	mrseq	r0, (UNDEF: 1)
     d10:	08000000 	stmdaeq	r0, {}	; <UNPREDICTABLE>
     d14:	10000000 	andne	r0, r0, r0
     d18:	01000000 	mrseq	r0, (UNDEF: 0)
     d1c:	00105300 	andseq	r5, r0, r0, lsl #6
     d20:	00180000 	andseq	r0, r8, r0
     d24:	00030000 	andeq	r0, r3, r0
     d28:	189f0473 	ldmne	pc, {r0, r1, r4, r5, r6, sl}	; <UNPREDICTABLE>
     d2c:	1f000000 	svcne	0x00000000
     d30:	01000000 	mrseq	r0, (UNDEF: 0)
     d34:	00005300 	andeq	r5, r0, r0, lsl #6
     d38:	00000000 	andeq	r0, r0, r0
     d3c:	00010000 	andeq	r0, r1, r0
     d40:	00008e20 	andeq	r8, r0, r0, lsr #28
     d44:	00008e3c 	andeq	r8, r0, ip, lsr lr
     d48:	1c0c0006 	stcne	0, cr0, [ip], {6}
     d4c:	9f201000 	svcls	0x00201000
	...
     d58:	8e200002 	cdphi	0, 2, cr0, cr0, cr2, {0}
     d5c:	8e3c0000 	cdphi	0, 3, cr0, cr12, cr0, {0}
     d60:	00060000 	andeq	r0, r6, r0
     d64:	1000240c 	andne	r2, r0, ip, lsl #8
     d68:	00009f20 	andeq	r9, r0, r0, lsr #30
     d6c:	00000000 	andeq	r0, r0, r0
     d70:	00030000 	andeq	r0, r3, r0
     d74:	00008e20 	andeq	r8, r0, r0, lsr #28
     d78:	00008e3c 	andeq	r8, r0, ip, lsr lr
     d7c:	b4080005 	strlt	r0, [r8], #-5
     d80:	009f2447 	addseq	r2, pc, r7, asr #8
     d84:	00000000 	andeq	r0, r0, r0
     d88:	04000000 	streq	r0, [r0], #-0
     d8c:	008e2000 	addeq	r2, lr, r0
     d90:	008e3c00 	addeq	r3, lr, r0, lsl #24
     d94:	08000300 	stmdaeq	r0, {r8, r9}
     d98:	00009f20 	andeq	r9, r0, r0, lsr #30
     d9c:	00000000 	andeq	r0, r0, r0
     da0:	00020000 	andeq	r0, r2, r0
     da4:	00000000 	andeq	r0, r0, r0
     da8:	00008df0 	strdeq	r8, [r0], -r0
     dac:	00008df4 	strdeq	r8, [r0], -r4
     db0:	9f300002 	svcls	0x00300002
     db4:	00008df4 	strdeq	r8, [r0], -r4
     db8:	00008df8 	strdeq	r8, [r0], -r8	; <UNPREDICTABLE>
     dbc:	fc530001 	mrrc2	0, 0, r0, r3, cr1
     dc0:	0400008d 	streq	r0, [r0], #-141	; 0xffffff73
     dc4:	0100008e 	smlabbeq	r0, lr, r0, r0
     dc8:	00005300 	andeq	r5, r0, r0, lsl #6
     dcc:	00000000 	andeq	r0, r0, r0
     dd0:	00020000 	andeq	r0, r2, r0
     dd4:	8dd80000 	ldclhi	0, cr0, [r8]
     dd8:	8ddc0000 	ldclhi	0, cr0, [ip]
     ddc:	00020000 	andeq	r0, r2, r0
     de0:	8ddc9f30 	ldclhi	15, cr9, [ip, #192]	; 0xc0
     de4:	8de00000 	stclhi	0, cr0, [r0]
     de8:	00010000 	andeq	r0, r1, r0
     dec:	00000050 	andeq	r0, r0, r0, asr r0
	...
     df8:	00006c00 	andeq	r6, r0, r0, lsl #24
     dfc:	00007800 	andeq	r7, r0, r0, lsl #16
     e00:	50000100 	andpl	r0, r0, r0, lsl #2
     e04:	00000078 	andeq	r0, r0, r8, ror r0
     e08:	00000084 	andeq	r0, r0, r4, lsl #1
     e0c:	01f30004 	mvnseq	r0, r4
     e10:	00009f50 	andeq	r9, r0, r0, asr pc
	...
     e1c:	00540000 	subseq	r0, r4, r0
     e20:	00600000 	rsbeq	r0, r0, r0
     e24:	00010000 	andeq	r0, r1, r0
     e28:	00006050 	andeq	r6, r0, r0, asr r0
     e2c:	00006c00 	andeq	r6, r0, r0, lsl #24
     e30:	f3000400 	vshl.u8	d0, d0, d0
     e34:	009f5001 	addseq	r5, pc, r1
	...
     e40:	30000000 	andcc	r0, r0, r0
     e44:	3b000000 	blcc	e4c <__code_start__-0x71b4>
     e48:	01000000 	mrseq	r0, (UNDEF: 0)
     e4c:	003b5000 	eorseq	r5, fp, r0
     e50:	00540000 	subseq	r0, r4, r0
     e54:	00010000 	andeq	r0, r1, r0
     e58:	00000055 	andeq	r0, r0, r5, asr r0
     e5c:	00000000 	andeq	r0, r0, r0
     e60:	40000000 	andmi	r0, r0, r0
     e64:	54000000 	strpl	r0, [r0], #-0
     e68:	01000000 	mrseq	r0, (UNDEF: 0)
     e6c:	00005400 	andeq	r5, r0, r0, lsl #8
	...
     e78:	00000044 	andeq	r0, r0, r4, asr #32
     e7c:	00000048 	andeq	r0, r0, r8, asr #32
     e80:	00500001 	subseq	r0, r0, r1
	...
     e8c:	24000000 	strcs	r0, [r0], #-0
     e90:	27000000 	strcs	r0, [r0, -r0]
     e94:	01000000 	mrseq	r0, (UNDEF: 0)
     e98:	00275000 	eoreq	r5, r7, r0
     e9c:	00300000 	eorseq	r0, r0, r0
     ea0:	00010000 	andeq	r0, r1, r0
     ea4:	00000054 	andeq	r0, r0, r4, asr r0
	...
     eb0:	00013800 	andeq	r3, r1, r0, lsl #16
     eb4:	00014300 	andeq	r4, r1, r0, lsl #6
     eb8:	50000100 	andpl	r0, r0, r0, lsl #2
     ebc:	00000143 	andeq	r0, r0, r3, asr #2
     ec0:	00000168 	andeq	r0, r0, r8, ror #2
     ec4:	00540001 	subseq	r0, r4, r1
	...
     ed0:	00012800 	andeq	r2, r1, r0, lsl #16
     ed4:	00013800 	andeq	r3, r1, r0, lsl #16
     ed8:	54000100 	strpl	r0, [r0], #-256	; 0xffffff00
	...
     eec:	0000000f 	andeq	r0, r0, pc
     ef0:	0f500001 	svceq	0x00500001
     ef4:	20000000 	andcs	r0, r0, r0
     ef8:	01000000 	mrseq	r0, (UNDEF: 0)
     efc:	00005400 	andeq	r5, r0, r0, lsl #8
	...
     f0c:	000f0000 	andeq	r0, pc, r0
     f10:	00010000 	andeq	r0, r1, r0
     f14:	00000f51 	andeq	r0, r0, r1, asr pc
     f18:	00002000 	andeq	r2, r0, r0
     f1c:	55000100 	strpl	r0, [r0, #-256]	; 0xffffff00
	...
     f2c:	014c0000 	mrseq	r0, (UNDEF: 76)
     f30:	01800000 	orreq	r0, r0, r0
     f34:	00010000 	andeq	r0, r1, r0
     f38:	00018050 	andeq	r8, r1, r0, asr r0
     f3c:	00018c00 	andeq	r8, r1, r0, lsl #24
     f40:	54000100 	strpl	r0, [r0], #-256	; 0xffffff00
     f44:	0000018c 	andeq	r0, r0, ip, lsl #3
     f48:	000001ac 	andeq	r0, r0, ip, lsr #3
     f4c:	01f30004 	mvnseq	r0, r4
     f50:	00009f50 	andeq	r9, r0, r0, asr pc
	...
     f5c:	014c0000 	mrseq	r0, (UNDEF: 76)
     f60:	01830000 	orreq	r0, r3, r0
     f64:	00010000 	andeq	r0, r1, r0
     f68:	00018351 	andeq	r8, r1, r1, asr r3
     f6c:	0001ac00 	andeq	sl, r1, r0, lsl #24
     f70:	f3000400 	vshl.u8	d0, d0, d0
     f74:	009f5101 	addseq	r5, pc, r1, lsl #2
	...
     f80:	00017c00 	andeq	r7, r1, r0, lsl #24
     f84:	0001ac00 	andeq	sl, r1, r0, lsl #24
     f88:	57000100 	strpl	r0, [r0, -r0, lsl #2]
	...
     f94:	01840000 	orreq	r0, r4, r0
     f98:	01a00000 	moveq	r0, r0
     f9c:	00010000 	andeq	r0, r1, r0
     fa0:	00000050 	andeq	r0, r0, r0, asr r0
     fa4:	00000000 	andeq	r0, r0, r0
     fa8:	90000000 	andls	r0, r0, r0
     fac:	ac000001 	stcge	0, cr0, [r0], {1}
     fb0:	01000001 	tsteq	r0, r1
     fb4:	00005400 	andeq	r5, r0, r0, lsl #8
     fb8:	00000000 	andeq	r0, r0, r0
     fbc:	00010000 	andeq	r0, r1, r0
     fc0:	00000190 	muleq	r0, r0, r1
     fc4:	000001ac 	andeq	r0, r0, ip, lsr #3
     fc8:	74370005 	ldrtvc	r0, [r7], #-5
     fcc:	009f2400 	addseq	r2, pc, r0, lsl #8
	...
     fd8:	98000000 	stmdals	r0, {}	; <UNPREDICTABLE>
     fdc:	9c000001 	stcls	0, cr0, [r0], {1}
     fe0:	01000001 	tsteq	r0, r1
     fe4:	019c5100 	orrseq	r5, ip, r0, lsl #2
     fe8:	01a00000 	moveq	r0, r0
     fec:	00090000 	andeq	r0, r9, r0
     ff0:	24007437 	strcs	r7, [r0], #-1079	; 0xfffffbc9
     ff4:	1a007020 	bne	1d07c <__bss_end__+0x1349c>
     ff8:	0000009f 	muleq	r0, pc, r0	; <UNPREDICTABLE>
	...
    1008:	00011400 	andeq	r1, r1, r0, lsl #8
    100c:	00012000 	andeq	r2, r1, r0
    1010:	50000100 	andpl	r0, r0, r0, lsl #2
    1014:	00000120 	andeq	r0, r0, r0, lsr #2
    1018:	00000124 	andeq	r0, r0, r4, lsr #2
    101c:	01f30004 	mvnseq	r0, r4
    1020:	01249f50 			; <UNDEFINED> instruction: 0x01249f50
    1024:	01300000 	teqeq	r0, r0
    1028:	00010000 	andeq	r0, r1, r0
    102c:	00013050 	andeq	r3, r1, r0, asr r0
    1030:	00014c00 	andeq	r4, r1, r0, lsl #24
    1034:	54000100 	strpl	r0, [r0], #-256	; 0xffffff00
	...
    1040:	012c0001 			; <UNDEFINED> instruction: 0x012c0001
    1044:	01440000 	mrseq	r0, (UNDEF: 68)
    1048:	00020000 	andeq	r0, r2, r0
    104c:	00009f30 	andeq	r9, r0, r0, lsr pc
	...
    1058:	00000134 	andeq	r0, r0, r4, lsr r1
    105c:	00000140 	andeq	r0, r0, r0, asr #2
    1060:	00500001 	subseq	r0, r0, r1
    1064:	00000000 	andeq	r0, r0, r0
    1068:	01000000 	mrseq	r0, (UNDEF: 0)
    106c:	00013400 	andeq	r3, r1, r0, lsl #8
    1070:	00014c00 	andeq	r4, r1, r0, lsl #24
    1074:	31000500 	tstcc	r0, r0, lsl #10
    1078:	9f240074 	svcls	0x00240074
	...
    1088:	00c00000 	sbceq	r0, r0, r0
    108c:	00ec0000 	rsceq	r0, ip, r0
    1090:	00010000 	andeq	r0, r1, r0
    1094:	0000ec50 	andeq	lr, r0, r0, asr ip
    1098:	0000f800 	andeq	pc, r0, r0, lsl #16
    109c:	54000100 	strpl	r0, [r0], #-256	; 0xffffff00
    10a0:	000000f8 	strdeq	r0, [r0], -r8
    10a4:	00000114 	andeq	r0, r0, r4, lsl r1
    10a8:	01f30004 	mvnseq	r0, r4
    10ac:	00009f50 	andeq	r9, r0, r0, asr pc
	...
    10b8:	000000e8 	andeq	r0, r0, r8, ror #1
    10bc:	00000114 	andeq	r0, r0, r4, lsl r1
    10c0:	00560001 	subseq	r0, r6, r1
	...
    10cc:	0000f000 	andeq	pc, r0, r0
    10d0:	00010800 	andeq	r0, r1, r0, lsl #16
    10d4:	50000100 	andpl	r0, r0, r0, lsl #2
	...
    10e0:	00fc0000 	rscseq	r0, ip, r0
    10e4:	01140000 	tsteq	r4, r0
    10e8:	00010000 	andeq	r0, r1, r0
    10ec:	00000054 	andeq	r0, r0, r4, asr r0
    10f0:	00000000 	andeq	r0, r0, r0
    10f4:	fc000100 	stc2	1, cr0, [r0], {-0}
    10f8:	14000000 	strne	r0, [r0], #-0
    10fc:	05000001 	streq	r0, [r0, #-1]
    1100:	00743700 	rsbseq	r3, r4, r0, lsl #14
    1104:	00009f24 	andeq	r9, r0, r4, lsr #30
    1108:	00000000 	andeq	r0, r0, r0
    110c:	00020000 	andeq	r0, r2, r0
    1110:	00fc0000 	rscseq	r0, ip, r0
    1114:	01040000 	mrseq	r0, (UNDEF: 4)
    1118:	00090000 	andeq	r0, r9, r0
    111c:	24007437 	strcs	r7, [r0], #-1079	; 0xfffffbc9
    1120:	1a007020 	bne	1d1a8 <__bss_end__+0x135c8>
    1124:	0001049f 	muleq	r1, pc, r4	; <UNPREDICTABLE>
    1128:	00010b00 	andeq	r0, r1, r0, lsl #22
    112c:	51000100 	mrspl	r0, (UNDEF: 16)
	...
    1140:	000000a4 	andeq	r0, r0, r4, lsr #1
    1144:	000000b3 	strheq	r0, [r0], -r3
    1148:	b3500001 	cmplt	r0, #1, 0
    114c:	b8000000 	stmdalt	r0, {}	; <UNPREDICTABLE>
    1150:	04000000 	streq	r0, [r0], #-0
    1154:	5001f300 	andpl	pc, r1, r0, lsl #6
    1158:	0000b89f 	muleq	r0, pc, r8	; <UNPREDICTABLE>
    115c:	0000bb00 	andeq	fp, r0, r0, lsl #22
    1160:	50000100 	andpl	r0, r0, r0, lsl #2
    1164:	000000bb 	strheq	r0, [r0], -fp
    1168:	000000c0 	andeq	r0, r0, r0, asr #1
    116c:	01f30004 	mvnseq	r0, r4
    1170:	00009f50 	andeq	r9, r0, r0, asr pc
	...
    1180:	00a40000 	adceq	r0, r4, r0
    1184:	00b30000 	adcseq	r0, r3, r0
    1188:	00010000 	andeq	r0, r1, r0
    118c:	0000b351 	andeq	fp, r0, r1, asr r3
    1190:	0000b800 	andeq	fp, r0, r0, lsl #16
    1194:	f3000400 	vshl.u8	d0, d0, d0
    1198:	b89f5101 	ldmlt	pc, {r0, r8, ip, lr}	; <UNPREDICTABLE>
    119c:	bb000000 	bllt	11a4 <__code_start__-0x6e5c>
    11a0:	01000000 	mrseq	r0, (UNDEF: 0)
    11a4:	00bb5100 	adcseq	r5, fp, r0, lsl #2
    11a8:	00c00000 	sbceq	r0, r0, r0
    11ac:	00040000 	andeq	r0, r4, r0
    11b0:	9f5101f3 	svcls	0x005101f3
	...
    11c0:	00000080 	andeq	r0, r0, r0, lsl #1
    11c4:	00000098 	muleq	r0, r8, r0
    11c8:	98500001 	ldmdals	r0, {r0}^
    11cc:	a4000000 	strge	r0, [r0], #-0
    11d0:	04000000 	streq	r0, [r0], #-0
    11d4:	5001f300 	andpl	pc, r1, r0, lsl #6
    11d8:	0000009f 	muleq	r0, pc, r0	; <UNPREDICTABLE>
	...
    11e4:	00005c00 	andeq	r5, r0, r0, lsl #24
    11e8:	00007400 	andeq	r7, r0, r0, lsl #8
    11ec:	50000100 	andpl	r0, r0, r0, lsl #2
    11f0:	00000074 	andeq	r0, r0, r4, ror r0
    11f4:	00000080 	andeq	r0, r0, r0, lsl #1
    11f8:	01f30004 	mvnseq	r0, r4
    11fc:	00009f50 	andeq	r9, r0, r0, asr pc
	...
    1210:	0000002c 	andeq	r0, r0, ip, lsr #32
    1214:	2c500001 	mrrccs	0, 0, r0, r0, cr1	; <UNPREDICTABLE>
    1218:	38000000 	stmdacc	r0, {}	; <UNPREDICTABLE>
    121c:	01000000 	mrseq	r0, (UNDEF: 0)
    1220:	00385400 	eorseq	r5, r8, r0, lsl #8
    1224:	005c0000 	subseq	r0, ip, r0
    1228:	00040000 	andeq	r0, r4, r0
    122c:	9f5001f3 	svcls	0x005001f3
	...
    1238:	00280000 	eoreq	r0, r8, r0
    123c:	005c0000 	subseq	r0, ip, r0
    1240:	00010000 	andeq	r0, r1, r0
    1244:	00000056 	andeq	r0, r0, r6, asr r0
    1248:	00000000 	andeq	r0, r0, r0
    124c:	30000000 	andcc	r0, r0, r0
    1250:	44000000 	strmi	r0, [r0], #-0
    1254:	01000000 	mrseq	r0, (UNDEF: 0)
    1258:	00005000 	andeq	r5, r0, r0
	...
    1264:	0000003c 	andeq	r0, r0, ip, lsr r0
    1268:	0000005c 	andeq	r0, r0, ip, asr r0
    126c:	00540001 	subseq	r0, r4, r1
    1270:	00000000 	andeq	r0, r0, r0
    1274:	01000000 	mrseq	r0, (UNDEF: 0)
    1278:	00003c00 	andeq	r3, r0, r0, lsl #24
    127c:	00005c00 	andeq	r5, r0, r0, lsl #24
    1280:	37000500 	strcc	r0, [r0, -r0, lsl #10]
    1284:	9f240074 	svcls	0x00240074
	...
    1290:	00440000 	subeq	r0, r4, r0
    1294:	00500000 	subseq	r0, r0, r0
    1298:	00010000 	andeq	r0, r1, r0
    129c:	00000050 	andeq	r0, r0, r0, asr r0
    12a0:	00000000 	andeq	r0, r0, r0
    12a4:	44000100 	strmi	r0, [r0], #-256	; 0xffffff00
    12a8:	5c000000 	stcpl	0, cr0, [r0], {-0}
    12ac:	05000000 	streq	r0, [r0, #-0]
    12b0:	00743100 	rsbseq	r3, r4, r0, lsl #2
    12b4:	00009f24 	andeq	r9, r0, r4, lsr #30
	...
    12c4:	001c0000 	andseq	r0, ip, r0
    12c8:	00010000 	andeq	r0, r1, r0
    12cc:	00001c51 	andeq	r1, r0, r1, asr ip
    12d0:	00003400 	andeq	r3, r0, r0, lsl #8
    12d4:	f3000400 	vshl.u8	d0, d0, d0
    12d8:	009f5101 	addseq	r5, pc, r1, lsl #2
    12dc:	00000000 	andeq	r0, r0, r0
    12e0:	02000000 	andeq	r0, r0, #0, 0
    12e4:	00000000 	andeq	r0, r0, r0
    12e8:	00000101 	andeq	r0, r0, r1, lsl #2
    12ec:	00000000 	andeq	r0, r0, r0
    12f0:	00000400 	andeq	r0, r0, r0, lsl #8
    12f4:	50000100 	andpl	r0, r0, r0, lsl #2
    12f8:	00000004 	andeq	r0, r0, r4
    12fc:	0000001c 	andeq	r0, r0, ip, lsl r0
    1300:	1c520001 	mrrcne	0, 0, r0, r2, cr1
    1304:	24000000 	strcs	r0, [r0], #-0
    1308:	01000000 	mrseq	r0, (UNDEF: 0)
    130c:	00245300 	eoreq	r5, r4, r0, lsl #6
    1310:	00280000 	eoreq	r0, r8, r0
    1314:	00030000 	andeq	r0, r3, r0
    1318:	289f0173 	ldmcs	pc, {r0, r1, r4, r5, r6, r8}	; <UNPREDICTABLE>
    131c:	34000000 	strcc	r0, [r0], #-0
    1320:	01000000 	mrseq	r0, (UNDEF: 0)
    1324:	00005300 	andeq	r5, r0, r0, lsl #6
    1328:	00000000 	andeq	r0, r0, r0
    132c:	00030000 	andeq	r0, r3, r0
    1330:	00000000 	andeq	r0, r0, r0
    1334:	00240000 	eoreq	r0, r4, r0
    1338:	00010000 	andeq	r0, r1, r0
    133c:	00002451 	andeq	r2, r0, r1, asr r4
    1340:	00003400 	andeq	r3, r0, r0, lsl #8
    1344:	71000300 	mrsvc	r0, LR_irq
    1348:	00009f7f 	andeq	r9, r0, pc, ror pc
	...
    1354:	00100000 	andseq	r0, r0, r0
    1358:	001c0000 	andseq	r0, ip, r0
    135c:	00010000 	andeq	r0, r1, r0
    1360:	0000245c 	andeq	r2, r0, ip, asr r4
    1364:	00003400 	andeq	r3, r0, r0, lsl #8
    1368:	52000100 	andpl	r0, r0, #0
	...
    137c:	00000018 	andeq	r0, r0, r8, lsl r0
    1380:	18500001 	ldmdane	r0, {r0}^
    1384:	24000000 	strcs	r0, [r0], #-0
    1388:	01000000 	mrseq	r0, (UNDEF: 0)
    138c:	00005000 	andeq	r5, r0, r0
	...
    139c:	001c0000 	andseq	r0, ip, r0
    13a0:	00010000 	andeq	r0, r1, r0
    13a4:	00001c51 	andeq	r1, r0, r1, asr ip
    13a8:	00002c00 	andeq	r2, r0, r0, lsl #24
    13ac:	51000100 	mrspl	r0, (UNDEF: 16)
	...
    13c0:	00040000 	andeq	r0, r4, r0
    13c4:	00010000 	andeq	r0, r1, r0
    13c8:	00000451 	andeq	r0, r0, r1, asr r4
    13cc:	00000c00 	andeq	r0, r0, r0, lsl #24
    13d0:	51000100 	mrspl	r0, (UNDEF: 16)
    13d4:	0000000c 	andeq	r0, r0, ip
    13d8:	00000020 	andeq	r0, r0, r0, lsr #32
    13dc:	7f710003 	svcvc	0x00710003
    13e0:	0000009f 	muleq	r0, pc, r0	; <UNPREDICTABLE>
    13e4:	00000000 	andeq	r0, r0, r0
    13e8:	00000200 	andeq	r0, r0, r0, lsl #4
    13ec:	00000000 	andeq	r0, r0, r0
    13f0:	04000000 	streq	r0, [r0], #-0
    13f4:	01000000 	mrseq	r0, (UNDEF: 0)
    13f8:	00045000 	andeq	r5, r4, r0
    13fc:	00140000 	andseq	r0, r4, r0
    1400:	00010000 	andeq	r0, r1, r0
    1404:	0000145c 	andeq	r1, r0, ip, asr r4
    1408:	00002000 	andeq	r2, r0, r0
    140c:	7c000300 	stcvc	3, cr0, [r0], {-0}
    1410:	00009f7f 	andeq	r9, r0, pc, ror pc
    1414:	00000000 	andeq	r0, r0, r0
    1418:	03000000 	movweq	r0, #0
    141c:	92b00003 	adcsls	r0, r0, #3, 0
    1420:	92b00000 	adcsls	r0, r0, #0, 0
    1424:	00010000 	andeq	r0, r1, r0
    1428:	0092b050 	addseq	fp, r2, r0, asr r0
    142c:	0092dc00 	addseq	sp, r2, r0, lsl #24
    1430:	f3000400 	vshl.u8	d0, d0, d0
    1434:	009f5001 	addseq	r5, pc, r1
	...
    1440:	b0000303 	andlt	r0, r0, r3, lsl #6
    1444:	b0000092 	mullt	r0, r2, r0
    1448:	01000092 	swpeq	r0, r2, [r0]	; <UNPREDICTABLE>
    144c:	92b05100 	adcsls	r5, r0, #0
    1450:	92dc0000 	sbcsls	r0, ip, #0, 0
    1454:	00040000 	andeq	r0, r4, r0
    1458:	9f5101f3 	svcls	0x005101f3
	...
    1464:	00030300 	andeq	r0, r3, r0, lsl #6
    1468:	92b00000 	adcsls	r0, r0, #0, 0
    146c:	92b00000 	adcsls	r0, r0, #0, 0
    1470:	00010000 	andeq	r0, r1, r0
    1474:	0092b052 	addseq	fp, r2, r2, asr r0
    1478:	0092b800 	addseq	fp, r2, r0, lsl #16
    147c:	52000100 	andpl	r0, r0, #0
    1480:	000092b8 			; <UNDEFINED> instruction: 0x000092b8
    1484:	000092dc 	ldrdeq	r9, [r0], -ip
    1488:	01720003 	cmneq	r2, r3
    148c:	0000009f 	muleq	r0, pc, r0	; <UNPREDICTABLE>
    1490:	00000000 	andeq	r0, r0, r0
    1494:	01010200 	mrseq	r0, R9_usr
    1498:	00000000 	andeq	r0, r0, r0
    149c:	0092b000 	addseq	fp, r2, r0
    14a0:	0092bc00 	addseq	fp, r2, r0, lsl #24
    14a4:	50000100 	andpl	r0, r0, r0, lsl #2
    14a8:	000092bc 			; <UNDEFINED> instruction: 0x000092bc
    14ac:	000092c0 	andeq	r9, r0, r0, asr #5
    14b0:	01700003 	cmneq	r0, r3
    14b4:	0092c09f 	umullseq	ip, r2, pc, r0	; <UNPREDICTABLE>
    14b8:	0092d000 	addseq	sp, r2, r0
    14bc:	50000100 	andpl	r0, r0, r0, lsl #2
    14c0:	000092d4 	ldrdeq	r9, [r0], -r4
    14c4:	000092d8 	ldrdeq	r9, [r0], -r8
    14c8:	00500001 	subseq	r0, r0, r1
    14cc:	00000000 	andeq	r0, r0, r0
    14d0:	02000000 	andeq	r0, r0, #0, 0
    14d4:	00000000 	andeq	r0, r0, r0
    14d8:	0092b000 	addseq	fp, r2, r0
    14dc:	0092c000 	addseq	ip, r2, r0
    14e0:	51000100 	mrspl	r0, (UNDEF: 16)
    14e4:	000092c0 	andeq	r9, r0, r0, asr #5
    14e8:	000092c4 	andeq	r9, r0, r4, asr #5
    14ec:	01710003 	cmneq	r1, r3
    14f0:	0092c49f 	umullseq	ip, r2, pc, r4	; <UNPREDICTABLE>
    14f4:	0092dc00 	addseq	sp, r2, r0, lsl #24
    14f8:	51000100 	mrspl	r0, (UNDEF: 16)
	...

Disassembly of section .debug_aranges:

00000000 <.debug_aranges>:
   0:	0000001c 	andeq	r0, r0, ip, lsl r0
   4:	00000002 	andeq	r0, r0, r2
   8:	00040000 	andeq	r0, r4, r0
   c:	00000000 	andeq	r0, r0, r0
  10:	00008020 	andeq	r8, r0, r0, lsr #32
  14:	0000027c 	andeq	r0, r0, ip, ror r2
	...
  20:	0000001c 	andeq	r0, r0, ip, lsl r0
  24:	05d10002 	ldrbeq	r0, [r1, #2]
  28:	00040000 	andeq	r0, r4, r0
  2c:	00000000 	andeq	r0, r0, r0
  30:	0000829c 	muleq	r0, ip, r2
  34:	000002fc 	strdeq	r0, [r0], -ip
	...
  40:	0000001c 	andeq	r0, r0, ip, lsl r0
  44:	0d160002 	ldceq	0, cr0, [r6, #-8]
  48:	00040000 	andeq	r0, r4, r0
  4c:	00000000 	andeq	r0, r0, r0
  50:	00008598 	muleq	r0, r8, r5
  54:	00000058 	andeq	r0, r0, r8, asr r0
	...
  60:	0000001c 	andeq	r0, r0, ip, lsl r0
  64:	0eb70002 	cdpeq	0, 11, cr0, cr7, cr2, {0}
  68:	00040000 	andeq	r0, r4, r0
  6c:	00000000 	andeq	r0, r0, r0
  70:	000085f0 	strdeq	r8, [r0], -r0
  74:	0000003c 	andeq	r0, r0, ip, lsr r0
	...
  80:	0000001c 	andeq	r0, r0, ip, lsl r0
  84:	10040002 	andne	r0, r4, r2
  88:	00040000 	andeq	r0, r4, r0
  8c:	00000000 	andeq	r0, r0, r0
  90:	0000862c 	andeq	r8, r0, ip, lsr #12
  94:	00000034 	andeq	r0, r0, r4, lsr r0
	...
  a0:	0000001c 	andeq	r0, r0, ip, lsl r0
  a4:	10fb0002 	rscsne	r0, fp, r2
  a8:	00040000 	andeq	r0, r4, r0
  ac:	00000000 	andeq	r0, r0, r0
  b0:	00008660 	andeq	r8, r0, r0, ror #12
  b4:	00000720 	andeq	r0, r0, r0, lsr #14
	...
  c0:	0000001c 	andeq	r0, r0, ip, lsl r0
  c4:	1b940002 	blne	fe5000d4 <__bss_end__+0xfe4f64f4>
  c8:	00040000 	andeq	r0, r4, r0
  cc:	00000000 	andeq	r0, r0, r0
  d0:	00008d80 	andeq	r8, r0, r0, lsl #27
  d4:	0000002c 	andeq	r0, r0, ip, lsr #32
	...
  e0:	0000001c 	andeq	r0, r0, ip, lsl r0
  e4:	1cc70002 	stclne	0, cr0, [r7], {2}
  e8:	00040000 	andeq	r0, r4, r0
  ec:	00000000 	andeq	r0, r0, r0
  f0:	00008dac 	andeq	r8, r0, ip, lsr #27
  f4:	0000002c 	andeq	r0, r0, ip, lsr #32
	...
 100:	0000001c 	andeq	r0, r0, ip, lsl r0
 104:	1e0e0002 	cdpne	0, 0, cr0, cr14, cr2, {0}
 108:	00040000 	andeq	r0, r4, r0
 10c:	00000000 	andeq	r0, r0, r0
 110:	00008dd8 	ldrdeq	r8, [r0], -r8	; <UNPREDICTABLE>
 114:	0000007c 	andeq	r0, r0, ip, ror r0
	...
 120:	0000001c 	andeq	r0, r0, ip, lsl r0
 124:	20320002 	eorscs	r0, r2, r2
 128:	00040000 	andeq	r0, r4, r0
 12c:	00000000 	andeq	r0, r0, r0
 130:	00008e54 	andeq	r8, r0, r4, asr lr
 134:	00000084 	andeq	r0, r0, r4, lsl #1
	...
 140:	0000001c 	andeq	r0, r0, ip, lsl r0
 144:	22830002 	addcs	r0, r3, #2, 0
 148:	00040000 	andeq	r0, r4, r0
 14c:	00000000 	andeq	r0, r0, r0
 150:	00008ed8 	ldrdeq	r8, [r0], -r8	; <UNPREDICTABLE>
 154:	000001ac 	andeq	r0, r0, ip, lsr #3
	...
 160:	0000001c 	andeq	r0, r0, ip, lsl r0
 164:	27ef0002 	strbcs	r0, [pc, r2]!
 168:	00040000 	andeq	r0, r4, r0
 16c:	00000000 	andeq	r0, r0, r0
 170:	00009084 	andeq	r9, r0, r4, lsl #1
 174:	000001ac 	andeq	r0, r0, ip, lsr #3
	...
 180:	0000001c 	andeq	r0, r0, ip, lsl r0
 184:	2d170002 	ldccs	0, cr0, [r7, #-8]
 188:	00040000 	andeq	r0, r4, r0
 18c:	00000000 	andeq	r0, r0, r0
 190:	00009230 	andeq	r9, r0, r0, lsr r2
 194:	00000034 	andeq	r0, r0, r4, lsr r0
	...
 1a0:	0000001c 	andeq	r0, r0, ip, lsl r0
 1a4:	2e520002 	cdpcs	0, 5, cr0, cr2, cr2, {0}
 1a8:	00040000 	andeq	r0, r4, r0
 1ac:	00000000 	andeq	r0, r0, r0
 1b0:	00009264 	andeq	r9, r0, r4, ror #4
 1b4:	0000002c 	andeq	r0, r0, ip, lsr #32
	...
 1c0:	0000001c 	andeq	r0, r0, ip, lsl r0
 1c4:	2f4d0002 	svccs	0x004d0002
 1c8:	00040000 	andeq	r0, r4, r0
 1cc:	00000000 	andeq	r0, r0, r0
 1d0:	00009290 	muleq	r0, r0, r2
 1d4:	00000020 	andeq	r0, r0, r0, lsr #32
	...
 1e0:	0000001c 	andeq	r0, r0, ip, lsl r0
 1e4:	30600002 	rsbcc	r0, r0, r2
 1e8:	00040000 	andeq	r0, r4, r0
 1ec:	00000000 	andeq	r0, r0, r0
 1f0:	000092b0 			; <UNDEFINED> instruction: 0x000092b0
 1f4:	0000002c 	andeq	r0, r0, ip, lsr #32
	...

Disassembly of section .debug_ranges:

00000000 <.debug_ranges>:
   0:	000000d4 	ldrdeq	r0, [r0], -r4
   4:	000000d4 	ldrdeq	r0, [r0], -r4
   8:	000000d8 	ldrdeq	r0, [r0], -r8
   c:	00000138 	andeq	r0, r0, r8, lsr r1
	...
  18:	000000e4 	andeq	r0, r0, r4, ror #1
  1c:	00000100 	andeq	r0, r0, r0, lsl #2
  20:	00000108 	andeq	r0, r0, r8, lsl #2
  24:	00000138 	andeq	r0, r0, r8, lsr r1
	...
  30:	00000020 	andeq	r0, r0, r0, lsr #32
  34:	00000020 	andeq	r0, r0, r0, lsr #32
  38:	00000020 	andeq	r0, r0, r0, lsr #32
  3c:	00000028 	andeq	r0, r0, r8, lsr #32
	...
  48:	000001fc 	strdeq	r0, [r0], -ip
  4c:	000001fc 	strdeq	r0, [r0], -ip
  50:	000001fc 	strdeq	r0, [r0], -ip
  54:	00000204 	andeq	r0, r0, r4, lsl #4
	...
  60:	0000024c 	andeq	r0, r0, ip, asr #4
  64:	0000024c 	andeq	r0, r0, ip, asr #4
  68:	0000024c 	andeq	r0, r0, ip, asr #4
  6c:	00000254 	andeq	r0, r0, r4, asr r2
	...
  78:	00008dd8 	ldrdeq	r8, [r0], -r8	; <UNPREDICTABLE>
  7c:	00008e54 	andeq	r8, r0, r4, asr lr
	...
  88:	000092b0 			; <UNDEFINED> instruction: 0x000092b0
  8c:	000092dc 	ldrdeq	r9, [r0], -ip
	...

Disassembly of section .debug_line:

00000000 <.debug_line>:
       0:	000002b3 			; <UNDEFINED> instruction: 0x000002b3
       4:	00570003 	subseq	r0, r7, r3
       8:	01020000 	mrseq	r0, (UNDEF: 2)
       c:	000d0efb 	strdeq	r0, [sp], -fp
      10:	01010101 	tsteq	r1, r1, lsl #2
      14:	01000000 	mrseq	r0, (UNDEF: 0)
      18:	2f010000 	svccs	0x00010000
      1c:	72657355 	rsbvc	r7, r5, #1409286145	; 0x54000001
      20:	64612f73 	strbtvs	r2, [r1], #-3955	; 0xfffff08d
      24:	2f6e696d 	svccs	0x006e696d
      28:	342d5343 	strtcc	r5, [sp], #-835	; 0xfffffcbd
      2c:	632f4e39 			; <UNDEFINED> instruction: 0x632f4e39
      30:	6e393473 	mrcvs	4, 1, r3, cr9, cr3, {3}
      34:	6131322d 	teqvs	r1, sp, lsr #4
      38:	2f2f7475 	svccs	0x002f7475
      3c:	7062696c 	rsbvc	r6, r2, ip, ror #18
      40:	6e692f69 	cdpvs	15, 6, cr2, cr9, cr9, {3}
      44:	64756c63 	ldrbtvs	r6, [r5], #-3171	; 0xfffff39d
      48:	35000065 	strcc	r0, [r0, #-101]	; 0xffffff9b
      4c:	7365742d 	cmnvc	r5, #754974720	; 0x2d000000
      50:	00632e74 	rsbeq	r2, r3, r4, ror lr
      54:	72000000 	andvc	r0, r0, #0, 0
      58:	682e6970 	stmdavs	lr!, {r4, r5, r6, r8, fp, sp, lr}
      5c:	00000100 	andeq	r0, r0, r0, lsl #2
      60:	00100500 	andseq	r0, r0, r0, lsl #10
      64:	80200205 	eorhi	r0, r0, r5, lsl #4
      68:	05150000 	ldreq	r0, [r5, #-0]
      6c:	01304b05 	teqeq	r0, r5, lsl #22
      70:	4b134a66 	blmi	4d2a10 <__bss_end__+0x4c8e30>
      74:	14824a01 	strne	r4, [r2], #2561	; 0xa01
      78:	01061305 	tsteq	r6, r5, lsl #6
      7c:	4b060505 	blmi	181498 <__bss_end__+0x1778b8>
      80:	04020001 	streq	r0, [r2], #-1
      84:	02004a01 	andeq	r4, r0, #4096	; 0x1000
      88:	00010104 	andeq	r0, r1, r4, lsl #2
      8c:	06010402 	streq	r0, [r1], -r2, lsl #8
      90:	040200ba 	streq	r0, [r2], #-186	; 0xffffff46
      94:	002e0601 	eoreq	r0, lr, r1, lsl #12
      98:	06010402 	streq	r0, [r1], -r2, lsl #8
      9c:	0402002e 	streq	r0, [r2], #-46	; 0xffffffd2
      a0:	002e0602 	eoreq	r0, lr, r2, lsl #12
      a4:	01020402 	tsteq	r2, r2, lsl #8
      a8:	02040200 	andeq	r0, r4, #0, 4
      ac:	04020015 	streq	r0, [r2], #-21	; 0xffffffeb
      b0:	02001302 	andeq	r1, r0, #134217728	; 0x8000000
      b4:	00010204 	andeq	r0, r1, r4, lsl #4
      b8:	06020402 	streq	r0, [r2], -r2, lsl #8
      bc:	0402002e 	streq	r0, [r2], #-46	; 0xffffffd2
      c0:	002e0602 	eoreq	r0, lr, r2, lsl #12
      c4:	66020402 	strvs	r0, [r2], -r2, lsl #8
      c8:	02040200 	andeq	r0, r4, #0, 4
      cc:	00090513 	andeq	r0, r9, r3, lsl r5
      d0:	01020402 	tsteq	r2, r2, lsl #8
      d4:	02001205 	andeq	r1, r0, #1342177280	; 0x50000000
      d8:	01060204 	tsteq	r6, r4, lsl #4
      dc:	02000505 	andeq	r0, r0, #20971520	; 0x1400000
      e0:	052e0204 	streq	r0, [lr, #-516]!	; 0xfffffdfc
      e4:	04020009 	streq	r0, [r2], #-9
      e8:	052f0603 	streq	r0, [pc, #-1539]!	; fffffaed <__bss_end__+0xffff5f0d>
      ec:	04020017 	streq	r0, [r2], #-23	; 0xffffffe9
      f0:	05010603 	streq	r0, [r1, #-1539]	; 0xfffff9fd
      f4:	04020009 	streq	r0, [r2], #-9
      f8:	00680603 	rsbeq	r0, r8, r3, lsl #12
      fc:	01030402 	tsteq	r3, r2, lsl #8
     100:	03040200 	movweq	r0, #16896	; 0x4200
     104:	02002e06 	andeq	r2, r0, #96	; 0x60
     108:	2e060304 	cdpcs	3, 0, cr0, cr6, cr4, {0}
     10c:	03040200 	movweq	r0, #16896	; 0x4200
     110:	04020066 	streq	r0, [r2], #-102	; 0xffffff9a
     114:	23051403 	movwcs	r1, #21507	; 0x5403
     118:	03040200 	movweq	r0, #16896	; 0x4200
     11c:	1f050106 	svcne	0x00050106
     120:	03040200 	movweq	r0, #16896	; 0x4200
     124:	0029052e 	eoreq	r0, r9, lr, lsr #10
     128:	2e030402 	cdpcs	4, 0, cr0, cr3, cr2, {0}
     12c:	02001205 	andeq	r1, r0, #1342177280	; 0x50000000
     130:	052e0304 	streq	r0, [lr, #-772]!	; 0xfffffcfc
     134:	04020009 	streq	r0, [r2], #-9
     138:	052f0603 	streq	r0, [pc, #-1539]!	; fffffb3d <__bss_end__+0xffff5f5d>
     13c:	0402000c 	streq	r0, [r2], #-12
     140:	05010603 	streq	r0, [r1, #-1539]	; 0xfffff9fd
     144:	04020021 	streq	r0, [r2], #-33	; 0xffffffdf
     148:	7a030603 	bvc	c195c <__bss_end__+0xb7d7c>
     14c:	0022052e 	eoreq	r0, r2, lr, lsr #10
     150:	06030402 	streq	r0, [r3], -r2, lsl #8
     154:	00190501 	andseq	r0, r9, r1, lsl #10
     158:	06010402 	streq	r0, [r1], -r2, lsl #8
     15c:	0005052e 	andeq	r0, r5, lr, lsr #10
     160:	06010402 	streq	r0, [r1], -r2, lsl #8
     164:	0a030601 	beq	c1970 <__bss_end__+0xb7d90>
     168:	060f054a 	streq	r0, [pc], -sl, asr #10
     16c:	06050501 	streq	r0, [r5], -r1, lsl #10
     170:	0109052f 	tsteq	r9, pc, lsr #10
     174:	0f050106 	svceq	0x00050106
     178:	2f120511 	svccs	0x00120511
     17c:	02001905 	andeq	r1, r0, #81920	; 0x14000
     180:	2e060204 	cdpcs	2, 0, cr0, cr6, cr4, {0}
     184:	02000505 	andeq	r0, r0, #20971520	; 0x1400000
     188:	01060204 	tsteq	r6, r4, lsl #4
     18c:	4b060905 	blmi	1825a8 <__bss_end__+0x1789c8>
     190:	01062305 	tsteq	r6, r5, lsl #6
     194:	052e1f05 	streq	r1, [lr, #-3845]!	; 0xfffff0fb
     198:	12052e29 	andne	r2, r5, #656	; 0x290
     19c:	0609052e 	streq	r0, [r9], -lr, lsr #10
     1a0:	02000130 	andeq	r0, r0, #12
     1a4:	004a0204 	subeq	r0, sl, r4, lsl #4
     1a8:	13020402 	movwne	r0, #9218	; 0x2402
     1ac:	02000b05 	andeq	r0, r0, #5120	; 0x1400
     1b0:	01060204 	tsteq	r6, r4, lsl #4
     1b4:	02040200 	andeq	r0, r4, #0, 4
     1b8:	0021052e 	eoreq	r0, r1, lr, lsr #10
     1bc:	06020402 	streq	r0, [r2], -r2, lsl #8
     1c0:	0022050e 	eoreq	r0, r2, lr, lsl #10
     1c4:	06020402 	streq	r0, [r2], -r2, lsl #8
     1c8:	04020001 	streq	r0, [r2], #-1
     1cc:	09052e02 	stmdbeq	r5, {r1, r9, sl, fp, sp}
     1d0:	01040200 	mrseq	r0, R12_usr
     1d4:	02003106 	andeq	r3, r0, #-2147483647	; 0x80000001
     1d8:	002e0104 	eoreq	r0, lr, r4, lsl #2
     1dc:	08010402 	stmdaeq	r1, {r1, sl}
     1e0:	0402003c 	streq	r0, [r2], #-60	; 0xffffffc4
     1e4:	052e0601 	streq	r0, [lr, #-1537]!	; 0xfffff9ff
     1e8:	05160605 	ldreq	r0, [r6, #-1541]	; 0xfffff9fb
     1ec:	0501060f 	streq	r0, [r1, #-1551]	; 0xfffff9f1
     1f0:	01670605 	cmneq	r7, r5, lsl #12
     1f4:	01040200 	mrseq	r0, R12_usr
     1f8:	0402004a 	streq	r0, [r2], #-74	; 0xffffffb6
     1fc:	02002e01 	andeq	r2, r0, #1, 28
     200:	00d60104 	sbcseq	r0, r6, r4, lsl #2
     204:	2e020402 	cdpcs	4, 0, cr0, cr2, cr2, {0}
     208:	02040200 	andeq	r0, r4, #0, 4
     20c:	04020014 	streq	r0, [r2], #-20	; 0xffffffec
     210:	13053002 	movwne	r3, #20482	; 0x5002
     214:	02040200 	andeq	r0, r4, #0, 4
     218:	05050106 	streq	r0, [r5, #-262]	; 0xfffffefa
     21c:	02040200 	andeq	r0, r4, #0, 4
     220:	02006706 	andeq	r6, r0, #1572864	; 0x180000
     224:	00010204 	andeq	r0, r1, r4, lsl #4
     228:	06020402 	streq	r0, [r2], -r2, lsl #8
     22c:	0402002e 	streq	r0, [r2], #-46	; 0xffffffd2
     230:	002e0602 	eoreq	r0, lr, r2, lsl #12
     234:	66020402 	strvs	r0, [r2], -r2, lsl #8
     238:	02040200 	andeq	r0, r4, #0, 4
     23c:	04020013 	streq	r0, [r2], #-19	; 0xffffffed
     240:	02000102 	andeq	r0, r0, #-2147483648	; 0x80000000
     244:	004a0104 	subeq	r0, sl, r4, lsl #2
     248:	01010402 	tsteq	r1, r2, lsl #8
     24c:	01040200 	mrseq	r0, R12_usr
     250:	040200d6 	streq	r0, [r2], #-214	; 0xffffff2a
     254:	02002e02 	andeq	r2, r0, #2, 28
     258:	00010204 	andeq	r0, r1, r4, lsl #4
     25c:	14020402 	strne	r0, [r2], #-1026	; 0xfffffbfe
     260:	02040200 	andeq	r0, r4, #0, 4
     264:	04020001 	streq	r0, [r2], #-1
     268:	02004a01 	andeq	r4, r0, #4096	; 0x1000
     26c:	002e0104 	eoreq	r0, lr, r4, lsl #2
     270:	d6010402 	strle	r0, [r1], -r2, lsl #8
     274:	02040200 	andeq	r0, r4, #0, 4
     278:	0402002e 	streq	r0, [r2], #-46	; 0xffffffd2
     27c:	02001302 	andeq	r1, r0, #134217728	; 0x8000000
     280:	00010204 	andeq	r0, r1, r4, lsl #4
     284:	82010402 	andhi	r0, r1, #33554432	; 0x2000000
     288:	01040200 	mrseq	r0, R12_usr
     28c:	0402002e 	streq	r0, [r2], #-46	; 0xffffffd2
     290:	0200d601 	andeq	sp, r0, #1048576	; 0x100000
     294:	002e0204 	eoreq	r0, lr, r4, lsl #4
     298:	14020402 	strne	r0, [r2], #-1026	; 0xfffffbfe
     29c:	02040200 	andeq	r0, r4, #0, 4
     2a0:	04020001 	streq	r0, [r2], #-1
     2a4:	02004a02 	andeq	r4, r0, #8192	; 0x2000
     2a8:	054a0204 	strbeq	r0, [sl, #-516]	; 0xfffffdfc
     2ac:	04020002 	streq	r0, [r2], #-2
     2b0:	28021302 	stmdacs	r2, {r1, r8, r9, ip}
     2b4:	ce010100 	adfgts	f0, f1, f0
     2b8:	03000002 	movweq	r0, #2
     2bc:	00005800 	andeq	r5, r0, r0, lsl #16
     2c0:	fb010200 	blx	40aca <__bss_end__+0x36eea>
     2c4:	01000d0e 	tsteq	r0, lr, lsl #26
     2c8:	00010101 	andeq	r0, r1, r1, lsl #2
     2cc:	00010000 	andeq	r0, r1, r0
     2d0:	552f0100 	strpl	r0, [pc, #-256]!	; 1d8 <__code_start__-0x7e28>
     2d4:	73726573 	cmnvc	r2, #482344960	; 0x1cc00000
     2d8:	6d64612f 	stfvse	f6, [r4, #-188]!	; 0xffffff44
     2dc:	432f6e69 			; <UNDEFINED> instruction: 0x432f6e69
     2e0:	39342d53 	ldmdbcc	r4!, {r0, r1, r4, r6, r8, sl, fp, sp}
     2e4:	73632f4e 	cmnvc	r3, #312	; 0x138
     2e8:	2d6e3934 			; <UNDEFINED> instruction: 0x2d6e3934
     2ec:	75613132 	strbvc	r3, [r1, #-306]!	; 0xfffffece
     2f0:	6c2f2f74 	stcvs	15, cr2, [pc], #-464	; 128 <__code_start__-0x7ed8>
     2f4:	69706269 	ldmdbvs	r0!, {r0, r3, r5, r6, r9, sp, lr}^
     2f8:	636e692f 	cmnvs	lr, #770048	; 0xbc000
     2fc:	6564756c 	strbvs	r7, [r4, #-1388]!	; 0xfffffa94
     300:	6d6b0000 	stclvs	0, cr0, [fp, #-0]
     304:	6f6c6c61 	svcvs	0x006c6c61
     308:	00632e63 	rsbeq	r2, r3, r3, ror #28
     30c:	72000000 	andvc	r0, r0, #0, 0
     310:	682e6970 	stmdavs	lr!, {r4, r5, r6, r8, fp, sp, lr}
     314:	00000100 	andeq	r0, r0, r0, lsl #2
     318:	00200500 	eoreq	r0, r0, r0, lsl #10
     31c:	829c0205 	addshi	r0, ip, #1342177280	; 0x50000000
     320:	33030000 	movwcc	r0, #12288	; 0x3000
     324:	05010601 	streq	r0, [r1, #-1537]	; 0xfffff9ff
     328:	014b0605 	cmpeq	fp, r5, lsl #12
     32c:	02002e06 	andeq	r2, r0, #96	; 0x60
     330:	2e060204 	cdpcs	2, 0, cr0, cr6, cr4, {0}
     334:	02040200 	andeq	r0, r4, #0, 4
     338:	04020001 	streq	r0, [r2], #-1
     33c:	02001302 	andeq	r1, r0, #134217728	; 0x8000000
     340:	82010204 	andhi	r0, r1, #4, 4	; 0x40000000
     344:	03180513 	tsteq	r8, #79691776	; 0x4c00000
     348:	0505016b 	streq	r0, [r5, #-363]	; 0xfffffe95
     34c:	01060113 	tsteq	r6, r3, lsl r1
     350:	01150f06 	tsteq	r5, r6, lsl #30
     354:	060e0513 			; <UNDEFINED> instruction: 0x060e0513
     358:	2e160501 	cfmul32cs	mvfx0, mvfx6, mvfx1
     35c:	0605052e 	streq	r0, [r5], -lr, lsr #10
     360:	05011403 	streq	r1, [r1, #-1027]	; 0xfffffbfd
     364:	0501060e 	streq	r0, [r1, #-1550]	; 0xfffff9f2
     368:	054b0605 	strbeq	r0, [fp, #-1541]	; 0xfffff9fb
     36c:	2e01060a 	cfmadd32cs	mvax0, mvfx0, mvfx1, mvfx10
     370:	2f060505 	svccs	0x00060505
     374:	03180501 	tsteq	r8, #4194304	; 0x400000
     378:	0505015f 	streq	r0, [r5, #-351]	; 0xfffffea1
     37c:	03010613 	movweq	r0, #5651	; 0x1613
     380:	02000120 	andeq	r0, r0, #8
     384:	4a060204 	bmi	180b9c <__bss_end__+0x176fbc>
     388:	02040200 	andeq	r0, r4, #0, 4
     38c:	04020001 	streq	r0, [r2], #-1
     390:	01051302 	tsteq	r5, r2, lsl #6
     394:	02040200 	andeq	r0, r4, #0, 4
     398:	05051306 	streq	r1, [r5, #-774]	; 0xfffffcfa
     39c:	01040200 	mrseq	r0, R12_usr
     3a0:	4a790306 	bmi	1e40fc0 <__bss_end__+0x1e373e0>
     3a4:	01040200 	mrseq	r0, R12_usr
     3a8:	04020001 	streq	r0, [r2], #-1
     3ac:	00ba0601 	adcseq	r0, sl, r1, lsl #12
     3b0:	06010402 	streq	r0, [r1], -r2, lsl #8
     3b4:	0402002e 	streq	r0, [r2], #-46	; 0xffffffd2
     3b8:	02002f01 	andeq	r2, r0, #1, 30
     3bc:	002e0104 	eoreq	r0, lr, r4, lsl #2
     3c0:	d6010402 	strle	r0, [r1], -r2, lsl #8
     3c4:	01040200 	mrseq	r0, R12_usr
     3c8:	04020032 	streq	r0, [r2], #-50	; 0xffffffce
     3cc:	02000101 	andeq	r0, r0, #1073741824	; 0x40000000
     3d0:	ba060104 	blt	1807e8 <__bss_end__+0x176c08>
     3d4:	01040200 	mrseq	r0, R12_usr
     3d8:	3c052e06 	stccc	14, cr2, [r5], {6}
     3dc:	01064408 	tsteq	r6, r8, lsl #8
     3e0:	4b060505 	blmi	1817fc <__bss_end__+0x177c1c>
     3e4:	04020001 	streq	r0, [r2], #-1
     3e8:	02004a02 	andeq	r4, r0, #8192	; 0x2000
     3ec:	00010204 	andeq	r0, r1, r4, lsl #4
     3f0:	13020402 	movwne	r0, #9218	; 0x2402
     3f4:	02040200 	andeq	r0, r4, #0, 4
     3f8:	01138201 	tsteq	r3, r1, lsl #4
     3fc:	5a031805 	bpl	c6418 <__bss_end__+0xbc838>
     400:	13050501 	movwne	r0, #21761	; 0x5501
     404:	01061105 	tsteq	r6, r5, lsl #2
     408:	0305052e 	movweq	r0, #21806	; 0x552e
     40c:	02000125 	andeq	r0, r0, #1073741833	; 0x40000009
     410:	4a060204 	bmi	180c28 <__bss_end__+0x177048>
     414:	02040200 	andeq	r0, r4, #0, 4
     418:	00070514 	andeq	r0, r7, r4, lsl r5
     41c:	06020402 	streq	r0, [r2], -r2, lsl #8
     420:	06050501 	streq	r0, [r5], -r1, lsl #10
     424:	1805014d 	stmdane	r5, {r0, r2, r3, r6, r8}
     428:	054a4f03 	strbeq	r4, [sl, #-3843]	; 0xfffff0fd
     42c:	19051305 	stmdbne	r5, {r0, r2, r8, r9, ip}
     430:	052e0106 	streq	r0, [lr, #-262]!	; 0xfffffefa
     434:	01300305 	teqeq	r0, r5, lsl #6
     438:	054c0105 	strbeq	r0, [ip, #-261]	; 0xfffffefb
     43c:	04020005 	streq	r0, [r2], #-5
     440:	77030601 	strvc	r0, [r3, -r1, lsl #12]
     444:	0402004a 	streq	r0, [r2], #-74	; 0xffffffb6
     448:	02000101 	andeq	r0, r0, #1073741824	; 0x40000000
     44c:	9e060104 	adflss	f0, f6, f4
     450:	01040200 	mrseq	r0, R12_usr
     454:	0402002e 	streq	r0, [r2], #-46	; 0xffffffd2
     458:	002e0601 	eoreq	r0, lr, r1, lsl #12
     45c:	2f010402 	svccs	0x00010402
     460:	01040200 	mrseq	r0, R12_usr
     464:	0402002e 	streq	r0, [r2], #-46	; 0xffffffd2
     468:	0200d601 	andeq	sp, r0, #1048576	; 0x100000
     46c:	002f0104 	eoreq	r0, pc, r4, lsl #2
     470:	2e010402 	cdpcs	4, 0, cr0, cr1, cr2, {0}
     474:	01040200 	mrseq	r0, R12_usr
     478:	310905d6 	ldrdcc	r0, [r9, -r6]
     47c:	01061005 	tsteq	r6, r5
     480:	0005052e 	andeq	r0, r5, lr, lsr #10
     484:	06010402 	streq	r0, [r1], -r2, lsl #8
     488:	04020030 	streq	r0, [r2], #-48	; 0xffffffd0
     48c:	02000101 	andeq	r0, r0, #1073741824	; 0x40000000
     490:	05d60104 	ldrbeq	r0, [r6, #260]	; 0x104
     494:	080c0319 	stmdaeq	ip, {r0, r3, r4, r8, r9}
     498:	13050574 	movwne	r0, #21876	; 0x5574
     49c:	01060805 	tsteq	r6, r5, lsl #16
     4a0:	054a0705 	strbeq	r0, [sl, #-1797]	; 0xfffff8fb
     4a4:	05054919 	streq	r4, [r5, #-2329]	; 0xfffff6e7
     4a8:	0c053106 	stfeqs	f3, [r5], {6}
     4ac:	05050106 	streq	r0, [r5, #-262]	; 0xfffffefa
     4b0:	18056706 	stmdane	r5, {r1, r2, r8, r9, sl, sp, lr}
     4b4:	05014803 	streq	r4, [r1, #-2051]	; 0xfffff7fd
     4b8:	06011305 	streq	r1, [r1], -r5, lsl #6
     4bc:	150f0601 	strne	r0, [pc, #-1537]	; fffffec3 <__bss_end__+0xffff62e3>
     4c0:	0e051301 	cdpeq	3, 0, cr1, cr5, cr1, {0}
     4c4:	16050106 	strne	r0, [r5], -r6, lsl #2
     4c8:	0a052e2e 	beq	14bd88 <__bss_end__+0x1421a8>
     4cc:	05013603 	streq	r3, [r1, #-1539]	; 0xfffff9fd
     4d0:	054b0605 	strbeq	r0, [fp, #-1541]	; 0xfffff9fb
     4d4:	054b0601 	strbeq	r0, [fp, #-1537]	; 0xfffff9ff
     4d8:	06a4062d 	strteq	r0, [r4], sp, lsr #12
     4dc:	06050501 	streq	r0, [r5], -r1, lsl #10
     4e0:	0200014b 	andeq	r0, r0, #-1073741806	; 0xc0000012
     4e4:	00820204 	addeq	r0, r2, r4, lsl #4
     4e8:	13020402 	movwne	r0, #9218	; 0x2402
     4ec:	02000c05 	andeq	r0, r0, #1280	; 0x500
     4f0:	01060204 	tsteq	r6, r4, lsl #4
     4f4:	02000505 	andeq	r0, r0, #20971520	; 0x1400000
     4f8:	67060204 	strvs	r0, [r6, -r4, lsl #4]
     4fc:	02001805 	andeq	r1, r0, #327680	; 0x50000
     500:	bd030204 	sfmlt	f0, 4, [r3, #-16]
     504:	0505017f 	streq	r0, [r5, #-383]	; 0xfffffe81
     508:	02040200 	andeq	r0, r4, #0, 4
     50c:	04020013 	streq	r0, [r2], #-19	; 0xffffffed
     510:	02000102 	andeq	r0, r0, #-2147483648	; 0x80000000
     514:	01060204 	tsteq	r6, r4, lsl #4
     518:	02040200 	andeq	r0, r4, #0, 4
     51c:	02000f06 	andeq	r0, r0, #6, 30
     520:	00150204 	andseq	r0, r5, r4, lsl #4
     524:	01020402 	tsteq	r2, r2, lsl #8
     528:	02040200 	andeq	r0, r4, #0, 4
     52c:	000e0513 	andeq	r0, lr, r3, lsl r5
     530:	06020402 	streq	r0, [r2], -r2, lsl #8
     534:	00160501 	andseq	r0, r6, r1, lsl #10
     538:	2e020402 	cdpcs	4, 0, cr0, cr2, cr2, {0}
     53c:	02040200 	andeq	r0, r4, #0, 4
     540:	000a052e 	andeq	r0, sl, lr, lsr #10
     544:	03020402 	movweq	r0, #9218	; 0x2402
     548:	050100c1 	streq	r0, [r1, #-193]	; 0xffffff3f
     54c:	04020005 	streq	r0, [r2], #-5
     550:	004b0602 	subeq	r0, fp, r2, lsl #12
     554:	06020402 	streq	r0, [r2], -r2, lsl #8
     558:	0001052e 	andeq	r0, r1, lr, lsr #10
     55c:	2f020402 	svccs	0x00020402
     560:	02000505 	andeq	r0, r0, #20971520	; 0x1400000
     564:	46060104 	strmi	r0, [r6], -r4, lsl #2
     568:	01040200 	mrseq	r0, R12_usr
     56c:	0402002e 	streq	r0, [r2], #-46	; 0xffffffd2
     570:	1605d601 	strne	sp, [r5], -r1, lsl #12
     574:	05f20b03 	ldrbeq	r0, [r2, #2819]!	; 0xb03
     578:	9e012f05 	cdpls	15, 0, cr2, cr1, cr5, {0}
     57c:	058a1e05 	streq	r1, [sl, #3589]	; 0xe05
     580:	9e012f05 	cdpls	15, 0, cr2, cr1, cr5, {0}
     584:	01000802 	tsteq	r0, r2, lsl #16
     588:	00011501 	andeq	r1, r1, r1, lsl #10
     58c:	e3000300 	movw	r0, #768	; 0x300
     590:	02000000 	andeq	r0, r0, #0, 0
     594:	0d0efb01 	vstreq	d15, [lr, #-4]
     598:	01010100 	mrseq	r0, (UNDEF: 17)
     59c:	00000001 	andeq	r0, r0, r1
     5a0:	01000001 	tsteq	r0, r1
     5a4:	696c2f2e 	stmdbvs	ip!, {r1, r2, r3, r5, r8, r9, sl, fp, sp}^
     5a8:	2f006362 	svccs	0x00006362
     5ac:	2f74706f 	svccs	0x0074706f
     5b0:	656d6f68 	strbvs	r6, [sp, #-3944]!	; 0xfffff098
     5b4:	77657262 	strbvc	r7, [r5, -r2, ror #4]!
     5b8:	6c65432f 	stclvs	3, cr4, [r5], #-188	; 0xffffff44
     5bc:	2f72616c 	svccs	0x0072616c
     5c0:	2d6d7261 	sfmcs	f7, 2, [sp, #-388]!	; 0xfffffe7c
     5c4:	656e6f6e 	strbvs	r6, [lr, #-3950]!	; 0xfffff092
     5c8:	6261652d 	rsbvs	r6, r1, #188743680	; 0xb400000
     5cc:	65742d69 	ldrbvs	r2, [r4, #-3433]!	; 0xfffff297
     5d0:	392f7473 	stmdbcc	pc!, {r0, r1, r4, r5, r6, sl, ip, sp, lr}	; <UNPREDICTABLE>
     5d4:	3130322d 	teqcc	r0, sp, lsr #4
     5d8:	2d347139 	ldfcss	f7, [r4, #-228]!	; 0xffffff1c
     5dc:	30317363 	eorscc	r7, r1, r3, ror #6
     5e0:	6c2f6537 	cfstr32vs	mvfx6, [pc], #-220	; 50c <__code_start__-0x7af4>
     5e4:	672f6269 	strvs	r6, [pc, -r9, ror #4]!
     5e8:	612f6363 			; <UNDEFINED> instruction: 0x612f6363
     5ec:	6e2d6d72 	mcrvs	13, 1, r6, cr13, cr2, {3}
     5f0:	2d656e6f 	stclcs	14, cr6, [r5, #-444]!	; 0xfffffe44
     5f4:	69626165 	stmdbvs	r2!, {r0, r2, r5, r6, r8, sp, lr}^
     5f8:	322e392f 	eorcc	r3, lr, #770048	; 0xbc000
     5fc:	692f312e 	stmdbvs	pc!, {r1, r2, r3, r5, r8, ip, sp}	; <UNPREDICTABLE>
     600:	756c636e 	strbvc	r6, [ip, #-878]!	; 0xfffffc92
     604:	2f006564 	svccs	0x00006564
     608:	72657355 	rsbvc	r7, r5, #1409286145	; 0x54000001
     60c:	64612f73 	strbtvs	r2, [r1], #-3955	; 0xfffff08d
     610:	2f6e696d 	svccs	0x006e696d
     614:	342d5343 	strtcc	r5, [sp], #-835	; 0xfffffcbd
     618:	632f4e39 			; <UNDEFINED> instruction: 0x632f4e39
     61c:	6e393473 	mrcvs	4, 1, r3, cr9, cr3, {3}
     620:	6131322d 	teqvs	r1, sp, lsr #4
     624:	2f2f7475 	svccs	0x002f7475
     628:	7062696c 	rsbvc	r6, r2, ip, ror #18
     62c:	6e692f69 	cdpvs	15, 6, cr2, cr9, cr9, {3}
     630:	64756c63 	ldrbtvs	r6, [r5], #-3171	; 0xfffff39d
     634:	70000065 	andvc	r0, r0, r5, rrx
     638:	746e6972 	strbtvc	r6, [lr], #-2418	; 0xfffff68e
     63c:	00632e6b 	rsbeq	r2, r3, fp, ror #28
     640:	73000001 	movwvc	r0, #1
     644:	72616474 	rsbvc	r6, r1, #116, 8	; 0x74000000
     648:	00682e67 	rsbeq	r2, r8, r7, ror #28
     64c:	72000002 	andvc	r0, r0, #2, 0
     650:	682e6970 	stmdavs	lr!, {r4, r5, r6, r8, fp, sp, lr}
     654:	00000300 	andeq	r0, r0, r0, lsl #6
     658:	6975623c 	ldmdbvs	r5!, {r2, r3, r4, r5, r9, sp, lr}^
     65c:	692d746c 	pushvs	{r2, r3, r5, r6, sl, ip, sp, lr}
     660:	00003e6e 	andeq	r3, r0, lr, ror #28
     664:	61760000 	cmnvs	r6, r0
     668:	6972702d 	ldmdbvs	r2!, {r0, r2, r3, r5, ip, sp, lr}^
     66c:	2e6b746e 	cdpcs	4, 6, cr7, cr11, cr14, {3}
     670:	00010068 	andeq	r0, r1, r8, rrx
     674:	22050000 	andcs	r0, r5, #0, 0
     678:	98020500 	stmdals	r2, {r8, sl}
     67c:	17000085 	strne	r0, [r0, -r5, lsl #1]
     680:	05050106 	streq	r0, [r5, #-262]	; 0xfffffefa
     684:	14136806 	ldrne	r6, [r3], #-2054	; 0xfffff7fa
     688:	054b0905 	strbeq	r0, [fp, #-2309]	; 0xfffff6fb
     68c:	05010612 	streq	r0, [r1, #-1554]	; 0xfffff9ee
     690:	16bb0605 	ldrtne	r0, [fp], r5, lsl #12
     694:	34066606 	strcc	r6, [r6], #-1542	; 0xfffff9fa
     698:	13060105 	movwne	r0, #24837	; 0x6105
     69c:	00080266 	andeq	r0, r8, r6, ror #4
     6a0:	009d0101 	addseq	r0, sp, r1, lsl #2
     6a4:	00030000 	andeq	r0, r3, r0
     6a8:	0000005f 	andeq	r0, r0, pc, asr r0
     6ac:	0efb0102 	cdpeq	1, 15, cr0, cr11, cr2, {0}
     6b0:	0101000d 	tsteq	r1, sp
     6b4:	00000101 	andeq	r0, r0, r1, lsl #2
     6b8:	00000100 	andeq	r0, r0, r0, lsl #2
     6bc:	6c2f2e01 	stcvs	14, cr2, [pc], #-4	; 6c0 <__code_start__-0x7940>
     6c0:	00636269 	rsbeq	r6, r3, r9, ror #4
     6c4:	6573552f 	ldrbvs	r5, [r3, #-1327]!	; 0xfffffad1
     6c8:	612f7372 			; <UNDEFINED> instruction: 0x612f7372
     6cc:	6e696d64 	cdpvs	13, 6, cr6, cr9, cr4, {3}
     6d0:	2d53432f 	ldclcs	3, cr4, [r3, #-188]	; 0xffffff44
     6d4:	2f4e3934 	svccs	0x004e3934
     6d8:	39347363 	ldmdbcc	r4!, {r0, r1, r5, r6, r8, r9, ip, sp, lr}
     6dc:	31322d6e 	teqcc	r2, lr, ror #26
     6e0:	2f747561 	svccs	0x00747561
     6e4:	62696c2f 	rsbvs	r6, r9, #12032	; 0x2f00
     6e8:	692f6970 	stmdbvs	pc!, {r4, r5, r6, r8, fp, sp, lr}	; <UNPREDICTABLE>
     6ec:	756c636e 	strbvc	r6, [ip, #-878]!	; 0xfffffc92
     6f0:	00006564 	andeq	r6, r0, r4, ror #10
     6f4:	63747570 	cmnvs	r4, #112, 10	; 0x1c000000
     6f8:	2e726168 	rpwcssz	f6, f2, #0.0
     6fc:	00010063 	andeq	r0, r1, r3, rrx
     700:	69707200 	ldmdbvs	r0!, {r9, ip, sp, lr}^
     704:	0200682e 	andeq	r6, r0, #3014656	; 0x2e0000
     708:	05000000 	streq	r0, [r0, #-0]
     70c:	02050024 	andeq	r0, r5, #36, 0	; 0x24
     710:	000085f0 	strdeq	r8, [r0], -r0
     714:	05010614 	streq	r0, [r1, #-1556]	; 0xfffff9ec
     718:	054a0626 	strbeq	r0, [sl, #-1574]	; 0xfffff9da
     71c:	01052e34 	tsteq	r5, r4, lsr lr
     720:	1b050106 	blne	140b40 <__bss_end__+0x136f60>
     724:	05054f06 	streq	r4, [r5, #-3846]	; 0xfffff0fa
     728:	06110513 			; <UNDEFINED> instruction: 0x06110513
     72c:	67010501 	strvs	r0, [r1, -r1, lsl #10]
     730:	67062305 	strvs	r2, [r6, -r5, lsl #6]
     734:	05130505 	ldreq	r0, [r3, #-1285]	; 0xfffffafb
     738:	05010611 	streq	r0, [r1, #-1553]	; 0xfffff9ef
     73c:	04024b01 	streq	r4, [r2], #-2817	; 0xfffff4ff
     740:	aa010100 	bge	40b48 <__bss_end__+0x36f68>
     744:	03000000 	movweq	r0, #0
     748:	00005c00 	andeq	r5, r0, r0, lsl #24
     74c:	fb010200 	blx	40f56 <__bss_end__+0x37376>
     750:	01000d0e 	tsteq	r0, lr, lsl #26
     754:	00010101 	andeq	r0, r1, r1, lsl #2
     758:	00010000 	andeq	r0, r1, r0
     75c:	2f2e0100 	svccs	0x002e0100
     760:	6362696c 	cmnvs	r2, #108, 18	; 0x1b0000
     764:	73552f00 	cmpvc	r5, #0, 30
     768:	2f737265 	svccs	0x00737265
     76c:	696d6461 	stmdbvs	sp!, {r0, r5, r6, sl, sp, lr}^
     770:	53432f6e 	movtpl	r2, #16238	; 0x3f6e
     774:	4e39342d 	cdpmi	4, 3, cr3, cr9, cr13, {1}
     778:	3473632f 	ldrbtcc	r6, [r3], #-815	; 0xfffffcd1
     77c:	322d6e39 	eorcc	r6, sp, #912	; 0x390
     780:	74756131 	ldrbtvc	r6, [r5], #-305	; 0xfffffecf
     784:	696c2f2f 	stmdbvs	ip!, {r0, r1, r2, r3, r5, r8, r9, sl, fp, sp}^
     788:	2f697062 	svccs	0x00697062
     78c:	6c636e69 	stclvs	14, cr6, [r3], #-420	; 0xfffffe5c
     790:	00656475 	rsbeq	r6, r5, r5, ror r4
     794:	74757000 	ldrbtvc	r7, [r5], #-0
     798:	00632e6b 	rsbeq	r2, r3, fp, ror #28
     79c:	72000001 	andvc	r0, r0, #1, 0
     7a0:	682e6970 	stmdavs	lr!, {r4, r5, r6, r8, fp, sp, lr}
     7a4:	00000200 	andeq	r0, r0, r0, lsl #4
     7a8:	00220500 	eoreq	r0, r2, r0, lsl #10
     7ac:	862c0205 	strthi	r0, [ip], -r5, lsl #4
     7b0:	06150000 	ldreq	r0, [r5], -r0
     7b4:	06050501 	streq	r0, [r5], -r1, lsl #10
     7b8:	000b054b 	andeq	r0, fp, fp, asr #10
     7bc:	01010402 	tsteq	r1, r2, lsl #8
     7c0:	02000505 	andeq	r0, r0, #20971520	; 0x1400000
     7c4:	2e060104 	adfcss	f0, f6, f4
     7c8:	02000905 	andeq	r0, r0, #81920	; 0x14000
     7cc:	4b060204 	blmi	180fe4 <__bss_end__+0x177404>
     7d0:	02000f05 	andeq	r0, r0, #5, 30
     7d4:	05650204 	strbeq	r0, [r5, #-516]!	; 0xfffffdfc
     7d8:	04020010 	streq	r0, [r2], #-16
     7dc:	00010602 	andeq	r0, r1, r2, lsl #12
     7e0:	2e020402 	cdpcs	4, 0, cr0, cr2, cr2, {0}
     7e4:	32060505 	andcc	r0, r6, #20971520	; 0x1400000
     7e8:	13060105 	movwne	r0, #24837	; 0x6105
     7ec:	01000602 	tsteq	r0, r2, lsl #12
     7f0:	0005f501 	andeq	pc, r5, r1, lsl #10
     7f4:	f9000300 			; <UNDEFINED> instruction: 0xf9000300
     7f8:	02000000 	andeq	r0, r0, #0, 0
     7fc:	0d0efb01 	vstreq	d15, [lr, #-4]
     800:	01010100 	mrseq	r0, (UNDEF: 17)
     804:	00000001 	andeq	r0, r0, r1
     808:	01000001 	tsteq	r0, r1
     80c:	696c2f2e 	stmdbvs	ip!, {r1, r2, r3, r5, r8, r9, sl, fp, sp}^
     810:	2f006362 	svccs	0x00006362
     814:	2f74706f 	svccs	0x0074706f
     818:	656d6f68 	strbvs	r6, [sp, #-3944]!	; 0xfffff098
     81c:	77657262 	strbvc	r7, [r5, -r2, ror #4]!
     820:	6c65432f 	stclvs	3, cr4, [r5], #-188	; 0xffffff44
     824:	2f72616c 	svccs	0x0072616c
     828:	2d6d7261 	sfmcs	f7, 2, [sp, #-388]!	; 0xfffffe7c
     82c:	656e6f6e 	strbvs	r6, [lr, #-3950]!	; 0xfffff092
     830:	6261652d 	rsbvs	r6, r1, #188743680	; 0xb400000
     834:	65742d69 	ldrbvs	r2, [r4, #-3433]!	; 0xfffff297
     838:	392f7473 	stmdbcc	pc!, {r0, r1, r4, r5, r6, sl, ip, sp, lr}	; <UNPREDICTABLE>
     83c:	3130322d 	teqcc	r0, sp, lsr #4
     840:	2d347139 	ldfcss	f7, [r4, #-228]!	; 0xffffff1c
     844:	30317363 	eorscc	r7, r1, r3, ror #6
     848:	6c2f6537 	cfstr32vs	mvfx6, [pc], #-220	; 774 <__code_start__-0x788c>
     84c:	672f6269 	strvs	r6, [pc, -r9, ror #4]!
     850:	612f6363 			; <UNDEFINED> instruction: 0x612f6363
     854:	6e2d6d72 	mcrvs	13, 1, r6, cr13, cr2, {3}
     858:	2d656e6f 	stclcs	14, cr6, [r5, #-444]!	; 0xfffffe44
     85c:	69626165 	stmdbvs	r2!, {r0, r2, r5, r6, r8, sp, lr}^
     860:	322e392f 	eorcc	r3, lr, #770048	; 0xbc000
     864:	692f312e 	stmdbvs	pc!, {r1, r2, r3, r5, r8, ip, sp}	; <UNPREDICTABLE>
     868:	756c636e 	strbvc	r6, [ip, #-878]!	; 0xfffffc92
     86c:	2f006564 	svccs	0x00006564
     870:	72657355 	rsbvc	r7, r5, #1409286145	; 0x54000001
     874:	64612f73 	strbtvs	r2, [r1], #-3955	; 0xfffff08d
     878:	2f6e696d 	svccs	0x006e696d
     87c:	342d5343 	strtcc	r5, [sp], #-835	; 0xfffffcbd
     880:	632f4e39 			; <UNDEFINED> instruction: 0x632f4e39
     884:	6e393473 	mrcvs	4, 1, r3, cr9, cr3, {3}
     888:	6131322d 	teqvs	r1, sp, lsr #4
     88c:	2f2f7475 	svccs	0x002f7475
     890:	7062696c 	rsbvc	r6, r2, ip, ror #18
     894:	6e692f69 	cdpvs	15, 6, cr2, cr9, cr9, {3}
     898:	64756c63 	ldrbtvs	r6, [r5], #-3171	; 0xfffff39d
     89c:	76000065 	strvc	r0, [r0], -r5, rrx
     8a0:	72702d61 	rsbsvc	r2, r0, #6208	; 0x1840
     8a4:	6b746e69 	blvs	1d1c250 <__bss_end__+0x1d12670>
     8a8:	0100632e 	tsteq	r0, lr, lsr #6
     8ac:	74730000 	ldrbtvc	r0, [r3], #-0
     8b0:	746e6964 	strbtvc	r6, [lr], #-2404	; 0xfffff69c
     8b4:	6363672d 	cmnvs	r3, #11796480	; 0xb40000
     8b8:	0200682e 	andeq	r6, r0, #3014656	; 0x2e0000
     8bc:	70720000 	rsbsvc	r0, r2, r0
     8c0:	00682e69 	rsbeq	r2, r8, r9, ror #28
     8c4:	72000003 	andvc	r0, r0, #3, 0
     8c8:	692d6970 	pushvs	{r4, r5, r6, r8, fp, sp, lr}
     8cc:	7265746e 	rsbvc	r7, r5, #1845493760	; 0x6e000000
     8d0:	2e6c616e 	powcsez	f6, f4, #0.5
     8d4:	00030068 	andeq	r0, r3, r8, rrx
     8d8:	64747300 	ldrbtvs	r7, [r4], #-768	; 0xfffffd00
     8dc:	2e677261 	cdpcs	2, 6, cr7, cr7, cr1, {3}
     8e0:	00020068 	andeq	r0, r2, r8, rrx
     8e4:	75623c00 	strbvc	r3, [r2, #-3072]!	; 0xfffff400
     8e8:	2d746c69 	ldclcs	12, cr6, [r4, #-420]!	; 0xfffffe5c
     8ec:	003e6e69 	eorseq	r6, lr, r9, ror #28
     8f0:	00000000 	andeq	r0, r0, r0
     8f4:	05001b05 	streq	r1, [r0, #-2821]	; 0xfffff4fb
     8f8:	00866002 	addeq	r6, r6, r2
     8fc:	01260300 			; <UNDEFINED> instruction: 0x01260300
     900:	05011d05 	streq	r1, [r1, #-3333]	; 0xfffff2fb
     904:	0501062d 	streq	r0, [r1, #-1581]	; 0xfffff9d3
     908:	054a2e01 	strbeq	r2, [sl, #-3585]	; 0xfffff1ff
     90c:	05510633 	ldrbeq	r0, [r1, #-1587]	; 0xfffff9cd
     910:	06051302 	streq	r1, [r5], -r2, lsl #6
     914:	02050106 	andeq	r0, r5, #-2147483647	; 0x80000001
     918:	08053006 	stmdaeq	r5, {r1, r2, ip, sp}
     91c:	01040200 	mrseq	r0, R12_usr
     920:	00020501 	andeq	r0, r2, r1, lsl #10
     924:	06010402 	streq	r0, [r1], -r2, lsl #8
     928:	00030501 	andeq	r0, r3, r1, lsl #10
     92c:	06020402 	streq	r0, [r2], -r2, lsl #8
     930:	0008052f 	andeq	r0, r8, pc, lsr #10
     934:	06020402 	streq	r0, [r2], -r2, lsl #8
     938:	00150501 	andseq	r0, r5, r1, lsl #10
     93c:	06020402 	streq	r0, [r2], -r2, lsl #8
     940:	00180549 	andseq	r0, r8, r9, asr #10
     944:	06020402 	streq	r0, [r2], -r2, lsl #8
     948:	04020001 	streq	r0, [r2], #-1
     94c:	02052e02 	andeq	r2, r5, #2, 28
     950:	05053006 	streq	r3, [r5, #-6]
     954:	02050106 	andeq	r0, r5, #-2147483647	; 0x80000001
     958:	01054b06 	tsteq	r5, r6, lsl #22
     95c:	3e051306 	cdpcc	3, 0, cr1, cr5, cr6, {0}
     960:	02053106 	andeq	r3, r5, #-2147483647	; 0x80000001
     964:	060e0514 			; <UNDEFINED> instruction: 0x060e0514
     968:	2e060501 	cfsh32cs	mvfx0, mvfx6, #1
     96c:	2f060205 	svccs	0x00060205
     970:	01060405 	tsteq	r6, r5, lsl #8
     974:	2f060305 	svccs	0x00060305
     978:	01061105 	tsteq	r6, r5, lsl #2
     97c:	052e0905 	streq	r0, [lr, #-2309]!	; 0xfffff6fb
     980:	15300602 	ldrne	r0, [r0, #-1538]!	; 0xfffff9fe
     984:	01060705 	tsteq	r6, r5, lsl #14
     988:	052e0205 	streq	r0, [lr, #-517]!	; 0xfffffdfb
     98c:	0402000b 	streq	r0, [r2], #-11
     990:	052e0601 	streq	r0, [lr, #-1537]!	; 0xfffff9ff
     994:	04020002 	streq	r0, [r2], #-2
     998:	05010601 	streq	r0, [r1, #-1537]	; 0xfffff9ff
     99c:	04020003 	streq	r0, [r2], #-3
     9a0:	052f0603 	streq	r0, [pc, #-1539]!	; 3a5 <__code_start__-0x7c5b>
     9a4:	0402000c 	streq	r0, [r2], #-12
     9a8:	05010603 	streq	r0, [r1, #-1539]	; 0xfffff9fd
     9ac:	0402000a 	streq	r0, [r2], #-10
     9b0:	17052e03 	strne	r2, [r5, -r3, lsl #28]
     9b4:	03040200 	movweq	r0, #16896	; 0x4200
     9b8:	02002d06 	andeq	r2, r0, #384	; 0x180
     9bc:	01060304 	tsteq	r6, r4, lsl #6
     9c0:	30060205 	andcc	r0, r6, r5, lsl #4
     9c4:	01060905 	tsteq	r6, r5, lsl #18
     9c8:	0602052e 	streq	r0, [r2], -lr, lsr #10
     9cc:	06010530 			; <UNDEFINED> instruction: 0x06010530
     9d0:	06490513 			; <UNDEFINED> instruction: 0x06490513
     9d4:	05010631 	streq	r0, [r1, #-1585]	; 0xfffff9cf
     9d8:	05a00602 	streq	r0, [r0, #1538]!	; 0x602
     9dc:	05010604 	streq	r0, [r1, #-1540]	; 0xfffff9fc
     9e0:	052f0603 	streq	r0, [pc, #-1539]!	; 3e5 <__code_start__-0x7c1b>
     9e4:	05010609 	streq	r0, [r1, #-1545]	; 0xfffff9f7
     9e8:	13300602 	teqne	r0, #2097152	; 0x200000
     9ec:	01060b05 	tsteq	r6, r5, lsl #22
     9f0:	30060205 	andcc	r0, r6, r5, lsl #4
     9f4:	04052e06 	streq	r2, [r5], #-3590	; 0xfffff1fa
     9f8:	15240206 	strne	r0, [r4, #-518]!	; 0xfffffdfa
     9fc:	060f0513 			; <UNDEFINED> instruction: 0x060f0513
     a00:	06052e01 	streq	r2, [r5], -r1, lsl #28
     a04:	0605054a 	streq	r0, [r5], -sl, asr #10
     a08:	0905134b 	stmdbeq	r5, {r0, r1, r3, r6, r8, r9, ip}
     a0c:	05050106 	streq	r0, [r5, #-262]	; 0xfffffefa
     a10:	0b052f06 	bleq	14c630 <__bss_end__+0x142a50>
     a14:	0d051006 	stceq	0, cr1, [r5, #-24]	; 0xffffffe8
     a18:	01040200 	mrseq	r0, R12_usr
     a1c:	0004052c 	andeq	r0, r4, ip, lsr #10
     a20:	06010402 	streq	r0, [r1], -r2, lsl #8
     a24:	00050534 	andeq	r0, r5, r4, lsr r5
     a28:	13010402 	movwne	r0, #5122	; 0x1402
     a2c:	02001b05 	andeq	r1, r0, #5120	; 0x1400
     a30:	01060104 	tsteq	r6, r4, lsl #2
     a34:	02000705 	andeq	r0, r0, #1310720	; 0x140000
     a38:	05d60104 	ldrbeq	r0, [r6, #260]	; 0x104
     a3c:	04020018 	streq	r0, [r2], #-24	; 0xffffffe8
     a40:	0a052e01 	beq	14c24c <__bss_end__+0x14266c>
     a44:	01040200 	mrseq	r0, R12_usr
     a48:	000b054a 	andeq	r0, fp, sl, asr #10
     a4c:	06010402 	streq	r0, [r1], -r2, lsl #8
     a50:	000e052f 	andeq	r0, lr, pc, lsr #10
     a54:	06010402 	streq	r0, [r1], -r2, lsl #8
     a58:	0004052e 	andeq	r0, r4, lr, lsr #10
     a5c:	2e010402 	cdpcs	4, 0, cr0, cr1, cr2, {0}
     a60:	06054b06 	streq	r4, [r5], -r6, lsl #22
     a64:	05050106 	streq	r0, [r5, #-262]	; 0xfffffefa
     a68:	0a052f06 	beq	14c688 <__bss_end__+0x142aa8>
     a6c:	07050106 	streq	r0, [r5, -r6, lsl #2]
     a70:	0d052e4a 	stceq	14, cr2, [r5, #-296]	; 0xfffffed8
     a74:	4a2e7603 	bmi	b9e288 <__bss_end__+0xb946a8>
     a78:	050d0b05 	streq	r0, [sp, #-2821]	; 0xfffff4fb
     a7c:	0402000d 	streq	r0, [r2], #-13
     a80:	14030601 	strne	r0, [r3], #-1537	; 0xfffff9ff
     a84:	0011052e 	andseq	r0, r1, lr, lsr #10
     a88:	13010402 	movwne	r0, #5122	; 0x1402
     a8c:	02002d05 	andeq	r2, r0, #320	; 0x140
     a90:	01060104 	tsteq	r6, r4, lsl #2
     a94:	02002a05 	andeq	r2, r0, #20480	; 0x5000
     a98:	052e0104 	streq	r0, [lr, #-260]!	; 0xfffffefc
     a9c:	04020016 	streq	r0, [r2], #-22	; 0xffffffea
     aa0:	14054a01 	strne	r4, [r5], #-2561	; 0xfffff5ff
     aa4:	01040200 	mrseq	r0, R12_usr
     aa8:	0d054b06 	vstreq	d4, [r5, #-24]	; 0xffffffe8
     aac:	01040200 	mrseq	r0, R12_usr
     ab0:	02000106 	andeq	r0, r0, #-2147483647	; 0x80000001
     ab4:	064a0104 	strbeq	r0, [sl], -r4, lsl #2
     ab8:	0612052f 	ldreq	r0, [r2], -pc, lsr #10
     abc:	0d054a01 	vstreq	s8, [r5, #-4]
     ac0:	12052f06 	andne	r2, r5, #6, 30
     ac4:	19050106 	stmdbne	r5, {r1, r2, r8}
     ac8:	04054b06 	streq	r4, [r5], #-2822	; 0xfffff4fa
     acc:	02040200 	andeq	r0, r4, #0, 4
     ad0:	00011103 	andeq	r1, r1, r3, lsl #2
     ad4:	01020402 	tsteq	r2, r2, lsl #8
     ad8:	02000205 	andeq	r0, r0, #1342177280	; 0x50000000
     adc:	05150204 	ldreq	r0, [r5, #-516]	; 0xfffffdfc
     ae0:	04020009 	streq	r0, [r2], #-9
     ae4:	00010602 	andeq	r0, r1, r2, lsl #12
     ae8:	4a020402 	bmi	81af8 <__bss_end__+0x77f18>
     aec:	02000105 	andeq	r0, r0, #1073741825	; 0x40000001
     af0:	059f0204 	ldreq	r0, [pc, #516]	; cfc <__code_start__-0x7304>
     af4:	6e030604 	cfmadd32vs	mvax0, mvfx0, mvfx3, mvfx4
     af8:	0609054a 	streq	r0, [r9], -sl, asr #10
     afc:	06040501 	streq	r0, [r4], -r1, lsl #10
     b00:	0606052f 	streq	r0, [r6], -pc, lsr #10
     b04:	2f040511 	svccs	0x00040511
     b08:	63030b05 	movwvs	r0, #15109	; 0x3b05
     b0c:	0019052e 	andseq	r0, r9, lr, lsr #10
     b10:	06010402 	streq	r0, [r1], -r2, lsl #8
     b14:	052e2403 	streq	r2, [lr, #-1027]!	; 0xfffffbfd
     b18:	0402001a 	streq	r0, [r2], #-26	; 0xffffffe6
     b1c:	28051301 	stmdacs	r5, {r0, r8, r9, ip}
     b20:	01040200 	mrseq	r0, R12_usr
     b24:	25050106 	strcs	r0, [r5, #-262]	; 0xfffffefa
     b28:	01040200 	mrseq	r0, R12_usr
     b2c:	001f052e 	andseq	r0, pc, lr, lsr #10
     b30:	4a010402 	bmi	41b40 <__bss_end__+0x37f60>
     b34:	02000b05 	andeq	r0, r0, #5120	; 0x1400
     b38:	4b060104 	blmi	180f50 <__bss_end__+0x177370>
     b3c:	02000405 	andeq	r0, r0, #83886080	; 0x5000000
     b40:	01060104 	tsteq	r6, r4, lsl #2
     b44:	01040200 	mrseq	r0, R12_usr
     b48:	0402004a 	streq	r0, [r2], #-74	; 0xffffffb6
     b4c:	004e0601 	subeq	r0, lr, r1, lsl #12
     b50:	01010402 	tsteq	r1, r2, lsl #8
     b54:	01040200 	mrseq	r0, R12_usr
     b58:	04020001 	streq	r0, [r2], #-1
     b5c:	02000101 	andeq	r0, r0, #1073741824	; 0x40000000
     b60:	2e060104 	adfcss	f0, f6, f4
     b64:	01040200 	mrseq	r0, R12_usr
     b68:	04020066 	streq	r0, [r2], #-102	; 0xffffff9a
     b6c:	02002e01 	andeq	r2, r0, #1, 28
     b70:	4a060104 	bmi	180f88 <__bss_end__+0x1773a8>
     b74:	a6034805 	strge	r4, [r3], -r5, lsl #16
     b78:	0520087f 	streq	r0, [r0, #-2175]!	; 0xfffff781
     b7c:	06011305 	streq	r1, [r1], -r5, lsl #6
     b80:	0402002e 	streq	r0, [r2], #-46	; 0xffffffd2
     b84:	002e0602 	eoreq	r0, lr, r2, lsl #12
     b88:	01020402 	tsteq	r2, r2, lsl #8
     b8c:	02040200 	andeq	r0, r4, #0, 4
     b90:	00110513 	andseq	r0, r1, r3, lsl r5
     b94:	06020402 	streq	r0, [r2], -r2, lsl #8
     b98:	00050501 	andeq	r0, r5, r1, lsl #10
     b9c:	06020402 	streq	r0, [r2], -r2, lsl #8
     ba0:	0007054b 	andeq	r0, r7, fp, asr #10
     ba4:	06020402 	streq	r0, [r2], -r2, lsl #8
     ba8:	06090501 	streq	r0, [r9], -r1, lsl #10
     bac:	060e054b 	streq	r0, [lr], -fp, asr #10
     bb0:	00480501 	subeq	r0, r8, r1, lsl #10
     bb4:	62010402 	andvs	r0, r1, #33554432	; 0x2000000
     bb8:	02000505 	andeq	r0, r0, #20971520	; 0x1400000
     bbc:	4b060104 	blmi	180fd4 <__bss_end__+0x1773f4>
     bc0:	01040200 	mrseq	r0, R12_usr
     bc4:	04020001 	streq	r0, [r2], #-1
     bc8:	009e0601 	addseq	r0, lr, r1, lsl #12
     bcc:	2e010402 	cdpcs	4, 0, cr0, cr1, cr2, {0}
     bd0:	01040200 	mrseq	r0, R12_usr
     bd4:	40052e06 	andmi	r2, r5, r6, lsl #28
     bd8:	d600e103 	strle	lr, [r0], -r3, lsl #2
     bdc:	02050106 	andeq	r0, r5, #-2147483647	; 0x80000001
     be0:	1e059f06 	cdpne	15, 0, cr9, cr5, cr6, {0}
     be4:	12050106 	andne	r0, r5, #-2147483647	; 0x80000001
     be8:	0605052e 	streq	r0, [r5], -lr, lsr #10
     bec:	1402052f 	strne	r0, [r2], #-1327	; 0xfffffad1
     bf0:	01060905 	tsteq	r6, r5, lsl #18
     bf4:	4b060505 	blmi	182010 <__bss_end__+0x178430>
     bf8:	05130205 	ldreq	r0, [r3, #-517]	; 0xfffffdfb
     bfc:	050d0608 	streq	r0, [sp, #-1544]	; 0xfffff9f8
     c00:	04053302 	streq	r3, [r5], #-770	; 0xfffffcfe
     c04:	0f054c06 	svceq	0x00054c06
     c08:	09050106 	stmdbeq	r5, {r1, r2, r8}
     c0c:	0608052e 	streq	r0, [r8], -lr, lsr #10
     c10:	0602052c 	streq	r0, [r2], -ip, lsr #10
     c14:	000d052e 	andeq	r0, sp, lr, lsr #10
     c18:	4a010402 	bmi	41c28 <__bss_end__+0x38048>
     c1c:	4b060305 	blmi	181838 <__bss_end__+0x177c58>
     c20:	01060505 	tsteq	r6, r5, lsl #10
     c24:	4d060805 	stcmi	8, cr0, [r6, #-20]	; 0xffffffec
     c28:	01060e05 	tsteq	r6, r5, lsl #28
     c2c:	052e0a05 	streq	r0, [lr, #-2565]!	; 0xfffff5fb
     c30:	052f0604 	streq	r0, [pc, #-1540]!	; 634 <__code_start__-0x79cc>
     c34:	05010609 	streq	r0, [r1, #-1545]	; 0xfffff9f7
     c38:	052f0604 	streq	r0, [pc, #-1540]!	; 63c <__code_start__-0x79c4>
     c3c:	2e010607 	cfmadd32cs	mvax0, mvfx0, mvfx1, mvfx7
     c40:	30060405 	andcc	r0, r6, r5, lsl #8
     c44:	01060705 	tsteq	r6, r5, lsl #14
     c48:	30060405 	andcc	r0, r6, r5, lsl #8
     c4c:	0d051413 	cfstrseq	mvf1, [r5, #-76]	; 0xffffffb4
     c50:	09051006 	stmdbeq	r5, {r1, r2, ip}
     c54:	12053006 	andne	r3, r5, #6, 0
     c58:	0a050106 	beq	141078 <__bss_end__+0x137498>
     c5c:	6609052e 	strvs	r0, [r9], -lr, lsr #10
     c60:	4b060505 	blmi	18207c <__bss_end__+0x17849c>
     c64:	01061205 	tsteq	r6, r5, lsl #4
     c68:	052e1605 	streq	r1, [lr, #-1541]!	; 0xfffff9fb
     c6c:	05052e0b 	streq	r2, [r5, #-3595]	; 0xfffff1f5
     c70:	08052f06 	stmdaeq	r5, {r1, r2, r8, r9, sl, fp, sp}
     c74:	052e0106 	streq	r0, [lr, #-262]!	; 0xfffffefa
     c78:	01300604 	teqeq	r0, r4, lsl #12
     c7c:	0015014a 	andseq	r0, r5, sl, asr #2
     c80:	02010402 	andeq	r0, r1, #33554432	; 0x2000000
     c84:	02000f36 	andeq	r0, r0, #216	; 0xd8
     c88:	00010104 	andeq	r0, r1, r4, lsl #2
     c8c:	d6010402 	strle	r0, [r1], -r2, lsl #8
     c90:	13341105 	teqne	r4, #1073741825	; 0x40000001
     c94:	04020001 	streq	r0, [r2], #-1
     c98:	00ba0602 	adcseq	r0, sl, r2, lsl #12
     c9c:	06030402 	streq	r0, [r3], -r2, lsl #8
     ca0:	040200ba 	streq	r0, [r2], #-186	; 0xffffff46
     ca4:	02000103 	andeq	r0, r0, #-1073741824	; 0xc0000000
     ca8:	05140304 	ldreq	r0, [r4, #-772]	; 0xfffffcfc
     cac:	04020015 	streq	r0, [r2], #-21	; 0xffffffeb
     cb0:	05010603 	streq	r0, [r1, #-1539]	; 0xfffff9fd
     cb4:	04020011 	streq	r0, [r2], #-17	; 0xffffffef
     cb8:	052f0603 	streq	r0, [pc, #-1539]!	; 6bd <__code_start__-0x7943>
     cbc:	0402001a 	streq	r0, [r2], #-26	; 0xffffffe6
     cc0:	05010603 	streq	r0, [r1, #-1539]	; 0xfffff9fd
     cc4:	04020011 	streq	r0, [r2], #-17	; 0xffffffef
     cc8:	00d70603 	sbcseq	r0, r7, r3, lsl #12
     ccc:	13030402 	movwne	r0, #13314	; 0x3402
     cd0:	03040200 	movweq	r0, #16896	; 0x4200
     cd4:	00140517 	andseq	r0, r4, r7, lsl r5
     cd8:	06030402 	streq	r0, [r3], -r2, lsl #8
     cdc:	00130501 	andseq	r0, r3, r1, lsl #10
     ce0:	82030402 	andhi	r0, r3, #33554432	; 0x2000000
     ce4:	4e061805 	cdpmi	8, 0, cr1, cr6, cr5, {0}
     ce8:	01061b05 	tsteq	r6, r5, lsl #22
     cec:	05821a05 	streq	r1, [r2, #2565]	; 0xa05
     cf0:	054b0609 	strbeq	r0, [fp, #-1545]	; 0xfffff9f7
     cf4:	2e01060d 	cfmadd32cs	mvax0, mvfx0, mvfx1, mvfx13
     cf8:	f3060905 	vmls.i8	d0, d6, d5
     cfc:	1505ba06 	strne	fp, [r5, #-2566]	; 0xfffff5fa
     d00:	18053006 	stmdane	r5, {r1, r2, ip, sp}
     d04:	17050106 	strne	r0, [r5, -r6, lsl #2]
     d08:	06190566 	ldreq	r0, [r9], -r6, ror #10
     d0c:	0615054b 	ldreq	r0, [r5], -fp, asr #10
     d10:	05666f03 	strbeq	r6, [r6, #-3843]!	; 0xfffff0fd
     d14:	01480611 	cmpeq	r8, r1, lsl r6
     d18:	030905d6 	movweq	r0, #38358	; 0x95d6
     d1c:	0d052e0b 	stceq	14, cr2, [r5, #-44]	; 0xffffffd4
     d20:	052e0106 	streq	r0, [lr, #-262]!	; 0xfffffefa
     d24:	06f30609 	ldrbteq	r0, [r3], r9, lsl #12
     d28:	061505ba 			; <UNDEFINED> instruction: 0x061505ba
     d2c:	7503062f 	strvc	r0, [r3, #-1583]	; 0xfffff9d1
     d30:	06190566 	ldreq	r0, [r9], -r6, ror #10
     d34:	054a1303 	strbeq	r1, [sl, #-771]	; 0xfffffcfd
     d38:	6d030615 	stcvs	6, cr0, [r3, #-84]	; 0xffffffac
     d3c:	15030666 	strne	r0, [r3, #-1638]	; 0xfffff99a
     d40:	06ba014a 	ldrteq	r0, [sl], sl, asr #2
     d44:	0605052e 	streq	r0, [r5], -lr, lsr #10
     d48:	2e9e011a 	mrccs	1, 4, r0, cr14, cr10, {0}
     d4c:	05010e03 	streq	r0, [r1, #-3587]	; 0xfffff1fd
     d50:	05010609 	streq	r0, [r1, #-1545]	; 0xfffff9f7
     d54:	75080605 	strvc	r0, [r8, #-1541]	; 0xfffff9fb
     d58:	18030405 	stmdane	r3, {r0, r2, sl}
     d5c:	06070501 	streq	r0, [r7], -r1, lsl #10
     d60:	06040501 	streq	r0, [r4], -r1, lsl #10
     d64:	03050531 	movweq	r0, #21809	; 0x5531
     d68:	1c052e67 	stcne	14, cr2, [r5], {103}	; 0x67
     d6c:	09050106 	stmdbeq	r5, {r1, r2, r8}
     d70:	06050582 	streq	r0, [r5], -r2, lsl #11
     d74:	1c0531f3 	stfnes	f3, [r5], {243}	; 0xf3
     d78:	09050106 	stmdbeq	r5, {r1, r2, r8}
     d7c:	06050582 	streq	r0, [r5], -r2, lsl #11
     d80:	1b0530f3 	blne	14d154 <__bss_end__+0x143574>
     d84:	09050106 	stmdbeq	r5, {r1, r2, r8}
     d88:	06050582 	streq	r0, [r5], -r2, lsl #11
     d8c:	070530f3 			; <UNDEFINED> instruction: 0x070530f3
     d90:	05050106 	streq	r0, [r5, #-262]	; 0xfffffefa
     d94:	05308306 	ldreq	r8, [r0, #-774]!	; 0xfffffcfa
     d98:	05010609 	streq	r0, [r1, #-1545]	; 0xfffff9f7
     d9c:	75080605 	strvc	r0, [r8, #-1541]	; 0xfffff9fb
     da0:	05301105 	ldreq	r1, [r0, #-261]!	; 0xfffffefb
     da4:	05010622 	streq	r0, [r1, #-1570]	; 0xfffff9de
     da8:	054b0605 	strbeq	r0, [fp, #-1541]	; 0xfffff9fb
     dac:	05058311 	streq	r8, [r5, #-785]	; 0xfffffcef
     db0:	359e0183 	ldrcc	r0, [lr, #387]	; 0x183
     db4:	01060e05 	tsteq	r6, r5, lsl #28
     db8:	062e0a05 	strteq	r0, [lr], -r5, lsl #20
     dbc:	0604052d 	streq	r0, [r4], -sp, lsr #10
     dc0:	00130501 	andseq	r0, r3, r1, lsl #10
     dc4:	4a010402 	bmi	41dd4 <__bss_end__+0x381f4>
     dc8:	02001005 	andeq	r1, r0, #5, 0
     dcc:	002e0104 	eoreq	r0, lr, r4, lsl #2
     dd0:	66010402 	strvs	r0, [r1], -r2, lsl #8
     dd4:	16060205 	strne	r0, [r6], -r5, lsl #4
     dd8:	01060705 	tsteq	r6, r5, lsl #14
     ddc:	4b060205 	blmi	1815f8 <__bss_end__+0x177a18>
     de0:	13060105 	movwne	r0, #24837	; 0x6105
     de4:	001a0266 	andseq	r0, sl, r6, ror #4
     de8:	00840101 	addeq	r0, r4, r1, lsl #2
     dec:	00030000 	andeq	r0, r3, r0
     df0:	00000069 	andeq	r0, r0, r9, rrx
     df4:	0efb0102 	cdpeq	1, 15, cr0, cr11, cr2, {0}
     df8:	0101000d 	tsteq	r1, sp
     dfc:	00000101 	andeq	r0, r0, r1, lsl #2
     e00:	00000100 	andeq	r0, r0, r0, lsl #2
     e04:	732f2e01 			; <UNDEFINED> instruction: 0x732f2e01
     e08:	66666174 			; <UNDEFINED> instruction: 0x66666174
     e0c:	6372732d 	cmnvs	r2, #-1275068416	; 0xb4000000
     e10:	73552f00 	cmpvc	r5, #0, 30
     e14:	2f737265 	svccs	0x00737265
     e18:	696d6461 	stmdbvs	sp!, {r0, r5, r6, sl, sp, lr}^
     e1c:	53432f6e 	movtpl	r2, #16238	; 0x3f6e
     e20:	4e39342d 	cdpmi	4, 3, cr3, cr9, cr13, {1}
     e24:	3473632f 	ldrbtcc	r6, [r3], #-815	; 0xfffffcd1
     e28:	322d6e39 	eorcc	r6, sp, #912	; 0x390
     e2c:	74756131 	ldrbtvc	r6, [r5], #-305	; 0xfffffecf
     e30:	696c2f2f 	stmdbvs	ip!, {r0, r1, r2, r3, r5, r8, r9, sl, fp, sp}^
     e34:	2f697062 	svccs	0x00697062
     e38:	6c636e69 	stclvs	14, cr6, [r3], #-420	; 0xfffffe5c
     e3c:	00656475 	rsbeq	r6, r5, r5, ror r4
     e40:	656c6300 	strbvs	r6, [ip, #-768]!	; 0xfffffd00
     e44:	722d6e61 	eorvc	r6, sp, #1552	; 0x610
     e48:	6f6f6265 	svcvs	0x006f6265
     e4c:	00632e74 	rsbeq	r2, r3, r4, ror lr
     e50:	72000001 	andvc	r0, r0, #1, 0
     e54:	682e6970 	stmdavs	lr!, {r4, r5, r6, r8, fp, sp, lr}
     e58:	00000200 	andeq	r0, r0, r0, lsl #4
     e5c:	00190500 	andseq	r0, r9, r0, lsl #10
     e60:	8d800205 	sfmhi	f0, 4, [r0, #20]
     e64:	05150000 	ldreq	r0, [r5, #-0]
     e68:	2f832f05 	svccs	0x00832f05
     e6c:	0006024b 	andeq	r0, r6, fp, asr #4
     e70:	00980101 	addseq	r0, r8, r1, lsl #2
     e74:	00030000 	andeq	r0, r3, r0
     e78:	00000063 	andeq	r0, r0, r3, rrx
     e7c:	0efb0102 	cdpeq	1, 15, cr0, cr11, cr2, {0}
     e80:	0101000d 	tsteq	r1, sp
     e84:	00000101 	andeq	r0, r0, r1, lsl #2
     e88:	00000100 	andeq	r0, r0, r0, lsl #2
     e8c:	732f2e01 			; <UNDEFINED> instruction: 0x732f2e01
     e90:	66666174 			; <UNDEFINED> instruction: 0x66666174
     e94:	6372732d 	cmnvs	r2, #-1275068416	; 0xb4000000
     e98:	73552f00 	cmpvc	r5, #0, 30
     e9c:	2f737265 	svccs	0x00737265
     ea0:	696d6461 	stmdbvs	sp!, {r0, r5, r6, sl, sp, lr}^
     ea4:	53432f6e 	movtpl	r2, #16238	; 0x3f6e
     ea8:	4e39342d 	cdpmi	4, 3, cr3, cr9, cr13, {1}
     eac:	3473632f 	ldrbtcc	r6, [r3], #-815	; 0xfffffcd1
     eb0:	322d6e39 	eorcc	r6, sp, #912	; 0x390
     eb4:	74756131 	ldrbtvc	r6, [r5], #-305	; 0xfffffecf
     eb8:	696c2f2f 	stmdbvs	ip!, {r0, r1, r2, r3, r5, r8, r9, sl, fp, sp}^
     ebc:	2f697062 	svccs	0x00697062
     ec0:	6c636e69 	stclvs	14, cr6, [r3], #-420	; 0xfffffe5c
     ec4:	00656475 	rsbeq	r6, r5, r5, ror r4
     ec8:	74736300 	ldrbtvc	r6, [r3], #-768	; 0xfffffd00
     ecc:	2e747261 	cdpcs	2, 7, cr7, cr4, cr1, {3}
     ed0:	00010063 	andeq	r0, r1, r3, rrx
     ed4:	69707200 	ldmdbvs	r0!, {r9, ip, sp, lr}^
     ed8:	0200682e 	andeq	r6, r0, #3014656	; 0x2e0000
     edc:	05000000 	streq	r0, [r0, #-0]
     ee0:	02050010 	andeq	r0, r5, #16, 0
     ee4:	00008dac 	andeq	r8, r0, ip, lsr #27
     ee8:	2f050514 	svccs	0x00050514
     eec:	05130205 	ldreq	r0, [r3, #-517]	; 0xfffffdfb
     ef0:	14131405 	ldrne	r1, [r3], #-1029	; 0xfffffbfb
     ef4:	0f060a05 	svceq	0x00060a05
     ef8:	09053106 	stmdbeq	r5, {r1, r2, r8, ip, sp}
     efc:	0610054b 	ldreq	r0, [r0], -fp, asr #10
     f00:	05054a01 	streq	r4, [r5, #-2561]	; 0xfffff5ff
     f04:	02053006 	andeq	r3, r5, #6, 0
     f08:	0006022f 	andeq	r0, r6, pc, lsr #4
     f0c:	00d30101 	sbcseq	r0, r3, r1, lsl #2
     f10:	00030000 	andeq	r0, r3, r0
     f14:	00000063 	andeq	r0, r0, r3, rrx
     f18:	0efb0102 	cdpeq	1, 15, cr0, cr11, cr2, {0}
     f1c:	0101000d 	tsteq	r1, sp
     f20:	00000101 	andeq	r0, r0, r1, lsl #2
     f24:	00000100 	andeq	r0, r0, r0, lsl #2
     f28:	732f2e01 			; <UNDEFINED> instruction: 0x732f2e01
     f2c:	66666174 			; <UNDEFINED> instruction: 0x66666174
     f30:	6372732d 	cmnvs	r2, #-1275068416	; 0xb4000000
     f34:	73552f00 	cmpvc	r5, #0, 30
     f38:	2f737265 	svccs	0x00737265
     f3c:	696d6461 	stmdbvs	sp!, {r0, r5, r6, sl, sp, lr}^
     f40:	53432f6e 	movtpl	r2, #16238	; 0x3f6e
     f44:	4e39342d 	cdpmi	4, 3, cr3, cr9, cr13, {1}
     f48:	3473632f 	ldrbtcc	r6, [r3], #-815	; 0xfffffcd1
     f4c:	322d6e39 	eorcc	r6, sp, #912	; 0x390
     f50:	74756131 	ldrbtvc	r6, [r5], #-305	; 0xfffffecf
     f54:	696c2f2f 	stmdbvs	ip!, {r0, r1, r2, r3, r5, r8, r9, sl, fp, sp}^
     f58:	2f697062 	svccs	0x00697062
     f5c:	6c636e69 	stclvs	14, cr6, [r3], #-420	; 0xfffffe5c
     f60:	00656475 	rsbeq	r6, r5, r5, ror r4
     f64:	62657200 	rsbvs	r7, r5, #0, 4
     f68:	2e746f6f 	cdpcs	15, 7, cr6, cr4, cr15, {3}
     f6c:	00010063 	andeq	r0, r1, r3, rrx
     f70:	69707200 	ldmdbvs	r0!, {r9, ip, sp, lr}^
     f74:	0200682e 	andeq	r6, r0, #3014656	; 0x2e0000
     f78:	05000000 	streq	r0, [r0, #-0]
     f7c:	02050019 	andeq	r0, r5, #25, 0
     f80:	00008dd8 	ldrdeq	r8, [r0], -r8	; <UNPREDICTABLE>
     f84:	05010d03 	streq	r0, [r1, #-3331]	; 0xfffff2fd
     f88:	31131305 	tstcc	r3, r5, lsl #6
     f8c:	01061305 	tsteq	r6, r5, lsl #6
     f90:	052f0105 	streq	r0, [pc, #-261]!	; e93 <__code_start__-0x716d>
     f94:	0585061b 	streq	r0, [r5, #1563]	; 0x61b
     f98:	05141305 	ldreq	r1, [r4, #-773]	; 0xfffffcfb
     f9c:	16052f09 	strne	r2, [r5], -r9, lsl #30
     fa0:	0e050106 	adfeqs	f0, f5, f6
     fa4:	0605052e 	streq	r0, [r5], -lr, lsr #10
     fa8:	0601052f 	streq	r0, [r1], -pc, lsr #10
     fac:	0617052f 	ldreq	r0, [r7], -pc, lsr #10
     fb0:	2f050530 	svccs	0x00050530
     fb4:	01060805 	tsteq	r6, r5, lsl #16
     fb8:	052e0705 	streq	r0, [lr, #-1797]!	; 0xfffff8fb
     fbc:	0b030605 	bleq	c27d8 <__bss_end__+0xb8bf8>
     fc0:	134d2f4a 	movtne	r2, #57162	; 0xdf4a
     fc4:	67151313 			; <UNDEFINED> instruction: 0x67151313
     fc8:	01040200 	mrseq	r0, R12_usr
     fcc:	000d0567 	andeq	r0, sp, r7, ror #10
     fd0:	01010402 	tsteq	r1, r2, lsl #8
     fd4:	02000a05 	andeq	r0, r0, #20480	; 0x5000
     fd8:	05010104 	streq	r0, [r1, #-260]	; 0xfffffefc
     fdc:	2e6a0309 	cdpcs	3, 6, cr0, cr10, cr9, {0}
     fe0:	01000c02 	tsteq	r0, r2, lsl #24
     fe4:	0000d901 	andeq	sp, r0, r1, lsl #18
     fe8:	62000300 	andvs	r0, r0, #0, 6
     fec:	02000000 	andeq	r0, r0, #0, 0
     ff0:	0d0efb01 	vstreq	d15, [lr, #-4]
     ff4:	01010100 	mrseq	r0, (UNDEF: 17)
     ff8:	00000001 	andeq	r0, r0, r1
     ffc:	01000001 	tsteq	r0, r1
    1000:	74732f2e 	ldrbtvc	r2, [r3], #-3886	; 0xfffff0d2
    1004:	2d666661 	stclcs	6, cr6, [r6, #-388]!	; 0xfffffe7c
    1008:	00637273 	rsbeq	r7, r3, r3, ror r2
    100c:	6573552f 	ldrbvs	r5, [r3, #-1327]!	; 0xfffffad1
    1010:	612f7372 			; <UNDEFINED> instruction: 0x612f7372
    1014:	6e696d64 	cdpvs	13, 6, cr6, cr9, cr4, {3}
    1018:	2d53432f 	ldclcs	3, cr4, [r3, #-188]	; 0xffffff44
    101c:	2f4e3934 	svccs	0x004e3934
    1020:	39347363 	ldmdbcc	r4!, {r0, r1, r5, r6, r8, r9, ip, sp, lr}
    1024:	31322d6e 	teqcc	r2, lr, ror #26
    1028:	2f747561 	svccs	0x00747561
    102c:	62696c2f 	rsbvs	r6, r9, #12032	; 0x2f00
    1030:	692f6970 	stmdbvs	pc!, {r4, r5, r6, r8, fp, sp, lr}	; <UNPREDICTABLE>
    1034:	756c636e 	strbvc	r6, [ip, #-878]!	; 0xfffffc92
    1038:	00006564 	andeq	r6, r0, r4, ror #10
    103c:	656d6974 	strbvs	r6, [sp, #-2420]!	; 0xfffff68c
    1040:	00632e72 	rsbeq	r2, r3, r2, ror lr
    1044:	72000001 	andvc	r0, r0, #1, 0
    1048:	682e6970 	stmdavs	lr!, {r4, r5, r6, r8, fp, sp, lr}
    104c:	00000200 	andeq	r0, r0, r0, lsl #4
    1050:	00230500 	eoreq	r0, r3, r0, lsl #10
    1054:	8e540205 	cdphi	2, 5, cr0, cr4, cr5, {0}
    1058:	05150000 	ldreq	r0, [r5, #-0]
    105c:	0c052f05 	stceq	15, cr2, [r5], {5}
    1060:	01050106 	tsteq	r5, r6, lsl #2
    1064:	061f054b 	ldreq	r0, [pc], -fp, asr #10
    1068:	3105054d 	tstcc	r5, sp, asr #10
    106c:	0612052f 	ldreq	r0, [r2], -pc, lsr #10
    1070:	06050501 	streq	r0, [r5], -r1, lsl #10
    1074:	01052f4b 	tsteq	r5, fp, asr #30
    1078:	1c051306 	stcne	3, cr1, [r5], {6}
    107c:	01064c06 	tsteq	r6, r6, lsl #24
    1080:	4b060505 	blmi	18249c <__bss_end__+0x1788bc>
    1084:	01061305 	tsteq	r6, r5, lsl #6
    1088:	0605052e 	streq	r0, [r5], -lr, lsr #10
    108c:	1309052f 	movwne	r0, #38191	; 0x952f
    1090:	01061705 	tsteq	r6, r5, lsl #14
    1094:	2f060905 	svccs	0x00060905
    1098:	01061105 	tsteq	r6, r5, lsl #2
    109c:	052e0c05 	streq	r0, [lr, #-3077]!	; 0xfffff3fb
    10a0:	066b061c 			; <UNDEFINED> instruction: 0x066b061c
    10a4:	06050501 	streq	r0, [r5], -r1, lsl #10
    10a8:	054a062f 	strbeq	r0, [sl, #-1583]	; 0xfffff9d1
    10ac:	1e054b01 	vmlane.f64	d4, d5, d1
    10b0:	01062f06 	tsteq	r6, r6, lsl #30
    10b4:	2f060505 	svccs	0x00060505
    10b8:	01054a06 	tsteq	r5, r6, lsl #20
    10bc:	0002024b 	andeq	r0, r2, fp, asr #4
    10c0:	01b50101 			; <UNDEFINED> instruction: 0x01b50101
    10c4:	00030000 	andeq	r0, r3, r0
    10c8:	0000009e 	muleq	r0, lr, r0
    10cc:	0efb0102 	cdpeq	1, 15, cr0, cr11, cr2, {0}
    10d0:	0101000d 	tsteq	r1, sp
    10d4:	00000101 	andeq	r0, r0, r1, lsl #2
    10d8:	00000100 	andeq	r0, r0, r0, lsl #2
    10dc:	6f682f01 	svcvs	0x00682f01
    10e0:	652f656d 	strvs	r6, [pc, #-1389]!	; b7b <__code_start__-0x7485>
    10e4:	656c676e 	strbvs	r6, [ip, #-1902]!	; 0xfffff892
    10e8:	6c632f72 	stclvs	15, cr2, [r3], #-456	; 0xfffffe38
    10ec:	2f737361 	svccs	0x00737361
    10f0:	34317363 	ldrtcc	r7, [r1], #-867	; 0xfffffc9d
    10f4:	322d6530 	eorcc	r6, sp, #48, 10	; 0xc000000
    10f8:	72707331 	rsbsvc	r7, r0, #-1006632960	; 0xc4000000
    10fc:	696c2f2f 	stmdbvs	ip!, {r0, r1, r2, r3, r5, r8, r9, sl, fp, sp}^
    1100:	2f697062 	svccs	0x00697062
    1104:	6c636e69 	stclvs	14, cr6, [r3], #-420	; 0xfffffe5c
    1108:	00656475 	rsbeq	r6, r5, r5, ror r4
    110c:	7273752f 	rsbsvc	r7, r3, #197132288	; 0xbc00000
    1110:	62696c2f 	rsbvs	r6, r9, #12032	; 0x2f00
    1114:	6363672f 	cmnvs	r3, #12320768	; 0xbc0000
    1118:	6d72612f 	ldfvse	f6, [r2, #-188]!	; 0xffffff44
    111c:	6e6f6e2d 	cdpvs	14, 6, cr6, cr15, cr13, {1}
    1120:	61652d65 	cmnvs	r5, r5, ror #26
    1124:	392f6962 	stmdbcc	pc!, {r1, r5, r6, r8, fp, sp, lr}	; <UNPREDICTABLE>
    1128:	312e322e 			; <UNDEFINED> instruction: 0x312e322e
    112c:	636e692f 	cmnvs	lr, #770048	; 0xbc000
    1130:	6564756c 	strbvs	r7, [r4, #-1388]!	; 0xfffffa94
    1134:	61750000 	cmnvs	r5, r0
    1138:	632e7472 			; <UNDEFINED> instruction: 0x632e7472
    113c:	00000000 	andeq	r0, r0, r0
    1140:	2e697072 	mcrcs	0, 3, r7, cr9, cr2, {3}
    1144:	00010068 	andeq	r0, r1, r8, rrx
    1148:	72617500 	rsbvc	r7, r1, #0, 10
    114c:	00682e74 	rsbeq	r2, r8, r4, ror lr
    1150:	67000001 	strvs	r0, [r0, -r1]
    1154:	2e6f6970 			; <UNDEFINED> instruction: 0x2e6f6970
    1158:	00010068 	andeq	r0, r1, r8, rrx
    115c:	64747300 	ldrbtvs	r7, [r4], #-768	; 0xfffffd00
    1160:	2e746e69 	cdpcs	14, 7, cr6, cr4, cr9, {3}
    1164:	00020068 	andeq	r0, r2, r8, rrx
    1168:	38050000 	stmdacc	r5, {}	; <UNPREDICTABLE>
    116c:	d8020500 	stmdale	r2, {r8, sl}
    1170:	0300008e 	movweq	r0, #142	; 0x8e
    1174:	0106012d 	tsteq	r6, sp, lsr #2
    1178:	67060505 	strvs	r0, [r6, -r5, lsl #10]
    117c:	01061105 	tsteq	r6, r5, lsl #2
    1180:	052e0505 	streq	r0, [lr, #-1285]!	; 0xfffffafb
    1184:	16056701 	strne	r6, [r5], -r1, lsl #14
    1188:	2e0b0306 	cdpcs	3, 0, cr0, cr11, cr6, {0}
    118c:	67350505 	ldrvs	r0, [r5, -r5, lsl #10]!
    1190:	03683568 	cmneq	r8, #104, 10	; 0x1a000000
    1194:	6b852e0c 	blvs	fe14c9cc <__bss_end__+0xfe142dec>
    1198:	0c036969 			; <UNDEFINED> instruction: 0x0c036969
    119c:	676b1366 	strbvs	r1, [fp, -r6, ror #6]!
    11a0:	2f060105 	svccs	0x00060105
    11a4:	08061905 	stmdaeq	r6, {r0, r2, r8, fp, ip}
    11a8:	34050525 	strcc	r0, [r5], #-1317	; 0xfffffadb
    11ac:	01060d05 	tsteq	r6, r5, lsl #26
    11b0:	054c0105 	strbeq	r0, [ip, #-261]	; 0xfffffefb
    11b4:	05670619 	strbeq	r0, [r7, #-1561]!	; 0xfffff9e7
    11b8:	0d053605 	stceq	6, cr3, [r5, #-20]	; 0xffffffec
    11bc:	28050106 	stmdacs	r5, {r1, r2, r8}
    11c0:	3001054a 	andcc	r0, r1, sl, asr #10
    11c4:	87061505 	strhi	r1, [r6, -r5, lsl #10]
    11c8:	2f2f0505 	svccs	0x002f0505
    11cc:	02000905 	andeq	r0, r0, #81920	; 0x14000
    11d0:	05130104 	ldreq	r0, [r3, #-260]	; 0xfffffefc
    11d4:	0402000a 	streq	r0, [r2], #-10
    11d8:	0c051101 	stfeqs	f1, [r5], {1}
    11dc:	01040200 	mrseq	r0, R12_usr
    11e0:	0a050106 	beq	141600 <__bss_end__+0x137a20>
    11e4:	01040200 	mrseq	r0, R12_usr
    11e8:	0605052e 	streq	r0, [r5], -lr, lsr #10
    11ec:	060e054c 	streq	r0, [lr], -ip, asr #10
    11f0:	4a090501 	bmi	2425fc <__bss_end__+0x238a1c>
    11f4:	2f060505 	svccs	0x00060505
    11f8:	0601052f 	streq	r0, [r1], -pc, lsr #10
    11fc:	061c0513 			; <UNDEFINED> instruction: 0x061c0513
    1200:	05010667 	streq	r0, [r1, #-1639]	; 0xfffff999
    1204:	2f4b0605 	svccs	0x004b0605
    1208:	02000905 	andeq	r0, r0, #81920	; 0x14000
    120c:	05130104 	ldreq	r0, [r3, #-260]	; 0xfffffefc
    1210:	0402000a 	streq	r0, [r2], #-10
    1214:	0c051101 	stfeqs	f1, [r5], {1}
    1218:	01040200 	mrseq	r0, R12_usr
    121c:	0a050106 	beq	14163c <__bss_end__+0x137a5c>
    1220:	01040200 	mrseq	r0, R12_usr
    1224:	0605052e 	streq	r0, [r5], -lr, lsr #10
    1228:	0105674c 	tsteq	r5, ip, asr #14
    122c:	19052f06 	stmdbne	r5, {r1, r2, r8, r9, sl, fp, sp}
    1230:	1b054c06 	blne	154250 <__bss_end__+0x14a670>
    1234:	2e2a052e 	cfsh64cs	mvdx0, mvdx10, #30
    1238:	01063105 	tsteq	r6, r5, lsl #2
    123c:	052e0105 	streq	r0, [lr, #-261]!	; 0xfffffefb
    1240:	0531061c 	ldreq	r0, [r1, #-1564]!	; 0xfffff9e4
    1244:	09032f05 	stmdbeq	r3, {r0, r2, r8, r9, sl, fp, sp}
    1248:	060e052e 	streq	r0, [lr], -lr, lsr #10
    124c:	4a210501 	bmi	842658 <__bss_end__+0x838a78>
    1250:	0a030105 	beq	c166c <__bss_end__+0xb7a8c>
    1254:	061a052e 	ldreq	r0, [sl], -lr, lsr #10
    1258:	00090568 	andeq	r0, r9, r8, ror #10
    125c:	30010402 	andcc	r0, r1, r2, lsl #8
    1260:	02000a05 	andeq	r0, r0, #20480	; 0x5000
    1264:	05110104 	ldreq	r0, [r1, #-260]	; 0xfffffefc
    1268:	0402000c 	streq	r0, [r2], #-12
    126c:	05010601 	streq	r0, [r1, #-1537]	; 0xfffff9ff
    1270:	0402000a 	streq	r0, [r2], #-10
    1274:	06022e01 	streq	r2, [r2], -r1, lsl #28
    1278:	b7010100 	strlt	r0, [r1, -r0, lsl #2]
    127c:	03000001 	movweq	r0, #1
    1280:	00006500 	andeq	r6, r0, r0, lsl #10
    1284:	fb010200 	blx	41a8e <__bss_end__+0x37eae>
    1288:	01000d0e 	tsteq	r0, lr, lsl #26
    128c:	00010101 	andeq	r0, r1, r1, lsl #2
    1290:	00010000 	andeq	r0, r1, r0
    1294:	2f2e0100 	svccs	0x002e0100
    1298:	00637273 	rsbeq	r7, r3, r3, ror r2
    129c:	6573552f 	ldrbvs	r5, [r3, #-1327]!	; 0xfffffad1
    12a0:	612f7372 			; <UNDEFINED> instruction: 0x612f7372
    12a4:	6e696d64 	cdpvs	13, 6, cr6, cr9, cr4, {3}
    12a8:	2d53432f 	ldclcs	3, cr4, [r3, #-188]	; 0xffffff44
    12ac:	2f4e3934 	svccs	0x004e3934
    12b0:	39347363 	ldmdbcc	r4!, {r0, r1, r5, r6, r8, r9, ip, sp, lr}
    12b4:	31322d6e 	teqcc	r2, lr, ror #26
    12b8:	2f747561 	svccs	0x00747561
    12bc:	62696c2f 	rsbvs	r6, r9, #12032	; 0x2f00
    12c0:	692f6970 	stmdbvs	pc!, {r4, r5, r6, r8, fp, sp, lr}	; <UNPREDICTABLE>
    12c4:	756c636e 	strbvc	r6, [ip, #-878]!	; 0xfffffc92
    12c8:	00006564 	andeq	r6, r0, r4, ror #10
    12cc:	6f697067 	svcvs	0x00697067
    12d0:	0100632e 	tsteq	r0, lr, lsr #6
    12d4:	70720000 	rsbsvc	r0, r2, r0
    12d8:	00682e69 	rsbeq	r2, r8, r9, ror #28
    12dc:	67000002 	strvs	r0, [r0, -r2]
    12e0:	2e6f6970 			; <UNDEFINED> instruction: 0x2e6f6970
    12e4:	00020068 	andeq	r0, r2, r8, rrx
    12e8:	24050000 	strcs	r0, [r5], #-0
    12ec:	84020500 	strhi	r0, [r2], #-1280	; 0xfffffb00
    12f0:	03000090 	movweq	r0, #144	; 0x90
    12f4:	0505011d 	streq	r0, [r5, #-285]	; 0xfffffee3
    12f8:	06080513 			; <UNDEFINED> instruction: 0x06080513
    12fc:	49240501 	stmdbmi	r4!, {r0, r8, sl}
    1300:	4f060505 	svcmi	0x00060505
    1304:	01063005 	tsteq	r6, r5
    1308:	05662a05 	strbeq	r2, [r6, #-2565]!	; 0xfffff5fb
    130c:	05052e18 	streq	r2, [r5, #-3608]	; 0xfffff1e8
    1310:	16054b06 	strne	r4, [r5], -r6, lsl #22
    1314:	052e0106 	streq	r0, [lr, #-262]!	; 0xfffffefa
    1318:	05300605 	ldreq	r0, [r0, #-1541]!	; 0xfffff9fb
    131c:	05010627 	streq	r0, [r1, #-1575]	; 0xfffff9d9
    1320:	05054a0e 	streq	r4, [r5, #-2574]	; 0xfffff5f2
    1324:	05142f06 	ldreq	r2, [r4, #-3846]	; 0xfffff0fa
    1328:	0501060e 	streq	r0, [r1, #-1550]	; 0xfffff9f2
    132c:	144b0605 	strbne	r0, [fp], #-1541	; 0xfffff9fb
    1330:	01056606 	tsteq	r5, r6, lsl #12
    1334:	0620052f 	strteq	r0, [r0], -pc, lsr #10
    1338:	1405054d 	strne	r0, [r5], #-1357	; 0xfffffab3
    133c:	06080513 			; <UNDEFINED> instruction: 0x06080513
    1340:	47200501 	strmi	r0, [r0, -r1, lsl #10]!
    1344:	33060505 	movwcc	r0, #25861	; 0x6505
    1348:	01056606 	tsteq	r5, r6, lsl #12
    134c:	0621052f 	strteq	r0, [r1], -pc, lsr #10
    1350:	1405054d 	strne	r0, [r5], #-1357	; 0xfffffab3
    1354:	06080513 			; <UNDEFINED> instruction: 0x06080513
    1358:	47210501 	strmi	r0, [r1, -r1, lsl #10]!
    135c:	33060505 	movwcc	r0, #25861	; 0x6505
    1360:	01056606 	tsteq	r5, r6, lsl #12
    1364:	062b052f 	strteq	r0, [fp], -pc, lsr #10
    1368:	0501064d 	streq	r0, [r1, #-1613]	; 0xfffff9b3
    136c:	052f0605 	streq	r0, [pc, #-1541]!	; d6f <__code_start__-0x7291>
    1370:	05010608 	streq	r0, [r1, #-1544]	; 0xfffff9f8
    1374:	064b0609 	strbeq	r0, [fp], -r9, lsl #12
    1378:	0530062e 	ldreq	r0, [r0, #-1582]!	; 0xfffff9d2
    137c:	052f0601 	streq	r0, [pc, #-1537]!	; d83 <__code_start__-0x727d>
    1380:	05350623 	ldreq	r0, [r5, #-1571]!	; 0xfffff9dd
    1384:	08051305 	stmdaeq	r5, {r0, r2, r8, r9, ip}
    1388:	23050106 	movwcs	r0, #20742	; 0x5106
    138c:	06050549 	streq	r0, [r5], -r9, asr #10
    1390:	0630054d 	ldrteq	r0, [r0], -sp, asr #10
    1394:	662a0501 	strtvs	r0, [sl], -r1, lsl #10
    1398:	052e1805 	streq	r1, [lr, #-2053]!	; 0xfffff7fb
    139c:	054b0605 	strbeq	r0, [fp, #-1541]	; 0xfffff9fb
    13a0:	2e010616 	mcrcs	6, 0, r0, cr1, cr6, {0}
    13a4:	30060505 	andcc	r0, r6, r5, lsl #10
    13a8:	01062705 	tsteq	r6, r5, lsl #14
    13ac:	054a0e05 	strbeq	r0, [sl, #-3589]	; 0xfffff1fb
    13b0:	142f0605 	strtne	r0, [pc], #-1541	; 13b8 <__code_start__-0x6c48>
    13b4:	2e4a0614 	mcrcs	6, 2, r0, cr10, cr4, {0}
    13b8:	052f0105 	streq	r0, [pc, #-261]!	; 12bb <__code_start__-0x6d45>
    13bc:	054d061d 	strbeq	r0, [sp, #-1565]	; 0xfffff9e3
    13c0:	08051305 	stmdaeq	r5, {r0, r2, r8, r9, ip}
    13c4:	10050106 	andne	r0, r5, r6, lsl #2
    13c8:	3501054b 	strcc	r0, [r1, #-1355]	; 0xfffffab5
    13cc:	77031d05 	strvc	r1, [r3, -r5, lsl #26]
    13d0:	0605052e 	streq	r0, [r5], -lr, lsr #10
    13d4:	0513134d 	ldreq	r1, [r3, #-845]	; 0xfffffcb3
    13d8:	2e010615 	mcrcs	6, 0, r0, cr1, cr5, {0}
    13dc:	2f060505 	svccs	0x00060505
    13e0:	061b0513 			; <UNDEFINED> instruction: 0x061b0513
    13e4:	05056601 	streq	r6, [r5, #-1537]	; 0xfffff9ff
    13e8:	01052f06 	tsteq	r5, r6, lsl #30
    13ec:	3c051306 	stccc	3, cr1, [r5], {6}
    13f0:	05054c06 	streq	r4, [r5, #-3078]	; 0xfffff3fa
    13f4:	06080513 			; <UNDEFINED> instruction: 0x06080513
    13f8:	653c0501 	ldrvs	r0, [ip, #-1281]!	; 0xfffffaff
    13fc:	69060505 	stmdbvs	r6, {r0, r2, r8, sl}
    1400:	01063005 	tsteq	r6, r5
    1404:	05662a05 	strbeq	r2, [r6, #-2565]!	; 0xfffff5fb
    1408:	05052e18 	streq	r2, [r5, #-3608]	; 0xfffff1e8
    140c:	16054b06 	strne	r4, [r5], -r6, lsl #22
    1410:	052e0106 	streq	r0, [lr, #-262]!	; 0xfffffefa
    1414:	05300605 	ldreq	r0, [r0, #-1541]!	; 0xfffff9fb
    1418:	05010627 	streq	r0, [r1, #-1575]	; 0xfffff9d9
    141c:	05054a0e 	streq	r4, [r5, #-2574]	; 0xfffff5f2
    1420:	05142f06 	ldreq	r2, [r4, #-3846]	; 0xfffff0fa
    1424:	0501060e 	streq	r0, [r1, #-1550]	; 0xfffff9f2
    1428:	064c0605 	strbeq	r0, [ip], -r5, lsl #12
    142c:	01052e2e 	tsteq	r5, lr, lsr #28
    1430:	00040230 	andeq	r0, r4, r0, lsr r2
    1434:	00e90101 	rsceq	r0, r9, r1, lsl #2
    1438:	00030000 	andeq	r0, r3, r0
    143c:	0000005e 	andeq	r0, r0, lr, asr r0
    1440:	0efb0102 	cdpeq	1, 15, cr0, cr11, cr2, {0}
    1444:	0101000d 	tsteq	r1, sp
    1448:	00000101 	andeq	r0, r0, r1, lsl #2
    144c:	00000100 	andeq	r0, r0, r0, lsl #2
    1450:	6c2f2e01 	stcvs	14, cr2, [pc], #-4	; 1454 <__code_start__-0x6bac>
    1454:	00636269 	rsbeq	r6, r3, r9, ror #4
    1458:	6573552f 	ldrbvs	r5, [r3, #-1327]!	; 0xfffffad1
    145c:	612f7372 			; <UNDEFINED> instruction: 0x612f7372
    1460:	6e696d64 	cdpvs	13, 6, cr6, cr9, cr4, {3}
    1464:	2d53432f 	ldclcs	3, cr4, [r3, #-188]	; 0xffffff44
    1468:	2f4e3934 	svccs	0x004e3934
    146c:	39347363 	ldmdbcc	r4!, {r0, r1, r5, r6, r8, r9, ip, sp, lr}
    1470:	31322d6e 	teqcc	r2, lr, ror #26
    1474:	2f747561 	svccs	0x00747561
    1478:	62696c2f 	rsbvs	r6, r9, #12032	; 0x2f00
    147c:	692f6970 	stmdbvs	pc!, {r4, r5, r6, r8, fp, sp, lr}	; <UNPREDICTABLE>
    1480:	756c636e 	strbvc	r6, [ip, #-878]!	; 0xfffffc92
    1484:	00006564 	andeq	r6, r0, r4, ror #10
    1488:	63727473 	cmnvs	r2, #1929379840	; 0x73000000
    148c:	632e7461 			; <UNDEFINED> instruction: 0x632e7461
    1490:	00000100 	andeq	r0, r0, r0, lsl #2
    1494:	2e697072 	mcrcs	0, 3, r7, cr9, cr2, {3}
    1498:	00020068 	andeq	r0, r2, r8, rrx
    149c:	2c050000 	stccs	0, cr0, [r5], {-0}
    14a0:	30020500 	andcc	r0, r2, r0, lsl #10
    14a4:	15000092 	strne	r0, [r0, #-146]	; 0xffffff6e
    14a8:	13130505 	tstne	r3, #20971520	; 0x1400000
    14ac:	11060b05 	tstne	r6, r5, lsl #22
    14b0:	02000505 	andeq	r0, r0, #20971520	; 0x1400000
    14b4:	30060104 	andcc	r0, r6, r4, lsl #2
    14b8:	01040200 	mrseq	r0, R12_usr
    14bc:	00090515 	andeq	r0, r9, r5, lsl r5
    14c0:	13010402 	movwne	r0, #5122	; 0x1402
    14c4:	02001005 	andeq	r1, r0, #5, 0
    14c8:	2e060104 	adfcss	f0, f6, f4
    14cc:	02000b05 	andeq	r0, r0, #5120	; 0x1400
    14d0:	002e0104 	eoreq	r0, lr, r4, lsl #2
    14d4:	06010402 	streq	r0, [r1], -r2, lsl #8
    14d8:	0005052f 	andeq	r0, r5, pc, lsr #10
    14dc:	06010402 	streq	r0, [r1], -r2, lsl #8
    14e0:	054e0601 	strbeq	r0, [lr, #-1537]	; 0xfffff9ff
    14e4:	05010608 	streq	r0, [r1, #-1544]	; 0xfffff9f8
    14e8:	04020005 	streq	r0, [r2], #-5
    14ec:	052f0601 	streq	r0, [pc, #-1537]!	; ef3 <__code_start__-0x710d>
    14f0:	04020009 	streq	r0, [r2], #-9
    14f4:	0b051301 	bleq	146100 <__bss_end__+0x13c520>
    14f8:	01040200 	mrseq	r0, R12_usr
    14fc:	09050106 	stmdbeq	r5, {r1, r2, r8}
    1500:	01040200 	mrseq	r0, R12_usr
    1504:	0f054b06 	svceq	0x00054b06
    1508:	01040200 	mrseq	r0, R12_usr
    150c:	0d050106 	stfeqs	f0, [r5, #-24]	; 0xffffffe8
    1510:	01040200 	mrseq	r0, R12_usr
    1514:	05052f06 	streq	r2, [r5, #-3846]	; 0xfffff0fa
    1518:	01040200 	mrseq	r0, R12_usr
    151c:	06020106 	streq	r0, [r2], -r6, lsl #2
    1520:	a2010100 	andge	r0, r1, #0
    1524:	03000000 	movweq	r0, #0
    1528:	00005e00 	andeq	r5, r0, r0, lsl #28
    152c:	fb010200 	blx	41d36 <__bss_end__+0x38156>
    1530:	01000d0e 	tsteq	r0, lr, lsl #26
    1534:	00010101 	andeq	r0, r1, r1, lsl #2
    1538:	00010000 	andeq	r0, r1, r0
    153c:	2f2e0100 	svccs	0x002e0100
    1540:	6362696c 	cmnvs	r2, #108, 18	; 0x1b0000
    1544:	73552f00 	cmpvc	r5, #0, 30
    1548:	2f737265 	svccs	0x00737265
    154c:	696d6461 	stmdbvs	sp!, {r0, r5, r6, sl, sp, lr}^
    1550:	53432f6e 	movtpl	r2, #16238	; 0x3f6e
    1554:	4e39342d 	cdpmi	4, 3, cr3, cr9, cr13, {1}
    1558:	3473632f 	ldrbtcc	r6, [r3], #-815	; 0xfffffcd1
    155c:	322d6e39 	eorcc	r6, sp, #912	; 0x390
    1560:	74756131 	ldrbtvc	r6, [r5], #-305	; 0xfffffecf
    1564:	696c2f2f 	stmdbvs	ip!, {r0, r1, r2, r3, r5, r8, r9, sl, fp, sp}^
    1568:	2f697062 	svccs	0x00697062
    156c:	6c636e69 	stclvs	14, cr6, [r3], #-420	; 0xfffffe5c
    1570:	00656475 	rsbeq	r6, r5, r5, ror r4
    1574:	72747300 	rsbsvc	r7, r4, #0, 6
    1578:	2e706d63 	cdpcs	13, 7, cr6, cr0, cr3, {3}
    157c:	00010063 	andeq	r0, r1, r3, rrx
    1580:	69707200 	ldmdbvs	r0!, {r9, ip, sp, lr}^
    1584:	0200682e 	andeq	r6, r0, #3014656	; 0x2e0000
    1588:	05000000 	streq	r0, [r0, #-0]
    158c:	0205002a 	andeq	r0, r5, #42, 0	; 0x2a
    1590:	00009264 	andeq	r9, r0, r4, ror #4
    1594:	13090514 	movwne	r0, #38164	; 0x9514
    1598:	05010f05 	streq	r0, [r1, #-3845]	; 0xfffff0fb
    159c:	05010610 	streq	r0, [r1, #-1552]	; 0xfffff9f0
    15a0:	1c052e0f 	stcne	14, cr2, [r5], {15}
    15a4:	01040200 	mrseq	r0, R12_usr
    15a8:	0013054a 	andseq	r0, r3, sl, asr #10
    15ac:	2e010402 	cdpcs	4, 0, cr0, cr1, cr2, {0}
    15b0:	2f061105 	svccs	0x00061105
    15b4:	2e061605 	cfmadd32cs	mvax0, mvfx1, mvfx6, mvfx5
    15b8:	0609052e 	streq	r0, [r9], -lr, lsr #10
    15bc:	0615052f 	ldreq	r0, [r5], -pc, lsr #10
    15c0:	2f010501 	svccs	0x00010501
    15c4:	01000402 	tsteq	r0, r2, lsl #8
    15c8:	0000a001 	andeq	sl, r0, r1
    15cc:	5e000300 	cdppl	3, 0, cr0, cr0, cr0, {0}
    15d0:	02000000 	andeq	r0, r0, #0, 0
    15d4:	0d0efb01 	vstreq	d15, [lr, #-4]
    15d8:	01010100 	mrseq	r0, (UNDEF: 17)
    15dc:	00000001 	andeq	r0, r0, r1
    15e0:	01000001 	tsteq	r0, r1
    15e4:	696c2f2e 	stmdbvs	ip!, {r1, r2, r3, r5, r8, r9, sl, fp, sp}^
    15e8:	2f006362 	svccs	0x00006362
    15ec:	72657355 	rsbvc	r7, r5, #1409286145	; 0x54000001
    15f0:	64612f73 	strbtvs	r2, [r1], #-3955	; 0xfffff08d
    15f4:	2f6e696d 	svccs	0x006e696d
    15f8:	342d5343 	strtcc	r5, [sp], #-835	; 0xfffffcbd
    15fc:	632f4e39 			; <UNDEFINED> instruction: 0x632f4e39
    1600:	6e393473 	mrcvs	4, 1, r3, cr9, cr3, {3}
    1604:	6131322d 	teqvs	r1, sp, lsr #4
    1608:	2f2f7475 	svccs	0x002f7475
    160c:	7062696c 	rsbvc	r6, r2, ip, ror #18
    1610:	6e692f69 	cdpvs	15, 6, cr2, cr9, cr9, {3}
    1614:	64756c63 	ldrbtvs	r6, [r5], #-3171	; 0xfffff39d
    1618:	73000065 	movwvc	r0, #101	; 0x65
    161c:	70637274 	rsbvc	r7, r3, r4, ror r2
    1620:	00632e79 	rsbeq	r2, r3, r9, ror lr
    1624:	72000001 	andvc	r0, r0, #1, 0
    1628:	682e6970 	stmdavs	lr!, {r4, r5, r6, r8, fp, sp, lr}
    162c:	00000200 	andeq	r0, r0, r0, lsl #4
    1630:	002a0500 	eoreq	r0, sl, r0, lsl #10
    1634:	92900205 	addsls	r0, r0, #1342177280	; 0x50000000
    1638:	05140000 	ldreq	r0, [r4, #-0]
    163c:	05131305 	ldreq	r1, [r3, #-773]	; 0xfffffcfb
    1640:	05110614 	ldreq	r0, [r1, #-1556]	; 0xfffff9ec
    1644:	04020022 	streq	r0, [r2], #-34	; 0xffffffde
    1648:	052f0601 	streq	r0, [pc, #-1537]!	; 104f <__code_start__-0x6fb1>
    164c:	0402000b 	streq	r0, [r2], #-11
    1650:	15050101 	strne	r0, [r5, #-257]	; 0xfffffeff
    1654:	01040200 	mrseq	r0, R12_usr
    1658:	13050106 	movwne	r0, #20742	; 0x5106
    165c:	01040200 	mrseq	r0, R12_usr
    1660:	000b054a 	andeq	r0, fp, sl, asr #10
    1664:	4a010402 	bmi	42674 <__bss_end__+0x38a94>
    1668:	01000602 	tsteq	r0, r2, lsl #12
    166c:	00010301 	andeq	r0, r1, r1, lsl #6
    1670:	c7000300 	strgt	r0, [r0, -r0, lsl #6]
    1674:	02000000 	andeq	r0, r0, #0, 0
    1678:	0d0efb01 	vstreq	d15, [lr, #-4]
    167c:	01010100 	mrseq	r0, (UNDEF: 17)
    1680:	00000001 	andeq	r0, r0, r1
    1684:	01000001 	tsteq	r0, r1
    1688:	696c2f2e 	stmdbvs	ip!, {r1, r2, r3, r5, r8, r9, sl, fp, sp}^
    168c:	2f006362 	svccs	0x00006362
    1690:	72657355 	rsbvc	r7, r5, #1409286145	; 0x54000001
    1694:	64612f73 	strbtvs	r2, [r1], #-3955	; 0xfffff08d
    1698:	2f6e696d 	svccs	0x006e696d
    169c:	342d5343 	strtcc	r5, [sp], #-835	; 0xfffffcbd
    16a0:	632f4e39 			; <UNDEFINED> instruction: 0x632f4e39
    16a4:	6e393473 	mrcvs	4, 1, r3, cr9, cr3, {3}
    16a8:	6131322d 	teqvs	r1, sp, lsr #4
    16ac:	2f2f7475 	svccs	0x002f7475
    16b0:	7062696c 	rsbvc	r6, r2, ip, ror #18
    16b4:	6e692f69 	cdpvs	15, 6, cr2, cr9, cr9, {3}
    16b8:	64756c63 	ldrbtvs	r6, [r5], #-3171	; 0xfffff39d
    16bc:	6f2f0065 	svcvs	0x002f0065
    16c0:	682f7470 	stmdavs	pc!, {r4, r5, r6, sl, ip, sp, lr}	; <UNPREDICTABLE>
    16c4:	62656d6f 	rsbvs	r6, r5, #7104	; 0x1bc0
    16c8:	2f776572 	svccs	0x00776572
    16cc:	6c6c6543 	cfstr64vs	mvdx6, [ip], #-268	; 0xfffffef4
    16d0:	612f7261 			; <UNDEFINED> instruction: 0x612f7261
    16d4:	6e2d6d72 	mcrvs	13, 1, r6, cr13, cr2, {3}
    16d8:	2d656e6f 	stclcs	14, cr6, [r5, #-444]!	; 0xfffffe44
    16dc:	69626165 	stmdbvs	r2!, {r0, r2, r5, r6, r8, sp, lr}^
    16e0:	7365742d 	cmnvc	r5, #754974720	; 0x2d000000
    16e4:	2d392f74 	ldccs	15, cr2, [r9, #-464]!	; 0xfffffe30
    16e8:	39313032 	ldmdbcc	r1!, {r1, r4, r5, ip, sp}
    16ec:	632d3471 			; <UNDEFINED> instruction: 0x632d3471
    16f0:	37303173 			; <UNDEFINED> instruction: 0x37303173
    16f4:	696c2f65 	stmdbvs	ip!, {r0, r2, r5, r6, r8, r9, sl, fp, sp}^
    16f8:	63672f62 	cmnvs	r7, #392	; 0x188
    16fc:	72612f63 	rsbvc	r2, r1, #396	; 0x18c
    1700:	6f6e2d6d 	svcvs	0x006e2d6d
    1704:	652d656e 	strvs	r6, [sp, #-1390]!	; 0xfffffa92
    1708:	2f696261 	svccs	0x00696261
    170c:	2e322e39 	mrccs	14, 1, r2, cr2, cr9, {1}
    1710:	6e692f31 	mcrvs	15, 3, r2, cr9, cr1, {1}
    1714:	64756c63 	ldrbtvs	r6, [r5], #-3171	; 0xfffff39d
    1718:	73000065 	movwvc	r0, #101	; 0x65
    171c:	636e7274 	cmnvs	lr, #116, 4	; 0x40000007
    1720:	632e706d 			; <UNDEFINED> instruction: 0x632e706d
    1724:	00000100 	andeq	r0, r0, r0, lsl #2
    1728:	2e697072 	mcrcs	0, 3, r7, cr9, cr2, {3}
    172c:	00020068 	andeq	r0, r2, r8, rrx
    1730:	64747300 	ldrbtvs	r7, [r4], #-768	; 0xfffffd00
    1734:	2e666564 	cdpcs	5, 6, cr6, cr6, cr4, {3}
    1738:	00030068 	andeq	r0, r3, r8, rrx
    173c:	39050000 	stmdbcc	r5, {}	; <UNPREDICTABLE>
    1740:	b0020500 	andlt	r0, r2, r0, lsl #10
    1744:	15000092 	strne	r0, [r0, #-146]	; 0xffffff6e
    1748:	13130505 	tstne	r3, #20971520	; 0x1400000
    174c:	06010a05 	streq	r0, [r1], -r5, lsl #20
    1750:	09054a01 	stmdbeq	r5, {r0, r9, fp, lr}
    1754:	0c052f06 	stceq	15, cr2, [r5], {6}
    1758:	13050106 	movwne	r0, #20742	; 0x5106
    175c:	2e0b052e 	cfsh32cs	mvfx0, mvfx11, #30
    1760:	4b060d05 	blmi	184b7c <__bss_end__+0x17af9c>
    1764:	01061b05 	tsteq	r6, r5, lsl #22
    1768:	300c052e 	andcc	r0, ip, lr, lsr #10
    176c:	022f0105 	eoreq	r0, pc, #1073741825	; 0x40000001
    1770:	01010002 	tsteq	r1, r2

Disassembly of section .debug_str:

00000000 <.debug_str>:
   0:	6c616d6b 	stclvs	13, cr6, [r1], #-428	; 0xfffffe54
   4:	5f636f6c 	svcpl	0x00636f6c
   8:	67696c61 	strbvs	r6, [r9, -r1, ror #24]!
   c:	0064656e 	rsbeq	r6, r4, lr, ror #10
  10:	6572666b 	ldrbvs	r6, [r2, #-1643]!	; 0xfffff995
  14:	6c615f65 	stclvs	15, cr5, [r1], #-404	; 0xfffffe6c
  18:	6f6e006c 	svcvs	0x006e006c
  1c:	69616d74 	stmdbvs	r1!, {r2, r4, r5, r6, r8, sl, fp, sp, lr}^
  20:	6175006e 	cmnvs	r5, lr, rrx
  24:	695f7472 	ldmdbvs	pc, {r1, r4, r5, r6, sl, ip, sp, lr}^	; <UNPREDICTABLE>
  28:	0074696e 	rsbseq	r6, r4, lr, ror #18
  2c:	69736e75 	ldmdbvs	r3!, {r0, r2, r4, r5, r6, r9, sl, fp, sp, lr}^
  30:	64656e67 	strbtvs	r6, [r5], #-3687	; 0xfffff199
  34:	61686320 	cmnvs	r8, r0, lsr #6
  38:	6c630072 	stclvs	0, cr0, [r3], #-456	; 0xfffffe38
  3c:	5f6e6165 	svcpl	0x006e6165
  40:	6f626572 	svcvs	0x00626572
  44:	6800746f 	stmdavs	r0, {r0, r1, r2, r3, r5, r6, sl, ip, sp, lr}
  48:	31706165 	cmncc	r0, r5, ror #2
  4c:	6f687300 	svcvs	0x00687300
  50:	75207472 	strvc	r7, [r0, #-1138]!	; 0xfffffb8e
  54:	6769736e 	strbvs	r7, [r9, -lr, ror #6]!
  58:	2064656e 	rsbcs	r6, r4, lr, ror #10
  5c:	00746e69 	rsbseq	r6, r4, r9, ror #28
  60:	5f697072 	svcpl	0x00697072
  64:	65736572 	ldrbvs	r6, [r3, #-1394]!	; 0xfffffa8e
  68:	75705f74 	ldrbvc	r5, [r0, #-3956]!	; 0xfffff08c
  6c:	35006374 	strcc	r6, [r0, #-884]	; 0xfffffc8c
  70:	7365742d 	cmnvc	r5, #754974720	; 0x2d000000
  74:	00632e74 	rsbeq	r2, r3, r4, ror lr
  78:	55465f5f 	strbpl	r5, [r6, #-3935]	; 0xfffff0a1
  7c:	4954434e 	ldmdbmi	r4, {r1, r2, r3, r6, r8, r9, lr}^
  80:	5f5f4e4f 	svcpl	0x005f4e4f
  84:	61656800 	cmnvs	r5, r0, lsl #16
  88:	6c003070 	stcvs	0, cr3, [r0], {112}	; 0x70
  8c:	20676e6f 	rsbcs	r6, r7, pc, ror #28
  90:	676e6f6c 	strbvs	r6, [lr, -ip, ror #30]!
  94:	736e7520 	cmnvc	lr, #32, 10	; 0x8000000
  98:	656e6769 	strbvs	r6, [lr, #-1897]!	; 0xfffff897
  9c:	6e692064 	cdpvs	0, 6, cr2, cr9, cr4, {3}
  a0:	6f6c0074 	svcvs	0x006c0074
  a4:	6c20676e 	stcvs	7, cr6, [r0], #-440	; 0xfffffe48
  a8:	20676e6f 	rsbcs	r6, r7, pc, ror #28
  ac:	00746e69 	rsbseq	r6, r4, r9, ror #28
  b0:	5f697072 	svcpl	0x00697072
  b4:	63747570 	cmnvs	r4, #112, 10	; 0x1c000000
  b8:	00726168 	rsbseq	r6, r2, r8, ror #2
  bc:	6573552f 	ldrbvs	r5, [r3, #-1327]!	; 0xfffffad1
  c0:	612f7372 			; <UNDEFINED> instruction: 0x612f7372
  c4:	6e696d64 	cdpvs	13, 6, cr6, cr9, cr4, {3}
  c8:	2d53432f 	ldclcs	3, cr4, [r3, #-188]	; 0xffffff44
  cc:	2f4e3934 	svccs	0x004e3934
  d0:	39347363 	ldmdbcc	r4!, {r0, r1, r5, r6, r8, r9, ip, sp, lr}
  d4:	31322d6e 	teqcc	r2, lr, ror #26
  d8:	2f747561 	svccs	0x00747561
  dc:	7362616c 	cmnvc	r2, #27
  e0:	692d352f 	pushvs	{r0, r1, r2, r3, r5, r8, sl, ip, sp}
  e4:	7265746e 	rsbvc	r7, r5, #1845493760	; 0x6e000000
  e8:	74707572 	ldrbtvc	r7, [r0], #-1394	; 0xfffffa8e
  ec:	2d302f73 	ldccs	15, cr2, [r0, #-460]!	; 0xfffffe34
  f0:	6c616d6b 	stclvs	13, cr6, [r1], #-428	; 0xfffffe54
  f4:	00636f6c 	rsbeq	r6, r3, ip, ror #30
  f8:	726f6873 	rsbvc	r6, pc, #7536640	; 0x730000
  fc:	6e692074 	mcrvs	0, 3, r2, cr9, cr4, {3}
 100:	6d6b0074 	stclvs	0, cr0, [fp, #-464]!	; 0xfffffe30
 104:	6f6c6c61 	svcvs	0x006c6c61
 108:	65685f63 	strbvs	r5, [r8, #-3939]!	; 0xfffff09d
 10c:	705f7061 	subsvc	r7, pc, r1, rrx
 110:	6b007274 	blvs	1cae8 <__bss_end__+0x12f08>
 114:	6c6c616d 	stfvse	f6, [ip], #-436	; 0xfffffe4c
 118:	695f636f 	ldmdbvs	pc, {r0, r1, r2, r3, r5, r6, r8, r9, sp, lr}^	; <UNPREDICTABLE>
 11c:	5f74696e 	svcpl	0x0074696e
 120:	5f746573 	svcpl	0x00746573
 124:	72617473 	rsbvc	r7, r1, #1929379840	; 0x73000000
 128:	4e470074 	mcrmi	0, 2, r0, cr7, cr4, {3}
 12c:	39432055 	stmdbcc	r3, {r0, r2, r4, r6, sp}^
 130:	2e392039 	mrccs	0, 1, r2, cr9, cr9, {1}
 134:	20312e32 	eorscs	r2, r1, r2, lsr lr
 138:	39313032 	ldmdbcc	r1!, {r1, r4, r5, ip, sp}
 13c:	35323031 	ldrcc	r3, [r2, #-49]!	; 0xffffffcf
 140:	65722820 	ldrbvs	r2, [r2, #-2080]!	; 0xfffff7e0
 144:	7361656c 	cmnvc	r1, #108, 10	; 0x1b000000
 148:	5b202965 	blpl	80a6e4 <__bss_end__+0x800b04>
 14c:	2f4d5241 	svccs	0x004d5241
 150:	2d6d7261 	sfmcs	f7, 2, [sp, #-388]!	; 0xfffffe7c
 154:	72622d39 	rsbvc	r2, r2, #3648	; 0xe40
 158:	68636e61 	stmdavs	r3!, {r0, r5, r6, r9, sl, fp, sp, lr}^
 15c:	76657220 	strbtvc	r7, [r5], -r0, lsr #4
 160:	6f697369 	svcvs	0x00697369
 164:	3732206e 	ldrcc	r2, [r2, -lr, rrx]!
 168:	39393537 	ldmdbcc	r9!, {r0, r1, r2, r4, r5, r8, sl, ip, sp}
 16c:	6d2d205d 	stcvs	0, cr2, [sp, #-372]!	; 0xfffffe8c
 170:	3d757063 	ldclcc	0, cr7, [r5, #-396]!	; 0xfffffe74
 174:	316d7261 	cmncc	sp, r1, ror #4
 178:	6a363731 	bvs	d8de44 <__bss_end__+0xd84264>
 17c:	732d667a 			; <UNDEFINED> instruction: 0x732d667a
 180:	746d2d20 	strbtvc	r2, [sp], #-3360	; 0xfffff2e0
 184:	3d656e75 	stclcc	14, cr6, [r5, #-468]!	; 0xfffffe2c
 188:	316d7261 	cmncc	sp, r1, ror #4
 18c:	6a363731 	bvs	d8de58 <__bss_end__+0xd84278>
 190:	732d667a 			; <UNDEFINED> instruction: 0x732d667a
 194:	666d2d20 	strbtvs	r2, [sp], -r0, lsr #26
 198:	74616f6c 	strbtvc	r6, [r1], #-3948	; 0xfffff094
 19c:	6962612d 	stmdbvs	r2!, {r0, r2, r3, r5, r8, sp, lr}^
 1a0:	666f733d 			; <UNDEFINED> instruction: 0x666f733d
 1a4:	6d2d2074 	stcvs	0, cr2, [sp, #-464]!	; 0xfffffe30
 1a8:	206d7261 	rsbcs	r7, sp, r1, ror #4
 1ac:	72616d2d 	rsbvc	r6, r1, #2880	; 0xb40
 1b0:	613d6863 	teqvs	sp, r3, ror #16
 1b4:	36766d72 			; <UNDEFINED> instruction: 0x36766d72
 1b8:	2d207a6b 	vstmdbcs	r0!, {s14-s120}
 1bc:	62646767 	rsbvs	r6, r4, #27000832	; 0x19c0000
 1c0:	674f2d20 	strbvs	r2, [pc, -r0, lsr #26]
 1c4:	74732d20 	ldrbtvc	r2, [r3], #-3360	; 0xfffff2e0
 1c8:	6e673d64 	cdpvs	13, 6, cr3, cr7, cr4, {3}
 1cc:	20393975 	eorscs	r3, r9, r5, ror r9
 1d0:	7266662d 	rsbvc	r6, r6, #47185920	; 0x2d00000
 1d4:	74736565 	ldrbtvc	r6, [r3], #-1381	; 0xfffffa9b
 1d8:	69646e61 	stmdbvs	r4!, {r0, r5, r6, r9, sl, fp, sp, lr}^
 1dc:	6c00676e 	stcvs	7, cr6, [r0], {110}	; 0x6e
 1e0:	00747361 	rsbseq	r7, r4, r1, ror #6
 1e4:	615f7369 	cmpvs	pc, r9, ror #6
 1e8:	6e67696c 	vnmulvs.f16	s13, s14, s25	; <UNPREDICTABLE>
 1ec:	6b006465 	blvs	19388 <__bss_end__+0xf7a8>
 1f0:	6c6c616d 	stfvse	f6, [ip], #-436	; 0xfffffe4c
 1f4:	695f636f 	ldmdbvs	pc, {r0, r1, r2, r3, r5, r6, r8, r9, sp, lr}^	; <UNPREDICTABLE>
 1f8:	0074696e 	rsbseq	r6, r4, lr, ror #18
 1fc:	74696e69 	strbtvc	r6, [r9], #-3689	; 0xfffff197
 200:	6900705f 	stmdbvs	r0, {r0, r1, r2, r3, r4, r6, ip, sp, lr}
 204:	6f705f73 	svcvs	0x00705f73
 208:	61003277 	tstvs	r0, r7, ror r2
 20c:	6e67696c 	vnmulvs.f16	s13, s14, s25	; <UNPREDICTABLE>
 210:	746e656d 	strbtvc	r6, [lr], #-1389	; 0xfffffa93
 214:	756f7200 	strbvc	r7, [pc, #-512]!	; 1c <__code_start__-0x7fe4>
 218:	7075646e 	rsbsvc	r6, r5, lr, ror #8
 21c:	756f6400 	strbvc	r6, [pc, #-1024]!	; fffffe24 <__bss_end__+0xffff6244>
 220:	00656c62 	rsbeq	r6, r5, r2, ror #24
 224:	70616568 	rsbvc	r6, r1, r8, ror #10
 228:	616d6b00 	cmnvs	sp, r0, lsl #22
 22c:	636f6c6c 	cmnvs	pc, #108, 24	; 0x6c00
 230:	5f00632e 	svcpl	0x0000632e
 234:	6165685f 	cmnvs	r5, pc, asr r8
 238:	74735f70 	ldrbtvc	r5, [r3], #-3952	; 0xfffff090
 23c:	5f747261 	svcpl	0x00747261
 240:	626e005f 	rsbvs	r0, lr, #95, 0	; 0x5f
 244:	73657479 	cmnvc	r5, #2030043136	; 0x79000000
 248:	64615f00 	strbtvs	r5, [r1], #-3840	; 0xfffff100
 24c:	61007264 	tstvs	r0, r4, ror #4
 250:	00736772 	rsbseq	r6, r3, r2, ror r7
 254:	705f6176 	subsvc	r6, pc, r6, ror r1	; <UNPREDICTABLE>
 258:	746e6972 	strbtvc	r6, [lr], #-2418	; 0xfffff68e
 25c:	5f5f006b 	svcpl	0x005f006b
 260:	63756e67 	cmnvs	r5, #1648	; 0x670
 264:	5f61765f 	svcpl	0x0061765f
 268:	7473696c 	ldrbtvc	r6, [r3], #-2412	; 0xfffff694
 26c:	615f5f00 	cmpvs	pc, r0, lsl #30
 270:	2f2e0070 	svccs	0x002e0070
 274:	6362696c 	cmnvs	r2, #108, 18	; 0x1b0000
 278:	6972702f 	ldmdbvs	r2!, {r0, r1, r2, r3, r5, ip, sp, lr}^
 27c:	2e6b746e 	cdpcs	4, 6, cr7, cr11, cr14, {3}
 280:	5f5f0063 	svcpl	0x005f0063
 284:	6c5f6176 	ldfvse	f6, [pc], {118}	; 0x76
 288:	00747369 	rsbseq	r7, r4, r9, ror #6
 28c:	6573552f 	ldrbvs	r5, [r3, #-1327]!	; 0xfffffad1
 290:	612f7372 			; <UNDEFINED> instruction: 0x612f7372
 294:	6e696d64 	cdpvs	13, 6, cr6, cr9, cr4, {3}
 298:	2d53432f 	ldclcs	3, cr4, [r3, #-188]	; 0xffffff44
 29c:	2f4e3934 	svccs	0x004e3934
 2a0:	39347363 	ldmdbcc	r4!, {r0, r1, r5, r6, r8, r9, ip, sp, lr}
 2a4:	31322d6e 	teqcc	r2, lr, ror #26
 2a8:	2f747561 	svccs	0x00747561
 2ac:	7062696c 	rsbvc	r6, r2, ip, ror #18
 2b0:	6e690069 	cdpvs	0, 6, cr0, cr9, cr9, {3}
 2b4:	6e726574 	mrcvs	5, 3, r6, cr2, cr4, {3}
 2b8:	705f6c61 	subsvc	r6, pc, r1, ror #24
 2bc:	68637475 	stmdavs	r3!, {r0, r2, r4, r5, r6, sl, ip, sp, lr}^
 2c0:	72007261 	andvc	r7, r0, #268435462	; 0x10000006
 2c4:	735f6970 	cmpvc	pc, #112, 18	; 0x1c0000
 2c8:	705f7465 	subsvc	r7, pc, r5, ror #8
 2cc:	00637475 	rsbeq	r7, r3, r5, ror r4
 2d0:	696c2f2e 	stmdbvs	ip!, {r1, r2, r3, r5, r8, r9, sl, fp, sp}^
 2d4:	702f6362 	eorvc	r6, pc, r2, ror #6
 2d8:	68637475 	stmdavs	r3!, {r0, r2, r4, r5, r6, sl, ip, sp, lr}^
 2dc:	632e7261 			; <UNDEFINED> instruction: 0x632e7261
 2e0:	72617500 	rsbvc	r7, r1, #0, 10
 2e4:	75705f74 	ldrbvc	r5, [r0, #-3956]!	; 0xfffff08c
 2e8:	69006374 	stmdbvs	r0, {r2, r4, r5, r6, r8, r9, sp, lr}
 2ec:	7265746e 	rsbvc	r7, r5, #1845493760	; 0x6e000000
 2f0:	5f6c616e 	svcpl	0x006c616e
 2f4:	6b747570 	blvs	1d1d8bc <__bss_end__+0x1d13cdc>
 2f8:	6c2f2e00 	stcvs	14, cr2, [pc], #-0	; 300 <__code_start__-0x7d00>
 2fc:	2f636269 	svccs	0x00636269
 300:	6b747570 	blvs	1d1d8c8 <__bss_end__+0x1d13ce8>
 304:	6900632e 	stmdbvs	r0, {r1, r2, r3, r5, r8, r9, sp, lr}
 308:	67696473 			; <UNDEFINED> instruction: 0x67696473
 30c:	75007469 	strvc	r7, [r0, #-1129]	; 0xfffffb97
 310:	36746e69 	ldrbtcc	r6, [r4], -r9, ror #28
 314:	00745f34 	rsbseq	r5, r4, r4, lsr pc
 318:	696c2f2e 	stmdbvs	ip!, {r1, r2, r3, r5, r8, r9, sl, fp, sp}^
 31c:	762f6362 	strtvc	r6, [pc], -r2, ror #6
 320:	72702d61 	rsbsvc	r2, r0, #6208	; 0x1840
 324:	6b746e69 	blvs	1d1bcd0 <__bss_end__+0x1d120f0>
 328:	5f00632e 	svcpl	0x0000632e
 32c:	646f635f 	strbtvs	r6, [pc], #-863	; 334 <__code_start__-0x7ccc>
 330:	74735f65 	ldrbtvc	r5, [r3], #-3941	; 0xfffff09b
 334:	5f747261 	svcpl	0x00747261
 338:	5f5f005f 	svcpl	0x005f005f
 33c:	5f737362 	svcpl	0x00737362
 340:	72617473 	rsbvc	r7, r1, #1929379840	; 0x73000000
 344:	005f5f74 	subseq	r5, pc, r4, ror pc	; <UNPREDICTABLE>
 348:	74646977 	strbtvc	r6, [r4], #-2423	; 0xfffff689
 34c:	5f5f0068 	svcpl	0x005f0068
 350:	61746164 	cmnvs	r4, r4, ror #2
 354:	646e655f 	strbtvs	r6, [lr], #-1375	; 0xfffffaa1
 358:	70005f5f 	andvc	r5, r0, pc, asr pc
 35c:	5f637475 	svcpl	0x00637475
 360:	5f007066 	svcpl	0x00007066
 364:	7373625f 	cmnvc	r3, #-268435451	; 0xf0000005
 368:	646e655f 	strbtvs	r6, [lr], #-1375	; 0xfffffaa1
 36c:	75005f5f 	strvc	r5, [r0, #-3935]	; 0xfffff0a1
 370:	33746e69 	cmncc	r4, #1680	; 0x690
 374:	00745f32 	rsbseq	r5, r4, r2, lsr pc
 378:	5f697072 	svcpl	0x00697072
 37c:	5f746573 	svcpl	0x00746573
 380:	7074756f 	rsbsvc	r7, r4, pc, ror #10
 384:	66007475 			; <UNDEFINED> instruction: 0x66007475
 388:	735f746d 	cmpvc	pc, #1828716544	; 0x6d000000
 38c:	74726174 	ldrbtvc	r6, [r2], #-372	; 0xfffffe8c
 390:	72747300 	rsbsvc	r7, r4, #0, 6
 394:	00746163 	rsbseq	r6, r4, r3, ror #2
 398:	63727473 	cmnvs	r2, #1929379840	; 0x73000000
 39c:	6e007970 			; <UNDEFINED> instruction: 0x6e007970
 3a0:	705f6765 	subsvc	r6, pc, r5, ror #14
 3a4:	635f5f00 	cmpvs	pc, #0, 30
 3a8:	5f65646f 	svcpl	0x0065646f
 3ac:	5f646e65 	svcpl	0x00646e65
 3b0:	6d65005f 	stclvs	0, cr0, [r5, #-380]!	; 0xfffffe84
 3b4:	70007469 	andvc	r7, r0, r9, ror #8
 3b8:	5f737475 	svcpl	0x00737475
 3bc:	72007066 	andvc	r7, r0, #102, 0	; 0x66
 3c0:	72657665 	rsbvc	r7, r5, #105906176	; 0x6500000
 3c4:	73006573 	movwvc	r6, #1395	; 0x573
 3c8:	6d637274 	sfmvs	f7, 2, [r3, #-464]!	; 0xfffffe30
 3cc:	5f5f0070 	svcpl	0x005f0070
 3d0:	61746164 	cmnvs	r4, r4, ror #2
 3d4:	6174735f 	cmnvs	r4, pc, asr r3
 3d8:	5f5f7472 	svcpl	0x005f7472
 3dc:	705f5f00 	subsvc	r5, pc, r0, lsl #30
 3e0:	5f676f72 	svcpl	0x00676f72
 3e4:	5f646e65 	svcpl	0x00646e65
 3e8:	756e005f 	strbvc	r0, [lr, #-95]!	; 0xffffffa1
 3ec:	7300316d 	movwvc	r3, #365	; 0x16d
 3f0:	636e7274 	cmnvs	lr, #116, 4	; 0x40000007
 3f4:	6200706d 	andvs	r7, r0, #109, 0	; 0x6d
 3f8:	00657361 	rsbeq	r7, r5, r1, ror #6
 3fc:	6e676973 			; <UNDEFINED> instruction: 0x6e676973
 400:	705f6465 	subsvc	r6, pc, r5, ror #8
 404:	69707200 	ldmdbvs	r0!, {r9, ip, sp, lr}^
 408:	6265725f 	rsbvs	r7, r5, #-268435451	; 0xf0000005
 40c:	00746f6f 	rsbseq	r6, r4, pc, ror #30
 410:	616c6564 	cmnvs	ip, r4, ror #10
 414:	736d5f79 	cmnvc	sp, #484	; 0x1e4
 418:	732f2e00 			; <UNDEFINED> instruction: 0x732f2e00
 41c:	66666174 			; <UNDEFINED> instruction: 0x66666174
 420:	6372732d 	cmnvs	r2, #-1275068416	; 0xb4000000
 424:	656c632f 	strbvs	r6, [ip, #-815]!	; 0xfffffcd1
 428:	722d6e61 	eorvc	r6, sp, #1552	; 0x610
 42c:	6f6f6265 	svcvs	0x006f6265
 430:	00632e74 	rsbeq	r2, r3, r4, ror lr
 434:	74726175 	ldrbtvc	r6, [r2], #-373	; 0xfffffe8b
 438:	756c665f 	strbvc	r6, [ip, #-1631]!	; 0xfffff9a1
 43c:	745f6873 	ldrbvc	r6, [pc], #-2163	; 444 <__code_start__-0x7bbc>
 440:	635f0078 	cmpvs	pc, #120, 0	; 0x78
 444:	72617473 	rsbvc	r7, r1, #1929379840	; 0x73000000
 448:	73620074 	cmnvc	r2, #116, 0	; 0x74
 44c:	6e655f73 	mcrvs	15, 3, r5, cr5, cr3, {3}
 450:	2f2e0064 	svccs	0x002e0064
 454:	66617473 			; <UNDEFINED> instruction: 0x66617473
 458:	72732d66 	rsbsvc	r2, r3, #6528	; 0x1980
 45c:	73632f63 	cmnvc	r3, #396	; 0x18c
 460:	74726174 	ldrbtvc	r6, [r2], #-372	; 0xfffffe8c
 464:	5000632e 	andpl	r6, r0, lr, lsr #6
 468:	44575f4d 	ldrbmi	r5, [r7], #-3917	; 0xfffff0b3
 46c:	5000474f 	andpl	r4, r0, pc, asr #14
 470:	32335455 	eorscc	r5, r3, #1426063360	; 0x55000000
 474:	74657300 	strbtvc	r7, [r5], #-768	; 0xfffffd00
 478:	6573755f 	ldrbvs	r7, [r3, #-1375]!	; 0xfffffaa1
 47c:	656c5f72 	strbvs	r5, [ip, #-3954]!	; 0xfffff08e
 480:	006c6576 	rsbeq	r6, ip, r6, ror r5
 484:	74732f2e 	ldrbtvc	r2, [r3], #-3886	; 0xfffff0d2
 488:	2d666661 	stclcs	6, cr6, [r6, #-388]!	; 0xfffffe7c
 48c:	2f637273 	svccs	0x00637273
 490:	6f626572 	svcvs	0x00626572
 494:	632e746f 			; <UNDEFINED> instruction: 0x632e746f
 498:	5f4d5000 	svcpl	0x004d5000
 49c:	53534150 	cmppl	r3, #20
 4a0:	44524f57 	ldrbmi	r4, [r2], #-3927	; 0xfffff0a9
 4a4:	5f746100 	svcpl	0x00746100
 4a8:	72657375 	rsbvc	r7, r5, #-738197503	; 0xd4000001
 4ac:	76656c5f 			; <UNDEFINED> instruction: 0x76656c5f
 4b0:	50006c65 	andpl	r6, r0, r5, ror #24
 4b4:	53525f4d 	cmppl	r2, #308	; 0x134
 4b8:	575f4354 			; <UNDEFINED> instruction: 0x575f4354
 4bc:	47464352 	smlsldmi	r4, r6, r2, r3
 4c0:	4c55465f 	mrrcmi	6, 5, r4, r5, cr15
 4c4:	45525f4c 	ldrbmi	r5, [r2, #-3916]	; 0xfffff0b4
 4c8:	00544553 	subseq	r4, r4, r3, asr r5
 4cc:	525f4d50 	subspl	r4, pc, #80, 26	; 0x1400
 4d0:	00435453 	subeq	r5, r3, r3, asr r4
 4d4:	72737063 	rsbsvc	r7, r3, #99, 0	; 0x63
 4d8:	76656400 	strbtvc	r6, [r5], -r0, lsl #8
 4dc:	7261625f 	rsbvc	r6, r1, #-268435451	; 0xf0000005
 4e0:	72656972 	rsbvc	r6, r5, #1867776	; 0x1c8000
 4e4:	6c656400 	cfstrdvs	mvd6, [r5], #-0
 4e8:	735f7961 	cmpvc	pc, #1589248	; 0x184000
 4ec:	2e006365 	cdpcs	3, 0, cr6, cr0, cr5, {3}
 4f0:	6174732f 	cmnvs	r4, pc, lsr #6
 4f4:	732d6666 			; <UNDEFINED> instruction: 0x732d6666
 4f8:	742f6372 	strtvc	r6, [pc], #-882	; 500 <__code_start__-0x7b00>
 4fc:	72656d69 	rsbvc	r6, r5, #6720	; 0x1a40
 500:	4700632e 	strmi	r6, [r0, -lr, lsr #6]
 504:	32335445 	eorscc	r5, r3, #1157627904	; 0x45000000
 508:	6d697400 	cfstrdvs	mvd7, [r9, #-0]
 50c:	675f7265 	ldrbvs	r7, [pc, -r5, ror #4]
 510:	755f7465 	ldrbvc	r7, [pc, #-1125]	; b3 <__code_start__-0x7f4d>
 514:	00636573 	rsbeq	r6, r3, r3, ror r5
 518:	616c6564 	cmnvs	ip, r4, ror #10
 51c:	73755f79 	cmnvc	r5, #484	; 0x1e4
 520:	6d697400 	cfstrdvs	mvd7, [r9, #-0]
 524:	675f7265 	ldrbvs	r7, [pc, -r5, ror #4]
 528:	755f7465 	ldrbvc	r7, [pc, #-1125]	; cb <__code_start__-0x7f35>
 52c:	5f636573 	svcpl	0x00636573
 530:	00776172 	rsbseq	r6, r7, r2, ror r1
 534:	74617473 	strbtvc	r7, [r1], #-1139	; 0xfffffb8d
 538:	72617500 	rsbvc	r7, r1, #0, 10
 53c:	61635f74 	smcvs	13812	; 0x35f4
 540:	65675f6e 	strbvs	r5, [r7, #-3950]!	; 0xfffff092
 544:	47006374 	smlsdxmi	r0, r4, r3, r6
 548:	5f4f4950 	svcpl	0x004f4950
 54c:	434e5546 	movtmi	r5, #58694	; 0xe546
 550:	54554f5f 	ldrbpl	r4, [r5], #-3935	; 0xfffff0a1
 554:	00545550 	subseq	r5, r4, r0, asr r5
 558:	5f787561 	svcpl	0x00787561
 55c:	69726570 	ldmdbvs	r2!, {r4, r5, r6, r8, sl, sp, lr}^
 560:	00736870 	rsbseq	r6, r3, r0, ror r8
 564:	74726175 	ldrbtvc	r6, [r2], #-373	; 0xfffffe8b
 568:	7500632e 	strvc	r6, [r0, #-814]	; 0xfffffcd2
 56c:	5f747261 	svcpl	0x00747261
 570:	5f6e6163 	svcpl	0x006e6163
 574:	63747570 	cmnvs	r4, #112, 10	; 0x1c000000
 578:	6f682f00 	svcvs	0x00682f00
 57c:	652f656d 	strvs	r6, [pc, #-1389]!	; 17 <__code_start__-0x7fe9>
 580:	656c676e 	strbvs	r6, [ip, #-1902]!	; 0xfffff892
 584:	6c632f72 	stclvs	15, cr2, [r3], #-456	; 0xfffffe38
 588:	2f737361 	svccs	0x00737361
 58c:	34317363 	ldrtcc	r7, [r1], #-867	; 0xfffffc9d
 590:	322d6530 	eorcc	r6, sp, #48, 10	; 0xc000000
 594:	72707331 	rsbsvc	r7, r0, #-1006632960	; 0xc4000000
 598:	62696c2f 	rsbvs	r6, r9, #12032	; 0x2f00
 59c:	732f6970 			; <UNDEFINED> instruction: 0x732f6970
 5a0:	66666174 			; <UNDEFINED> instruction: 0x66666174
 5a4:	6972702d 	ldmdbvs	r2!, {r0, r2, r3, r5, ip, sp, lr}^
 5a8:	65746176 	ldrbvs	r6, [r4, #-374]!	; 0xfffffe8a
 5ac:	49504700 	ldmdbmi	r0, {r8, r9, sl, lr}^
 5b0:	55465f4f 	strbpl	r5, [r6, #-3919]	; 0xfffff0b1
 5b4:	415f434e 	cmpmi	pc, lr, asr #6
 5b8:	0030544c 	eorseq	r5, r0, ip, asr #8
 5bc:	4f495047 	svcmi	0x00495047
 5c0:	4e55465f 	mrcmi	6, 2, r4, cr5, cr15, {2}
 5c4:	4c415f43 	mcrrmi	15, 4, r5, r1, cr3
 5c8:	47003154 	smlsdmi	r0, r4, r1, r3
 5cc:	5f4f4950 	svcpl	0x004f4950
 5d0:	434e5546 	movtmi	r5, #58694	; 0xe546
 5d4:	544c415f 	strbpl	r4, [ip], #-351	; 0xfffffea1
 5d8:	50470032 	subpl	r0, r7, r2, lsr r0
 5dc:	465f4f49 	ldrbmi	r4, [pc], -r9, asr #30
 5e0:	5f434e55 	svcpl	0x00434e55
 5e4:	33544c41 	cmpcc	r4, #16640	; 0x4100
 5e8:	49504700 	ldmdbmi	r0, {r8, r9, sl, lr}^
 5ec:	55465f4f 	strbpl	r5, [r6, #-3919]	; 0xfffff0b1
 5f0:	415f434e 	cmpmi	pc, lr, asr #6
 5f4:	0035544c 	eorseq	r5, r5, ip, asr #8
 5f8:	33747570 	cmncc	r4, #112, 10	; 0x1c000000
 5fc:	61620032 	cmnvs	r2, r2, lsr r0
 600:	61006475 	tstvs	r0, r5, ror r4
 604:	655f7875 	ldrbvs	r7, [pc, #-2165]	; fffffd97 <__bss_end__+0xffff61b7>
 608:	6c62616e 	stfvse	f6, [r2], #-440	; 0xfffffe48
 60c:	75007365 	strvc	r7, [r0, #-869]	; 0xfffffc9b
 610:	5f747261 	svcpl	0x00747261
 614:	63746567 	cmnvs	r4, #432013312	; 0x19c00000
 618:	72617500 	rsbvc	r7, r1, #0, 10
 61c:	78745f74 	ldmdavc	r4!, {r2, r4, r5, r6, r8, r9, sl, fp, ip, lr}^
 620:	5f73695f 	svcpl	0x0073695f
 624:	74706d65 	ldrbtvc	r6, [r0], #-3429	; 0xfffff29b
 628:	61620079 	smcvs	8201	; 0x2009
 62c:	765f6475 			; <UNDEFINED> instruction: 0x765f6475
 630:	63006c61 	movwvs	r6, #3169	; 0xc61
 634:	006c746e 	rsbeq	r7, ip, lr, ror #8
 638:	74726175 	ldrbtvc	r6, [r2], #-373	; 0xfffffe8b
 63c:	7361685f 	cmnvc	r1, #6225920	; 0x5f0000
 640:	7461645f 	strbtvc	r6, [r1], #-1119	; 0xfffffba1
 644:	50470061 	subpl	r0, r7, r1, rrx
 648:	465f4f49 	ldrbmi	r4, [pc], -r9, asr #30
 64c:	5f434e55 	svcpl	0x00434e55
 650:	34544c41 	ldrbcc	r4, [r4], #-3137	; 0xfffff3bf
 654:	5f726f00 	svcpl	0x00726f00
 658:	32336e69 	eorscc	r6, r3, #1680	; 0x690
 65c:	72637300 	rsbvc	r7, r3, #0, 6
 660:	68637461 	stmdavs	r3!, {r0, r5, r6, sl, ip, sp, lr}^
 664:	72617500 	rsbvc	r7, r1, #0, 10
 668:	50470074 	subpl	r0, r7, r4, ror r0
 66c:	465f4f49 	ldrbmi	r4, [pc], -r9, asr #30
 670:	5f434e55 	svcpl	0x00434e55
 674:	55504e49 	ldrbpl	r4, [r0, #-3657]	; 0xfffff1b7
 678:	70670054 	rsbvc	r0, r7, r4, asr r0
 67c:	735f6f69 	cmpvc	pc, #420	; 0x1a4
 680:	665f7465 	ldrbvs	r7, [pc], -r5, ror #8
 684:	74636e75 	strbtvc	r6, [r3], #-3701	; 0xfffff18b
 688:	006e6f69 	rsbeq	r6, lr, r9, ror #30
 68c:	33746567 	cmncc	r4, #432013312	; 0x19c00000
 690:	70670032 	rsbvc	r0, r7, r2, lsr r0
 694:	635f6f69 	cmpvs	pc, #420	; 0x1a4
 698:	0030726c 	eorseq	r7, r0, ip, ror #4
 69c:	6f697067 	svcvs	0x00697067
 6a0:	7465735f 	strbtvc	r7, [r5], #-863	; 0xfffffca1
 6a4:	70670030 	rsbvc	r0, r7, r0, lsr r0
 6a8:	775f6f69 	ldrbvc	r6, [pc, -r9, ror #30]
 6ac:	65746972 	ldrbvs	r6, [r4, #-2418]!	; 0xfffff68e
 6b0:	69706700 	ldmdbvs	r0!, {r8, r9, sl, sp, lr}^
 6b4:	73665f6f 	cmnvc	r6, #444	; 0x1bc
 6b8:	00306c65 	eorseq	r6, r0, r5, ror #24
 6bc:	73726966 	cmnvc	r2, #1671168	; 0x198000
 6c0:	69625f74 	stmdbvs	r2!, {r2, r4, r5, r6, r8, r9, sl, fp, ip, lr}^
 6c4:	6f6c5f74 	svcvs	0x006c5f74
 6c8:	69746163 	ldmdbvs	r4!, {r0, r1, r5, r6, r8, sp, lr}^
 6cc:	62006e6f 	andvs	r6, r0, #1776	; 0x6f0
 6d0:	5f737469 	svcpl	0x00737469
 6d4:	775f6f74 			; <UNDEFINED> instruction: 0x775f6f74
 6d8:	65746972 	ldrbvs	r6, [r4, #-2418]!	; 0xfffff68e
 6dc:	73616d00 	cmnvc	r1, #0, 26
 6e0:	5f64656b 	svcpl	0x0064656b
 6e4:	756c6176 	strbvc	r6, [ip, #-374]!	; 0xfffffe8a
 6e8:	70670065 	rsbvc	r0, r7, r5, rrx
 6ec:	725f6f69 	subsvc	r6, pc, #420	; 0x1a4
 6f0:	00646165 	rsbeq	r6, r4, r5, ror #2
 6f4:	72732f2e 	rsbsvc	r2, r3, #184	; 0xb8
 6f8:	70672f63 	rsbvc	r2, r7, r3, ror #30
 6fc:	632e6f69 			; <UNDEFINED> instruction: 0x632e6f69
 700:	69706700 	ldmdbvs	r0!, {r8, r9, sl, sp, lr}^
 704:	65735f6f 	ldrbvs	r5, [r3, #-3951]!	; 0xfffff091
 708:	6e695f74 	mcrvs	15, 3, r5, cr9, cr4, {3}
 70c:	00747570 	rsbseq	r7, r4, r0, ror r5
 710:	6f697067 	svcvs	0x00697067
 714:	7465735f 	strbtvc	r7, [r5], #-863	; 0xfffffca1
 718:	66666f5f 	uqsaxvs	r6, r6, pc	; <UNPREDICTABLE>
 71c:	69706700 	ldmdbvs	r0!, {r8, r9, sl, sp, lr}^
 720:	65735f6f 	ldrbvs	r5, [r3, #-3951]!	; 0xfffff091
 724:	756f5f74 	strbvc	r5, [pc, #-3956]!	; fffff7b8 <__bss_end__+0xffff5bd8>
 728:	74757074 	ldrbtvc	r7, [r5], #-116	; 0xffffff8c
 72c:	69706700 	ldmdbvs	r0!, {r8, r9, sl, sp, lr}^
 730:	75665f6f 	strbvc	r5, [r6, #-3951]!	; 0xfffff091
 734:	745f636e 	ldrbvc	r6, [pc], #-878	; 73c <__code_start__-0x78c4>
 738:	74696200 	strbtvc	r6, [r9], #-512	; 0xfffffe00
 73c:	69620073 	stmdbvs	r2!, {r0, r1, r4, r5, r6}^
 740:	73616d74 	cmnvc	r1, #116, 26	; 0x1d00
 744:	7067006b 	rsbvc	r0, r7, fp, rrx
 748:	735f6f69 	cmpvc	pc, #420	; 0x1a4
 74c:	6f5f7465 	svcvs	0x005f7465
 750:	6564006e 	strbvs	r0, [r4, #-110]!	; 0xffffff92
 754:	2e007473 	mcrcs	4, 0, r7, cr0, cr3, {3}
 758:	62696c2f 	rsbvs	r6, r9, #12032	; 0x2f00
 75c:	74732f63 	ldrbtvc	r2, [r3], #-3939	; 0xfffff09d
 760:	74616372 	strbtvc	r6, [r1], #-882	; 0xfffffc8e
 764:	2e00632e 	cdpcs	3, 0, cr6, cr0, cr14, {1}
 768:	62696c2f 	rsbvs	r6, r9, #12032	; 0x2f00
 76c:	74732f63 	ldrbtvc	r2, [r3], #-3939	; 0xfffff09d
 770:	706d6372 	rsbvc	r6, sp, r2, ror r3
 774:	2e00632e 	cdpcs	3, 0, cr6, cr0, cr14, {1}
 778:	62696c2f 	rsbvs	r6, r9, #12032	; 0x2f00
 77c:	74732f63 	ldrbtvc	r2, [r3], #-3939	; 0xfffff09d
 780:	79706372 	ldmdbvc	r0!, {r1, r4, r5, r6, r8, r9, sp, lr}^
 784:	7300632e 	movwvc	r6, #814	; 0x32e
 788:	5f657a69 	svcpl	0x00657a69
 78c:	2f2e0074 	svccs	0x002e0074
 790:	6362696c 	cmnvs	r2, #108, 18	; 0x1b0000
 794:	7274732f 	rsbsvc	r7, r4, #-1140850688	; 0xbc000000
 798:	706d636e 	rsbvc	r6, sp, lr, ror #6
 79c:	Address 0x000000000000079c is out of bounds.


Disassembly of section .debug_frame:

00000000 <.debug_frame>:
   0:	0000000c 	andeq	r0, r0, ip
   4:	ffffffff 			; <UNDEFINED> instruction: 0xffffffff
   8:	7c020001 	stcvc	0, cr0, [r2], {1}
   c:	000d0c0e 	andeq	r0, sp, lr, lsl #24
  10:	0000001c 	andeq	r0, r0, ip, lsl r0
  14:	00000000 	andeq	r0, r0, r0
  18:	00008020 	andeq	r8, r0, r0, lsr #32
  1c:	0000027c 	andeq	r0, r0, ip, ror r2
  20:	84140e42 	ldrhi	r0, [r4], #-3650	; 0xfffff1be
  24:	86048505 	strhi	r8, [r4], -r5, lsl #10
  28:	8e028703 	cdphi	7, 0, cr8, cr2, cr3, {0}
  2c:	280e4201 	stmdacs	lr, {r0, r9, lr}
  30:	0000000c 	andeq	r0, r0, ip
  34:	ffffffff 			; <UNDEFINED> instruction: 0xffffffff
  38:	7c020001 	stcvc	0, cr0, [r2], {1}
  3c:	000d0c0e 	andeq	r0, sp, lr, lsl #24
  40:	0000001c 	andeq	r0, r0, ip, lsl r0
  44:	00000030 	andeq	r0, r0, r0, lsr r0
  48:	0000829c 	muleq	r0, ip, r2
  4c:	000000d0 	ldrdeq	r0, [r0], -r0	; <UNPREDICTABLE>
  50:	8e040e42 	cdphi	14, 0, cr0, cr4, cr2, {2}
  54:	100e4201 	andne	r4, lr, r1, lsl #4
  58:	040e0a5e 	streq	r0, [lr], #-2654	; 0xfffff5a2
  5c:	00000b42 	andeq	r0, r0, r2, asr #22
  60:	0000001c 	andeq	r0, r0, ip, lsl r0
  64:	00000030 	andeq	r0, r0, r0, lsr r0
  68:	0000836c 	andeq	r8, r0, ip, ror #6
  6c:	0000010c 	andeq	r0, r0, ip, lsl #2
  70:	8e040e42 	cdphi	14, 0, cr0, cr4, cr2, {2}
  74:	100e4201 	andne	r4, lr, r1, lsl #4
  78:	040e0a62 	streq	r0, [lr], #-2658	; 0xfffff59e
  7c:	00000b42 	andeq	r0, r0, r2, asr #22
  80:	00000014 	andeq	r0, r0, r4, lsl r0
  84:	00000030 	andeq	r0, r0, r0, lsr r0
  88:	00008478 	andeq	r8, r0, r8, ror r4
  8c:	0000004c 	andeq	r0, r0, ip, asr #32
  90:	84080e4a 	strhi	r0, [r8], #-3658	; 0xfffff1b6
  94:	00018e02 	andeq	r8, r1, r2, lsl #28
  98:	0000001c 	andeq	r0, r0, ip, lsl r0
  9c:	00000030 	andeq	r0, r0, r0, lsr r0
  a0:	000084c4 	andeq	r8, r0, r4, asr #9
  a4:	00000084 	andeq	r0, r0, r4, lsl #1
  a8:	8e040e42 	cdphi	14, 0, cr0, cr4, cr2, {2}
  ac:	100e4201 	andne	r4, lr, r1, lsl #4
  b0:	040e0a5c 	streq	r0, [lr], #-2652	; 0xfffff5a4
  b4:	00000b42 	andeq	r0, r0, r2, asr #22
  b8:	00000014 	andeq	r0, r0, r4, lsl r0
  bc:	00000030 	andeq	r0, r0, r0, lsr r0
  c0:	00008548 	andeq	r8, r0, r8, asr #10
  c4:	00000028 	andeq	r0, r0, r8, lsr #32
  c8:	84080e42 	strhi	r0, [r8], #-3650	; 0xfffff1be
  cc:	00018e02 	andeq	r8, r1, r2, lsl #28
  d0:	00000014 	andeq	r0, r0, r4, lsl r0
  d4:	00000030 	andeq	r0, r0, r0, lsr r0
  d8:	00008570 	andeq	r8, r0, r0, ror r5
  dc:	00000028 	andeq	r0, r0, r8, lsr #32
  e0:	84080e42 	strhi	r0, [r8], #-3650	; 0xfffff1be
  e4:	00018e02 	andeq	r8, r1, r2, lsl #28
  e8:	0000000c 	andeq	r0, r0, ip
  ec:	ffffffff 			; <UNDEFINED> instruction: 0xffffffff
  f0:	7c020001 	stcvc	0, cr0, [r2], {1}
  f4:	000d0c0e 	andeq	r0, sp, lr, lsl #24
  f8:	00000034 	andeq	r0, r0, r4, lsr r0
  fc:	000000e8 	andeq	r0, r0, r8, ror #1
 100:	00008598 	muleq	r0, r8, r5
 104:	00000058 	andeq	r0, r0, r8, asr r0
 108:	80100e42 	andshi	r0, r0, r2, asr #28
 10c:	82038104 	andhi	r8, r3, #1
 110:	42018302 	andmi	r8, r1, #134217728	; 0x8000000
 114:	07841c0e 	streq	r1, [r4, lr, lsl #24]
 118:	058e0685 	streq	r0, [lr, #1669]	; 0x685
 11c:	5c280e42 	stcpl	14, cr0, [r8], #-264	; 0xfffffef8
 120:	ce421c0e 	cdpgt	12, 4, cr1, cr2, cr14, {0}
 124:	100ec4c5 	andne	ip, lr, r5, asr #9
 128:	c1c2c342 	bicgt	ip, r2, r2, asr #6
 12c:	00000ec0 	andeq	r0, r0, r0, asr #29
 130:	0000000c 	andeq	r0, r0, ip
 134:	ffffffff 			; <UNDEFINED> instruction: 0xffffffff
 138:	7c020001 	stcvc	0, cr0, [r2], {1}
 13c:	000d0c0e 	andeq	r0, sp, lr, lsl #24
 140:	00000014 	andeq	r0, r0, r4, lsl r0
 144:	00000130 	andeq	r0, r0, r0, lsr r1
 148:	000085f0 	strdeq	r8, [r0], -r0
 14c:	00000014 	andeq	r0, r0, r4, lsl r0
 150:	84080e42 	strhi	r0, [r8], #-3650	; 0xfffff1be
 154:	00018e02 	andeq	r8, r1, r2, lsl #28
 158:	0000000c 	andeq	r0, r0, ip
 15c:	00000130 	andeq	r0, r0, r0, lsr r1
 160:	00008604 	andeq	r8, r0, r4, lsl #12
 164:	00000018 	andeq	r0, r0, r8, lsl r0
 168:	0000000c 	andeq	r0, r0, ip
 16c:	00000130 	andeq	r0, r0, r0, lsr r1
 170:	0000861c 	andeq	r8, r0, ip, lsl r6
 174:	00000010 	andeq	r0, r0, r0, lsl r0
 178:	0000000c 	andeq	r0, r0, ip
 17c:	ffffffff 			; <UNDEFINED> instruction: 0xffffffff
 180:	7c020001 	stcvc	0, cr0, [r2], {1}
 184:	000d0c0e 	andeq	r0, sp, lr, lsl #24
 188:	00000014 	andeq	r0, r0, r4, lsl r0
 18c:	00000178 	andeq	r0, r0, r8, ror r1
 190:	0000862c 	andeq	r8, r0, ip, lsr #12
 194:	00000034 	andeq	r0, r0, r4, lsr r0
 198:	84080e42 	strhi	r0, [r8], #-3650	; 0xfffff1be
 19c:	00018e02 	andeq	r8, r1, r2, lsl #28
 1a0:	0000000c 	andeq	r0, r0, ip
 1a4:	ffffffff 			; <UNDEFINED> instruction: 0xffffffff
 1a8:	7c020001 	stcvc	0, cr0, [r2], {1}
 1ac:	000d0c0e 	andeq	r0, sp, lr, lsl #24
 1b0:	0000000c 	andeq	r0, r0, ip
 1b4:	000001a0 	andeq	r0, r0, r0, lsr #3
 1b8:	00008660 	andeq	r8, r0, r0, ror #12
 1bc:	00000014 	andeq	r0, r0, r4, lsl r0
 1c0:	0000000c 	andeq	r0, r0, ip
 1c4:	000001a0 	andeq	r0, r0, r0, lsr #3
 1c8:	00008674 	andeq	r8, r0, r4, ror r6
 1cc:	00000024 	andeq	r0, r0, r4, lsr #32
 1d0:	0000000c 	andeq	r0, r0, ip
 1d4:	000001a0 	andeq	r0, r0, r0, lsr #3
 1d8:	00008698 	muleq	r0, r8, r6
 1dc:	00000038 	andeq	r0, r0, r8, lsr r0
 1e0:	00000024 	andeq	r0, r0, r4, lsr #32
 1e4:	000001a0 	andeq	r0, r0, r0, lsr #3
 1e8:	000086d0 	ldrdeq	r8, [r0], -r0
 1ec:	000001b4 			; <UNDEFINED> instruction: 0x000001b4
 1f0:	84140e42 	ldrhi	r0, [r4], #-3650	; 0xfffff1be
 1f4:	86048505 	strhi	r8, [r4], -r5, lsl #10
 1f8:	8e028703 	cdphi	7, 0, cr8, cr2, cr3, {0}
 1fc:	600e4201 	andvs	r4, lr, r1, lsl #4
 200:	0e0a9a02 	vmlaeq.f32	s18, s20, s4
 204:	000b4214 	andeq	r4, fp, r4, lsl r2
 208:	00000014 	andeq	r0, r0, r4, lsl r0
 20c:	000001a0 	andeq	r0, r0, r0, lsr #3
 210:	00008884 	andeq	r8, r0, r4, lsl #17
 214:	00000064 	andeq	r0, r0, r4, rrx
 218:	8e040e54 	mcrhi	14, 0, r0, cr4, cr4, {2}
 21c:	100e4201 	andne	r4, lr, r1, lsl #4
 220:	0000002c 	andeq	r0, r0, ip, lsr #32
 224:	000001a0 	andeq	r0, r0, r0, lsr #3
 228:	000088e8 	andeq	r8, r0, r8, ror #17
 22c:	00000498 	muleq	r0, r8, r4
 230:	84240e42 	strthi	r0, [r4], #-3650	; 0xfffff1be
 234:	86088509 	strhi	r8, [r8], -r9, lsl #10
 238:	88068707 	stmdahi	r6, {r0, r1, r2, r8, r9, sl, pc}
 23c:	8a048905 	bhi	122658 <__bss_end__+0x118a78>
 240:	8e028b03 	vmlahi.f64	d8, d2, d3
 244:	b80e4201 	stmdalt	lr, {r0, r9, lr}
 248:	022c0302 	eoreq	r0, ip, #134217728	; 0x8000000
 24c:	0000240e 	andeq	r2, r0, lr, lsl #8
 250:	0000000c 	andeq	r0, r0, ip
 254:	ffffffff 			; <UNDEFINED> instruction: 0xffffffff
 258:	7c020001 	stcvc	0, cr0, [r2], {1}
 25c:	000d0c0e 	andeq	r0, sp, lr, lsl #24
 260:	00000014 	andeq	r0, r0, r4, lsl r0
 264:	00000250 	andeq	r0, r0, r0, asr r2
 268:	00008d80 	andeq	r8, r0, r0, lsl #27
 26c:	0000002c 	andeq	r0, r0, ip, lsr #32
 270:	84080e42 	strhi	r0, [r8], #-3650	; 0xfffff1be
 274:	00018e02 	andeq	r8, r1, r2, lsl #28
 278:	0000000c 	andeq	r0, r0, ip
 27c:	ffffffff 			; <UNDEFINED> instruction: 0xffffffff
 280:	7c020001 	stcvc	0, cr0, [r2], {1}
 284:	000d0c0e 	andeq	r0, sp, lr, lsl #24
 288:	00000014 	andeq	r0, r0, r4, lsl r0
 28c:	00000278 	andeq	r0, r0, r8, ror r2
 290:	00008dac 	andeq	r8, r0, ip, lsr #27
 294:	0000002c 	andeq	r0, r0, ip, lsr #32
 298:	84080e42 	strhi	r0, [r8], #-3650	; 0xfffff1be
 29c:	00018e02 	andeq	r8, r1, r2, lsl #28
 2a0:	0000000c 	andeq	r0, r0, ip
 2a4:	ffffffff 			; <UNDEFINED> instruction: 0xffffffff
 2a8:	7c020001 	stcvc	0, cr0, [r2], {1}
 2ac:	000d0c0e 	andeq	r0, sp, lr, lsl #24
 2b0:	0000000c 	andeq	r0, r0, ip
 2b4:	000002a0 	andeq	r0, r0, r0, lsr #5
 2b8:	00008dd8 	ldrdeq	r8, [r0], -r8	; <UNPREDICTABLE>
 2bc:	00000018 	andeq	r0, r0, r8, lsl r0
 2c0:	0000000c 	andeq	r0, r0, ip
 2c4:	000002a0 	andeq	r0, r0, r0, lsr #5
 2c8:	00008df0 	strdeq	r8, [r0], -r0
 2cc:	00000014 	andeq	r0, r0, r4, lsl r0
 2d0:	00000014 	andeq	r0, r0, r4, lsl r0
 2d4:	000002a0 	andeq	r0, r0, r0, lsr #5
 2d8:	00008e04 	andeq	r8, r0, r4, lsl #28
 2dc:	00000050 	andeq	r0, r0, r0, asr r0
 2e0:	84080e42 	strhi	r0, [r8], #-3650	; 0xfffff1be
 2e4:	00018e02 	andeq	r8, r1, r2, lsl #28
 2e8:	0000000c 	andeq	r0, r0, ip
 2ec:	ffffffff 			; <UNDEFINED> instruction: 0xffffffff
 2f0:	7c020001 	stcvc	0, cr0, [r2], {1}
 2f4:	000d0c0e 	andeq	r0, sp, lr, lsl #24
 2f8:	00000014 	andeq	r0, r0, r4, lsl r0
 2fc:	000002e8 	andeq	r0, r0, r8, ror #5
 300:	00008e54 	andeq	r8, r0, r4, asr lr
 304:	00000014 	andeq	r0, r0, r4, lsl r0
 308:	84080e42 	strhi	r0, [r8], #-3650	; 0xfffff1be
 30c:	00018e02 	andeq	r8, r1, r2, lsl #28
 310:	00000014 	andeq	r0, r0, r4, lsl r0
 314:	000002e8 	andeq	r0, r0, r8, ror #5
 318:	00008e68 	andeq	r8, r0, r8, ror #28
 31c:	0000001c 	andeq	r0, r0, ip, lsl r0
 320:	84080e42 	strhi	r0, [r8], #-3650	; 0xfffff1be
 324:	00018e02 	andeq	r8, r1, r2, lsl #28
 328:	00000018 	andeq	r0, r0, r8, lsl r0
 32c:	000002e8 	andeq	r0, r0, r8, ror #5
 330:	00008e84 	andeq	r8, r0, r4, lsl #29
 334:	00000024 	andeq	r0, r0, r4, lsr #32
 338:	84100e42 	ldrhi	r0, [r0], #-3650	; 0xfffff1be
 33c:	86038504 	strhi	r8, [r3], -r4, lsl #10
 340:	00018e02 	andeq	r8, r1, r2, lsl #28
 344:	00000014 	andeq	r0, r0, r4, lsl r0
 348:	000002e8 	andeq	r0, r0, r8, ror #5
 34c:	00008ea8 	andeq	r8, r0, r8, lsr #29
 350:	00000018 	andeq	r0, r0, r8, lsl r0
 354:	84080e42 	strhi	r0, [r8], #-3650	; 0xfffff1be
 358:	00018e02 	andeq	r8, r1, r2, lsl #28
 35c:	00000014 	andeq	r0, r0, r4, lsl r0
 360:	000002e8 	andeq	r0, r0, r8, ror #5
 364:	00008ec0 	andeq	r8, r0, r0, asr #29
 368:	00000018 	andeq	r0, r0, r8, lsl r0
 36c:	84080e42 	strhi	r0, [r8], #-3650	; 0xfffff1be
 370:	00018e02 	andeq	r8, r1, r2, lsl #28
 374:	0000000c 	andeq	r0, r0, ip
 378:	ffffffff 			; <UNDEFINED> instruction: 0xffffffff
 37c:	7c020001 	stcvc	0, cr0, [r2], {1}
 380:	000d0c0e 	andeq	r0, sp, lr, lsl #24
 384:	00000018 	andeq	r0, r0, r8, lsl r0
 388:	00000374 	andeq	r0, r0, r4, ror r3
 38c:	00008ed8 	ldrdeq	r8, [r0], -r8	; <UNPREDICTABLE>
 390:	00000020 	andeq	r0, r0, r0, lsr #32
 394:	84100e42 	ldrhi	r0, [r0], #-3650	; 0xfffff1be
 398:	86038504 	strhi	r8, [r3], -r4, lsl #10
 39c:	00018e02 	andeq	r8, r1, r2, lsl #28
 3a0:	00000014 	andeq	r0, r0, r4, lsl r0
 3a4:	00000374 	andeq	r0, r0, r4, ror r3
 3a8:	00008ef8 	strdeq	r8, [r0], -r8	; <UNPREDICTABLE>
 3ac:	000000b0 	strheq	r0, [r0], -r0	; <UNPREDICTABLE>
 3b0:	84080e42 	strhi	r0, [r8], #-3650	; 0xfffff1be
 3b4:	00018e02 	andeq	r8, r1, r2, lsl #28
 3b8:	00000014 	andeq	r0, r0, r4, lsl r0
 3bc:	00000374 	andeq	r0, r0, r4, ror r3
 3c0:	00008fa8 	andeq	r8, r0, r8, lsr #31
 3c4:	00000018 	andeq	r0, r0, r8, lsl r0
 3c8:	84080e42 	strhi	r0, [r8], #-3650	; 0xfffff1be
 3cc:	00018e02 	andeq	r8, r1, r2, lsl #28
 3d0:	00000014 	andeq	r0, r0, r4, lsl r0
 3d4:	00000374 	andeq	r0, r0, r4, ror r3
 3d8:	00008fc0 	andeq	r8, r0, r0, asr #31
 3dc:	00000020 	andeq	r0, r0, r0, lsr #32
 3e0:	84080e42 	strhi	r0, [r8], #-3650	; 0xfffff1be
 3e4:	00018e02 	andeq	r8, r1, r2, lsl #28
 3e8:	00000014 	andeq	r0, r0, r4, lsl r0
 3ec:	00000374 	andeq	r0, r0, r4, ror r3
 3f0:	00008fe0 	andeq	r8, r0, r0, ror #31
 3f4:	00000030 	andeq	r0, r0, r0, lsr r0
 3f8:	84080e42 	strhi	r0, [r8], #-3650	; 0xfffff1be
 3fc:	00018e02 	andeq	r8, r1, r2, lsl #28
 400:	00000014 	andeq	r0, r0, r4, lsl r0
 404:	00000374 	andeq	r0, r0, r4, ror r3
 408:	00009010 	andeq	r9, r0, r0, lsl r0
 40c:	00000030 	andeq	r0, r0, r0, lsr r0
 410:	84080e42 	strhi	r0, [r8], #-3650	; 0xfffff1be
 414:	00018e02 	andeq	r8, r1, r2, lsl #28
 418:	00000014 	andeq	r0, r0, r4, lsl r0
 41c:	00000374 	andeq	r0, r0, r4, ror r3
 420:	00009040 	andeq	r9, r0, r0, asr #32
 424:	00000010 	andeq	r0, r0, r0, lsl r0
 428:	84080e42 	strhi	r0, [r8], #-3650	; 0xfffff1be
 42c:	00018e02 	andeq	r8, r1, r2, lsl #28
 430:	00000014 	andeq	r0, r0, r4, lsl r0
 434:	00000374 	andeq	r0, r0, r4, ror r3
 438:	00009050 	andeq	r9, r0, r0, asr r0
 43c:	00000020 	andeq	r0, r0, r0, lsr #32
 440:	84080e42 	strhi	r0, [r8], #-3650	; 0xfffff1be
 444:	00018e02 	andeq	r8, r1, r2, lsl #28
 448:	00000014 	andeq	r0, r0, r4, lsl r0
 44c:	00000374 	andeq	r0, r0, r4, ror r3
 450:	00009070 	andeq	r9, r0, r0, ror r0
 454:	00000014 	andeq	r0, r0, r4, lsl r0
 458:	84080e42 	strhi	r0, [r8], #-3650	; 0xfffff1be
 45c:	00018e02 	andeq	r8, r1, r2, lsl #28
 460:	0000000c 	andeq	r0, r0, ip
 464:	ffffffff 			; <UNDEFINED> instruction: 0xffffffff
 468:	7c020001 	stcvc	0, cr0, [r2], {1}
 46c:	000d0c0e 	andeq	r0, sp, lr, lsl #24
 470:	0000001c 	andeq	r0, r0, ip, lsl r0
 474:	00000460 	andeq	r0, r0, r0, ror #8
 478:	00009084 	andeq	r9, r0, r4, lsl #1
 47c:	0000005c 	andeq	r0, r0, ip, asr r0
 480:	84180e46 	ldrhi	r0, [r8], #-3654	; 0xfffff1ba
 484:	86058506 	strhi	r8, [r5], -r6, lsl #10
 488:	88038704 	stmdahi	r3, {r2, r8, r9, sl, pc}
 48c:	00018e02 	andeq	r8, r1, r2, lsl #28
 490:	00000014 	andeq	r0, r0, r4, lsl r0
 494:	00000460 	andeq	r0, r0, r0, ror #8
 498:	000090e0 	andeq	r9, r0, r0, ror #1
 49c:	00000024 	andeq	r0, r0, r4, lsr #32
 4a0:	84080e46 	strhi	r0, [r8], #-3654	; 0xfffff1ba
 4a4:	00018e02 	andeq	r8, r1, r2, lsl #28
 4a8:	00000014 	andeq	r0, r0, r4, lsl r0
 4ac:	00000460 	andeq	r0, r0, r0, ror #8
 4b0:	00009104 	andeq	r9, r0, r4, lsl #2
 4b4:	00000024 	andeq	r0, r0, r4, lsr #32
 4b8:	84080e46 	strhi	r0, [r8], #-3654	; 0xfffff1ba
 4bc:	00018e02 	andeq	r8, r1, r2, lsl #28
 4c0:	00000014 	andeq	r0, r0, r4, lsl r0
 4c4:	00000460 	andeq	r0, r0, r0, ror #8
 4c8:	00009128 	andeq	r9, r0, r8, lsr #2
 4cc:	0000001c 	andeq	r0, r0, ip, lsl r0
 4d0:	84080e42 	strhi	r0, [r8], #-3650	; 0xfffff1be
 4d4:	00018e02 	andeq	r8, r1, r2, lsl #28
 4d8:	0000001c 	andeq	r0, r0, ip, lsl r0
 4dc:	00000460 	andeq	r0, r0, r0, ror #8
 4e0:	00009144 	andeq	r9, r0, r4, asr #2
 4e4:	00000054 	andeq	r0, r0, r4, asr r0
 4e8:	84180e46 	ldrhi	r0, [r8], #-3654	; 0xfffff1ba
 4ec:	86058506 	strhi	r8, [r5], -r6, lsl #10
 4f0:	88038704 	stmdahi	r3, {r2, r8, r9, sl, pc}
 4f4:	00018e02 	andeq	r8, r1, r2, lsl #28
 4f8:	00000014 	andeq	r0, r0, r4, lsl r0
 4fc:	00000460 	andeq	r0, r0, r0, ror #8
 500:	00009198 	muleq	r0, r8, r1
 504:	00000038 	andeq	r0, r0, r8, lsr r0
 508:	84080e4a 	strhi	r0, [r8], #-3658	; 0xfffff1b6
 50c:	00018e02 	andeq	r8, r1, r2, lsl #28
 510:	0000001c 	andeq	r0, r0, ip, lsl r0
 514:	00000460 	andeq	r0, r0, r0, ror #8
 518:	000091d0 	ldrdeq	r9, [r0], -r0
 51c:	00000060 	andeq	r0, r0, r0, rrx
 520:	84180e48 	ldrhi	r0, [r8], #-3656	; 0xfffff1b8
 524:	86058506 	strhi	r8, [r5], -r6, lsl #10
 528:	88038704 	stmdahi	r3, {r2, r8, r9, sl, pc}
 52c:	00018e02 	andeq	r8, r1, r2, lsl #28
 530:	0000000c 	andeq	r0, r0, ip
 534:	ffffffff 			; <UNDEFINED> instruction: 0xffffffff
 538:	7c020001 	stcvc	0, cr0, [r2], {1}
 53c:	000d0c0e 	andeq	r0, sp, lr, lsl #24
 540:	0000000c 	andeq	r0, r0, ip
 544:	00000530 	andeq	r0, r0, r0, lsr r5
 548:	00009230 	andeq	r9, r0, r0, lsr r2
 54c:	00000034 	andeq	r0, r0, r4, lsr r0
 550:	0000000c 	andeq	r0, r0, ip
 554:	ffffffff 			; <UNDEFINED> instruction: 0xffffffff
 558:	7c020001 	stcvc	0, cr0, [r2], {1}
 55c:	000d0c0e 	andeq	r0, sp, lr, lsl #24
 560:	0000000c 	andeq	r0, r0, ip
 564:	00000550 	andeq	r0, r0, r0, asr r5
 568:	00009264 	andeq	r9, r0, r4, ror #4
 56c:	0000002c 	andeq	r0, r0, ip, lsr #32
 570:	0000000c 	andeq	r0, r0, ip
 574:	ffffffff 			; <UNDEFINED> instruction: 0xffffffff
 578:	7c020001 	stcvc	0, cr0, [r2], {1}
 57c:	000d0c0e 	andeq	r0, sp, lr, lsl #24
 580:	0000000c 	andeq	r0, r0, ip
 584:	00000570 	andeq	r0, r0, r0, ror r5
 588:	00009290 	muleq	r0, r0, r2
 58c:	00000020 	andeq	r0, r0, r0, lsr #32
 590:	0000000c 	andeq	r0, r0, ip
 594:	ffffffff 			; <UNDEFINED> instruction: 0xffffffff
 598:	7c020001 	stcvc	0, cr0, [r2], {1}
 59c:	000d0c0e 	andeq	r0, sp, lr, lsl #24
 5a0:	0000000c 	andeq	r0, r0, ip
 5a4:	00000590 	muleq	r0, r0, r5
 5a8:	000092b0 			; <UNDEFINED> instruction: 0x000092b0
 5ac:	0000002c 	andeq	r0, r0, ip, lsr #32
